
bd/src/aha-mont64/aha-mont64:     file format elf32-littleriscv


Disassembly of section .init:

00000000 <_start>:
   0:	00000013          	nop
   4:	00000033          	add	zero,zero,zero
   8:	000000b3          	add	ra,zero,zero
   c:	00000133          	add	sp,zero,zero
  10:	000001b3          	add	gp,zero,zero
  14:	00000233          	add	tp,zero,zero
  18:	000002b3          	add	t0,zero,zero
  1c:	00000333          	add	t1,zero,zero
  20:	000003b3          	add	t2,zero,zero
  24:	00000433          	add	s0,zero,zero
  28:	000004b3          	add	s1,zero,zero
  2c:	00000533          	add	a0,zero,zero
  30:	000005b3          	add	a1,zero,zero
  34:	00000633          	add	a2,zero,zero
  38:	000006b3          	add	a3,zero,zero
  3c:	00000733          	add	a4,zero,zero
  40:	000007b3          	add	a5,zero,zero
  44:	00000833          	add	a6,zero,zero
  48:	000008b3          	add	a7,zero,zero
  4c:	00000933          	add	s2,zero,zero
  50:	000009b3          	add	s3,zero,zero
  54:	00000a33          	add	s4,zero,zero
  58:	00000ab3          	add	s5,zero,zero
  5c:	00000b33          	add	s6,zero,zero
  60:	00000bb3          	add	s7,zero,zero
  64:	00000c33          	add	s8,zero,zero
  68:	00000cb3          	add	s9,zero,zero
  6c:	00000d33          	add	s10,zero,zero
  70:	00000db3          	add	s11,zero,zero
  74:	00000e33          	add	t3,zero,zero
  78:	00000eb3          	add	t4,zero,zero
  7c:	00000f33          	add	t5,zero,zero
  80:	00000fb3          	add	t6,zero,zero
  84:	00010137          	lui	sp,0x10
  88:	2cc0106f          	j	1354 <main>
  8c:	00000013          	nop

Disassembly of section .text:

00000090 <mulul64>:
      90:	fd010113          	addi	sp,sp,-48 # ffd0 <TOHOST_ADDR+0xebb0>
      94:	01312e23          	sw	s3,28(sp)
      98:	01412c23          	sw	s4,24(sp)
      9c:	00058993          	mv	s3,a1
      a0:	00068a13          	mv	s4,a3
      a4:	00000593          	li	a1,0
      a8:	00000693          	li	a3,0
      ac:	02112623          	sw	ra,44(sp)
      b0:	02812423          	sw	s0,40(sp)
      b4:	02912223          	sw	s1,36(sp)
      b8:	03212023          	sw	s2,32(sp)
      bc:	01512a23          	sw	s5,20(sp)
      c0:	01612823          	sw	s6,16(sp)
      c4:	01712623          	sw	s7,12(sp)
      c8:	00078a93          	mv	s5,a5
      cc:	00070913          	mv	s2,a4
      d0:	00060413          	mv	s0,a2
      d4:	00050b93          	mv	s7,a0
      d8:	05c010ef          	jal	ra,1134 <__muldi3>
      dc:	00050b13          	mv	s6,a0
      e0:	00040613          	mv	a2,s0
      e4:	00058493          	mv	s1,a1
      e8:	00000693          	li	a3,0
      ec:	00098513          	mv	a0,s3
      f0:	00000593          	li	a1,0
      f4:	040010ef          	jal	ra,1134 <__muldi3>
      f8:	009504b3          	add	s1,a0,s1
      fc:	00a4b533          	sltu	a0,s1,a0
     100:	00b50433          	add	s0,a0,a1
     104:	000a0613          	mv	a2,s4
     108:	00000693          	li	a3,0
     10c:	000b8513          	mv	a0,s7
     110:	00000593          	li	a1,0
     114:	020010ef          	jal	ra,1134 <__muldi3>
     118:	009506b3          	add	a3,a0,s1
     11c:	00a6b533          	sltu	a0,a3,a0
     120:	00b504b3          	add	s1,a0,a1
     124:	016aa023          	sw	s6,0(s5)
     128:	00daa223          	sw	a3,4(s5)
     12c:	000a0613          	mv	a2,s4
     130:	00000693          	li	a3,0
     134:	00098513          	mv	a0,s3
     138:	00000593          	li	a1,0
     13c:	7f9000ef          	jal	ra,1134 <__muldi3>
     140:	008507b3          	add	a5,a0,s0
     144:	009786b3          	add	a3,a5,s1
     148:	00a7b533          	sltu	a0,a5,a0
     14c:	02c12083          	lw	ra,44(sp)
     150:	02812403          	lw	s0,40(sp)
     154:	00b50533          	add	a0,a0,a1
     158:	00f6b7b3          	sltu	a5,a3,a5
     15c:	00a787b3          	add	a5,a5,a0
     160:	00d92023          	sw	a3,0(s2)
     164:	00f92223          	sw	a5,4(s2)
     168:	02412483          	lw	s1,36(sp)
     16c:	02012903          	lw	s2,32(sp)
     170:	01c12983          	lw	s3,28(sp)
     174:	01812a03          	lw	s4,24(sp)
     178:	01412a83          	lw	s5,20(sp)
     17c:	01012b03          	lw	s6,16(sp)
     180:	00c12b83          	lw	s7,12(sp)
     184:	03010113          	addi	sp,sp,48
     188:	00008067          	ret

0000018c <modul64>:
     18c:	ff010113          	addi	sp,sp,-16
     190:	00812623          	sw	s0,12(sp)
     194:	00000e13          	li	t3,0
     198:	04000293          	li	t0,64
     19c:	01f55893          	srli	a7,a0,0x1f
     1a0:	00159813          	slli	a6,a1,0x1
     1a4:	0108e833          	or	a6,a7,a6
     1a8:	41f5d313          	srai	t1,a1,0x1f
     1ac:	01f65e93          	srli	t4,a2,0x1f
     1b0:	01f6df13          	srli	t5,a3,0x1f
     1b4:	00169893          	slli	a7,a3,0x1
     1b8:	00151513          	slli	a0,a0,0x1
     1bc:	011ee8b3          	or	a7,t4,a7
     1c0:	00af6533          	or	a0,t5,a0
     1c4:	01036eb3          	or	t4,t1,a6
     1c8:	00080593          	mv	a1,a6
     1cc:	001e0e13          	addi	t3,t3,1
     1d0:	00161613          	slli	a2,a2,0x1
     1d4:	00a36333          	or	t1,t1,a0
     1d8:	00088693          	mv	a3,a7
     1dc:	02fee863          	bltu	t4,a5,20c <modul64+0x80>
     1e0:	40e50fb3          	sub	t6,a0,a4
     1e4:	00160f13          	addi	t5,a2,1
     1e8:	01f53433          	sltu	s0,a0,t6
     1ec:	00cf33b3          	sltu	t2,t5,a2
     1f0:	40f80833          	sub	a6,a6,a5
     1f4:	01d79463          	bne	a5,t4,1fc <modul64+0x70>
     1f8:	00e36a63          	bltu	t1,a4,20c <modul64+0x80>
     1fc:	000f8513          	mv	a0,t6
     200:	408805b3          	sub	a1,a6,s0
     204:	000f0613          	mv	a2,t5
     208:	011386b3          	add	a3,t2,a7
     20c:	f85e18e3          	bne	t3,t0,19c <modul64+0x10>
     210:	00c12403          	lw	s0,12(sp)
     214:	01010113          	addi	sp,sp,16
     218:	00008067          	ret

0000021c <montmul>:
     21c:	fd010113          	addi	sp,sp,-48
     220:	01512a23          	sw	s5,20(sp)
     224:	01712623          	sw	s7,12(sp)
     228:	00058a93          	mv	s5,a1
     22c:	00068b93          	mv	s7,a3
     230:	00000593          	li	a1,0
     234:	00000693          	li	a3,0
     238:	02112623          	sw	ra,44(sp)
     23c:	02812423          	sw	s0,40(sp)
     240:	02912223          	sw	s1,36(sp)
     244:	00070413          	mv	s0,a4
     248:	00078493          	mv	s1,a5
     24c:	03212023          	sw	s2,32(sp)
     250:	01312e23          	sw	s3,28(sp)
     254:	00060913          	mv	s2,a2
     258:	01412c23          	sw	s4,24(sp)
     25c:	01612823          	sw	s6,16(sp)
     260:	01812423          	sw	s8,8(sp)
     264:	00050b13          	mv	s6,a0
     268:	00080c13          	mv	s8,a6
     26c:	01912223          	sw	s9,4(sp)
     270:	01a12023          	sw	s10,0(sp)
     274:	00088c93          	mv	s9,a7
     278:	6bd000ef          	jal	ra,1134 <__muldi3>
     27c:	00050a13          	mv	s4,a0
     280:	00090613          	mv	a2,s2
     284:	00058993          	mv	s3,a1
     288:	00000693          	li	a3,0
     28c:	000a8513          	mv	a0,s5
     290:	00000593          	li	a1,0
     294:	6a1000ef          	jal	ra,1134 <__muldi3>
     298:	013509b3          	add	s3,a0,s3
     29c:	00a9b533          	sltu	a0,s3,a0
     2a0:	00b50933          	add	s2,a0,a1
     2a4:	000b8613          	mv	a2,s7
     2a8:	00000693          	li	a3,0
     2ac:	000b0513          	mv	a0,s6
     2b0:	00000593          	li	a1,0
     2b4:	681000ef          	jal	ra,1134 <__muldi3>
     2b8:	013509b3          	add	s3,a0,s3
     2bc:	00a9bb33          	sltu	s6,s3,a0
     2c0:	000b8613          	mv	a2,s7
     2c4:	00bb0b33          	add	s6,s6,a1
     2c8:	00000693          	li	a3,0
     2cc:	000a8513          	mv	a0,s5
     2d0:	00000593          	li	a1,0
     2d4:	661000ef          	jal	ra,1134 <__muldi3>
     2d8:	00a90533          	add	a0,s2,a0
     2dc:	01650b33          	add	s6,a0,s6
     2e0:	01253933          	sltu	s2,a0,s2
     2e4:	00ab37b3          	sltu	a5,s6,a0
     2e8:	00b90933          	add	s2,s2,a1
     2ec:	00098693          	mv	a3,s3
     2f0:	000a0613          	mv	a2,s4
     2f4:	000c0513          	mv	a0,s8
     2f8:	000c8593          	mv	a1,s9
     2fc:	01278cb3          	add	s9,a5,s2
     300:	635000ef          	jal	ra,1134 <__muldi3>
     304:	00058c13          	mv	s8,a1
     308:	00040613          	mv	a2,s0
     30c:	00000693          	li	a3,0
     310:	00000593          	li	a1,0
     314:	00050b93          	mv	s7,a0
     318:	61d000ef          	jal	ra,1134 <__muldi3>
     31c:	00050d13          	mv	s10,a0
     320:	00058a93          	mv	s5,a1
     324:	00040613          	mv	a2,s0
     328:	00000693          	li	a3,0
     32c:	000c0513          	mv	a0,s8
     330:	00000593          	li	a1,0
     334:	601000ef          	jal	ra,1134 <__muldi3>
     338:	01550ab3          	add	s5,a0,s5
     33c:	00aab533          	sltu	a0,s5,a0
     340:	00b50933          	add	s2,a0,a1
     344:	00048613          	mv	a2,s1
     348:	00000693          	li	a3,0
     34c:	000b8513          	mv	a0,s7
     350:	00000593          	li	a1,0
     354:	5e1000ef          	jal	ra,1134 <__muldi3>
     358:	015507b3          	add	a5,a0,s5
     35c:	01aa0bb3          	add	s7,s4,s10
     360:	00a7b533          	sltu	a0,a5,a0
     364:	01abbd33          	sltu	s10,s7,s10
     368:	00b50ab3          	add	s5,a0,a1
     36c:	00000693          	li	a3,0
     370:	013d0d33          	add	s10,s10,s3
     374:	00048613          	mv	a2,s1
     378:	000c0513          	mv	a0,s8
     37c:	00000593          	li	a1,0
     380:	00fd0d33          	add	s10,s10,a5
     384:	5b1000ef          	jal	ra,1134 <__muldi3>
     388:	016506b3          	add	a3,a0,s6
     38c:	01268733          	add	a4,a3,s2
     390:	00a6b533          	sltu	a0,a3,a0
     394:	019585b3          	add	a1,a1,s9
     398:	00d736b3          	sltu	a3,a4,a3
     39c:	015707b3          	add	a5,a4,s5
     3a0:	00b50533          	add	a0,a0,a1
     3a4:	00a686b3          	add	a3,a3,a0
     3a8:	00e7b733          	sltu	a4,a5,a4
     3ac:	00d70733          	add	a4,a4,a3
     3b0:	0d3d6063          	bltu	s10,s3,470 <montmul+0x254>
     3b4:	00078593          	mv	a1,a5
     3b8:	00070613          	mv	a2,a4
     3bc:	0ba98863          	beq	s3,s10,46c <montmul+0x250>
     3c0:	019647b3          	xor	a5,a2,s9
     3c4:	0165c6b3          	xor	a3,a1,s6
     3c8:	00f6e6b3          	or	a3,a3,a5
     3cc:	0016b693          	seqz	a3,a3
     3d0:	00100793          	li	a5,1
     3d4:	013d6663          	bltu	s10,s3,3e0 <montmul+0x1c4>
     3d8:	0ba98463          	beq	s3,s10,480 <montmul+0x264>
     3dc:	00000793          	li	a5,0
     3e0:	00f6f6b3          	and	a3,a3,a5
     3e4:	00100793          	li	a5,1
     3e8:	01966663          	bltu	a2,s9,3f4 <montmul+0x1d8>
     3ec:	0acc8063          	beq	s9,a2,48c <montmul+0x270>
     3f0:	00000793          	li	a5,0
     3f4:	00100713          	li	a4,1
     3f8:	06966663          	bltu	a2,s1,464 <montmul+0x248>
     3fc:	06c48263          	beq	s1,a2,460 <montmul+0x244>
     400:	00e7e7b3          	or	a5,a5,a4
     404:	00f6e6b3          	or	a3,a3,a5
     408:	0ff6f693          	andi	a3,a3,255
     40c:	40d006b3          	neg	a3,a3
     410:	0086f533          	and	a0,a3,s0
     414:	02c12083          	lw	ra,44(sp)
     418:	02812403          	lw	s0,40(sp)
     41c:	40a58533          	sub	a0,a1,a0
     420:	0096f6b3          	and	a3,a3,s1
     424:	00a5b5b3          	sltu	a1,a1,a0
     428:	40d606b3          	sub	a3,a2,a3
     42c:	02412483          	lw	s1,36(sp)
     430:	02012903          	lw	s2,32(sp)
     434:	01c12983          	lw	s3,28(sp)
     438:	01812a03          	lw	s4,24(sp)
     43c:	01412a83          	lw	s5,20(sp)
     440:	01012b03          	lw	s6,16(sp)
     444:	00c12b83          	lw	s7,12(sp)
     448:	00812c03          	lw	s8,8(sp)
     44c:	00412c83          	lw	s9,4(sp)
     450:	00012d03          	lw	s10,0(sp)
     454:	40b685b3          	sub	a1,a3,a1
     458:	03010113          	addi	sp,sp,48
     45c:	00008067          	ret
     460:	fa85f0e3          	bgeu	a1,s0,400 <montmul+0x1e4>
     464:	00000713          	li	a4,0
     468:	f99ff06f          	j	400 <montmul+0x1e4>
     46c:	f54bfae3          	bgeu	s7,s4,3c0 <montmul+0x1a4>
     470:	00178593          	addi	a1,a5,1
     474:	00f5b7b3          	sltu	a5,a1,a5
     478:	00e78633          	add	a2,a5,a4
     47c:	f45ff06f          	j	3c0 <montmul+0x1a4>
     480:	f74be0e3          	bltu	s7,s4,3e0 <montmul+0x1c4>
     484:	00000793          	li	a5,0
     488:	f59ff06f          	j	3e0 <montmul+0x1c4>
     48c:	f765e4e3          	bltu	a1,s6,3f4 <montmul+0x1d8>
     490:	00000793          	li	a5,0
     494:	f61ff06f          	j	3f4 <montmul+0x1d8>

00000498 <benchmark_body>:
     498:	74a05a63          	blez	a0,bec <benchmark_body+0x754>
     49c:	f7010113          	addi	sp,sp,-144
     4a0:	00001737          	lui	a4,0x1
     4a4:	000017b7          	lui	a5,0x1
     4a8:	08912223          	sw	s1,132(sp)
     4ac:	07412c23          	sw	s4,120(sp)
     4b0:	40072483          	lw	s1,1024(a4) # 1400 <in_b>
     4b4:	4087aa03          	lw	s4,1032(a5) # 1408 <in_a>
     4b8:	07512a23          	sw	s5,116(sp)
     4bc:	07612823          	sw	s6,112(sp)
     4c0:	40c7aa83          	lw	s5,1036(a5)
     4c4:	40472b03          	lw	s6,1028(a4)
     4c8:	000017b7          	lui	a5,0x1
     4cc:	00048613          	mv	a2,s1
     4d0:	02a12e23          	sw	a0,60(sp)
     4d4:	00000693          	li	a3,0
     4d8:	000a0513          	mv	a0,s4
     4dc:	00000593          	li	a1,0
     4e0:	08112623          	sw	ra,140(sp)
     4e4:	08812423          	sw	s0,136(sp)
     4e8:	09212023          	sw	s2,128(sp)
     4ec:	3fc7a403          	lw	s0,1020(a5) # 13fc <in_m+0x4>
     4f0:	07312e23          	sw	s3,124(sp)
     4f4:	07712623          	sw	s7,108(sp)
     4f8:	07812423          	sw	s8,104(sp)
     4fc:	07912223          	sw	s9,100(sp)
     500:	02912023          	sw	s1,32(sp)
     504:	3f87ac83          	lw	s9,1016(a5)
     508:	03612223          	sw	s6,36(sp)
     50c:	07a12023          	sw	s10,96(sp)
     510:	05b12e23          	sw	s11,92(sp)
     514:	03412423          	sw	s4,40(sp)
     518:	03512623          	sw	s5,44(sp)
     51c:	419000ef          	jal	ra,1134 <__muldi3>
     520:	00048613          	mv	a2,s1
     524:	00050993          	mv	s3,a0
     528:	00058913          	mv	s2,a1
     52c:	00000693          	li	a3,0
     530:	000a8513          	mv	a0,s5
     534:	00000593          	li	a1,0
     538:	3fd000ef          	jal	ra,1134 <__muldi3>
     53c:	01250933          	add	s2,a0,s2
     540:	00a93533          	sltu	a0,s2,a0
     544:	00b504b3          	add	s1,a0,a1
     548:	000b0613          	mv	a2,s6
     54c:	00000693          	li	a3,0
     550:	000a0513          	mv	a0,s4
     554:	00000593          	li	a1,0
     558:	3dd000ef          	jal	ra,1134 <__muldi3>
     55c:	012507b3          	add	a5,a0,s2
     560:	00a7b533          	sltu	a0,a5,a0
     564:	00b50933          	add	s2,a0,a1
     568:	000b0613          	mv	a2,s6
     56c:	00000693          	li	a3,0
     570:	000a8513          	mv	a0,s5
     574:	00000593          	li	a1,0
     578:	02f12a23          	sw	a5,52(sp)
     57c:	3b9000ef          	jal	ra,1134 <__muldi3>
     580:	00a48533          	add	a0,s1,a0
     584:	012507b3          	add	a5,a0,s2
     588:	009534b3          	sltu	s1,a0,s1
     58c:	00b484b3          	add	s1,s1,a1
     590:	00a7b533          	sltu	a0,a5,a0
     594:	02f12c23          	sw	a5,56(sp)
     598:	009507b3          	add	a5,a0,s1
     59c:	03312823          	sw	s3,48(sp)
     5a0:	00f12e23          	sw	a5,28(sp)
     5a4:	00000b13          	li	s6,0
     5a8:	04000c13          	li	s8,64
     5ac:	80000bb7          	lui	s7,0x80000
     5b0:	03012703          	lw	a4,48(sp)
     5b4:	03412583          	lw	a1,52(sp)
     5b8:	03812483          	lw	s1,56(sp)
     5bc:	01c12903          	lw	s2,28(sp)
     5c0:	00000513          	li	a0,0
     5c4:	01f4d693          	srli	a3,s1,0x1f
     5c8:	00191793          	slli	a5,s2,0x1
     5cc:	00f6e7b3          	or	a5,a3,a5
     5d0:	41f95613          	srai	a2,s2,0x1f
     5d4:	01f75813          	srli	a6,a4,0x1f
     5d8:	01f5d893          	srli	a7,a1,0x1f
     5dc:	00159693          	slli	a3,a1,0x1
     5e0:	00149493          	slli	s1,s1,0x1
     5e4:	00d866b3          	or	a3,a6,a3
     5e8:	0098e4b3          	or	s1,a7,s1
     5ec:	00f66833          	or	a6,a2,a5
     5f0:	00078913          	mv	s2,a5
     5f4:	00150513          	addi	a0,a0,1
     5f8:	00171713          	slli	a4,a4,0x1
     5fc:	00966633          	or	a2,a2,s1
     600:	00068593          	mv	a1,a3
     604:	02886863          	bltu	a6,s0,634 <benchmark_body+0x19c>
     608:	41948333          	sub	t1,s1,s9
     60c:	00170893          	addi	a7,a4,1
     610:	0064beb3          	sltu	t4,s1,t1
     614:	00e8be33          	sltu	t3,a7,a4
     618:	408787b3          	sub	a5,a5,s0
     61c:	01041463          	bne	s0,a6,624 <benchmark_body+0x18c>
     620:	01966a63          	bltu	a2,s9,634 <benchmark_body+0x19c>
     624:	00030493          	mv	s1,t1
     628:	41d78933          	sub	s2,a5,t4
     62c:	00088713          	mv	a4,a7
     630:	00de05b3          	add	a1,t3,a3
     634:	f98518e3          	bne	a0,s8,5c4 <benchmark_body+0x12c>
     638:	00048613          	mv	a2,s1
     63c:	00000693          	li	a3,0
     640:	00048513          	mv	a0,s1
     644:	00000593          	li	a1,0
     648:	2ed000ef          	jal	ra,1134 <__muldi3>
     64c:	00058a93          	mv	s5,a1
     650:	00048613          	mv	a2,s1
     654:	00050a13          	mv	s4,a0
     658:	00000693          	li	a3,0
     65c:	00090513          	mv	a0,s2
     660:	00000593          	li	a1,0
     664:	2d1000ef          	jal	ra,1134 <__muldi3>
     668:	015507b3          	add	a5,a0,s5
     66c:	00a789b3          	add	s3,a5,a0
     670:	00058713          	mv	a4,a1
     674:	0157b7b3          	sltu	a5,a5,s5
     678:	00090613          	mv	a2,s2
     67c:	00a9b4b3          	sltu	s1,s3,a0
     680:	00000693          	li	a3,0
     684:	00090513          	mv	a0,s2
     688:	00000593          	li	a1,0
     68c:	00e78933          	add	s2,a5,a4
     690:	00e484b3          	add	s1,s1,a4
     694:	2a1000ef          	jal	ra,1134 <__muldi3>
     698:	00a90533          	add	a0,s2,a0
     69c:	009504b3          	add	s1,a0,s1
     6a0:	01253933          	sltu	s2,a0,s2
     6a4:	00a4b7b3          	sltu	a5,s1,a0
     6a8:	00b90933          	add	s2,s2,a1
     6ac:	000a0513          	mv	a0,s4
     6b0:	01278933          	add	s2,a5,s2
     6b4:	00000613          	li	a2,0
     6b8:	01f4d713          	srli	a4,s1,0x1f
     6bc:	00191793          	slli	a5,s2,0x1
     6c0:	00f767b3          	or	a5,a4,a5
     6c4:	41f95693          	srai	a3,s2,0x1f
     6c8:	01f55593          	srli	a1,a0,0x1f
     6cc:	01f9d813          	srli	a6,s3,0x1f
     6d0:	00199713          	slli	a4,s3,0x1
     6d4:	00149493          	slli	s1,s1,0x1
     6d8:	00e5e733          	or	a4,a1,a4
     6dc:	009864b3          	or	s1,a6,s1
     6e0:	00f6e5b3          	or	a1,a3,a5
     6e4:	00078913          	mv	s2,a5
     6e8:	00160613          	addi	a2,a2,1
     6ec:	00151513          	slli	a0,a0,0x1
     6f0:	0096e6b3          	or	a3,a3,s1
     6f4:	00070993          	mv	s3,a4
     6f8:	0285e863          	bltu	a1,s0,728 <benchmark_body+0x290>
     6fc:	419488b3          	sub	a7,s1,s9
     700:	00150813          	addi	a6,a0,1
     704:	0114be33          	sltu	t3,s1,a7
     708:	00a83333          	sltu	t1,a6,a0
     70c:	408787b3          	sub	a5,a5,s0
     710:	00b41463          	bne	s0,a1,718 <benchmark_body+0x280>
     714:	0196ea63          	bltu	a3,s9,728 <benchmark_body+0x290>
     718:	00088493          	mv	s1,a7
     71c:	41c78933          	sub	s2,a5,t3
     720:	00080513          	mv	a0,a6
     724:	00e309b3          	add	s3,t1,a4
     728:	f98618e3          	bne	a2,s8,6b8 <benchmark_body+0x220>
     72c:	00048613          	mv	a2,s1
     730:	00000693          	li	a3,0
     734:	00048513          	mv	a0,s1
     738:	00000593          	li	a1,0
     73c:	1f9000ef          	jal	ra,1134 <__muldi3>
     740:	00058a93          	mv	s5,a1
     744:	00048613          	mv	a2,s1
     748:	00050993          	mv	s3,a0
     74c:	00000693          	li	a3,0
     750:	00090513          	mv	a0,s2
     754:	00000593          	li	a1,0
     758:	1dd000ef          	jal	ra,1134 <__muldi3>
     75c:	015507b3          	add	a5,a0,s5
     760:	00a784b3          	add	s1,a5,a0
     764:	00a4b333          	sltu	t1,s1,a0
     768:	00058a13          	mv	s4,a1
     76c:	0157b7b3          	sltu	a5,a5,s5
     770:	00090613          	mv	a2,s2
     774:	00090513          	mv	a0,s2
     778:	00000693          	li	a3,0
     77c:	00000593          	li	a1,0
     780:	01478933          	add	s2,a5,s4
     784:	01430a33          	add	s4,t1,s4
     788:	1ad000ef          	jal	ra,1134 <__muldi3>
     78c:	00a90533          	add	a0,s2,a0
     790:	01450333          	add	t1,a0,s4
     794:	01253933          	sltu	s2,a0,s2
     798:	00a33f33          	sltu	t5,t1,a0
     79c:	00b90933          	add	s2,s2,a1
     7a0:	00098513          	mv	a0,s3
     7a4:	012f0d33          	add	s10,t5,s2
     7a8:	00000e13          	li	t3,0
     7ac:	01f35713          	srli	a4,t1,0x1f
     7b0:	001d1793          	slli	a5,s10,0x1
     7b4:	00f767b3          	or	a5,a4,a5
     7b8:	41fd5693          	srai	a3,s10,0x1f
     7bc:	01f55613          	srli	a2,a0,0x1f
     7c0:	01f4d593          	srli	a1,s1,0x1f
     7c4:	00149713          	slli	a4,s1,0x1
     7c8:	00131313          	slli	t1,t1,0x1
     7cc:	00e66733          	or	a4,a2,a4
     7d0:	0065e333          	or	t1,a1,t1
     7d4:	00f6e633          	or	a2,a3,a5
     7d8:	00078d13          	mv	s10,a5
     7dc:	001e0e13          	addi	t3,t3,1
     7e0:	00151513          	slli	a0,a0,0x1
     7e4:	0066e6b3          	or	a3,a3,t1
     7e8:	00070493          	mv	s1,a4
     7ec:	02866863          	bltu	a2,s0,81c <benchmark_body+0x384>
     7f0:	41930833          	sub	a6,t1,s9
     7f4:	00150593          	addi	a1,a0,1
     7f8:	01033eb3          	sltu	t4,t1,a6
     7fc:	00a5b8b3          	sltu	a7,a1,a0
     800:	408787b3          	sub	a5,a5,s0
     804:	00c41463          	bne	s0,a2,80c <benchmark_body+0x374>
     808:	0196ea63          	bltu	a3,s9,81c <benchmark_body+0x384>
     80c:	00080313          	mv	t1,a6
     810:	41d78d33          	sub	s10,a5,t4
     814:	00058513          	mv	a0,a1
     818:	00e884b3          	add	s1,a7,a4
     81c:	f98e18e3          	bne	t3,s8,7ac <benchmark_body+0x314>
     820:	00100713          	li	a4,1
     824:	00000793          	li	a5,0
     828:	00000613          	li	a2,0
     82c:	00000693          	li	a3,0
     830:	0140006f          	j	844 <benchmark_body+0x3ac>
     834:	fffe0e13          	addi	t3,t3,-1
     838:	0053e733          	or	a4,t2,t0
     83c:	000f8793          	mv	a5,t6
     840:	060e0863          	beqz	t3,8b0 <benchmark_body+0x418>
     844:	00f44533          	xor	a0,s0,a5
     848:	00ecc5b3          	xor	a1,s9,a4
     84c:	01f51813          	slli	a6,a0,0x1f
     850:	0015d593          	srli	a1,a1,0x1
     854:	00b865b3          	or	a1,a6,a1
     858:	00ecf833          	and	a6,s9,a4
     85c:	01f69293          	slli	t0,a3,0x1f
     860:	0016de93          	srli	t4,a3,0x1
     864:	00165f93          	srli	t6,a2,0x1
     868:	00f47f33          	and	t5,s0,a5
     86c:	01058833          	add	a6,a1,a6
     870:	00155513          	srli	a0,a0,0x1
     874:	00177893          	andi	a7,a4,1
     878:	01f2e633          	or	a2,t0,t6
     87c:	000e8693          	mv	a3,t4
     880:	0017df93          	srli	t6,a5,0x1
     884:	01f79393          	slli	t2,a5,0x1f
     888:	00175293          	srli	t0,a4,0x1
     88c:	00b835b3          	sltu	a1,a6,a1
     890:	01e50533          	add	a0,a0,t5
     894:	017e8eb3          	add	t4,t4,s7
     898:	f8088ee3          	beqz	a7,834 <benchmark_body+0x39c>
     89c:	fffe0e13          	addi	t3,t3,-1
     8a0:	00080713          	mv	a4,a6
     8a4:	00a587b3          	add	a5,a1,a0
     8a8:	000e8693          	mv	a3,t4
     8ac:	f80e1ce3          	bnez	t3,844 <benchmark_body+0x3ac>
     8b0:	04e12023          	sw	a4,64(sp)
     8b4:	04f12223          	sw	a5,68(sp)
     8b8:	04c12423          	sw	a2,72(sp)
     8bc:	04d12623          	sw	a3,76(sp)
     8c0:	04012703          	lw	a4,64(sp)
     8c4:	04412783          	lw	a5,68(sp)
     8c8:	04812783          	lw	a5,72(sp)
     8cc:	04c12803          	lw	a6,76(sp)
     8d0:	02812503          	lw	a0,40(sp)
     8d4:	02c12583          	lw	a1,44(sp)
     8d8:	01012a23          	sw	a6,20(sp)
     8dc:	00f12823          	sw	a5,16(sp)
     8e0:	00000893          	li	a7,0
     8e4:	00000713          	li	a4,0
     8e8:	00000813          	li	a6,0
     8ec:	01f55693          	srli	a3,a0,0x1f
     8f0:	00159793          	slli	a5,a1,0x1
     8f4:	00f6e7b3          	or	a5,a3,a5
     8f8:	41f5d613          	srai	a2,a1,0x1f
     8fc:	01f75e93          	srli	t4,a4,0x1f
     900:	01f85f13          	srli	t5,a6,0x1f
     904:	00181693          	slli	a3,a6,0x1
     908:	00151513          	slli	a0,a0,0x1
     90c:	00dee6b3          	or	a3,t4,a3
     910:	00af6533          	or	a0,t5,a0
     914:	00f66eb3          	or	t4,a2,a5
     918:	00078593          	mv	a1,a5
     91c:	00188893          	addi	a7,a7,1
     920:	00171713          	slli	a4,a4,0x1
     924:	00a66633          	or	a2,a2,a0
     928:	00068813          	mv	a6,a3
     92c:	028ee863          	bltu	t4,s0,95c <benchmark_body+0x4c4>
     930:	41950fb3          	sub	t6,a0,s9
     934:	00170f13          	addi	t5,a4,1
     938:	01f533b3          	sltu	t2,a0,t6
     93c:	00ef32b3          	sltu	t0,t5,a4
     940:	408787b3          	sub	a5,a5,s0
     944:	01d41463          	bne	s0,t4,94c <benchmark_body+0x4b4>
     948:	01966a63          	bltu	a2,s9,95c <benchmark_body+0x4c4>
     94c:	000f8513          	mv	a0,t6
     950:	407785b3          	sub	a1,a5,t2
     954:	000f0713          	mv	a4,t5
     958:	00d28833          	add	a6,t0,a3
     95c:	f98898e3          	bne	a7,s8,8ec <benchmark_body+0x454>
     960:	02012603          	lw	a2,32(sp)
     964:	02412683          	lw	a3,36(sp)
     968:	00000293          	li	t0,0
     96c:	00000713          	li	a4,0
     970:	00000f93          	li	t6,0
     974:	01f65813          	srli	a6,a2,0x1f
     978:	00169793          	slli	a5,a3,0x1
     97c:	00f867b3          	or	a5,a6,a5
     980:	41f6d893          	srai	a7,a3,0x1f
     984:	01f75e93          	srli	t4,a4,0x1f
     988:	01ffdf13          	srli	t5,t6,0x1f
     98c:	001f9813          	slli	a6,t6,0x1
     990:	00161613          	slli	a2,a2,0x1
     994:	010ee833          	or	a6,t4,a6
     998:	00cf6633          	or	a2,t5,a2
     99c:	00f8eeb3          	or	t4,a7,a5
     9a0:	00078693          	mv	a3,a5
     9a4:	00128293          	addi	t0,t0,1
     9a8:	00171713          	slli	a4,a4,0x1
     9ac:	00c8e8b3          	or	a7,a7,a2
     9b0:	00080f93          	mv	t6,a6
     9b4:	028ee863          	bltu	t4,s0,9e4 <benchmark_body+0x54c>
     9b8:	419603b3          	sub	t2,a2,s9
     9bc:	00170f13          	addi	t5,a4,1
     9c0:	007634b3          	sltu	s1,a2,t2
     9c4:	00ef30b3          	sltu	ra,t5,a4
     9c8:	408787b3          	sub	a5,a5,s0
     9cc:	01d41463          	bne	s0,t4,9d4 <benchmark_body+0x53c>
     9d0:	0198ea63          	bltu	a7,s9,9e4 <benchmark_body+0x54c>
     9d4:	00038613          	mv	a2,t2
     9d8:	409786b3          	sub	a3,a5,s1
     9dc:	000f0713          	mv	a4,t5
     9e0:	01008fb3          	add	t6,ra,a6
     9e4:	f98298e3          	bne	t0,s8,974 <benchmark_body+0x4dc>
     9e8:	04812803          	lw	a6,72(sp)
     9ec:	04c12883          	lw	a7,76(sp)
     9f0:	000c8713          	mv	a4,s9
     9f4:	00040793          	mv	a5,s0
     9f8:	01c12c23          	sw	t3,24(sp)
     9fc:	00612623          	sw	t1,12(sp)
     a00:	81dff0ef          	jal	ra,21c <montmul>
     a04:	04812803          	lw	a6,72(sp)
     a08:	04c12883          	lw	a7,76(sp)
     a0c:	000c8713          	mv	a4,s9
     a10:	00040793          	mv	a5,s0
     a14:	00050613          	mv	a2,a0
     a18:	00058693          	mv	a3,a1
     a1c:	801ff0ef          	jal	ra,21c <montmul>
     a20:	04812803          	lw	a6,72(sp)
     a24:	04c12883          	lw	a7,76(sp)
     a28:	000c8713          	mv	a4,s9
     a2c:	00040793          	mv	a5,s0
     a30:	00050613          	mv	a2,a0
     a34:	00058693          	mv	a3,a1
     a38:	fe4ff0ef          	jal	ra,21c <montmul>
     a3c:	04012783          	lw	a5,64(sp)
     a40:	04412803          	lw	a6,68(sp)
     a44:	00058493          	mv	s1,a1
     a48:	00078613          	mv	a2,a5
     a4c:	00000693          	li	a3,0
     a50:	00000593          	li	a1,0
     a54:	00078913          	mv	s2,a5
     a58:	00080993          	mv	s3,a6
     a5c:	00050a93          	mv	s5,a0
     a60:	6d4000ef          	jal	ra,1134 <__muldi3>
     a64:	00090613          	mv	a2,s2
     a68:	00050d93          	mv	s11,a0
     a6c:	00058a13          	mv	s4,a1
     a70:	00000693          	li	a3,0
     a74:	00048513          	mv	a0,s1
     a78:	00000593          	li	a1,0
     a7c:	01212023          	sw	s2,0(sp)
     a80:	01312223          	sw	s3,4(sp)
     a84:	6b0000ef          	jal	ra,1134 <__muldi3>
     a88:	01450a33          	add	s4,a0,s4
     a8c:	00412603          	lw	a2,4(sp)
     a90:	00aa3533          	sltu	a0,s4,a0
     a94:	00b50933          	add	s2,a0,a1
     a98:	00000693          	li	a3,0
     a9c:	000a8513          	mv	a0,s5
     aa0:	00000593          	li	a1,0
     aa4:	690000ef          	jal	ra,1134 <__muldi3>
     aa8:	01450833          	add	a6,a0,s4
     aac:	00412603          	lw	a2,4(sp)
     ab0:	00a837b3          	sltu	a5,a6,a0
     ab4:	00b78a33          	add	s4,a5,a1
     ab8:	00000693          	li	a3,0
     abc:	00048513          	mv	a0,s1
     ac0:	00000593          	li	a1,0
     ac4:	00080493          	mv	s1,a6
     ac8:	66c000ef          	jal	ra,1134 <__muldi3>
     acc:	00a90533          	add	a0,s2,a0
     ad0:	014507b3          	add	a5,a0,s4
     ad4:	01253933          	sltu	s2,a0,s2
     ad8:	01812e03          	lw	t3,24(sp)
     adc:	00c12303          	lw	t1,12(sp)
     ae0:	00a7b6b3          	sltu	a3,a5,a0
     ae4:	00b90933          	add	s2,s2,a1
     ae8:	000d8513          	mv	a0,s11
     aec:	012686b3          	add	a3,a3,s2
     af0:	01f7d613          	srli	a2,a5,0x1f
     af4:	00169713          	slli	a4,a3,0x1
     af8:	00e66733          	or	a4,a2,a4
     afc:	41f6d593          	srai	a1,a3,0x1f
     b00:	01f55813          	srli	a6,a0,0x1f
     b04:	01f4d893          	srli	a7,s1,0x1f
     b08:	00149613          	slli	a2,s1,0x1
     b0c:	00179793          	slli	a5,a5,0x1
     b10:	00c86633          	or	a2,a6,a2
     b14:	00f8e7b3          	or	a5,a7,a5
     b18:	00e5e833          	or	a6,a1,a4
     b1c:	00070693          	mv	a3,a4
     b20:	001e0e13          	addi	t3,t3,1
     b24:	00151513          	slli	a0,a0,0x1
     b28:	00f5e5b3          	or	a1,a1,a5
     b2c:	00060493          	mv	s1,a2
     b30:	02886863          	bltu	a6,s0,b60 <benchmark_body+0x6c8>
     b34:	41978eb3          	sub	t4,a5,s9
     b38:	00150893          	addi	a7,a0,1
     b3c:	01d7bfb3          	sltu	t6,a5,t4
     b40:	00a8bf33          	sltu	t5,a7,a0
     b44:	40870733          	sub	a4,a4,s0
     b48:	01041463          	bne	s0,a6,b50 <benchmark_body+0x6b8>
     b4c:	0195ea63          	bltu	a1,s9,b60 <benchmark_body+0x6c8>
     b50:	000e8793          	mv	a5,t4
     b54:	41f706b3          	sub	a3,a4,t6
     b58:	00088513          	mv	a0,a7
     b5c:	00cf04b3          	add	s1,t5,a2
     b60:	f98e18e3          	bne	t3,s8,af0 <benchmark_body+0x658>
     b64:	04f30863          	beq	t1,a5,bb4 <benchmark_body+0x71c>
     b68:	00100513          	li	a0,1
     b6c:	03c12783          	lw	a5,60(sp)
     b70:	001b0b13          	addi	s6,s6,1
     b74:	a3679ee3          	bne	a5,s6,5b0 <benchmark_body+0x118>
     b78:	08c12083          	lw	ra,140(sp)
     b7c:	08812403          	lw	s0,136(sp)
     b80:	08412483          	lw	s1,132(sp)
     b84:	08012903          	lw	s2,128(sp)
     b88:	07c12983          	lw	s3,124(sp)
     b8c:	07812a03          	lw	s4,120(sp)
     b90:	07412a83          	lw	s5,116(sp)
     b94:	07012b03          	lw	s6,112(sp)
     b98:	06c12b83          	lw	s7,108(sp)
     b9c:	06812c03          	lw	s8,104(sp)
     ba0:	06412c83          	lw	s9,100(sp)
     ba4:	06012d03          	lw	s10,96(sp)
     ba8:	05c12d83          	lw	s11,92(sp)
     bac:	09010113          	addi	sp,sp,144
     bb0:	00008067          	ret
     bb4:	fadd1ae3          	bne	s10,a3,b68 <benchmark_body+0x6d0>
     bb8:	01012503          	lw	a0,16(sp)
     bbc:	01412583          	lw	a1,20(sp)
     bc0:	000c8613          	mv	a2,s9
     bc4:	00040693          	mv	a3,s0
     bc8:	56c000ef          	jal	ra,1134 <__muldi3>
     bcc:	40a00533          	neg	a0,a0
     bd0:	00a03733          	snez	a4,a0
     bd4:	40b007b3          	neg	a5,a1
     bd8:	40e787b3          	sub	a5,a5,a4
     bdc:	00154513          	xori	a0,a0,1
     be0:	00f56533          	or	a0,a0,a5
     be4:	00a03533          	snez	a0,a0
     be8:	f85ff06f          	j	b6c <benchmark_body+0x6d4>
     bec:	00000513          	li	a0,0
     bf0:	00008067          	ret

00000bf4 <xbinGCD>:
     bf4:	00b56833          	or	a6,a0,a1
     bf8:	12080263          	beqz	a6,d1c <xbinGCD+0x128>
     bfc:	fd010113          	addi	sp,sp,-48
     c00:	02912423          	sw	s1,40(sp)
     c04:	03212223          	sw	s2,36(sp)
     c08:	02812623          	sw	s0,44(sp)
     c0c:	03312023          	sw	s3,32(sp)
     c10:	01412e23          	sw	s4,28(sp)
     c14:	01512c23          	sw	s5,24(sp)
     c18:	01612a23          	sw	s6,20(sp)
     c1c:	01712823          	sw	s7,16(sp)
     c20:	01812623          	sw	s8,12(sp)
     c24:	00050493          	mv	s1,a0
     c28:	00058913          	mv	s2,a1
     c2c:	00000313          	li	t1,0
     c30:	00000393          	li	t2,0
     c34:	00100813          	li	a6,1
     c38:	00000893          	li	a7,0
     c3c:	0140006f          	j	c50 <xbinGCD+0x5c>
     c40:	01f9ee33          	or	t3,s3,t6
     c44:	016be833          	or	a6,s7,s6
     c48:	000a8893          	mv	a7,s5
     c4c:	080e0a63          	beqz	t3,ce0 <xbinGCD+0xec>
     c50:	0116ceb3          	xor	t4,a3,a7
     c54:	01064e33          	xor	t3,a2,a6
     c58:	01fe9f13          	slli	t5,t4,0x1f
     c5c:	001e5e13          	srli	t3,t3,0x1
     c60:	01cf6e33          	or	t3,t5,t3
     c64:	01067fb3          	and	t6,a2,a6
     c68:	01f91f13          	slli	t5,s2,0x1f
     c6c:	0014d993          	srli	s3,s1,0x1
     c70:	01fe0a33          	add	s4,t3,t6
     c74:	013f69b3          	or	s3,t5,s3
     c78:	00195f93          	srli	t6,s2,0x1
     c7c:	00135f13          	srli	t5,t1,0x1
     c80:	01f39913          	slli	s2,t2,0x1f
     c84:	01e96333          	or	t1,s2,t5
     c88:	0013d293          	srli	t0,t2,0x1
     c8c:	0116f4b3          	and	s1,a3,a7
     c90:	00028393          	mv	t2,t0
     c94:	001ede93          	srli	t4,t4,0x1
     c98:	00a302b3          	add	t0,t1,a0
     c9c:	00187413          	andi	s0,a6,1
     ca0:	01ca3f33          	sltu	t5,s4,t3
     ca4:	009e8eb3          	add	t4,t4,s1
     ca8:	0018da93          	srli	s5,a7,0x1
     cac:	01f89b93          	slli	s7,a7,0x1f
     cb0:	00185b13          	srli	s6,a6,0x1
     cb4:	0062bc33          	sltu	s8,t0,t1
     cb8:	00b38e33          	add	t3,t2,a1
     cbc:	00098493          	mv	s1,s3
     cc0:	000f8913          	mv	s2,t6
     cc4:	f6040ee3          	beqz	s0,c40 <xbinGCD+0x4c>
     cc8:	01cc03b3          	add	t2,s8,t3
     ccc:	01f9ee33          	or	t3,s3,t6
     cd0:	000a0813          	mv	a6,s4
     cd4:	00028313          	mv	t1,t0
     cd8:	01df08b3          	add	a7,t5,t4
     cdc:	f60e1ae3          	bnez	t3,c50 <xbinGCD+0x5c>
     ce0:	01072023          	sw	a6,0(a4)
     ce4:	01172223          	sw	a7,4(a4)
     ce8:	02c12403          	lw	s0,44(sp)
     cec:	0067a023          	sw	t1,0(a5)
     cf0:	0077a223          	sw	t2,4(a5)
     cf4:	02812483          	lw	s1,40(sp)
     cf8:	02412903          	lw	s2,36(sp)
     cfc:	02012983          	lw	s3,32(sp)
     d00:	01c12a03          	lw	s4,28(sp)
     d04:	01812a83          	lw	s5,24(sp)
     d08:	01412b03          	lw	s6,20(sp)
     d0c:	01012b83          	lw	s7,16(sp)
     d10:	00c12c03          	lw	s8,12(sp)
     d14:	03010113          	addi	sp,sp,48
     d18:	00008067          	ret
     d1c:	00100813          	li	a6,1
     d20:	01072023          	sw	a6,0(a4)
     d24:	00000893          	li	a7,0
     d28:	01172223          	sw	a7,4(a4)
     d2c:	00a7a023          	sw	a0,0(a5)
     d30:	00b7a223          	sw	a1,4(a5)
     d34:	00008067          	ret

00000d38 <warm_caches>:
     d38:	f60ff06f          	j	498 <benchmark_body>

00000d3c <benchmark>:
     d3c:	00008537          	lui	a0,0x8
     d40:	b7050513          	addi	a0,a0,-1168 # 7b70 <TOHOST_ADDR+0x6750>
     d44:	f54ff06f          	j	498 <benchmark_body>

00000d48 <initialise_benchmark>:
     d48:	00001637          	lui	a2,0x1
     d4c:	000016b7          	lui	a3,0x1
     d50:	3c862503          	lw	a0,968(a2) # 13c8 <main+0x74>
     d54:	3cc62583          	lw	a1,972(a2)
     d58:	3d06a603          	lw	a2,976(a3) # 13d0 <main+0x7c>
     d5c:	3d46a683          	lw	a3,980(a3)
     d60:	000017b7          	lui	a5,0x1
     d64:	00001737          	lui	a4,0x1
     d68:	3ea7ac23          	sw	a0,1016(a5) # 13f8 <in_m>
     d6c:	3eb7ae23          	sw	a1,1020(a5)
     d70:	000017b7          	lui	a5,0x1
     d74:	40c7a023          	sw	a2,1024(a5) # 1400 <in_b>
     d78:	40d7a223          	sw	a3,1028(a5)
     d7c:	3d872603          	lw	a2,984(a4) # 13d8 <main+0x84>
     d80:	3dc72683          	lw	a3,988(a4)
     d84:	000017b7          	lui	a5,0x1
     d88:	40c7a423          	sw	a2,1032(a5) # 1408 <in_a>
     d8c:	40d7a623          	sw	a3,1036(a5)
     d90:	00008067          	ret

00000d94 <verify_benchmark>:
     d94:	00153513          	seqz	a0,a0
     d98:	00008067          	ret

00000d9c <initialise_board>:
     d9c:	00000513          	li	a0,0
     da0:	00008067          	ret

00000da4 <start_trigger>:
     da4:	00000513          	li	a0,0
     da8:	00008067          	ret

00000dac <stop_trigger>:
     dac:	00000513          	li	a0,0
     db0:	00008067          	ret

00000db4 <rand_beebs>:
     db4:	000016b7          	lui	a3,0x1
     db8:	41c6a703          	lw	a4,1052(a3) # 141c <seed>
     dbc:	00871793          	slli	a5,a4,0x8
     dc0:	40e787b3          	sub	a5,a5,a4
     dc4:	00379793          	slli	a5,a5,0x3
     dc8:	00e787b3          	add	a5,a5,a4
     dcc:	00779793          	slli	a5,a5,0x7
     dd0:	00e787b3          	add	a5,a5,a4
     dd4:	00379793          	slli	a5,a5,0x3
     dd8:	40e787b3          	sub	a5,a5,a4
     ddc:	00579513          	slli	a0,a5,0x5
     de0:	00a78533          	add	a0,a5,a0
     de4:	00251513          	slli	a0,a0,0x2
     de8:	40e50533          	sub	a0,a0,a4
     dec:	00251513          	slli	a0,a0,0x2
     df0:	000037b7          	lui	a5,0x3
     df4:	00e50533          	add	a0,a0,a4
     df8:	03978793          	addi	a5,a5,57 # 3039 <TOHOST_ADDR+0x1c19>
     dfc:	00f50533          	add	a0,a0,a5
     e00:	00151513          	slli	a0,a0,0x1
     e04:	00155513          	srli	a0,a0,0x1
     e08:	40a6ae23          	sw	a0,1052(a3)
     e0c:	01055513          	srli	a0,a0,0x10
     e10:	00008067          	ret

00000e14 <srand_beebs>:
     e14:	000017b7          	lui	a5,0x1
     e18:	40a7ae23          	sw	a0,1052(a5) # 141c <seed>
     e1c:	00008067          	ret

00000e20 <init_heap_beebs>:
     e20:	000017b7          	lui	a5,0x1
     e24:	00b505b3          	add	a1,a0,a1
     e28:	40a7ac23          	sw	a0,1048(a5) # 1418 <heap_ptr>
     e2c:	000017b7          	lui	a5,0x1
     e30:	40b7aa23          	sw	a1,1044(a5) # 1414 <heap_end>
     e34:	000017b7          	lui	a5,0x1
     e38:	4007a823          	sw	zero,1040(a5) # 1410 <heap_requested>
     e3c:	00008067          	ret

00000e40 <check_heap_beebs>:
     e40:	000017b7          	lui	a5,0x1
     e44:	4107a703          	lw	a4,1040(a5) # 1410 <heap_requested>
     e48:	000017b7          	lui	a5,0x1
     e4c:	4147a783          	lw	a5,1044(a5) # 1414 <heap_end>
     e50:	00e50533          	add	a0,a0,a4
     e54:	00a7b533          	sltu	a0,a5,a0
     e58:	00154513          	xori	a0,a0,1
     e5c:	00008067          	ret

00000e60 <malloc_beebs>:
     e60:	000016b7          	lui	a3,0x1
     e64:	4106a783          	lw	a5,1040(a3) # 1410 <heap_requested>
     e68:	00001637          	lui	a2,0x1
     e6c:	41862703          	lw	a4,1048(a2) # 1418 <heap_ptr>
     e70:	000015b7          	lui	a1,0x1
     e74:	4145a583          	lw	a1,1044(a1) # 1414 <heap_end>
     e78:	00a787b3          	add	a5,a5,a0
     e7c:	40f6a823          	sw	a5,1040(a3)
     e80:	00a707b3          	add	a5,a4,a0
     e84:	00f5ea63          	bltu	a1,a5,e98 <malloc_beebs+0x38>
     e88:	00050863          	beqz	a0,e98 <malloc_beebs+0x38>
     e8c:	40f62c23          	sw	a5,1048(a2)
     e90:	00070513          	mv	a0,a4
     e94:	00008067          	ret
     e98:	00000713          	li	a4,0
     e9c:	00070513          	mv	a0,a4
     ea0:	00008067          	ret

00000ea4 <calloc_beebs>:
     ea4:	ff010113          	addi	sp,sp,-16
     ea8:	00112623          	sw	ra,12(sp)
     eac:	264000ef          	jal	ra,1110 <__mulsi3>
     eb0:	000016b7          	lui	a3,0x1
     eb4:	4106a703          	lw	a4,1040(a3) # 1410 <heap_requested>
     eb8:	00001637          	lui	a2,0x1
     ebc:	41862783          	lw	a5,1048(a2) # 1418 <heap_ptr>
     ec0:	000015b7          	lui	a1,0x1
     ec4:	4145a583          	lw	a1,1044(a1) # 1414 <heap_end>
     ec8:	00a70733          	add	a4,a4,a0
     ecc:	40e6a823          	sw	a4,1040(a3)
     ed0:	00a78733          	add	a4,a5,a0
     ed4:	02e5ea63          	bltu	a1,a4,f08 <calloc_beebs+0x64>
     ed8:	02050863          	beqz	a0,f08 <calloc_beebs+0x64>
     edc:	40e62c23          	sw	a4,1048(a2)
     ee0:	00078c63          	beqz	a5,ef8 <calloc_beebs+0x54>
     ee4:	00050613          	mv	a2,a0
     ee8:	00000593          	li	a1,0
     eec:	00078513          	mv	a0,a5
     ef0:	388000ef          	jal	ra,1278 <memset>
     ef4:	00050793          	mv	a5,a0
     ef8:	00c12083          	lw	ra,12(sp)
     efc:	00078513          	mv	a0,a5
     f00:	01010113          	addi	sp,sp,16
     f04:	00008067          	ret
     f08:	00c12083          	lw	ra,12(sp)
     f0c:	00000793          	li	a5,0
     f10:	00078513          	mv	a0,a5
     f14:	01010113          	addi	sp,sp,16
     f18:	00008067          	ret

00000f1c <realloc_beebs>:
     f1c:	00001737          	lui	a4,0x1
     f20:	41072783          	lw	a5,1040(a4) # 1410 <heap_requested>
     f24:	00001637          	lui	a2,0x1
     f28:	41862683          	lw	a3,1048(a2) # 1418 <heap_ptr>
     f2c:	00001837          	lui	a6,0x1
     f30:	41482803          	lw	a6,1044(a6) # 1414 <heap_end>
     f34:	00b787b3          	add	a5,a5,a1
     f38:	40f72823          	sw	a5,1040(a4)
     f3c:	00b687b3          	add	a5,a3,a1
     f40:	02f86a63          	bltu	a6,a5,f74 <realloc_beebs+0x58>
     f44:	02058863          	beqz	a1,f74 <realloc_beebs+0x58>
     f48:	40f62c23          	sw	a5,1048(a2)
     f4c:	02050063          	beqz	a0,f6c <realloc_beebs+0x50>
     f50:	00068793          	mv	a5,a3
     f54:	00b505b3          	add	a1,a0,a1
     f58:	00054703          	lbu	a4,0(a0)
     f5c:	00178793          	addi	a5,a5,1
     f60:	00150513          	addi	a0,a0,1
     f64:	fee78fa3          	sb	a4,-1(a5)
     f68:	feb518e3          	bne	a0,a1,f58 <realloc_beebs+0x3c>
     f6c:	00068513          	mv	a0,a3
     f70:	00008067          	ret
     f74:	00000693          	li	a3,0
     f78:	00068513          	mv	a0,a3
     f7c:	00008067          	ret

00000f80 <free_beebs>:
     f80:	00008067          	ret

00000f84 <simrv_exit>:
     f84:	000017b7          	lui	a5,0x1
     f88:	4207a783          	lw	a5,1056(a5) # 1420 <TOHOST_ADDR>
     f8c:	00020737          	lui	a4,0x20
     f90:	00e7a023          	sw	a4,0(a5)
     f94:	0000006f          	j	f94 <simrv_exit+0x10>

00000f98 <simrv_putc>:
     f98:	000017b7          	lui	a5,0x1
     f9c:	4207a703          	lw	a4,1056(a5) # 1420 <TOHOST_ADDR>
     fa0:	000107b7          	lui	a5,0x10
     fa4:	00f56533          	or	a0,a0,a5
     fa8:	00a72023          	sw	a0,0(a4) # 20000 <TOHOST_ADDR+0x1ebe0>
     fac:	00008067          	ret

00000fb0 <simrv_puts>:
     fb0:	00054783          	lbu	a5,0(a0)
     fb4:	02078263          	beqz	a5,fd8 <simrv_puts+0x28>
     fb8:	00001737          	lui	a4,0x1
     fbc:	42072683          	lw	a3,1056(a4) # 1420 <TOHOST_ADDR>
     fc0:	00010737          	lui	a4,0x10
     fc4:	00e7e7b3          	or	a5,a5,a4
     fc8:	00f6a023          	sw	a5,0(a3)
     fcc:	00150513          	addi	a0,a0,1
     fd0:	00054783          	lbu	a5,0(a0)
     fd4:	fe0798e3          	bnez	a5,fc4 <simrv_puts+0x14>
     fd8:	00008067          	ret

00000fdc <simrv_puti>:
     fdc:	fd010113          	addi	sp,sp,-48
     fe0:	02912223          	sw	s1,36(sp)
     fe4:	03212023          	sw	s2,32(sp)
     fe8:	01412c23          	sw	s4,24(sp)
     fec:	02112623          	sw	ra,44(sp)
     ff0:	02812423          	sw	s0,40(sp)
     ff4:	01312e23          	sw	s3,28(sp)
     ff8:	00050913          	mv	s2,a0
     ffc:	00000493          	li	s1,0
    1000:	00410a13          	addi	s4,sp,4
    1004:	0080006f          	j	100c <simrv_puti+0x30>
    1008:	00098493          	mv	s1,s3
    100c:	00a00593          	li	a1,10
    1010:	00090513          	mv	a0,s2
    1014:	234000ef          	jal	ra,1248 <__modsi3>
    1018:	03050513          	addi	a0,a0,48
    101c:	00148993          	addi	s3,s1,1
    1020:	0ff57413          	andi	s0,a0,255
    1024:	013a07b3          	add	a5,s4,s3
    1028:	00090513          	mv	a0,s2
    102c:	00a00593          	li	a1,10
    1030:	fe878fa3          	sb	s0,-1(a5) # ffff <TOHOST_ADDR+0xebdf>
    1034:	190000ef          	jal	ra,11c4 <__divsi3>
    1038:	00050913          	mv	s2,a0
    103c:	fc0516e3          	bnez	a0,1008 <simrv_puti+0x2c>
    1040:	000017b7          	lui	a5,0x1
    1044:	4207a603          	lw	a2,1056(a5) # 1420 <TOHOST_ADDR>
    1048:	000106b7          	lui	a3,0x10
    104c:	009a07b3          	add	a5,s4,s1
    1050:	00c0006f          	j	105c <simrv_puti+0x80>
    1054:	fff7c403          	lbu	s0,-1(a5)
    1058:	00070793          	mv	a5,a4
    105c:	00d46433          	or	s0,s0,a3
    1060:	00862023          	sw	s0,0(a2)
    1064:	fff78713          	addi	a4,a5,-1
    1068:	fefa16e3          	bne	s4,a5,1054 <simrv_puti+0x78>
    106c:	02c12083          	lw	ra,44(sp)
    1070:	02812403          	lw	s0,40(sp)
    1074:	02412483          	lw	s1,36(sp)
    1078:	02012903          	lw	s2,32(sp)
    107c:	01c12983          	lw	s3,28(sp)
    1080:	01812a03          	lw	s4,24(sp)
    1084:	03010113          	addi	sp,sp,48
    1088:	00008067          	ret

0000108c <simrv_puth>:
    108c:	ff010113          	addi	sp,sp,-16
    1090:	00000793          	li	a5,0
    1094:	00810593          	addi	a1,sp,8
    1098:	00900e13          	li	t3,9
    109c:	0140006f          	j	10b0 <simrv_puth+0x24>
    10a0:	fe688fa3          	sb	t1,-1(a7)
    10a4:	00455513          	srli	a0,a0,0x4
    10a8:	02050863          	beqz	a0,10d8 <simrv_puth+0x4c>
    10ac:	00060793          	mv	a5,a2
    10b0:	00f57713          	andi	a4,a0,15
    10b4:	0ff77693          	andi	a3,a4,255
    10b8:	00178613          	addi	a2,a5,1
    10bc:	03068313          	addi	t1,a3,48 # 10030 <TOHOST_ADDR+0xec10>
    10c0:	00c588b3          	add	a7,a1,a2
    10c4:	03768693          	addi	a3,a3,55
    10c8:	fcee7ce3          	bgeu	t3,a4,10a0 <simrv_puth+0x14>
    10cc:	fed88fa3          	sb	a3,-1(a7)
    10d0:	00455513          	srli	a0,a0,0x4
    10d4:	fc051ce3          	bnez	a0,10ac <simrv_puth+0x20>
    10d8:	0207c863          	bltz	a5,1108 <simrv_puth+0x7c>
    10dc:	00001737          	lui	a4,0x1
    10e0:	42072503          	lw	a0,1056(a4) # 1420 <TOHOST_ADDR>
    10e4:	00f587b3          	add	a5,a1,a5
    10e8:	00010637          	lui	a2,0x10
    10ec:	0080006f          	j	10f4 <simrv_puth+0x68>
    10f0:	00068793          	mv	a5,a3
    10f4:	0007c703          	lbu	a4,0(a5)
    10f8:	fff78693          	addi	a3,a5,-1
    10fc:	00c76733          	or	a4,a4,a2
    1100:	00e52023          	sw	a4,0(a0)
    1104:	fef596e3          	bne	a1,a5,10f0 <simrv_puth+0x64>
    1108:	01010113          	addi	sp,sp,16
    110c:	00008067          	ret

00001110 <__mulsi3>:
    1110:	00050613          	mv	a2,a0
    1114:	00000513          	li	a0,0
    1118:	0015f693          	andi	a3,a1,1
    111c:	00068463          	beqz	a3,1124 <__mulsi3+0x14>
    1120:	00c50533          	add	a0,a0,a2
    1124:	0015d593          	srli	a1,a1,0x1
    1128:	00161613          	slli	a2,a2,0x1
    112c:	fe0596e3          	bnez	a1,1118 <__mulsi3+0x8>
    1130:	00008067          	ret

00001134 <__muldi3>:
    1134:	ff010113          	addi	sp,sp,-16
    1138:	00068313          	mv	t1,a3
    113c:	00112623          	sw	ra,12(sp)
    1140:	00050e13          	mv	t3,a0
    1144:	00050893          	mv	a7,a0
    1148:	00060693          	mv	a3,a2
    114c:	00000713          	li	a4,0
    1150:	00000793          	li	a5,0
    1154:	00000813          	li	a6,0
    1158:	0016f513          	andi	a0,a3,1
    115c:	00171e93          	slli	t4,a4,0x1
    1160:	00050c63          	beqz	a0,1178 <__muldi3+0x44>
    1164:	01088533          	add	a0,a7,a6
    1168:	01053833          	sltu	a6,a0,a6
    116c:	00e787b3          	add	a5,a5,a4
    1170:	00f807b3          	add	a5,a6,a5
    1174:	00050813          	mv	a6,a0
    1178:	01f8d713          	srli	a4,a7,0x1f
    117c:	0016d693          	srli	a3,a3,0x1
    1180:	00eee733          	or	a4,t4,a4
    1184:	00189893          	slli	a7,a7,0x1
    1188:	fc0698e3          	bnez	a3,1158 <__muldi3+0x24>
    118c:	00058863          	beqz	a1,119c <__muldi3+0x68>
    1190:	00060513          	mv	a0,a2
    1194:	f7dff0ef          	jal	ra,1110 <__mulsi3>
    1198:	00a787b3          	add	a5,a5,a0
    119c:	00030a63          	beqz	t1,11b0 <__muldi3+0x7c>
    11a0:	000e0513          	mv	a0,t3
    11a4:	00030593          	mv	a1,t1
    11a8:	f69ff0ef          	jal	ra,1110 <__mulsi3>
    11ac:	00f507b3          	add	a5,a0,a5
    11b0:	00c12083          	lw	ra,12(sp)
    11b4:	00080513          	mv	a0,a6
    11b8:	00078593          	mv	a1,a5
    11bc:	01010113          	addi	sp,sp,16
    11c0:	00008067          	ret

000011c4 <__divsi3>:
    11c4:	06054063          	bltz	a0,1224 <__umodsi3+0x10>
    11c8:	0605c663          	bltz	a1,1234 <__umodsi3+0x20>

000011cc <__udivsi3>:
    11cc:	00058613          	mv	a2,a1
    11d0:	00050593          	mv	a1,a0
    11d4:	fff00513          	li	a0,-1
    11d8:	02060c63          	beqz	a2,1210 <__udivsi3+0x44>
    11dc:	00100693          	li	a3,1
    11e0:	00b67a63          	bgeu	a2,a1,11f4 <__udivsi3+0x28>
    11e4:	00c05863          	blez	a2,11f4 <__udivsi3+0x28>
    11e8:	00161613          	slli	a2,a2,0x1
    11ec:	00169693          	slli	a3,a3,0x1
    11f0:	feb66ae3          	bltu	a2,a1,11e4 <__udivsi3+0x18>
    11f4:	00000513          	li	a0,0
    11f8:	00c5e663          	bltu	a1,a2,1204 <__udivsi3+0x38>
    11fc:	40c585b3          	sub	a1,a1,a2
    1200:	00d56533          	or	a0,a0,a3
    1204:	0016d693          	srli	a3,a3,0x1
    1208:	00165613          	srli	a2,a2,0x1
    120c:	fe0696e3          	bnez	a3,11f8 <__udivsi3+0x2c>
    1210:	00008067          	ret

00001214 <__umodsi3>:
    1214:	00008293          	mv	t0,ra
    1218:	fb5ff0ef          	jal	ra,11cc <__udivsi3>
    121c:	00058513          	mv	a0,a1
    1220:	00028067          	jr	t0
    1224:	40a00533          	neg	a0,a0
    1228:	0005d863          	bgez	a1,1238 <__umodsi3+0x24>
    122c:	40b005b3          	neg	a1,a1
    1230:	f9dff06f          	j	11cc <__udivsi3>
    1234:	40b005b3          	neg	a1,a1
    1238:	00008293          	mv	t0,ra
    123c:	f91ff0ef          	jal	ra,11cc <__udivsi3>
    1240:	40a00533          	neg	a0,a0
    1244:	00028067          	jr	t0

00001248 <__modsi3>:
    1248:	00008293          	mv	t0,ra
    124c:	0005ca63          	bltz	a1,1260 <__modsi3+0x18>
    1250:	00054c63          	bltz	a0,1268 <__modsi3+0x20>
    1254:	f79ff0ef          	jal	ra,11cc <__udivsi3>
    1258:	00058513          	mv	a0,a1
    125c:	00028067          	jr	t0
    1260:	40b005b3          	neg	a1,a1
    1264:	fe0558e3          	bgez	a0,1254 <__modsi3+0xc>
    1268:	40a00533          	neg	a0,a0
    126c:	f61ff0ef          	jal	ra,11cc <__udivsi3>
    1270:	40b00533          	neg	a0,a1
    1274:	00028067          	jr	t0

00001278 <memset>:
    1278:	00f00313          	li	t1,15
    127c:	00050713          	mv	a4,a0
    1280:	02c37e63          	bgeu	t1,a2,12bc <memset+0x44>
    1284:	00f77793          	andi	a5,a4,15
    1288:	0a079063          	bnez	a5,1328 <memset+0xb0>
    128c:	08059263          	bnez	a1,1310 <memset+0x98>
    1290:	ff067693          	andi	a3,a2,-16
    1294:	00f67613          	andi	a2,a2,15
    1298:	00e686b3          	add	a3,a3,a4
    129c:	00b72023          	sw	a1,0(a4)
    12a0:	00b72223          	sw	a1,4(a4)
    12a4:	00b72423          	sw	a1,8(a4)
    12a8:	00b72623          	sw	a1,12(a4)
    12ac:	01070713          	addi	a4,a4,16
    12b0:	fed766e3          	bltu	a4,a3,129c <memset+0x24>
    12b4:	00061463          	bnez	a2,12bc <memset+0x44>
    12b8:	00008067          	ret
    12bc:	40c306b3          	sub	a3,t1,a2
    12c0:	00269693          	slli	a3,a3,0x2
    12c4:	00000297          	auipc	t0,0x0
    12c8:	005686b3          	add	a3,a3,t0
    12cc:	00c68067          	jr	12(a3)
    12d0:	00b70723          	sb	a1,14(a4)
    12d4:	00b706a3          	sb	a1,13(a4)
    12d8:	00b70623          	sb	a1,12(a4)
    12dc:	00b705a3          	sb	a1,11(a4)
    12e0:	00b70523          	sb	a1,10(a4)
    12e4:	00b704a3          	sb	a1,9(a4)
    12e8:	00b70423          	sb	a1,8(a4)
    12ec:	00b703a3          	sb	a1,7(a4)
    12f0:	00b70323          	sb	a1,6(a4)
    12f4:	00b702a3          	sb	a1,5(a4)
    12f8:	00b70223          	sb	a1,4(a4)
    12fc:	00b701a3          	sb	a1,3(a4)
    1300:	00b70123          	sb	a1,2(a4)
    1304:	00b700a3          	sb	a1,1(a4)
    1308:	00b70023          	sb	a1,0(a4)
    130c:	00008067          	ret
    1310:	0ff5f593          	andi	a1,a1,255
    1314:	00859693          	slli	a3,a1,0x8
    1318:	00d5e5b3          	or	a1,a1,a3
    131c:	01059693          	slli	a3,a1,0x10
    1320:	00d5e5b3          	or	a1,a1,a3
    1324:	f6dff06f          	j	1290 <memset+0x18>
    1328:	00279693          	slli	a3,a5,0x2
    132c:	00000297          	auipc	t0,0x0
    1330:	005686b3          	add	a3,a3,t0
    1334:	00008293          	mv	t0,ra
    1338:	fa0680e7          	jalr	-96(a3)
    133c:	00028093          	mv	ra,t0
    1340:	ff078793          	addi	a5,a5,-16
    1344:	40f70733          	sub	a4,a4,a5
    1348:	00f60633          	add	a2,a2,a5
    134c:	f6c378e3          	bgeu	t1,a2,12bc <memset+0x44>
    1350:	f3dff06f          	j	128c <memset+0x14>

Disassembly of section .text.startup:

00001354 <main>:
    1354:	fe010113          	addi	sp,sp,-32
    1358:	00112e23          	sw	ra,28(sp)
    135c:	00812c23          	sw	s0,24(sp)
    1360:	a3dff0ef          	jal	ra,d9c <initialise_board>
    1364:	9e5ff0ef          	jal	ra,d48 <initialise_benchmark>
    1368:	00100513          	li	a0,1
    136c:	9cdff0ef          	jal	ra,d38 <warm_caches>
    1370:	a35ff0ef          	jal	ra,da4 <start_trigger>
    1374:	9c9ff0ef          	jal	ra,d3c <benchmark>
    1378:	00a12623          	sw	a0,12(sp)
    137c:	a31ff0ef          	jal	ra,dac <stop_trigger>
    1380:	00c12503          	lw	a0,12(sp)
    1384:	a11ff0ef          	jal	ra,d94 <verify_benchmark>
    1388:	00050413          	mv	s0,a0
    138c:	02050463          	beqz	a0,13b4 <main+0x60>
    1390:	00001537          	lui	a0,0x1
    1394:	3e050513          	addi	a0,a0,992 # 13e0 <main+0x8c>
    1398:	c19ff0ef          	jal	ra,fb0 <simrv_puts>
    139c:	be9ff0ef          	jal	ra,f84 <simrv_exit>
    13a0:	00143513          	seqz	a0,s0
    13a4:	01c12083          	lw	ra,28(sp)
    13a8:	01812403          	lw	s0,24(sp)
    13ac:	02010113          	addi	sp,sp,32
    13b0:	00008067          	ret
    13b4:	00001537          	lui	a0,0x1
    13b8:	3ec50513          	addi	a0,a0,1004 # 13ec <main+0x98>
    13bc:	bf5ff0ef          	jal	ra,fb0 <simrv_puts>
    13c0:	fddff06f          	j	139c <main+0x48>

Disassembly of section .srodata.cst8:

000013c8 <.srodata.cst8>:
    13c8:	f89f 3928 4927      	0x49273928f89f
    13ce:	fae8                	fsw	fa0,116(a3)
    13d0:	b9330573          	0xb9330573
    13d4:	14736def          	jal	s11,37d1a <TOHOST_ADDR+0x368fa>
    13d8:	87237fef          	jal	t6,fff3844a <TOHOST_ADDR+0xfff3702a>
    13dc:	3721                	jal	12e4 <memset+0x6c>
    13de:	0549                	addi	a0,a0,18
