
bd/src/cubic/cubic:     file format elf32-littleriscv


Disassembly of section .init:

00000000 <_start>:
   0:	00000013          	nop
   4:	00000033          	add	zero,zero,zero
   8:	000000b3          	add	ra,zero,zero
   c:	00000133          	add	sp,zero,zero
  10:	000001b3          	add	gp,zero,zero
  14:	00000233          	add	tp,zero,zero
  18:	000002b3          	add	t0,zero,zero
  1c:	00000333          	add	t1,zero,zero
  20:	000003b3          	add	t2,zero,zero
  24:	00000433          	add	s0,zero,zero
  28:	000004b3          	add	s1,zero,zero
  2c:	00000533          	add	a0,zero,zero
  30:	000005b3          	add	a1,zero,zero
  34:	00000633          	add	a2,zero,zero
  38:	000006b3          	add	a3,zero,zero
  3c:	00000733          	add	a4,zero,zero
  40:	000007b3          	add	a5,zero,zero
  44:	00000833          	add	a6,zero,zero
  48:	000008b3          	add	a7,zero,zero
  4c:	00000933          	add	s2,zero,zero
  50:	000009b3          	add	s3,zero,zero
  54:	00000a33          	add	s4,zero,zero
  58:	00000ab3          	add	s5,zero,zero
  5c:	00000b33          	add	s6,zero,zero
  60:	00000bb3          	add	s7,zero,zero
  64:	00000c33          	add	s8,zero,zero
  68:	00000cb3          	add	s9,zero,zero
  6c:	00000d33          	add	s10,zero,zero
  70:	00000db3          	add	s11,zero,zero
  74:	00000e33          	add	t3,zero,zero
  78:	00000eb3          	add	t4,zero,zero
  7c:	00000f33          	add	t5,zero,zero
  80:	00000fb3          	add	t6,zero,zero
  84:	00010137          	lui	sp,0x10
  88:	7dc0c06f          	j	c864 <main>
  8c:	00000013          	nop

Disassembly of section .text:

00000090 <SolveCubic>:
      90:	00050313          	mv	t1,a0
      94:	00058393          	mv	t2,a1
      98:	ed010113          	addi	sp,sp,-304 # fed0 <_impure_ptr+0x2a88>
      9c:	00060513          	mv	a0,a2
      a0:	00068593          	mv	a1,a3
      a4:	00030613          	mv	a2,t1
      a8:	00038693          	mv	a3,t2
      ac:	12112623          	sw	ra,300(sp)
      b0:	03012423          	sw	a6,40(sp)
      b4:	03112623          	sw	a7,44(sp)
      b8:	12812423          	sw	s0,296(sp)
      bc:	12912223          	sw	s1,292(sp)
      c0:	13212023          	sw	s2,288(sp)
      c4:	11312e23          	sw	s3,284(sp)
      c8:	11412c23          	sw	s4,280(sp)
      cc:	11512a23          	sw	s5,276(sp)
      d0:	00070a13          	mv	s4,a4
      d4:	00078a93          	mv	s5,a5
      d8:	11612823          	sw	s6,272(sp)
      dc:	11712623          	sw	s7,268(sp)
      e0:	11812423          	sw	s8,264(sp)
      e4:	11912223          	sw	s9,260(sp)
      e8:	11a12023          	sw	s10,256(sp)
      ec:	0fb12e23          	sw	s11,252(sp)
      f0:	00612423          	sw	t1,8(sp)
      f4:	00712623          	sw	t2,12(sp)
      f8:	009050ef          	jal	ra,5900 <__divdf3>
      fc:	00058613          	mv	a2,a1
     100:	00050593          	mv	a1,a0
     104:	0e010513          	addi	a0,sp,224
     108:	0140c0ef          	jal	ra,c11c <__extenddftf2>
     10c:	00812303          	lw	t1,8(sp)
     110:	00c12383          	lw	t2,12(sp)
     114:	000a0513          	mv	a0,s4
     118:	00030613          	mv	a2,t1
     11c:	00038693          	mv	a3,t2
     120:	000a8593          	mv	a1,s5
     124:	02612023          	sw	t1,32(sp)
     128:	02712223          	sw	t2,36(sp)
     12c:	7d4050ef          	jal	ra,5900 <__divdf3>
     130:	0e012983          	lw	s3,224(sp)
     134:	0e412903          	lw	s2,228(sp)
     138:	0e812483          	lw	s1,232(sp)
     13c:	0ec12403          	lw	s0,236(sp)
     140:	00058613          	mv	a2,a1
     144:	00050593          	mv	a1,a0
     148:	0e010513          	addi	a0,sp,224
     14c:	7d10b0ef          	jal	ra,c11c <__extenddftf2>
     150:	0c010613          	addi	a2,sp,192
     154:	0e012d83          	lw	s11,224(sp)
     158:	0e412d03          	lw	s10,228(sp)
     15c:	0e812b83          	lw	s7,232(sp)
     160:	0ec12b03          	lw	s6,236(sp)
     164:	0d010593          	addi	a1,sp,208
     168:	0e010513          	addi	a0,sp,224
     16c:	0d312823          	sw	s3,208(sp)
     170:	0d212a23          	sw	s2,212(sp)
     174:	0c912c23          	sw	s1,216(sp)
     178:	0c812e23          	sw	s0,220(sp)
     17c:	0d312023          	sw	s3,192(sp)
     180:	0d212223          	sw	s2,196(sp)
     184:	0c912423          	sw	s1,200(sp)
     188:	0c812623          	sw	s0,204(sp)
     18c:	688090ef          	jal	ra,9814 <__multf3>
     190:	400087b7          	lui	a5,0x40008
     194:	0b010613          	addi	a2,sp,176
     198:	0c010593          	addi	a1,sp,192
     19c:	0d010513          	addi	a0,sp,208
     1a0:	0e012c83          	lw	s9,224(sp)
     1a4:	0e412c03          	lw	s8,228(sp)
     1a8:	0e812a83          	lw	s5,232(sp)
     1ac:	0ec12a03          	lw	s4,236(sp)
     1b0:	0db12023          	sw	s11,192(sp)
     1b4:	0da12223          	sw	s10,196(sp)
     1b8:	0d712423          	sw	s7,200(sp)
     1bc:	0d612623          	sw	s6,204(sp)
     1c0:	0af12e23          	sw	a5,188(sp)
     1c4:	0a012823          	sw	zero,176(sp)
     1c8:	0a012a23          	sw	zero,180(sp)
     1cc:	0a012c23          	sw	zero,184(sp)
     1d0:	644090ef          	jal	ra,9814 <__multf3>
     1d4:	0d012783          	lw	a5,208(sp)
     1d8:	0a010613          	addi	a2,sp,160
     1dc:	0b010593          	addi	a1,sp,176
     1e0:	0af12023          	sw	a5,160(sp)
     1e4:	0d412783          	lw	a5,212(sp)
     1e8:	0c010513          	addi	a0,sp,192
     1ec:	0b912823          	sw	s9,176(sp)
     1f0:	0af12223          	sw	a5,164(sp)
     1f4:	0d812783          	lw	a5,216(sp)
     1f8:	0b812a23          	sw	s8,180(sp)
     1fc:	0b512c23          	sw	s5,184(sp)
     200:	0af12423          	sw	a5,168(sp)
     204:	0dc12783          	lw	a5,220(sp)
     208:	0b412e23          	sw	s4,188(sp)
     20c:	0af12623          	sw	a5,172(sp)
     210:	16d0a0ef          	jal	ra,ab7c <__subtf3>
     214:	0c012703          	lw	a4,192(sp)
     218:	400227b7          	lui	a5,0x40022
     21c:	09010613          	addi	a2,sp,144
     220:	0ae12023          	sw	a4,160(sp)
     224:	0c412703          	lw	a4,196(sp)
     228:	0a010593          	addi	a1,sp,160
     22c:	0b010513          	addi	a0,sp,176
     230:	0ae12223          	sw	a4,164(sp)
     234:	0c812703          	lw	a4,200(sp)
     238:	08f12e23          	sw	a5,156(sp)
     23c:	08012823          	sw	zero,144(sp)
     240:	0ae12423          	sw	a4,168(sp)
     244:	0cc12703          	lw	a4,204(sp)
     248:	08012a23          	sw	zero,148(sp)
     24c:	08012c23          	sw	zero,152(sp)
     250:	0ae12623          	sw	a4,172(sp)
     254:	5dc080ef          	jal	ra,8830 <__divtf3>
     258:	0c010613          	addi	a2,sp,192
     25c:	0d010593          	addi	a1,sp,208
     260:	0e010513          	addi	a0,sp,224
     264:	0b012c83          	lw	s9,176(sp)
     268:	0b412c03          	lw	s8,180(sp)
     26c:	0b812a83          	lw	s5,184(sp)
     270:	0bc12a03          	lw	s4,188(sp)
     274:	0d312823          	sw	s3,208(sp)
     278:	0d212a23          	sw	s2,212(sp)
     27c:	0c912c23          	sw	s1,216(sp)
     280:	0c812e23          	sw	s0,220(sp)
     284:	0d312023          	sw	s3,192(sp)
     288:	0d212223          	sw	s2,196(sp)
     28c:	0c912423          	sw	s1,200(sp)
     290:	0c812623          	sw	s0,204(sp)
     294:	034070ef          	jal	ra,72c8 <__addtf3>
     298:	0e012703          	lw	a4,224(sp)
     29c:	0b010613          	addi	a2,sp,176
     2a0:	0c010593          	addi	a1,sp,192
     2a4:	0ce12023          	sw	a4,192(sp)
     2a8:	0e412703          	lw	a4,228(sp)
     2ac:	0d010513          	addi	a0,sp,208
     2b0:	0b312823          	sw	s3,176(sp)
     2b4:	0ce12223          	sw	a4,196(sp)
     2b8:	0e812703          	lw	a4,232(sp)
     2bc:	0b212a23          	sw	s2,180(sp)
     2c0:	0a912c23          	sw	s1,184(sp)
     2c4:	0ce12423          	sw	a4,200(sp)
     2c8:	0ec12703          	lw	a4,236(sp)
     2cc:	0a812e23          	sw	s0,188(sp)
     2d0:	0ce12623          	sw	a4,204(sp)
     2d4:	540090ef          	jal	ra,9814 <__multf3>
     2d8:	0d012703          	lw	a4,208(sp)
     2dc:	0a010613          	addi	a2,sp,160
     2e0:	0b010593          	addi	a1,sp,176
     2e4:	0ae12823          	sw	a4,176(sp)
     2e8:	0d412703          	lw	a4,212(sp)
     2ec:	0c010513          	addi	a0,sp,192
     2f0:	0b312023          	sw	s3,160(sp)
     2f4:	0ae12a23          	sw	a4,180(sp)
     2f8:	0d812703          	lw	a4,216(sp)
     2fc:	0b212223          	sw	s2,164(sp)
     300:	0a912423          	sw	s1,168(sp)
     304:	0ae12c23          	sw	a4,184(sp)
     308:	0dc12703          	lw	a4,220(sp)
     30c:	0a812623          	sw	s0,172(sp)
     310:	0ae12e23          	sw	a4,188(sp)
     314:	500090ef          	jal	ra,9814 <__multf3>
     318:	400227b7          	lui	a5,0x40022
     31c:	0c012e03          	lw	t3,192(sp)
     320:	0c412683          	lw	a3,196(sp)
     324:	0c812703          	lw	a4,200(sp)
     328:	08f12e23          	sw	a5,156(sp)
     32c:	0cc12783          	lw	a5,204(sp)
     330:	09010613          	addi	a2,sp,144
     334:	0a010593          	addi	a1,sp,160
     338:	0b010513          	addi	a0,sp,176
     33c:	01c12e23          	sw	t3,28(sp)
     340:	00d12c23          	sw	a3,24(sp)
     344:	00e12a23          	sw	a4,20(sp)
     348:	00f12423          	sw	a5,8(sp)
     34c:	0b312023          	sw	s3,160(sp)
     350:	0b212223          	sw	s2,164(sp)
     354:	0a912423          	sw	s1,168(sp)
     358:	0a812623          	sw	s0,172(sp)
     35c:	08012823          	sw	zero,144(sp)
     360:	08012a23          	sw	zero,148(sp)
     364:	08012c23          	sw	zero,152(sp)
     368:	4ac090ef          	jal	ra,9814 <__multf3>
     36c:	0b012e83          	lw	t4,176(sp)
     370:	08010613          	addi	a2,sp,128
     374:	09010593          	addi	a1,sp,144
     378:	09d12823          	sw	t4,144(sp)
     37c:	0b412e83          	lw	t4,180(sp)
     380:	0a010513          	addi	a0,sp,160
     384:	09b12023          	sw	s11,128(sp)
     388:	09d12a23          	sw	t4,148(sp)
     38c:	0b812e83          	lw	t4,184(sp)
     390:	09a12223          	sw	s10,132(sp)
     394:	09712423          	sw	s7,136(sp)
     398:	09d12c23          	sw	t4,152(sp)
     39c:	0bc12e83          	lw	t4,188(sp)
     3a0:	09612623          	sw	s6,140(sp)
     3a4:	09d12e23          	sw	t4,156(sp)
     3a8:	46c090ef          	jal	ra,9814 <__multf3>
     3ac:	00812783          	lw	a5,8(sp)
     3b0:	01c12e03          	lw	t3,28(sp)
     3b4:	01412703          	lw	a4,20(sp)
     3b8:	08f12623          	sw	a5,140(sp)
     3bc:	0a012783          	lw	a5,160(sp)
     3c0:	01812683          	lw	a3,24(sp)
     3c4:	07010613          	addi	a2,sp,112
     3c8:	06f12823          	sw	a5,112(sp)
     3cc:	0a412783          	lw	a5,164(sp)
     3d0:	08010593          	addi	a1,sp,128
     3d4:	09010513          	addi	a0,sp,144
     3d8:	06f12a23          	sw	a5,116(sp)
     3dc:	0a812783          	lw	a5,168(sp)
     3e0:	09c12023          	sw	t3,128(sp)
     3e4:	08e12423          	sw	a4,136(sp)
     3e8:	06f12c23          	sw	a5,120(sp)
     3ec:	0ac12783          	lw	a5,172(sp)
     3f0:	08d12223          	sw	a3,132(sp)
     3f4:	06f12e23          	sw	a5,124(sp)
     3f8:	7840a0ef          	jal	ra,ab7c <__subtf3>
     3fc:	02012303          	lw	t1,32(sp)
     400:	02412383          	lw	t2,36(sp)
     404:	02812803          	lw	a6,40(sp)
     408:	02c12883          	lw	a7,44(sp)
     40c:	00030613          	mv	a2,t1
     410:	00038693          	mv	a3,t2
     414:	00080513          	mv	a0,a6
     418:	00088593          	mv	a1,a7
     41c:	4e4050ef          	jal	ra,5900 <__divdf3>
     420:	00058613          	mv	a2,a1
     424:	00050593          	mv	a1,a0
     428:	08010513          	addi	a0,sp,128
     42c:	09012d83          	lw	s11,144(sp)
     430:	09412d03          	lw	s10,148(sp)
     434:	09812b83          	lw	s7,152(sp)
     438:	09c12b03          	lw	s6,156(sp)
     43c:	4e10b0ef          	jal	ra,c11c <__extenddftf2>
     440:	08012783          	lw	a5,128(sp)
     444:	05010613          	addi	a2,sp,80
     448:	06010593          	addi	a1,sp,96
     44c:	06f12023          	sw	a5,96(sp)
     450:	08412783          	lw	a5,132(sp)
     454:	07010513          	addi	a0,sp,112
     458:	04012823          	sw	zero,80(sp)
     45c:	06f12223          	sw	a5,100(sp)
     460:	08812783          	lw	a5,136(sp)
     464:	04012a23          	sw	zero,84(sp)
     468:	04012c23          	sw	zero,88(sp)
     46c:	06f12423          	sw	a5,104(sp)
     470:	08c12783          	lw	a5,140(sp)
     474:	06f12623          	sw	a5,108(sp)
     478:	4003b7b7          	lui	a5,0x4003b
     47c:	04f12e23          	sw	a5,92(sp)
     480:	394090ef          	jal	ra,9814 <__multf3>
     484:	07012783          	lw	a5,112(sp)
     488:	04010613          	addi	a2,sp,64
     48c:	05010593          	addi	a1,sp,80
     490:	04f12023          	sw	a5,64(sp)
     494:	07412783          	lw	a5,116(sp)
     498:	06010513          	addi	a0,sp,96
     49c:	05b12823          	sw	s11,80(sp)
     4a0:	04f12223          	sw	a5,68(sp)
     4a4:	07812783          	lw	a5,120(sp)
     4a8:	05a12a23          	sw	s10,84(sp)
     4ac:	05712c23          	sw	s7,88(sp)
     4b0:	04f12423          	sw	a5,72(sp)
     4b4:	07c12783          	lw	a5,124(sp)
     4b8:	05612e23          	sw	s6,92(sp)
     4bc:	04f12623          	sw	a5,76(sp)
     4c0:	609060ef          	jal	ra,72c8 <__addtf3>
     4c4:	06012783          	lw	a5,96(sp)
     4c8:	03010613          	addi	a2,sp,48
     4cc:	04010593          	addi	a1,sp,64
     4d0:	04f12023          	sw	a5,64(sp)
     4d4:	06412783          	lw	a5,100(sp)
     4d8:	05010513          	addi	a0,sp,80
     4dc:	02012823          	sw	zero,48(sp)
     4e0:	04f12223          	sw	a5,68(sp)
     4e4:	06812783          	lw	a5,104(sp)
     4e8:	02012a23          	sw	zero,52(sp)
     4ec:	02012c23          	sw	zero,56(sp)
     4f0:	04f12423          	sw	a5,72(sp)
     4f4:	06c12783          	lw	a5,108(sp)
     4f8:	04f12623          	sw	a5,76(sp)
     4fc:	4004b7b7          	lui	a5,0x4004b
     500:	02f12e23          	sw	a5,60(sp)
     504:	32c080ef          	jal	ra,8830 <__divtf3>
     508:	0c010613          	addi	a2,sp,192
     50c:	0d010593          	addi	a1,sp,208
     510:	0e010513          	addi	a0,sp,224
     514:	05012d83          	lw	s11,80(sp)
     518:	05412d03          	lw	s10,84(sp)
     51c:	05812b83          	lw	s7,88(sp)
     520:	05c12b03          	lw	s6,92(sp)
     524:	0d912823          	sw	s9,208(sp)
     528:	0d812a23          	sw	s8,212(sp)
     52c:	0d512c23          	sw	s5,216(sp)
     530:	0d412e23          	sw	s4,220(sp)
     534:	0d912023          	sw	s9,192(sp)
     538:	0d812223          	sw	s8,196(sp)
     53c:	0d512423          	sw	s5,200(sp)
     540:	0d412623          	sw	s4,204(sp)
     544:	2d0090ef          	jal	ra,9814 <__multf3>
     548:	0e012783          	lw	a5,224(sp)
     54c:	0b010613          	addi	a2,sp,176
     550:	0c010593          	addi	a1,sp,192
     554:	0cf12023          	sw	a5,192(sp)
     558:	0e412783          	lw	a5,228(sp)
     55c:	0d010513          	addi	a0,sp,208
     560:	0b912823          	sw	s9,176(sp)
     564:	0cf12223          	sw	a5,196(sp)
     568:	0e812783          	lw	a5,232(sp)
     56c:	0b812a23          	sw	s8,180(sp)
     570:	0b512c23          	sw	s5,184(sp)
     574:	0cf12423          	sw	a5,200(sp)
     578:	0ec12783          	lw	a5,236(sp)
     57c:	0b412e23          	sw	s4,188(sp)
     580:	0cf12623          	sw	a5,204(sp)
     584:	290090ef          	jal	ra,9814 <__multf3>
     588:	0d812583          	lw	a1,216(sp)
     58c:	0dc12503          	lw	a0,220(sp)
     590:	0d012703          	lw	a4,208(sp)
     594:	0d412683          	lw	a3,212(sp)
     598:	0c010613          	addi	a2,sp,192
     59c:	00b12c23          	sw	a1,24(sp)
     5a0:	00a12e23          	sw	a0,28(sp)
     5a4:	0d010593          	addi	a1,sp,208
     5a8:	0e010513          	addi	a0,sp,224
     5ac:	00e12423          	sw	a4,8(sp)
     5b0:	00d12a23          	sw	a3,20(sp)
     5b4:	0db12823          	sw	s11,208(sp)
     5b8:	0da12a23          	sw	s10,212(sp)
     5bc:	0d712c23          	sw	s7,216(sp)
     5c0:	0d612e23          	sw	s6,220(sp)
     5c4:	0db12023          	sw	s11,192(sp)
     5c8:	0da12223          	sw	s10,196(sp)
     5cc:	0d712423          	sw	s7,200(sp)
     5d0:	0d612623          	sw	s6,204(sp)
     5d4:	240090ef          	jal	ra,9814 <__multf3>
     5d8:	0e012783          	lw	a5,224(sp)
     5dc:	01412683          	lw	a3,20(sp)
     5e0:	00812703          	lw	a4,8(sp)
     5e4:	0cf12023          	sw	a5,192(sp)
     5e8:	0e412783          	lw	a5,228(sp)
     5ec:	01812803          	lw	a6,24(sp)
     5f0:	01c12883          	lw	a7,28(sp)
     5f4:	0cf12223          	sw	a5,196(sp)
     5f8:	0e812783          	lw	a5,232(sp)
     5fc:	0b010613          	addi	a2,sp,176
     600:	0c010593          	addi	a1,sp,192
     604:	0cf12423          	sw	a5,200(sp)
     608:	0ec12783          	lw	a5,236(sp)
     60c:	0d010513          	addi	a0,sp,208
     610:	0ad12a23          	sw	a3,180(sp)
     614:	0cf12623          	sw	a5,204(sp)
     618:	0ae12823          	sw	a4,176(sp)
     61c:	0b012c23          	sw	a6,184(sp)
     620:	0b112e23          	sw	a7,188(sp)
     624:	5580a0ef          	jal	ra,ab7c <__subtf3>
     628:	0d012783          	lw	a5,208(sp)
     62c:	0c010513          	addi	a0,sp,192
     630:	0cf12023          	sw	a5,192(sp)
     634:	0d412783          	lw	a5,212(sp)
     638:	0cf12223          	sw	a5,196(sp)
     63c:	0d812783          	lw	a5,216(sp)
     640:	0cf12423          	sw	a5,200(sp)
     644:	0dc12783          	lw	a5,220(sp)
     648:	0cf12623          	sw	a5,204(sp)
     64c:	4d90b0ef          	jal	ra,c324 <__trunctfdf2>
     650:	00000613          	li	a2,0
     654:	00000693          	li	a3,0
     658:	02a12023          	sw	a0,32(sp)
     65c:	02b12223          	sw	a1,36(sp)
     660:	3dd050ef          	jal	ra,623c <__ledf2>
     664:	1aa05263          	blez	a0,808 <SolveCubic+0x778>
     668:	13012703          	lw	a4,304(sp)
     66c:	02012503          	lw	a0,32(sp)
     670:	02412583          	lw	a1,36(sp)
     674:	00100793          	li	a5,1
     678:	00f72023          	sw	a5,0(a4)
     67c:	1cc010ef          	jal	ra,1848 <sqrt>
     680:	00a12423          	sw	a0,8(sp)
     684:	0e010513          	addi	a0,sp,224
     688:	00b12623          	sw	a1,12(sp)
     68c:	0fb12023          	sw	s11,224(sp)
     690:	0fa12223          	sw	s10,228(sp)
     694:	0f712423          	sw	s7,232(sp)
     698:	0f612623          	sw	s6,236(sp)
     69c:	4890b0ef          	jal	ra,c324 <__trunctfdf2>
     6a0:	00812603          	lw	a2,8(sp)
     6a4:	00c12683          	lw	a3,12(sp)
     6a8:	800007b7          	lui	a5,0x80000
     6ac:	fff7c793          	not	a5,a5
     6b0:	00f5f5b3          	and	a1,a1,a5
     6b4:	28d040ef          	jal	ra,5140 <__adddf3>
     6b8:	0000d837          	lui	a6,0xd
     6bc:	cd082603          	lw	a2,-816(a6) # ccd0 <__clz_tab+0x120>
     6c0:	cd482683          	lw	a3,-812(a6)
     6c4:	725000ef          	jal	ra,15e8 <pow>
     6c8:	0e010713          	addi	a4,sp,224
     6cc:	00a12423          	sw	a0,8(sp)
     6d0:	00070513          	mv	a0,a4
     6d4:	0f812223          	sw	s8,228(sp)
     6d8:	0f512423          	sw	s5,232(sp)
     6dc:	0f412623          	sw	s4,236(sp)
     6e0:	00b12623          	sw	a1,12(sp)
     6e4:	0f912023          	sw	s9,224(sp)
     6e8:	43d0b0ef          	jal	ra,c324 <__trunctfdf2>
     6ec:	00812a03          	lw	s4,8(sp)
     6f0:	00c12a83          	lw	s5,12(sp)
     6f4:	000a0613          	mv	a2,s4
     6f8:	000a8693          	mv	a3,s5
     6fc:	204050ef          	jal	ra,5900 <__divdf3>
     700:	000a0613          	mv	a2,s4
     704:	000a8693          	mv	a3,s5
     708:	239040ef          	jal	ra,5140 <__adddf3>
     70c:	00058c13          	mv	s8,a1
     710:	00050a13          	mv	s4,a0
     714:	0d010593          	addi	a1,sp,208
     718:	0e010513          	addi	a0,sp,224
     71c:	0fb12023          	sw	s11,224(sp)
     720:	0fa12223          	sw	s10,228(sp)
     724:	0f712423          	sw	s7,232(sp)
     728:	0f612623          	sw	s6,236(sp)
     72c:	0c012823          	sw	zero,208(sp)
     730:	0c012a23          	sw	zero,212(sp)
     734:	0c012c23          	sw	zero,216(sp)
     738:	0c012e23          	sw	zero,220(sp)
     73c:	000c0a93          	mv	s5,s8
     740:	791080ef          	jal	ra,96d0 <__letf2>
     744:	00054663          	bltz	a0,750 <SolveCubic+0x6c0>
     748:	800007b7          	lui	a5,0x80000
     74c:	0187cab3          	xor	s5,a5,s8
     750:	0c010613          	addi	a2,sp,192
     754:	400087b7          	lui	a5,0x40008
     758:	0d010593          	addi	a1,sp,208
     75c:	0e010513          	addi	a0,sp,224
     760:	0cf12623          	sw	a5,204(sp)
     764:	0d312823          	sw	s3,208(sp)
     768:	0d212a23          	sw	s2,212(sp)
     76c:	0c912c23          	sw	s1,216(sp)
     770:	0c812e23          	sw	s0,220(sp)
     774:	0c012023          	sw	zero,192(sp)
     778:	0c012223          	sw	zero,196(sp)
     77c:	0c012423          	sw	zero,200(sp)
     780:	0b0080ef          	jal	ra,8830 <__divtf3>
     784:	0e012783          	lw	a5,224(sp)
     788:	0d010513          	addi	a0,sp,208
     78c:	0cf12823          	sw	a5,208(sp)
     790:	0e412783          	lw	a5,228(sp)
     794:	0cf12a23          	sw	a5,212(sp)
     798:	0e812783          	lw	a5,232(sp)
     79c:	0cf12c23          	sw	a5,216(sp)
     7a0:	0ec12783          	lw	a5,236(sp)
     7a4:	0cf12e23          	sw	a5,220(sp)
     7a8:	37d0b0ef          	jal	ra,c324 <__trunctfdf2>
     7ac:	00050613          	mv	a2,a0
     7b0:	00058693          	mv	a3,a1
     7b4:	000a0513          	mv	a0,s4
     7b8:	000a8593          	mv	a1,s5
     7bc:	1d0060ef          	jal	ra,698c <__subdf3>
     7c0:	13412783          	lw	a5,308(sp)
     7c4:	00a7a023          	sw	a0,0(a5) # 40008000 <_impure_ptr+0x3fffabb8>
     7c8:	00b7a223          	sw	a1,4(a5)
     7cc:	12c12083          	lw	ra,300(sp)
     7d0:	12812403          	lw	s0,296(sp)
     7d4:	12412483          	lw	s1,292(sp)
     7d8:	12012903          	lw	s2,288(sp)
     7dc:	11c12983          	lw	s3,284(sp)
     7e0:	11812a03          	lw	s4,280(sp)
     7e4:	11412a83          	lw	s5,276(sp)
     7e8:	11012b03          	lw	s6,272(sp)
     7ec:	10c12b83          	lw	s7,268(sp)
     7f0:	10812c03          	lw	s8,264(sp)
     7f4:	10412c83          	lw	s9,260(sp)
     7f8:	10012d03          	lw	s10,256(sp)
     7fc:	0fc12d83          	lw	s11,252(sp)
     800:	13010113          	addi	sp,sp,304
     804:	00008067          	ret
     808:	13012603          	lw	a2,304(sp)
     80c:	01812803          	lw	a6,24(sp)
     810:	01c12883          	lw	a7,28(sp)
     814:	00812703          	lw	a4,8(sp)
     818:	01412683          	lw	a3,20(sp)
     81c:	00300793          	li	a5,3
     820:	00f62023          	sw	a5,0(a2)
     824:	0e010513          	addi	a0,sp,224
     828:	0f012423          	sw	a6,232(sp)
     82c:	0f112623          	sw	a7,236(sp)
     830:	0ee12023          	sw	a4,224(sp)
     834:	0ed12223          	sw	a3,228(sp)
     838:	2ed0b0ef          	jal	ra,c324 <__trunctfdf2>
     83c:	00c010ef          	jal	ra,1848 <sqrt>
     840:	00a12423          	sw	a0,8(sp)
     844:	0e010513          	addi	a0,sp,224
     848:	0fb12023          	sw	s11,224(sp)
     84c:	0fa12223          	sw	s10,228(sp)
     850:	0f712423          	sw	s7,232(sp)
     854:	0f612623          	sw	s6,236(sp)
     858:	00b12623          	sw	a1,12(sp)
     85c:	2c90b0ef          	jal	ra,c324 <__trunctfdf2>
     860:	00812603          	lw	a2,8(sp)
     864:	00c12683          	lw	a3,12(sp)
     868:	098050ef          	jal	ra,5900 <__divdf3>
     86c:	4b5000ef          	jal	ra,1520 <acos>
     870:	00050b13          	mv	s6,a0
     874:	0e010513          	addi	a0,sp,224
     878:	00058b93          	mv	s7,a1
     87c:	0f912023          	sw	s9,224(sp)
     880:	0f812223          	sw	s8,228(sp)
     884:	0f512423          	sw	s5,232(sp)
     888:	0f412623          	sw	s4,236(sp)
     88c:	2990b0ef          	jal	ra,c324 <__trunctfdf2>
     890:	0000dcb7          	lui	s9,0xd
     894:	00050a13          	mv	s4,a0
     898:	00058a93          	mv	s5,a1
     89c:	7ad000ef          	jal	ra,1848 <sqrt>
     8a0:	cb0ca603          	lw	a2,-848(s9) # ccb0 <__clz_tab+0x100>
     8a4:	cb4ca683          	lw	a3,-844(s9)
     8a8:	00050d13          	mv	s10,a0
     8ac:	00058d93          	mv	s11,a1
     8b0:	000b0513          	mv	a0,s6
     8b4:	000b8593          	mv	a1,s7
     8b8:	048050ef          	jal	ra,5900 <__divdf3>
     8bc:	381000ef          	jal	ra,143c <cos>
     8c0:	400087b7          	lui	a5,0x40008
     8c4:	00a12423          	sw	a0,8(sp)
     8c8:	00b12623          	sw	a1,12(sp)
     8cc:	0c010613          	addi	a2,sp,192
     8d0:	0d010593          	addi	a1,sp,208
     8d4:	0e010513          	addi	a0,sp,224
     8d8:	0000dc37          	lui	s8,0xd
     8dc:	0cf12623          	sw	a5,204(sp)
     8e0:	0d312823          	sw	s3,208(sp)
     8e4:	0d212a23          	sw	s2,212(sp)
     8e8:	0c912c23          	sw	s1,216(sp)
     8ec:	0c812e23          	sw	s0,220(sp)
     8f0:	0c012023          	sw	zero,192(sp)
     8f4:	0c012223          	sw	zero,196(sp)
     8f8:	0c012423          	sw	zero,200(sp)
     8fc:	735070ef          	jal	ra,8830 <__divtf3>
     900:	cb8c2603          	lw	a2,-840(s8) # ccb8 <__clz_tab+0x108>
     904:	cbcc2683          	lw	a3,-836(s8)
     908:	000d0513          	mv	a0,s10
     90c:	000d8593          	mv	a1,s11
     910:	211050ef          	jal	ra,6320 <__muldf3>
     914:	00812703          	lw	a4,8(sp)
     918:	00c12783          	lw	a5,12(sp)
     91c:	0e012483          	lw	s1,224(sp)
     920:	00070613          	mv	a2,a4
     924:	00078693          	mv	a3,a5
     928:	1f9050ef          	jal	ra,6320 <__muldf3>
     92c:	00058613          	mv	a2,a1
     930:	00050593          	mv	a1,a0
     934:	0e010513          	addi	a0,sp,224
     938:	0e412d83          	lw	s11,228(sp)
     93c:	0e812d03          	lw	s10,232(sp)
     940:	0ec12403          	lw	s0,236(sp)
     944:	7d80b0ef          	jal	ra,c11c <__extenddftf2>
     948:	0e012783          	lw	a5,224(sp)
     94c:	0b010613          	addi	a2,sp,176
     950:	0c010593          	addi	a1,sp,192
     954:	0cf12023          	sw	a5,192(sp)
     958:	0e412783          	lw	a5,228(sp)
     95c:	0d010513          	addi	a0,sp,208
     960:	0a912823          	sw	s1,176(sp)
     964:	0cf12223          	sw	a5,196(sp)
     968:	0e812783          	lw	a5,232(sp)
     96c:	0bb12a23          	sw	s11,180(sp)
     970:	0ba12c23          	sw	s10,184(sp)
     974:	0cf12423          	sw	a5,200(sp)
     978:	0ec12783          	lw	a5,236(sp)
     97c:	0a812e23          	sw	s0,188(sp)
     980:	0cf12623          	sw	a5,204(sp)
     984:	1f80a0ef          	jal	ra,ab7c <__subtf3>
     988:	0d012783          	lw	a5,208(sp)
     98c:	0c010513          	addi	a0,sp,192
     990:	0cf12023          	sw	a5,192(sp)
     994:	0d412783          	lw	a5,212(sp)
     998:	0cf12223          	sw	a5,196(sp)
     99c:	0d812783          	lw	a5,216(sp)
     9a0:	0cf12423          	sw	a5,200(sp)
     9a4:	0dc12783          	lw	a5,220(sp)
     9a8:	0cf12623          	sw	a5,204(sp)
     9ac:	1790b0ef          	jal	ra,c324 <__trunctfdf2>
     9b0:	13412783          	lw	a5,308(sp)
     9b4:	00a7a023          	sw	a0,0(a5) # 40008000 <_impure_ptr+0x3fffabb8>
     9b8:	00b7a223          	sw	a1,4(a5)
     9bc:	000a0513          	mv	a0,s4
     9c0:	000a8593          	mv	a1,s5
     9c4:	685000ef          	jal	ra,1848 <sqrt>
     9c8:	0000d7b7          	lui	a5,0xd
     9cc:	cc07a603          	lw	a2,-832(a5) # ccc0 <__clz_tab+0x110>
     9d0:	cc47a683          	lw	a3,-828(a5)
     9d4:	00050913          	mv	s2,a0
     9d8:	00058993          	mv	s3,a1
     9dc:	000b0513          	mv	a0,s6
     9e0:	000b8593          	mv	a1,s7
     9e4:	75c040ef          	jal	ra,5140 <__adddf3>
     9e8:	cb0ca603          	lw	a2,-848(s9)
     9ec:	cb4ca683          	lw	a3,-844(s9)
     9f0:	711040ef          	jal	ra,5900 <__divdf3>
     9f4:	249000ef          	jal	ra,143c <cos>
     9f8:	cb8c2603          	lw	a2,-840(s8)
     9fc:	cbcc2683          	lw	a3,-836(s8)
     a00:	00a12423          	sw	a0,8(sp)
     a04:	00b12623          	sw	a1,12(sp)
     a08:	00090513          	mv	a0,s2
     a0c:	00098593          	mv	a1,s3
     a10:	111050ef          	jal	ra,6320 <__muldf3>
     a14:	00812703          	lw	a4,8(sp)
     a18:	00c12783          	lw	a5,12(sp)
     a1c:	00070613          	mv	a2,a4
     a20:	00078693          	mv	a3,a5
     a24:	0fd050ef          	jal	ra,6320 <__muldf3>
     a28:	00058613          	mv	a2,a1
     a2c:	00050593          	mv	a1,a0
     a30:	0e010513          	addi	a0,sp,224
     a34:	6e80b0ef          	jal	ra,c11c <__extenddftf2>
     a38:	0e012783          	lw	a5,224(sp)
     a3c:	0b010613          	addi	a2,sp,176
     a40:	0c010593          	addi	a1,sp,192
     a44:	0cf12023          	sw	a5,192(sp)
     a48:	0e412783          	lw	a5,228(sp)
     a4c:	0d010513          	addi	a0,sp,208
     a50:	0a912823          	sw	s1,176(sp)
     a54:	0cf12223          	sw	a5,196(sp)
     a58:	0e812783          	lw	a5,232(sp)
     a5c:	0bb12a23          	sw	s11,180(sp)
     a60:	0ba12c23          	sw	s10,184(sp)
     a64:	0cf12423          	sw	a5,200(sp)
     a68:	0ec12783          	lw	a5,236(sp)
     a6c:	0a812e23          	sw	s0,188(sp)
     a70:	0cf12623          	sw	a5,204(sp)
     a74:	1080a0ef          	jal	ra,ab7c <__subtf3>
     a78:	0d012783          	lw	a5,208(sp)
     a7c:	0c010513          	addi	a0,sp,192
     a80:	0cf12023          	sw	a5,192(sp)
     a84:	0d412783          	lw	a5,212(sp)
     a88:	0cf12223          	sw	a5,196(sp)
     a8c:	0d812783          	lw	a5,216(sp)
     a90:	0cf12423          	sw	a5,200(sp)
     a94:	0dc12783          	lw	a5,220(sp)
     a98:	0cf12623          	sw	a5,204(sp)
     a9c:	0890b0ef          	jal	ra,c324 <__trunctfdf2>
     aa0:	13412783          	lw	a5,308(sp)
     aa4:	00a7a423          	sw	a0,8(a5)
     aa8:	00b7a623          	sw	a1,12(a5)
     aac:	000a0513          	mv	a0,s4
     ab0:	000a8593          	mv	a1,s5
     ab4:	595000ef          	jal	ra,1848 <sqrt>
     ab8:	0000d7b7          	lui	a5,0xd
     abc:	cc87a603          	lw	a2,-824(a5) # ccc8 <__clz_tab+0x118>
     ac0:	ccc7a683          	lw	a3,-820(a5)
     ac4:	00050913          	mv	s2,a0
     ac8:	00058993          	mv	s3,a1
     acc:	000b0513          	mv	a0,s6
     ad0:	000b8593          	mv	a1,s7
     ad4:	66c040ef          	jal	ra,5140 <__adddf3>
     ad8:	cb0ca603          	lw	a2,-848(s9)
     adc:	cb4ca683          	lw	a3,-844(s9)
     ae0:	621040ef          	jal	ra,5900 <__divdf3>
     ae4:	159000ef          	jal	ra,143c <cos>
     ae8:	cb8c2603          	lw	a2,-840(s8)
     aec:	cbcc2683          	lw	a3,-836(s8)
     af0:	00050a13          	mv	s4,a0
     af4:	00058a93          	mv	s5,a1
     af8:	00090513          	mv	a0,s2
     afc:	00098593          	mv	a1,s3
     b00:	021050ef          	jal	ra,6320 <__muldf3>
     b04:	000a8693          	mv	a3,s5
     b08:	000a0613          	mv	a2,s4
     b0c:	015050ef          	jal	ra,6320 <__muldf3>
     b10:	00058613          	mv	a2,a1
     b14:	00050593          	mv	a1,a0
     b18:	0e010513          	addi	a0,sp,224
     b1c:	6000b0ef          	jal	ra,c11c <__extenddftf2>
     b20:	0e012783          	lw	a5,224(sp)
     b24:	0b010613          	addi	a2,sp,176
     b28:	0c010593          	addi	a1,sp,192
     b2c:	0cf12023          	sw	a5,192(sp)
     b30:	0e412783          	lw	a5,228(sp)
     b34:	0d010513          	addi	a0,sp,208
     b38:	0a912823          	sw	s1,176(sp)
     b3c:	0cf12223          	sw	a5,196(sp)
     b40:	0e812783          	lw	a5,232(sp)
     b44:	0bb12a23          	sw	s11,180(sp)
     b48:	0ba12c23          	sw	s10,184(sp)
     b4c:	0cf12423          	sw	a5,200(sp)
     b50:	0ec12783          	lw	a5,236(sp)
     b54:	0a812e23          	sw	s0,188(sp)
     b58:	0cf12623          	sw	a5,204(sp)
     b5c:	0200a0ef          	jal	ra,ab7c <__subtf3>
     b60:	0d012783          	lw	a5,208(sp)
     b64:	0c010513          	addi	a0,sp,192
     b68:	0cf12023          	sw	a5,192(sp)
     b6c:	0d412783          	lw	a5,212(sp)
     b70:	0cf12223          	sw	a5,196(sp)
     b74:	0d812783          	lw	a5,216(sp)
     b78:	0cf12423          	sw	a5,200(sp)
     b7c:	0dc12783          	lw	a5,220(sp)
     b80:	0cf12623          	sw	a5,204(sp)
     b84:	7a00b0ef          	jal	ra,c324 <__trunctfdf2>
     b88:	13412783          	lw	a5,308(sp)
     b8c:	00a7a823          	sw	a0,16(a5)
     b90:	00b7aa23          	sw	a1,20(a5)
     b94:	c39ff06f          	j	7cc <SolveCubic+0x73c>

00000b98 <benchmark_body>:
     b98:	3ca05e63          	blez	a0,f74 <benchmark_body+0x3dc>
     b9c:	0000d637          	lui	a2,0xd
     ba0:	cf062583          	lw	a1,-784(a2) # ccf0 <__clz_tab+0x140>
     ba4:	cf462603          	lw	a2,-780(a2)
     ba8:	da010113          	addi	sp,sp,-608
     bac:	04b12023          	sw	a1,64(sp)
     bb0:	04c12223          	sw	a2,68(sp)
     bb4:	0000d637          	lui	a2,0xd
     bb8:	cf862583          	lw	a1,-776(a2) # ccf8 <__clz_tab+0x148>
     bbc:	cfc62603          	lw	a2,-772(a2)
     bc0:	0000d6b7          	lui	a3,0xd
     bc4:	23a12823          	sw	s10,560(sp)
     bc8:	04c12623          	sw	a2,76(sp)
     bcc:	ce86ad03          	lw	s10,-792(a3) # cce8 <__clz_tab+0x138>
     bd0:	0000d637          	lui	a2,0xd
     bd4:	cec6a683          	lw	a3,-788(a3)
     bd8:	04b12423          	sw	a1,72(sp)
     bdc:	d0062583          	lw	a1,-768(a2) # cd00 <__clz_tab+0x150>
     be0:	d0462603          	lw	a2,-764(a2)
     be4:	08d12423          	sw	a3,136(sp)
     be8:	0000d6b7          	lui	a3,0xd
     bec:	04c12a23          	sw	a2,84(sp)
     bf0:	d086a603          	lw	a2,-760(a3) # cd08 <__clz_tab+0x158>
     bf4:	d0c6a683          	lw	a3,-756(a3)
     bf8:	25412423          	sw	s4,584(sp)
     bfc:	25512223          	sw	s5,580(sp)
     c00:	04c12c23          	sw	a2,88(sp)
     c04:	24112e23          	sw	ra,604(sp)
     c08:	24812c23          	sw	s0,600(sp)
     c0c:	24912a23          	sw	s1,596(sp)
     c10:	25212823          	sw	s2,592(sp)
     c14:	25312623          	sw	s3,588(sp)
     c18:	25612023          	sw	s6,576(sp)
     c1c:	23712e23          	sw	s7,572(sp)
     c20:	23812c23          	sw	s8,568(sp)
     c24:	23912a23          	sw	s9,564(sp)
     c28:	23b12623          	sw	s11,556(sp)
     c2c:	08a12623          	sw	a0,140(sp)
     c30:	04b12823          	sw	a1,80(sp)
     c34:	04d12e23          	sw	a3,92(sp)
     c38:	0000d6b7          	lui	a3,0xd
     c3c:	d106a603          	lw	a2,-752(a3) # cd10 <__clz_tab+0x160>
     c40:	d146a683          	lw	a3,-748(a3)
     c44:	0000d737          	lui	a4,0xd
     c48:	06c12023          	sw	a2,96(sp)
     c4c:	06d12223          	sw	a3,100(sp)
     c50:	0000d6b7          	lui	a3,0xd
     c54:	d186a603          	lw	a2,-744(a3) # cd18 <__clz_tab+0x168>
     c58:	d1c6a683          	lw	a3,-740(a3)
     c5c:	0000d7b7          	lui	a5,0xd
     c60:	06c12423          	sw	a2,104(sp)
     c64:	06d12623          	sw	a3,108(sp)
     c68:	0000d6b7          	lui	a3,0xd
     c6c:	d206a603          	lw	a2,-736(a3) # cd20 <__clz_tab+0x170>
     c70:	d246a683          	lw	a3,-732(a3)
     c74:	02012e23          	sw	zero,60(sp)
     c78:	06c12823          	sw	a2,112(sp)
     c7c:	06d12a23          	sw	a3,116(sp)
     c80:	0000d6b7          	lui	a3,0xd
     c84:	d286a603          	lw	a2,-728(a3) # cd28 <__clz_tab+0x178>
     c88:	d2c6a683          	lw	a3,-724(a3)
     c8c:	0a010a93          	addi	s5,sp,160
     c90:	06c12c23          	sw	a2,120(sp)
     c94:	06d12e23          	sw	a3,124(sp)
     c98:	ce072683          	lw	a3,-800(a4) # cce0 <__clz_tab+0x130>
     c9c:	ce472703          	lw	a4,-796(a4)
     ca0:	09c10a13          	addi	s4,sp,156
     ca4:	02d12a23          	sw	a3,52(sp)
     ca8:	02e12c23          	sw	a4,56(sp)
     cac:	cd87a703          	lw	a4,-808(a5) # ccd8 <__clz_tab+0x128>
     cb0:	cdc7a783          	lw	a5,-804(a5)
     cb4:	02e12023          	sw	a4,32(sp)
     cb8:	02f12223          	sw	a5,36(sp)
     cbc:	0000d7b7          	lui	a5,0xd
     cc0:	fe078793          	addi	a5,a5,-32 # cfe0 <res0>
     cc4:	08f12223          	sw	a5,132(sp)
     cc8:	18000613          	li	a2,384
     ccc:	00000593          	li	a1,0
     cd0:	000a8513          	mv	a0,s5
     cd4:	2b50b0ef          	jal	ra,c788 <memset>
     cd8:	08812903          	lw	s2,136(sp)
     cdc:	04012403          	lw	s0,64(sp)
     ce0:	04412483          	lw	s1,68(sp)
     ce4:	04812703          	lw	a4,72(sp)
     ce8:	04c12783          	lw	a5,76(sp)
     cec:	05012603          	lw	a2,80(sp)
     cf0:	05412683          	lw	a3,84(sp)
     cf4:	000d0513          	mv	a0,s10
     cf8:	00090593          	mv	a1,s2
     cfc:	00040813          	mv	a6,s0
     d00:	00048893          	mv	a7,s1
     d04:	01512223          	sw	s5,4(sp)
     d08:	01412023          	sw	s4,0(sp)
     d0c:	b84ff0ef          	jal	ra,90 <SolveCubic>
     d10:	09c12303          	lw	t1,156(sp)
     d14:	0000de37          	lui	t3,0xd
     d18:	01512223          	sw	s5,4(sp)
     d1c:	006e2223          	sw	t1,4(t3) # d004 <soln_cnt0>
     d20:	08412e03          	lw	t3,132(sp)
     d24:	0a012303          	lw	t1,160(sp)
     d28:	01412023          	sw	s4,0(sp)
     d2c:	05812703          	lw	a4,88(sp)
     d30:	006e2023          	sw	t1,0(t3)
     d34:	0a412303          	lw	t1,164(sp)
     d38:	05c12783          	lw	a5,92(sp)
     d3c:	06012603          	lw	a2,96(sp)
     d40:	006e2223          	sw	t1,4(t3)
     d44:	0a812303          	lw	t1,168(sp)
     d48:	06412683          	lw	a3,100(sp)
     d4c:	000d0513          	mv	a0,s10
     d50:	006e2423          	sw	t1,8(t3)
     d54:	0ac12303          	lw	t1,172(sp)
     d58:	00090593          	mv	a1,s2
     d5c:	00040813          	mv	a6,s0
     d60:	006e2623          	sw	t1,12(t3)
     d64:	0b012303          	lw	t1,176(sp)
     d68:	00048893          	mv	a7,s1
     d6c:	000d0993          	mv	s3,s10
     d70:	006e2823          	sw	t1,16(t3)
     d74:	0b412303          	lw	t1,180(sp)
     d78:	00090d93          	mv	s11,s2
     d7c:	006e2a23          	sw	t1,20(t3)
     d80:	b10ff0ef          	jal	ra,90 <SolveCubic>
     d84:	09c12303          	lw	t1,156(sp)
     d88:	0000de37          	lui	t3,0xd
     d8c:	0a412383          	lw	t2,164(sp)
     d90:	006e2023          	sw	t1,0(t3) # d000 <soln_cnt1>
     d94:	06812803          	lw	a6,104(sp)
     d98:	0a012303          	lw	t1,160(sp)
     d9c:	06c12883          	lw	a7,108(sp)
     da0:	07012703          	lw	a4,112(sp)
     da4:	07412783          	lw	a5,116(sp)
     da8:	07812603          	lw	a2,120(sp)
     dac:	07c12683          	lw	a3,124(sp)
     db0:	0000de37          	lui	t3,0xd
     db4:	000d0513          	mv	a0,s10
     db8:	00090593          	mv	a1,s2
     dbc:	01512223          	sw	s5,4(sp)
     dc0:	01412023          	sw	s4,0(sp)
     dc4:	fe6e2c23          	sw	t1,-8(t3) # cff8 <res1>
     dc8:	fe7e2e23          	sw	t2,-4(t3)
     dcc:	ac4ff0ef          	jal	ra,90 <SolveCubic>
     dd0:	0000d7b7          	lui	a5,0xd
     dd4:	0000d6b7          	lui	a3,0xd
     dd8:	d307a803          	lw	a6,-720(a5) # cd30 <__clz_tab+0x180>
     ddc:	d347a883          	lw	a7,-716(a5)
     de0:	d386a603          	lw	a2,-712(a3) # cd38 <__clz_tab+0x188>
     de4:	d3c6a683          	lw	a3,-708(a3)
     de8:	00090793          	mv	a5,s2
     dec:	000d0713          	mv	a4,s10
     df0:	000d0513          	mv	a0,s10
     df4:	00090593          	mv	a1,s2
     df8:	01512223          	sw	s5,4(sp)
     dfc:	01412023          	sw	s4,0(sp)
     e00:	a90ff0ef          	jal	ra,90 <SolveCubic>
     e04:	00200793          	li	a5,2
     e08:	02f12423          	sw	a5,40(sp)
     e0c:	01a12e23          	sw	s10,28(sp)
     e10:	03a12623          	sw	s10,44(sp)
     e14:	03212823          	sw	s2,48(sp)
     e18:	09a12023          	sw	s10,128(sp)
     e1c:	03412483          	lw	s1,52(sp)
     e20:	03812403          	lw	s0,56(sp)
     e24:	00200c13          	li	s8,2
     e28:	00100b93          	li	s7,1
     e2c:	02012d03          	lw	s10,32(sp)
     e30:	02412c83          	lw	s9,36(sp)
     e34:	00200b13          	li	s6,2
     e38:	0000d837          	lui	a6,0xd
     e3c:	d4482883          	lw	a7,-700(a6) # cd44 <__clz_tab+0x194>
     e40:	d4082803          	lw	a6,-704(a6)
     e44:	000d0713          	mv	a4,s10
     e48:	000c8793          	mv	a5,s9
     e4c:	00048613          	mv	a2,s1
     e50:	00098513          	mv	a0,s3
     e54:	00040693          	mv	a3,s0
     e58:	00090593          	mv	a1,s2
     e5c:	01512223          	sw	s5,4(sp)
     e60:	01412023          	sw	s4,0(sp)
     e64:	a2cff0ef          	jal	ra,90 <SolveCubic>
     e68:	0000d837          	lui	a6,0xd
     e6c:	cbc82883          	lw	a7,-836(a6) # ccbc <__clz_tab+0x10c>
     e70:	cb882803          	lw	a6,-840(a6)
     e74:	000d0713          	mv	a4,s10
     e78:	000c8793          	mv	a5,s9
     e7c:	00048613          	mv	a2,s1
     e80:	00098513          	mv	a0,s3
     e84:	00040693          	mv	a3,s0
     e88:	00090593          	mv	a1,s2
     e8c:	01512223          	sw	s5,4(sp)
     e90:	01412023          	sw	s4,0(sp)
     e94:	9fcff0ef          	jal	ra,90 <SolveCubic>
     e98:	0000d7b7          	lui	a5,0xd
     e9c:	d487a603          	lw	a2,-696(a5) # cd48 <__clz_tab+0x198>
     ea0:	d4c7a683          	lw	a3,-692(a5)
     ea4:	000d0513          	mv	a0,s10
     ea8:	000c8593          	mv	a1,s9
     eac:	294040ef          	jal	ra,5140 <__adddf3>
     eb0:	00050d13          	mv	s10,a0
     eb4:	00058c93          	mv	s9,a1
     eb8:	017b0663          	beq	s6,s7,ec4 <benchmark_body+0x32c>
     ebc:	00100b13          	li	s6,1
     ec0:	f79ff06f          	j	e38 <benchmark_body+0x2a0>
     ec4:	01c12603          	lw	a2,28(sp)
     ec8:	00048513          	mv	a0,s1
     ecc:	00040593          	mv	a1,s0
     ed0:	000d8693          	mv	a3,s11
     ed4:	2b9050ef          	jal	ra,698c <__subdf3>
     ed8:	00050493          	mv	s1,a0
     edc:	00058413          	mv	s0,a1
     ee0:	096c1063          	bne	s8,s6,f60 <benchmark_body+0x3c8>
     ee4:	02c12603          	lw	a2,44(sp)
     ee8:	03012683          	lw	a3,48(sp)
     eec:	00098513          	mv	a0,s3
     ef0:	00090593          	mv	a1,s2
     ef4:	24c040ef          	jal	ra,5140 <__adddf3>
     ef8:	02812783          	lw	a5,40(sp)
     efc:	00050993          	mv	s3,a0
     f00:	00058913          	mv	s2,a1
     f04:	07879263          	bne	a5,s8,f68 <benchmark_body+0x3d0>
     f08:	03c12783          	lw	a5,60(sp)
     f0c:	08c12703          	lw	a4,140(sp)
     f10:	08012d03          	lw	s10,128(sp)
     f14:	00178793          	addi	a5,a5,1
     f18:	02f12e23          	sw	a5,60(sp)
     f1c:	daf716e3          	bne	a4,a5,cc8 <benchmark_body+0x130>
     f20:	25c12083          	lw	ra,604(sp)
     f24:	25812403          	lw	s0,600(sp)
     f28:	25412483          	lw	s1,596(sp)
     f2c:	25012903          	lw	s2,592(sp)
     f30:	24c12983          	lw	s3,588(sp)
     f34:	24812a03          	lw	s4,584(sp)
     f38:	24412a83          	lw	s5,580(sp)
     f3c:	24012b03          	lw	s6,576(sp)
     f40:	23c12b83          	lw	s7,572(sp)
     f44:	23812c03          	lw	s8,568(sp)
     f48:	23412c83          	lw	s9,564(sp)
     f4c:	23012d03          	lw	s10,560(sp)
     f50:	22c12d83          	lw	s11,556(sp)
     f54:	00000513          	li	a0,0
     f58:	26010113          	addi	sp,sp,608
     f5c:	00008067          	ret
     f60:	00100c13          	li	s8,1
     f64:	ec9ff06f          	j	e2c <benchmark_body+0x294>
     f68:	00100793          	li	a5,1
     f6c:	02f12423          	sw	a5,40(sp)
     f70:	eadff06f          	j	e1c <benchmark_body+0x284>
     f74:	00000513          	li	a0,0
     f78:	00008067          	ret

00000f7c <verify_benchmark>:
     f7c:	0000d7b7          	lui	a5,0xd
     f80:	0047a703          	lw	a4,4(a5) # d004 <soln_cnt0>
     f84:	fe010113          	addi	sp,sp,-32
     f88:	00812c23          	sw	s0,24(sp)
     f8c:	00112e23          	sw	ra,28(sp)
     f90:	00912a23          	sw	s1,20(sp)
     f94:	01212823          	sw	s2,16(sp)
     f98:	01312623          	sw	s3,12(sp)
     f9c:	01412423          	sw	s4,8(sp)
     fa0:	01512223          	sw	s5,4(sp)
     fa4:	00300793          	li	a5,3
     fa8:	00000413          	li	s0,0
     fac:	02f70663          	beq	a4,a5,fd8 <verify_benchmark+0x5c>
     fb0:	00040513          	mv	a0,s0
     fb4:	01c12083          	lw	ra,28(sp)
     fb8:	01812403          	lw	s0,24(sp)
     fbc:	01412483          	lw	s1,20(sp)
     fc0:	01012903          	lw	s2,16(sp)
     fc4:	00c12983          	lw	s3,12(sp)
     fc8:	00812a03          	lw	s4,8(sp)
     fcc:	00412a83          	lw	s5,4(sp)
     fd0:	02010113          	addi	sp,sp,32
     fd4:	00008067          	ret
     fd8:	0000d937          	lui	s2,0xd
     fdc:	0000d7b7          	lui	a5,0xd
     fe0:	fe090913          	addi	s2,s2,-32 # cfe0 <res0>
     fe4:	00092603          	lw	a2,0(s2)
     fe8:	00492683          	lw	a3,4(s2)
     fec:	d507a503          	lw	a0,-688(a5) # cd50 <__clz_tab+0x1a0>
     ff0:	d547a583          	lw	a1,-684(a5)
     ff4:	800004b7          	lui	s1,0x80000
     ff8:	fff4c493          	not	s1,s1
     ffc:	191050ef          	jal	ra,698c <__subdf3>
    1000:	0000d7b7          	lui	a5,0xd
    1004:	d587aa03          	lw	s4,-680(a5) # cd58 <__clz_tab+0x1a8>
    1008:	d5c7aa83          	lw	s5,-676(a5)
    100c:	0095f5b3          	and	a1,a1,s1
    1010:	000a0613          	mv	a2,s4
    1014:	000a8693          	mv	a3,s5
    1018:	224050ef          	jal	ra,623c <__ledf2>
    101c:	f8055ae3          	bgez	a0,fb0 <verify_benchmark+0x34>
    1020:	0000d7b7          	lui	a5,0xd
    1024:	00892603          	lw	a2,8(s2)
    1028:	00c92683          	lw	a3,12(s2)
    102c:	d607a503          	lw	a0,-672(a5) # cd60 <__clz_tab+0x1b0>
    1030:	d647a583          	lw	a1,-668(a5)
    1034:	159050ef          	jal	ra,698c <__subdf3>
    1038:	000a0613          	mv	a2,s4
    103c:	000a8693          	mv	a3,s5
    1040:	0095f5b3          	and	a1,a1,s1
    1044:	1f8050ef          	jal	ra,623c <__ledf2>
    1048:	f60554e3          	bgez	a0,fb0 <verify_benchmark+0x34>
    104c:	0000d9b7          	lui	s3,0xd
    1050:	01092603          	lw	a2,16(s2)
    1054:	01492683          	lw	a3,20(s2)
    1058:	d689a503          	lw	a0,-664(s3) # cd68 <__clz_tab+0x1b8>
    105c:	d6c9a583          	lw	a1,-660(s3)
    1060:	12d050ef          	jal	ra,698c <__subdf3>
    1064:	000a0613          	mv	a2,s4
    1068:	000a8693          	mv	a3,s5
    106c:	0095f5b3          	and	a1,a1,s1
    1070:	1cc050ef          	jal	ra,623c <__ledf2>
    1074:	f2055ee3          	bgez	a0,fb0 <verify_benchmark+0x34>
    1078:	0000d7b7          	lui	a5,0xd
    107c:	0007a703          	lw	a4,0(a5) # d000 <soln_cnt1>
    1080:	00100793          	li	a5,1
    1084:	f2f716e3          	bne	a4,a5,fb0 <verify_benchmark+0x34>
    1088:	0000d7b7          	lui	a5,0xd
    108c:	ff87a603          	lw	a2,-8(a5) # cff8 <res1>
    1090:	ffc7a683          	lw	a3,-4(a5)
    1094:	d689a503          	lw	a0,-664(s3)
    1098:	d6c9a583          	lw	a1,-660(s3)
    109c:	0f1050ef          	jal	ra,698c <__subdf3>
    10a0:	000a0613          	mv	a2,s4
    10a4:	000a8693          	mv	a3,s5
    10a8:	0095f5b3          	and	a1,a1,s1
    10ac:	190050ef          	jal	ra,623c <__ledf2>
    10b0:	00052413          	slti	s0,a0,0
    10b4:	efdff06f          	j	fb0 <verify_benchmark+0x34>

000010b8 <initialise_benchmark>:
    10b8:	00008067          	ret

000010bc <warm_caches>:
    10bc:	addff06f          	j	b98 <benchmark_body>

000010c0 <benchmark>:
    10c0:	1f400513          	li	a0,500
    10c4:	ad5ff06f          	j	b98 <benchmark_body>

000010c8 <initialise_board>:
    10c8:	00000513          	li	a0,0
    10cc:	00008067          	ret

000010d0 <start_trigger>:
    10d0:	00000513          	li	a0,0
    10d4:	00008067          	ret

000010d8 <stop_trigger>:
    10d8:	00000513          	li	a0,0
    10dc:	00008067          	ret

000010e0 <rand_beebs>:
    10e0:	0000d6b7          	lui	a3,0xd
    10e4:	0146a703          	lw	a4,20(a3) # d014 <seed>
    10e8:	00871793          	slli	a5,a4,0x8
    10ec:	40e787b3          	sub	a5,a5,a4
    10f0:	00379793          	slli	a5,a5,0x3
    10f4:	00e787b3          	add	a5,a5,a4
    10f8:	00779793          	slli	a5,a5,0x7
    10fc:	00e787b3          	add	a5,a5,a4
    1100:	00379793          	slli	a5,a5,0x3
    1104:	40e787b3          	sub	a5,a5,a4
    1108:	00579513          	slli	a0,a5,0x5
    110c:	00a78533          	add	a0,a5,a0
    1110:	00251513          	slli	a0,a0,0x2
    1114:	40e50533          	sub	a0,a0,a4
    1118:	00251513          	slli	a0,a0,0x2
    111c:	000037b7          	lui	a5,0x3
    1120:	00e50533          	add	a0,a0,a4
    1124:	03978793          	addi	a5,a5,57 # 3039 <__ieee754_rem_pio2+0x199>
    1128:	00f50533          	add	a0,a0,a5
    112c:	00151513          	slli	a0,a0,0x1
    1130:	00155513          	srli	a0,a0,0x1
    1134:	00a6aa23          	sw	a0,20(a3)
    1138:	01055513          	srli	a0,a0,0x10
    113c:	00008067          	ret

00001140 <srand_beebs>:
    1140:	0000d7b7          	lui	a5,0xd
    1144:	00a7aa23          	sw	a0,20(a5) # d014 <seed>
    1148:	00008067          	ret

0000114c <init_heap_beebs>:
    114c:	0000d7b7          	lui	a5,0xd
    1150:	00b505b3          	add	a1,a0,a1
    1154:	00a7a823          	sw	a0,16(a5) # d010 <heap_ptr>
    1158:	0000d7b7          	lui	a5,0xd
    115c:	00b7a623          	sw	a1,12(a5) # d00c <heap_end>
    1160:	0000d7b7          	lui	a5,0xd
    1164:	0007a423          	sw	zero,8(a5) # d008 <heap_requested>
    1168:	00008067          	ret

0000116c <check_heap_beebs>:
    116c:	0000d7b7          	lui	a5,0xd
    1170:	0087a703          	lw	a4,8(a5) # d008 <heap_requested>
    1174:	0000d7b7          	lui	a5,0xd
    1178:	00c7a783          	lw	a5,12(a5) # d00c <heap_end>
    117c:	00e50533          	add	a0,a0,a4
    1180:	00a7b533          	sltu	a0,a5,a0
    1184:	00154513          	xori	a0,a0,1
    1188:	00008067          	ret

0000118c <malloc_beebs>:
    118c:	0000d6b7          	lui	a3,0xd
    1190:	0086a783          	lw	a5,8(a3) # d008 <heap_requested>
    1194:	0000d637          	lui	a2,0xd
    1198:	01062703          	lw	a4,16(a2) # d010 <heap_ptr>
    119c:	0000d5b7          	lui	a1,0xd
    11a0:	00c5a583          	lw	a1,12(a1) # d00c <heap_end>
    11a4:	00a787b3          	add	a5,a5,a0
    11a8:	00f6a423          	sw	a5,8(a3)
    11ac:	00a707b3          	add	a5,a4,a0
    11b0:	00f5ea63          	bltu	a1,a5,11c4 <malloc_beebs+0x38>
    11b4:	00050863          	beqz	a0,11c4 <malloc_beebs+0x38>
    11b8:	00f62823          	sw	a5,16(a2)
    11bc:	00070513          	mv	a0,a4
    11c0:	00008067          	ret
    11c4:	00000713          	li	a4,0
    11c8:	00070513          	mv	a0,a4
    11cc:	00008067          	ret

000011d0 <calloc_beebs>:
    11d0:	ff010113          	addi	sp,sp,-16
    11d4:	00112623          	sw	ra,12(sp)
    11d8:	4800b0ef          	jal	ra,c658 <__mulsi3>
    11dc:	0000d6b7          	lui	a3,0xd
    11e0:	0086a703          	lw	a4,8(a3) # d008 <heap_requested>
    11e4:	0000d637          	lui	a2,0xd
    11e8:	01062783          	lw	a5,16(a2) # d010 <heap_ptr>
    11ec:	0000d5b7          	lui	a1,0xd
    11f0:	00c5a583          	lw	a1,12(a1) # d00c <heap_end>
    11f4:	00a70733          	add	a4,a4,a0
    11f8:	00e6a423          	sw	a4,8(a3)
    11fc:	00a78733          	add	a4,a5,a0
    1200:	02e5ea63          	bltu	a1,a4,1234 <calloc_beebs+0x64>
    1204:	02050863          	beqz	a0,1234 <calloc_beebs+0x64>
    1208:	00e62823          	sw	a4,16(a2)
    120c:	00078c63          	beqz	a5,1224 <calloc_beebs+0x54>
    1210:	00050613          	mv	a2,a0
    1214:	00000593          	li	a1,0
    1218:	00078513          	mv	a0,a5
    121c:	56c0b0ef          	jal	ra,c788 <memset>
    1220:	00050793          	mv	a5,a0
    1224:	00c12083          	lw	ra,12(sp)
    1228:	00078513          	mv	a0,a5
    122c:	01010113          	addi	sp,sp,16
    1230:	00008067          	ret
    1234:	00c12083          	lw	ra,12(sp)
    1238:	00000793          	li	a5,0
    123c:	00078513          	mv	a0,a5
    1240:	01010113          	addi	sp,sp,16
    1244:	00008067          	ret

00001248 <realloc_beebs>:
    1248:	0000d737          	lui	a4,0xd
    124c:	00872783          	lw	a5,8(a4) # d008 <heap_requested>
    1250:	0000d637          	lui	a2,0xd
    1254:	01062683          	lw	a3,16(a2) # d010 <heap_ptr>
    1258:	0000d837          	lui	a6,0xd
    125c:	00c82803          	lw	a6,12(a6) # d00c <heap_end>
    1260:	00b787b3          	add	a5,a5,a1
    1264:	00f72423          	sw	a5,8(a4)
    1268:	00b687b3          	add	a5,a3,a1
    126c:	02f86a63          	bltu	a6,a5,12a0 <realloc_beebs+0x58>
    1270:	02058863          	beqz	a1,12a0 <realloc_beebs+0x58>
    1274:	00f62823          	sw	a5,16(a2)
    1278:	02050063          	beqz	a0,1298 <realloc_beebs+0x50>
    127c:	00068793          	mv	a5,a3
    1280:	00b505b3          	add	a1,a0,a1
    1284:	00054703          	lbu	a4,0(a0)
    1288:	00178793          	addi	a5,a5,1
    128c:	00150513          	addi	a0,a0,1
    1290:	fee78fa3          	sb	a4,-1(a5)
    1294:	feb518e3          	bne	a0,a1,1284 <realloc_beebs+0x3c>
    1298:	00068513          	mv	a0,a3
    129c:	00008067          	ret
    12a0:	00000693          	li	a3,0
    12a4:	00068513          	mv	a0,a3
    12a8:	00008067          	ret

000012ac <free_beebs>:
    12ac:	00008067          	ret

000012b0 <simrv_exit>:
    12b0:	0000d7b7          	lui	a5,0xd
    12b4:	4407a783          	lw	a5,1088(a5) # d440 <TOHOST_ADDR>
    12b8:	00020737          	lui	a4,0x20
    12bc:	00e7a023          	sw	a4,0(a5)
    12c0:	0000006f          	j	12c0 <simrv_exit+0x10>

000012c4 <simrv_putc>:
    12c4:	0000d7b7          	lui	a5,0xd
    12c8:	4407a703          	lw	a4,1088(a5) # d440 <TOHOST_ADDR>
    12cc:	000107b7          	lui	a5,0x10
    12d0:	00f56533          	or	a0,a0,a5
    12d4:	00a72023          	sw	a0,0(a4) # 20000 <_impure_ptr+0x12bb8>
    12d8:	00008067          	ret

000012dc <simrv_puts>:
    12dc:	00054783          	lbu	a5,0(a0)
    12e0:	02078263          	beqz	a5,1304 <simrv_puts+0x28>
    12e4:	0000d737          	lui	a4,0xd
    12e8:	44072683          	lw	a3,1088(a4) # d440 <TOHOST_ADDR>
    12ec:	00010737          	lui	a4,0x10
    12f0:	00e7e7b3          	or	a5,a5,a4
    12f4:	00f6a023          	sw	a5,0(a3)
    12f8:	00150513          	addi	a0,a0,1
    12fc:	00054783          	lbu	a5,0(a0)
    1300:	fe0798e3          	bnez	a5,12f0 <simrv_puts+0x14>
    1304:	00008067          	ret

00001308 <simrv_puti>:
    1308:	fd010113          	addi	sp,sp,-48
    130c:	02912223          	sw	s1,36(sp)
    1310:	03212023          	sw	s2,32(sp)
    1314:	01412c23          	sw	s4,24(sp)
    1318:	02112623          	sw	ra,44(sp)
    131c:	02812423          	sw	s0,40(sp)
    1320:	01312e23          	sw	s3,28(sp)
    1324:	00050913          	mv	s2,a0
    1328:	00000493          	li	s1,0
    132c:	00410a13          	addi	s4,sp,4
    1330:	0080006f          	j	1338 <simrv_puti+0x30>
    1334:	00098493          	mv	s1,s3
    1338:	00a00593          	li	a1,10
    133c:	00090513          	mv	a0,s2
    1340:	3c00b0ef          	jal	ra,c700 <__modsi3>
    1344:	03050513          	addi	a0,a0,48
    1348:	00148993          	addi	s3,s1,1 # 80000001 <_impure_ptr+0x7fff2bb9>
    134c:	0ff57413          	andi	s0,a0,255
    1350:	013a07b3          	add	a5,s4,s3
    1354:	00090513          	mv	a0,s2
    1358:	00a00593          	li	a1,10
    135c:	fe878fa3          	sb	s0,-1(a5) # ffff <_impure_ptr+0x2bb7>
    1360:	31c0b0ef          	jal	ra,c67c <__divsi3>
    1364:	00050913          	mv	s2,a0
    1368:	fc0516e3          	bnez	a0,1334 <simrv_puti+0x2c>
    136c:	0000d7b7          	lui	a5,0xd
    1370:	4407a603          	lw	a2,1088(a5) # d440 <TOHOST_ADDR>
    1374:	000106b7          	lui	a3,0x10
    1378:	009a07b3          	add	a5,s4,s1
    137c:	00c0006f          	j	1388 <simrv_puti+0x80>
    1380:	fff7c403          	lbu	s0,-1(a5)
    1384:	00070793          	mv	a5,a4
    1388:	00d46433          	or	s0,s0,a3
    138c:	00862023          	sw	s0,0(a2)
    1390:	fff78713          	addi	a4,a5,-1
    1394:	fefa16e3          	bne	s4,a5,1380 <simrv_puti+0x78>
    1398:	02c12083          	lw	ra,44(sp)
    139c:	02812403          	lw	s0,40(sp)
    13a0:	02412483          	lw	s1,36(sp)
    13a4:	02012903          	lw	s2,32(sp)
    13a8:	01c12983          	lw	s3,28(sp)
    13ac:	01812a03          	lw	s4,24(sp)
    13b0:	03010113          	addi	sp,sp,48
    13b4:	00008067          	ret

000013b8 <simrv_puth>:
    13b8:	ff010113          	addi	sp,sp,-16
    13bc:	00000793          	li	a5,0
    13c0:	00810593          	addi	a1,sp,8
    13c4:	00900e13          	li	t3,9
    13c8:	0140006f          	j	13dc <simrv_puth+0x24>
    13cc:	fe688fa3          	sb	t1,-1(a7)
    13d0:	00455513          	srli	a0,a0,0x4
    13d4:	02050863          	beqz	a0,1404 <simrv_puth+0x4c>
    13d8:	00060793          	mv	a5,a2
    13dc:	00f57713          	andi	a4,a0,15
    13e0:	0ff77693          	andi	a3,a4,255
    13e4:	00178613          	addi	a2,a5,1
    13e8:	03068313          	addi	t1,a3,48 # 10030 <_impure_ptr+0x2be8>
    13ec:	00c588b3          	add	a7,a1,a2
    13f0:	03768693          	addi	a3,a3,55
    13f4:	fcee7ce3          	bgeu	t3,a4,13cc <simrv_puth+0x14>
    13f8:	fed88fa3          	sb	a3,-1(a7)
    13fc:	00455513          	srli	a0,a0,0x4
    1400:	fc051ce3          	bnez	a0,13d8 <simrv_puth+0x20>
    1404:	0207c863          	bltz	a5,1434 <simrv_puth+0x7c>
    1408:	0000d737          	lui	a4,0xd
    140c:	44072503          	lw	a0,1088(a4) # d440 <TOHOST_ADDR>
    1410:	00f587b3          	add	a5,a1,a5
    1414:	00010637          	lui	a2,0x10
    1418:	0080006f          	j	1420 <simrv_puth+0x68>
    141c:	00068793          	mv	a5,a3
    1420:	0007c703          	lbu	a4,0(a5)
    1424:	fff78693          	addi	a3,a5,-1
    1428:	00c76733          	or	a4,a4,a2
    142c:	00e52023          	sw	a4,0(a0)
    1430:	fef596e3          	bne	a1,a5,141c <simrv_puth+0x64>
    1434:	01010113          	addi	sp,sp,16
    1438:	00008067          	ret

0000143c <cos>:
    143c:	fe010113          	addi	sp,sp,-32
    1440:	00812c23          	sw	s0,24(sp)
    1444:	80000437          	lui	s0,0x80000
    1448:	fff44793          	not	a5,s0
    144c:	3fe92737          	lui	a4,0x3fe92
    1450:	00112e23          	sw	ra,28(sp)
    1454:	00b7f7b3          	and	a5,a5,a1
    1458:	1fb70713          	addi	a4,a4,507 # 3fe921fb <_impure_ptr+0x3fe84db3>
    145c:	06f75263          	bge	a4,a5,14c0 <cos+0x84>
    1460:	7ff00737          	lui	a4,0x7ff00
    1464:	02e7c063          	blt	a5,a4,1484 <cos+0x48>
    1468:	00058693          	mv	a3,a1
    146c:	00050613          	mv	a2,a0
    1470:	51c050ef          	jal	ra,698c <__subdf3>
    1474:	01c12083          	lw	ra,28(sp)
    1478:	01812403          	lw	s0,24(sp)
    147c:	02010113          	addi	sp,sp,32
    1480:	00008067          	ret
    1484:	00010613          	mv	a2,sp
    1488:	219010ef          	jal	ra,2ea0 <__ieee754_rem_pio2>
    148c:	00357513          	andi	a0,a0,3
    1490:	00100793          	li	a5,1
    1494:	04f50463          	beq	a0,a5,14dc <cos+0xa0>
    1498:	00200793          	li	a5,2
    149c:	00812603          	lw	a2,8(sp)
    14a0:	00c12683          	lw	a3,12(sp)
    14a4:	06f50463          	beq	a0,a5,150c <cos+0xd0>
    14a8:	04050a63          	beqz	a0,14fc <cos+0xc0>
    14ac:	00012503          	lw	a0,0(sp)
    14b0:	00412583          	lw	a1,4(sp)
    14b4:	00100713          	li	a4,1
    14b8:	428030ef          	jal	ra,48e0 <__kernel_sin>
    14bc:	fb9ff06f          	j	1474 <cos+0x38>
    14c0:	00000613          	li	a2,0
    14c4:	00000693          	li	a3,0
    14c8:	300020ef          	jal	ra,37c8 <__kernel_cos>
    14cc:	01c12083          	lw	ra,28(sp)
    14d0:	01812403          	lw	s0,24(sp)
    14d4:	02010113          	addi	sp,sp,32
    14d8:	00008067          	ret
    14dc:	00812603          	lw	a2,8(sp)
    14e0:	00c12683          	lw	a3,12(sp)
    14e4:	00012503          	lw	a0,0(sp)
    14e8:	00412583          	lw	a1,4(sp)
    14ec:	00100713          	li	a4,1
    14f0:	3f0030ef          	jal	ra,48e0 <__kernel_sin>
    14f4:	00b445b3          	xor	a1,s0,a1
    14f8:	f7dff06f          	j	1474 <cos+0x38>
    14fc:	00012503          	lw	a0,0(sp)
    1500:	00412583          	lw	a1,4(sp)
    1504:	2c4020ef          	jal	ra,37c8 <__kernel_cos>
    1508:	f6dff06f          	j	1474 <cos+0x38>
    150c:	00012503          	lw	a0,0(sp)
    1510:	00412583          	lw	a1,4(sp)
    1514:	2b4020ef          	jal	ra,37c8 <__kernel_cos>
    1518:	00b445b3          	xor	a1,s0,a1
    151c:	f59ff06f          	j	1474 <cos+0x38>

00001520 <acos>:
    1520:	fe010113          	addi	sp,sp,-32
    1524:	00812c23          	sw	s0,24(sp)
    1528:	00912a23          	sw	s1,20(sp)
    152c:	01212823          	sw	s2,16(sp)
    1530:	01312623          	sw	s3,12(sp)
    1534:	00112e23          	sw	ra,28(sp)
    1538:	00050413          	mv	s0,a0
    153c:	00058493          	mv	s1,a1
    1540:	3c4000ef          	jal	ra,1904 <__ieee754_acos>
    1544:	0000d7b7          	lui	a5,0xd
    1548:	4447a703          	lw	a4,1092(a5) # d444 <__fdlib_version>
    154c:	fff00793          	li	a5,-1
    1550:	00050913          	mv	s2,a0
    1554:	00058993          	mv	s3,a1
    1558:	02f70e63          	beq	a4,a5,1594 <acos+0x74>
    155c:	00040613          	mv	a2,s0
    1560:	00048693          	mv	a3,s1
    1564:	00040513          	mv	a0,s0
    1568:	00048593          	mv	a1,s1
    156c:	3e5050ef          	jal	ra,7150 <__unorddf2>
    1570:	02051263          	bnez	a0,1594 <acos+0x74>
    1574:	00040513          	mv	a0,s0
    1578:	00048593          	mv	a1,s1
    157c:	5cc030ef          	jal	ra,4b48 <fabs>
    1580:	0000d7b7          	lui	a5,0xd
    1584:	ce87a603          	lw	a2,-792(a5) # cce8 <__clz_tab+0x138>
    1588:	cec7a683          	lw	a3,-788(a5)
    158c:	3cd040ef          	jal	ra,6158 <__gedf2>
    1590:	02a04463          	bgtz	a0,15b8 <acos+0x98>
    1594:	01c12083          	lw	ra,28(sp)
    1598:	01812403          	lw	s0,24(sp)
    159c:	00090513          	mv	a0,s2
    15a0:	00098593          	mv	a1,s3
    15a4:	01412483          	lw	s1,20(sp)
    15a8:	01012903          	lw	s2,16(sp)
    15ac:	00c12983          	lw	s3,12(sp)
    15b0:	02010113          	addi	sp,sp,32
    15b4:	00008067          	ret
    15b8:	1c40b0ef          	jal	ra,c77c <__errno>
    15bc:	01812403          	lw	s0,24(sp)
    15c0:	01c12083          	lw	ra,28(sp)
    15c4:	01412483          	lw	s1,20(sp)
    15c8:	01012903          	lw	s2,16(sp)
    15cc:	00c12983          	lw	s3,12(sp)
    15d0:	02100793          	li	a5,33
    15d4:	00f52023          	sw	a5,0(a0)
    15d8:	0000d537          	lui	a0,0xd
    15dc:	fd850513          	addi	a0,a0,-40 # cfd8 <__clz_tab+0x428>
    15e0:	02010113          	addi	sp,sp,32
    15e4:	7680306f          	j	4d4c <nan>

000015e8 <pow>:
    15e8:	fe010113          	addi	sp,sp,-32
    15ec:	00812c23          	sw	s0,24(sp)
    15f0:	00912a23          	sw	s1,20(sp)
    15f4:	01212823          	sw	s2,16(sp)
    15f8:	01312623          	sw	s3,12(sp)
    15fc:	01412423          	sw	s4,8(sp)
    1600:	01512223          	sw	s5,4(sp)
    1604:	00112e23          	sw	ra,28(sp)
    1608:	00050913          	mv	s2,a0
    160c:	00058993          	mv	s3,a1
    1610:	00060413          	mv	s0,a2
    1614:	00068493          	mv	s1,a3
    1618:	135000ef          	jal	ra,1f4c <__ieee754_pow>
    161c:	0000d7b7          	lui	a5,0xd
    1620:	4447a703          	lw	a4,1092(a5) # d444 <__fdlib_version>
    1624:	fff00793          	li	a5,-1
    1628:	00050a13          	mv	s4,a0
    162c:	00058a93          	mv	s5,a1
    1630:	08f70663          	beq	a4,a5,16bc <pow+0xd4>
    1634:	00040613          	mv	a2,s0
    1638:	00048693          	mv	a3,s1
    163c:	00040513          	mv	a0,s0
    1640:	00048593          	mv	a1,s1
    1644:	30d050ef          	jal	ra,7150 <__unorddf2>
    1648:	06051a63          	bnez	a0,16bc <pow+0xd4>
    164c:	00090613          	mv	a2,s2
    1650:	00098693          	mv	a3,s3
    1654:	00090513          	mv	a0,s2
    1658:	00098593          	mv	a1,s3
    165c:	2f5050ef          	jal	ra,7150 <__unorddf2>
    1660:	00000613          	li	a2,0
    1664:	00000693          	li	a3,0
    1668:	0e051063          	bnez	a0,1748 <pow+0x160>
    166c:	00090513          	mv	a0,s2
    1670:	00098593          	mv	a1,s3
    1674:	259040ef          	jal	ra,60cc <__eqdf2>
    1678:	06051863          	bnez	a0,16e8 <pow+0x100>
    167c:	00000613          	li	a2,0
    1680:	00000693          	li	a3,0
    1684:	00040513          	mv	a0,s0
    1688:	00048593          	mv	a1,s1
    168c:	241040ef          	jal	ra,60cc <__eqdf2>
    1690:	0c050463          	beqz	a0,1758 <pow+0x170>
    1694:	00040513          	mv	a0,s0
    1698:	00048593          	mv	a1,s1
    169c:	4b8030ef          	jal	ra,4b54 <finite>
    16a0:	00050e63          	beqz	a0,16bc <pow+0xd4>
    16a4:	00000613          	li	a2,0
    16a8:	00000693          	li	a3,0
    16ac:	00040513          	mv	a0,s0
    16b0:	00048593          	mv	a1,s1
    16b4:	389040ef          	jal	ra,623c <__ledf2>
    16b8:	10054e63          	bltz	a0,17d4 <pow+0x1ec>
    16bc:	01c12083          	lw	ra,28(sp)
    16c0:	01812403          	lw	s0,24(sp)
    16c4:	000a0513          	mv	a0,s4
    16c8:	000a8593          	mv	a1,s5
    16cc:	01412483          	lw	s1,20(sp)
    16d0:	01012903          	lw	s2,16(sp)
    16d4:	00c12983          	lw	s3,12(sp)
    16d8:	00812a03          	lw	s4,8(sp)
    16dc:	00412a83          	lw	s5,4(sp)
    16e0:	02010113          	addi	sp,sp,32
    16e4:	00008067          	ret
    16e8:	000a0513          	mv	a0,s4
    16ec:	000a8593          	mv	a1,s5
    16f0:	464030ef          	jal	ra,4b54 <finite>
    16f4:	06050a63          	beqz	a0,1768 <pow+0x180>
    16f8:	00000613          	li	a2,0
    16fc:	00000693          	li	a3,0
    1700:	000a0513          	mv	a0,s4
    1704:	000a8593          	mv	a1,s5
    1708:	1c5040ef          	jal	ra,60cc <__eqdf2>
    170c:	fa0518e3          	bnez	a0,16bc <pow+0xd4>
    1710:	00090513          	mv	a0,s2
    1714:	00098593          	mv	a1,s3
    1718:	43c030ef          	jal	ra,4b54 <finite>
    171c:	fa0500e3          	beqz	a0,16bc <pow+0xd4>
    1720:	00040513          	mv	a0,s0
    1724:	00048593          	mv	a1,s1
    1728:	42c030ef          	jal	ra,4b54 <finite>
    172c:	f80508e3          	beqz	a0,16bc <pow+0xd4>
    1730:	04c0b0ef          	jal	ra,c77c <__errno>
    1734:	02200793          	li	a5,34
    1738:	00f52023          	sw	a5,0(a0)
    173c:	00000a13          	li	s4,0
    1740:	00000a93          	li	s5,0
    1744:	f79ff06f          	j	16bc <pow+0xd4>
    1748:	00040513          	mv	a0,s0
    174c:	00048593          	mv	a1,s1
    1750:	17d040ef          	jal	ra,60cc <__eqdf2>
    1754:	f60514e3          	bnez	a0,16bc <pow+0xd4>
    1758:	0000d7b7          	lui	a5,0xd
    175c:	ce87aa03          	lw	s4,-792(a5) # cce8 <__clz_tab+0x138>
    1760:	cec7aa83          	lw	s5,-788(a5)
    1764:	f59ff06f          	j	16bc <pow+0xd4>
    1768:	00090513          	mv	a0,s2
    176c:	00098593          	mv	a1,s3
    1770:	3e4030ef          	jal	ra,4b54 <finite>
    1774:	f80502e3          	beqz	a0,16f8 <pow+0x110>
    1778:	00040513          	mv	a0,s0
    177c:	00048593          	mv	a1,s1
    1780:	3d4030ef          	jal	ra,4b54 <finite>
    1784:	f6050ae3          	beqz	a0,16f8 <pow+0x110>
    1788:	000a0613          	mv	a2,s4
    178c:	000a8693          	mv	a3,s5
    1790:	000a0513          	mv	a0,s4
    1794:	000a8593          	mv	a1,s5
    1798:	1b9050ef          	jal	ra,7150 <__unorddf2>
    179c:	08051063          	bnez	a0,181c <pow+0x234>
    17a0:	7dd0a0ef          	jal	ra,c77c <__errno>
    17a4:	02200793          	li	a5,34
    17a8:	00f52023          	sw	a5,0(a0)
    17ac:	00000613          	li	a2,0
    17b0:	00000693          	li	a3,0
    17b4:	00090513          	mv	a0,s2
    17b8:	00098593          	mv	a1,s3
    17bc:	281040ef          	jal	ra,623c <__ledf2>
    17c0:	02054863          	bltz	a0,17f0 <pow+0x208>
    17c4:	0000d7b7          	lui	a5,0xd
    17c8:	d787aa03          	lw	s4,-648(a5) # cd78 <__clz_tab+0x1c8>
    17cc:	d7c7aa83          	lw	s5,-644(a5)
    17d0:	eedff06f          	j	16bc <pow+0xd4>
    17d4:	7a90a0ef          	jal	ra,c77c <__errno>
    17d8:	02100793          	li	a5,33
    17dc:	00f52023          	sw	a5,0(a0)
    17e0:	0000d7b7          	lui	a5,0xd
    17e4:	d707aa03          	lw	s4,-656(a5) # cd70 <__clz_tab+0x1c0>
    17e8:	d747aa83          	lw	s5,-652(a5)
    17ec:	ed1ff06f          	j	16bc <pow+0xd4>
    17f0:	00040513          	mv	a0,s0
    17f4:	00048593          	mv	a1,s1
    17f8:	564030ef          	jal	ra,4d5c <rint>
    17fc:	00040613          	mv	a2,s0
    1800:	00048693          	mv	a3,s1
    1804:	0c9040ef          	jal	ra,60cc <__eqdf2>
    1808:	fa050ee3          	beqz	a0,17c4 <pow+0x1dc>
    180c:	0000d7b7          	lui	a5,0xd
    1810:	d707aa03          	lw	s4,-656(a5) # cd70 <__clz_tab+0x1c0>
    1814:	d747aa83          	lw	s5,-652(a5)
    1818:	ea5ff06f          	j	16bc <pow+0xd4>
    181c:	7610a0ef          	jal	ra,c77c <__errno>
    1820:	02100793          	li	a5,33
    1824:	00000613          	li	a2,0
    1828:	00000693          	li	a3,0
    182c:	00f52023          	sw	a5,0(a0)
    1830:	00068593          	mv	a1,a3
    1834:	00060513          	mv	a0,a2
    1838:	0c8040ef          	jal	ra,5900 <__divdf3>
    183c:	00050a13          	mv	s4,a0
    1840:	00058a93          	mv	s5,a1
    1844:	e79ff06f          	j	16bc <pow+0xd4>

00001848 <sqrt>:
    1848:	fe010113          	addi	sp,sp,-32
    184c:	00812c23          	sw	s0,24(sp)
    1850:	00912a23          	sw	s1,20(sp)
    1854:	01212823          	sw	s2,16(sp)
    1858:	01312623          	sw	s3,12(sp)
    185c:	00112e23          	sw	ra,28(sp)
    1860:	00050413          	mv	s0,a0
    1864:	00058493          	mv	s1,a1
    1868:	4ad010ef          	jal	ra,3514 <__ieee754_sqrt>
    186c:	0000d7b7          	lui	a5,0xd
    1870:	4447a703          	lw	a4,1092(a5) # d444 <__fdlib_version>
    1874:	fff00793          	li	a5,-1
    1878:	00050913          	mv	s2,a0
    187c:	00058993          	mv	s3,a1
    1880:	02f70a63          	beq	a4,a5,18b4 <sqrt+0x6c>
    1884:	00040613          	mv	a2,s0
    1888:	00048693          	mv	a3,s1
    188c:	00040513          	mv	a0,s0
    1890:	00048593          	mv	a1,s1
    1894:	0bd050ef          	jal	ra,7150 <__unorddf2>
    1898:	00051e63          	bnez	a0,18b4 <sqrt+0x6c>
    189c:	00000613          	li	a2,0
    18a0:	00000693          	li	a3,0
    18a4:	00040513          	mv	a0,s0
    18a8:	00048593          	mv	a1,s1
    18ac:	191040ef          	jal	ra,623c <__ledf2>
    18b0:	02054463          	bltz	a0,18d8 <sqrt+0x90>
    18b4:	01c12083          	lw	ra,28(sp)
    18b8:	01812403          	lw	s0,24(sp)
    18bc:	00090513          	mv	a0,s2
    18c0:	00098593          	mv	a1,s3
    18c4:	01412483          	lw	s1,20(sp)
    18c8:	01012903          	lw	s2,16(sp)
    18cc:	00c12983          	lw	s3,12(sp)
    18d0:	02010113          	addi	sp,sp,32
    18d4:	00008067          	ret
    18d8:	6a50a0ef          	jal	ra,c77c <__errno>
    18dc:	02100793          	li	a5,33
    18e0:	00000613          	li	a2,0
    18e4:	00000693          	li	a3,0
    18e8:	00f52023          	sw	a5,0(a0)
    18ec:	00068593          	mv	a1,a3
    18f0:	00060513          	mv	a0,a2
    18f4:	00c040ef          	jal	ra,5900 <__divdf3>
    18f8:	00050913          	mv	s2,a0
    18fc:	00058993          	mv	s3,a1
    1900:	fb5ff06f          	j	18b4 <sqrt+0x6c>

00001904 <__ieee754_acos>:
    1904:	fd010113          	addi	sp,sp,-48
    1908:	00159793          	slli	a5,a1,0x1
    190c:	02812423          	sw	s0,40(sp)
    1910:	02912223          	sw	s1,36(sp)
    1914:	02112623          	sw	ra,44(sp)
    1918:	03212023          	sw	s2,32(sp)
    191c:	01312e23          	sw	s3,28(sp)
    1920:	01412c23          	sw	s4,24(sp)
    1924:	01612a23          	sw	s6,20(sp)
    1928:	01712823          	sw	s7,16(sp)
    192c:	01812623          	sw	s8,12(sp)
    1930:	01912423          	sw	s9,8(sp)
    1934:	0017d793          	srli	a5,a5,0x1
    1938:	3ff00737          	lui	a4,0x3ff00
    193c:	00058413          	mv	s0,a1
    1940:	00050493          	mv	s1,a0
    1944:	04e7c663          	blt	a5,a4,1990 <__ieee754_acos+0x8c>
    1948:	40e787b3          	sub	a5,a5,a4
    194c:	00a7e7b3          	or	a5,a5,a0
    1950:	26079c63          	bnez	a5,1bc8 <__ieee754_acos+0x2c4>
    1954:	00000513          	li	a0,0
    1958:	00000593          	li	a1,0
    195c:	28805463          	blez	s0,1be4 <__ieee754_acos+0x2e0>
    1960:	02c12083          	lw	ra,44(sp)
    1964:	02812403          	lw	s0,40(sp)
    1968:	02412483          	lw	s1,36(sp)
    196c:	02012903          	lw	s2,32(sp)
    1970:	01c12983          	lw	s3,28(sp)
    1974:	01812a03          	lw	s4,24(sp)
    1978:	01412b03          	lw	s6,20(sp)
    197c:	01012b83          	lw	s7,16(sp)
    1980:	00c12c03          	lw	s8,12(sp)
    1984:	00812c83          	lw	s9,8(sp)
    1988:	03010113          	addi	sp,sp,48
    198c:	00008067          	ret
    1990:	3fe00737          	lui	a4,0x3fe00
    1994:	00e7de63          	bge	a5,a4,19b0 <__ieee754_acos+0xac>
    1998:	3c600737          	lui	a4,0x3c600
    199c:	24f74c63          	blt	a4,a5,1bf4 <__ieee754_acos+0x2f0>
    19a0:	0000d7b7          	lui	a5,0xd
    19a4:	d887a503          	lw	a0,-632(a5) # cd88 <__clz_tab+0x1d8>
    19a8:	d8c7a583          	lw	a1,-628(a5)
    19ac:	fb5ff06f          	j	1960 <__ieee754_acos+0x5c>
    19b0:	3e05c063          	bltz	a1,1d90 <__ieee754_acos+0x48c>
    19b4:	0000db37          	lui	s6,0xd
    19b8:	ce8b2503          	lw	a0,-792(s6) # cce8 <__clz_tab+0x138>
    19bc:	cecb2583          	lw	a1,-788(s6)
    19c0:	00048613          	mv	a2,s1
    19c4:	00040693          	mv	a3,s0
    19c8:	7c5040ef          	jal	ra,698c <__subdf3>
    19cc:	0000d7b7          	lui	a5,0xd
    19d0:	d487a603          	lw	a2,-696(a5) # cd48 <__clz_tab+0x198>
    19d4:	d4c7a683          	lw	a3,-692(a5)
    19d8:	00000993          	li	s3,0
    19dc:	145040ef          	jal	ra,6320 <__muldf3>
    19e0:	00050413          	mv	s0,a0
    19e4:	00058493          	mv	s1,a1
    19e8:	32d010ef          	jal	ra,3514 <__ieee754_sqrt>
    19ec:	0000d7b7          	lui	a5,0xd
    19f0:	d907a603          	lw	a2,-624(a5) # cd90 <__clz_tab+0x1e0>
    19f4:	d947a683          	lw	a3,-620(a5)
    19f8:	00058913          	mv	s2,a1
    19fc:	00050a13          	mv	s4,a0
    1a00:	00048593          	mv	a1,s1
    1a04:	00040513          	mv	a0,s0
    1a08:	119040ef          	jal	ra,6320 <__muldf3>
    1a0c:	0000d7b7          	lui	a5,0xd
    1a10:	d987a603          	lw	a2,-616(a5) # cd98 <__clz_tab+0x1e8>
    1a14:	d9c7a683          	lw	a3,-612(a5)
    1a18:	728030ef          	jal	ra,5140 <__adddf3>
    1a1c:	00040613          	mv	a2,s0
    1a20:	00048693          	mv	a3,s1
    1a24:	0fd040ef          	jal	ra,6320 <__muldf3>
    1a28:	0000d7b7          	lui	a5,0xd
    1a2c:	da07a603          	lw	a2,-608(a5) # cda0 <__clz_tab+0x1f0>
    1a30:	da47a683          	lw	a3,-604(a5)
    1a34:	759040ef          	jal	ra,698c <__subdf3>
    1a38:	00040613          	mv	a2,s0
    1a3c:	00048693          	mv	a3,s1
    1a40:	0e1040ef          	jal	ra,6320 <__muldf3>
    1a44:	0000d7b7          	lui	a5,0xd
    1a48:	da87a603          	lw	a2,-600(a5) # cda8 <__clz_tab+0x1f8>
    1a4c:	dac7a683          	lw	a3,-596(a5)
    1a50:	6f0030ef          	jal	ra,5140 <__adddf3>
    1a54:	00040613          	mv	a2,s0
    1a58:	00048693          	mv	a3,s1
    1a5c:	0c5040ef          	jal	ra,6320 <__muldf3>
    1a60:	0000d7b7          	lui	a5,0xd
    1a64:	db07a603          	lw	a2,-592(a5) # cdb0 <__clz_tab+0x200>
    1a68:	db47a683          	lw	a3,-588(a5)
    1a6c:	721040ef          	jal	ra,698c <__subdf3>
    1a70:	00040613          	mv	a2,s0
    1a74:	00048693          	mv	a3,s1
    1a78:	0a9040ef          	jal	ra,6320 <__muldf3>
    1a7c:	0000d7b7          	lui	a5,0xd
    1a80:	db87a603          	lw	a2,-584(a5) # cdb8 <__clz_tab+0x208>
    1a84:	dbc7a683          	lw	a3,-580(a5)
    1a88:	6b8030ef          	jal	ra,5140 <__adddf3>
    1a8c:	00040613          	mv	a2,s0
    1a90:	00048693          	mv	a3,s1
    1a94:	08d040ef          	jal	ra,6320 <__muldf3>
    1a98:	0000d7b7          	lui	a5,0xd
    1a9c:	dc07a603          	lw	a2,-576(a5) # cdc0 <__clz_tab+0x210>
    1aa0:	dc47a683          	lw	a3,-572(a5)
    1aa4:	00050c13          	mv	s8,a0
    1aa8:	00058c93          	mv	s9,a1
    1aac:	00040513          	mv	a0,s0
    1ab0:	00048593          	mv	a1,s1
    1ab4:	06d040ef          	jal	ra,6320 <__muldf3>
    1ab8:	0000d7b7          	lui	a5,0xd
    1abc:	dc87a603          	lw	a2,-568(a5) # cdc8 <__clz_tab+0x218>
    1ac0:	dcc7a683          	lw	a3,-564(a5)
    1ac4:	6c9040ef          	jal	ra,698c <__subdf3>
    1ac8:	00040613          	mv	a2,s0
    1acc:	00048693          	mv	a3,s1
    1ad0:	051040ef          	jal	ra,6320 <__muldf3>
    1ad4:	0000d7b7          	lui	a5,0xd
    1ad8:	dd07a603          	lw	a2,-560(a5) # cdd0 <__clz_tab+0x220>
    1adc:	dd47a683          	lw	a3,-556(a5)
    1ae0:	660030ef          	jal	ra,5140 <__adddf3>
    1ae4:	00040613          	mv	a2,s0
    1ae8:	00048693          	mv	a3,s1
    1aec:	035040ef          	jal	ra,6320 <__muldf3>
    1af0:	0000d7b7          	lui	a5,0xd
    1af4:	dd87a603          	lw	a2,-552(a5) # cdd8 <__clz_tab+0x228>
    1af8:	ddc7a683          	lw	a3,-548(a5)
    1afc:	691040ef          	jal	ra,698c <__subdf3>
    1b00:	00040613          	mv	a2,s0
    1b04:	00048693          	mv	a3,s1
    1b08:	019040ef          	jal	ra,6320 <__muldf3>
    1b0c:	ce8b2603          	lw	a2,-792(s6)
    1b10:	cecb2683          	lw	a3,-788(s6)
    1b14:	62c030ef          	jal	ra,5140 <__adddf3>
    1b18:	00050613          	mv	a2,a0
    1b1c:	00058693          	mv	a3,a1
    1b20:	000c0513          	mv	a0,s8
    1b24:	000c8593          	mv	a1,s9
    1b28:	5d9030ef          	jal	ra,5900 <__divdf3>
    1b2c:	000a0613          	mv	a2,s4
    1b30:	00090693          	mv	a3,s2
    1b34:	7ec040ef          	jal	ra,6320 <__muldf3>
    1b38:	00050b13          	mv	s6,a0
    1b3c:	00058b93          	mv	s7,a1
    1b40:	00098613          	mv	a2,s3
    1b44:	00090693          	mv	a3,s2
    1b48:	00098513          	mv	a0,s3
    1b4c:	00090593          	mv	a1,s2
    1b50:	7d0040ef          	jal	ra,6320 <__muldf3>
    1b54:	00050613          	mv	a2,a0
    1b58:	00058693          	mv	a3,a1
    1b5c:	00040513          	mv	a0,s0
    1b60:	00048593          	mv	a1,s1
    1b64:	629040ef          	jal	ra,698c <__subdf3>
    1b68:	00050413          	mv	s0,a0
    1b6c:	00058493          	mv	s1,a1
    1b70:	00098613          	mv	a2,s3
    1b74:	00090693          	mv	a3,s2
    1b78:	000a0513          	mv	a0,s4
    1b7c:	00090593          	mv	a1,s2
    1b80:	5c0030ef          	jal	ra,5140 <__adddf3>
    1b84:	00050613          	mv	a2,a0
    1b88:	00058693          	mv	a3,a1
    1b8c:	00040513          	mv	a0,s0
    1b90:	00048593          	mv	a1,s1
    1b94:	56d030ef          	jal	ra,5900 <__divdf3>
    1b98:	00050613          	mv	a2,a0
    1b9c:	00058693          	mv	a3,a1
    1ba0:	000b0513          	mv	a0,s6
    1ba4:	000b8593          	mv	a1,s7
    1ba8:	598030ef          	jal	ra,5140 <__adddf3>
    1bac:	00098613          	mv	a2,s3
    1bb0:	00090693          	mv	a3,s2
    1bb4:	58c030ef          	jal	ra,5140 <__adddf3>
    1bb8:	00050613          	mv	a2,a0
    1bbc:	00058693          	mv	a3,a1
    1bc0:	580030ef          	jal	ra,5140 <__adddf3>
    1bc4:	d9dff06f          	j	1960 <__ieee754_acos+0x5c>
    1bc8:	00050613          	mv	a2,a0
    1bcc:	00058693          	mv	a3,a1
    1bd0:	5bd040ef          	jal	ra,698c <__subdf3>
    1bd4:	00050613          	mv	a2,a0
    1bd8:	00058693          	mv	a3,a1
    1bdc:	525030ef          	jal	ra,5900 <__divdf3>
    1be0:	d81ff06f          	j	1960 <__ieee754_acos+0x5c>
    1be4:	0000d7b7          	lui	a5,0xd
    1be8:	d807a503          	lw	a0,-640(a5) # cd80 <__clz_tab+0x1d0>
    1bec:	d847a583          	lw	a1,-636(a5)
    1bf0:	d71ff06f          	j	1960 <__ieee754_acos+0x5c>
    1bf4:	00050613          	mv	a2,a0
    1bf8:	00058693          	mv	a3,a1
    1bfc:	724040ef          	jal	ra,6320 <__muldf3>
    1c00:	0000d7b7          	lui	a5,0xd
    1c04:	d907a603          	lw	a2,-624(a5) # cd90 <__clz_tab+0x1e0>
    1c08:	d947a683          	lw	a3,-620(a5)
    1c0c:	00050913          	mv	s2,a0
    1c10:	00058993          	mv	s3,a1
    1c14:	70c040ef          	jal	ra,6320 <__muldf3>
    1c18:	0000d7b7          	lui	a5,0xd
    1c1c:	d987a603          	lw	a2,-616(a5) # cd98 <__clz_tab+0x1e8>
    1c20:	d9c7a683          	lw	a3,-612(a5)
    1c24:	51c030ef          	jal	ra,5140 <__adddf3>
    1c28:	00090613          	mv	a2,s2
    1c2c:	00098693          	mv	a3,s3
    1c30:	6f0040ef          	jal	ra,6320 <__muldf3>
    1c34:	0000d7b7          	lui	a5,0xd
    1c38:	da07a603          	lw	a2,-608(a5) # cda0 <__clz_tab+0x1f0>
    1c3c:	da47a683          	lw	a3,-604(a5)
    1c40:	54d040ef          	jal	ra,698c <__subdf3>
    1c44:	00090613          	mv	a2,s2
    1c48:	00098693          	mv	a3,s3
    1c4c:	6d4040ef          	jal	ra,6320 <__muldf3>
    1c50:	0000d7b7          	lui	a5,0xd
    1c54:	da87a603          	lw	a2,-600(a5) # cda8 <__clz_tab+0x1f8>
    1c58:	dac7a683          	lw	a3,-596(a5)
    1c5c:	4e4030ef          	jal	ra,5140 <__adddf3>
    1c60:	00090613          	mv	a2,s2
    1c64:	00098693          	mv	a3,s3
    1c68:	6b8040ef          	jal	ra,6320 <__muldf3>
    1c6c:	0000d7b7          	lui	a5,0xd
    1c70:	db07a603          	lw	a2,-592(a5) # cdb0 <__clz_tab+0x200>
    1c74:	db47a683          	lw	a3,-588(a5)
    1c78:	515040ef          	jal	ra,698c <__subdf3>
    1c7c:	00090613          	mv	a2,s2
    1c80:	00098693          	mv	a3,s3
    1c84:	69c040ef          	jal	ra,6320 <__muldf3>
    1c88:	0000d7b7          	lui	a5,0xd
    1c8c:	db87a603          	lw	a2,-584(a5) # cdb8 <__clz_tab+0x208>
    1c90:	dbc7a683          	lw	a3,-580(a5)
    1c94:	4ac030ef          	jal	ra,5140 <__adddf3>
    1c98:	00090613          	mv	a2,s2
    1c9c:	00098693          	mv	a3,s3
    1ca0:	680040ef          	jal	ra,6320 <__muldf3>
    1ca4:	0000d7b7          	lui	a5,0xd
    1ca8:	dc07a603          	lw	a2,-576(a5) # cdc0 <__clz_tab+0x210>
    1cac:	dc47a683          	lw	a3,-572(a5)
    1cb0:	00050b13          	mv	s6,a0
    1cb4:	00058b93          	mv	s7,a1
    1cb8:	00090513          	mv	a0,s2
    1cbc:	00098593          	mv	a1,s3
    1cc0:	660040ef          	jal	ra,6320 <__muldf3>
    1cc4:	0000d7b7          	lui	a5,0xd
    1cc8:	dc87a603          	lw	a2,-568(a5) # cdc8 <__clz_tab+0x218>
    1ccc:	dcc7a683          	lw	a3,-564(a5)
    1cd0:	4bd040ef          	jal	ra,698c <__subdf3>
    1cd4:	00090613          	mv	a2,s2
    1cd8:	00098693          	mv	a3,s3
    1cdc:	644040ef          	jal	ra,6320 <__muldf3>
    1ce0:	0000d7b7          	lui	a5,0xd
    1ce4:	dd07a603          	lw	a2,-560(a5) # cdd0 <__clz_tab+0x220>
    1ce8:	dd47a683          	lw	a3,-556(a5)
    1cec:	454030ef          	jal	ra,5140 <__adddf3>
    1cf0:	00090613          	mv	a2,s2
    1cf4:	00098693          	mv	a3,s3
    1cf8:	628040ef          	jal	ra,6320 <__muldf3>
    1cfc:	0000d7b7          	lui	a5,0xd
    1d00:	dd87a603          	lw	a2,-552(a5) # cdd8 <__clz_tab+0x228>
    1d04:	ddc7a683          	lw	a3,-548(a5)
    1d08:	485040ef          	jal	ra,698c <__subdf3>
    1d0c:	00090613          	mv	a2,s2
    1d10:	00098693          	mv	a3,s3
    1d14:	60c040ef          	jal	ra,6320 <__muldf3>
    1d18:	0000d7b7          	lui	a5,0xd
    1d1c:	ce87a603          	lw	a2,-792(a5) # cce8 <__clz_tab+0x138>
    1d20:	cec7a683          	lw	a3,-788(a5)
    1d24:	41c030ef          	jal	ra,5140 <__adddf3>
    1d28:	00050613          	mv	a2,a0
    1d2c:	00058693          	mv	a3,a1
    1d30:	000b0513          	mv	a0,s6
    1d34:	000b8593          	mv	a1,s7
    1d38:	3c9030ef          	jal	ra,5900 <__divdf3>
    1d3c:	00048613          	mv	a2,s1
    1d40:	00040693          	mv	a3,s0
    1d44:	5dc040ef          	jal	ra,6320 <__muldf3>
    1d48:	0000d7b7          	lui	a5,0xd
    1d4c:	00050613          	mv	a2,a0
    1d50:	00058693          	mv	a3,a1
    1d54:	de07a503          	lw	a0,-544(a5) # cde0 <__clz_tab+0x230>
    1d58:	de47a583          	lw	a1,-540(a5)
    1d5c:	431040ef          	jal	ra,698c <__subdf3>
    1d60:	00050613          	mv	a2,a0
    1d64:	00058693          	mv	a3,a1
    1d68:	00048513          	mv	a0,s1
    1d6c:	00040593          	mv	a1,s0
    1d70:	41d040ef          	jal	ra,698c <__subdf3>
    1d74:	0000d7b7          	lui	a5,0xd
    1d78:	00050613          	mv	a2,a0
    1d7c:	00058693          	mv	a3,a1
    1d80:	d887a503          	lw	a0,-632(a5) # cd88 <__clz_tab+0x1d8>
    1d84:	d8c7a583          	lw	a1,-628(a5)
    1d88:	405040ef          	jal	ra,698c <__subdf3>
    1d8c:	bd5ff06f          	j	1960 <__ieee754_acos+0x5c>
    1d90:	0000da37          	lui	s4,0xd
    1d94:	ce8a2603          	lw	a2,-792(s4) # cce8 <__clz_tab+0x138>
    1d98:	ceca2683          	lw	a3,-788(s4)
    1d9c:	3a4030ef          	jal	ra,5140 <__adddf3>
    1da0:	0000d7b7          	lui	a5,0xd
    1da4:	d487a603          	lw	a2,-696(a5) # cd48 <__clz_tab+0x198>
    1da8:	d4c7a683          	lw	a3,-692(a5)
    1dac:	574040ef          	jal	ra,6320 <__muldf3>
    1db0:	0000d7b7          	lui	a5,0xd
    1db4:	d907a603          	lw	a2,-624(a5) # cd90 <__clz_tab+0x1e0>
    1db8:	d947a683          	lw	a3,-620(a5)
    1dbc:	00050413          	mv	s0,a0
    1dc0:	00058493          	mv	s1,a1
    1dc4:	55c040ef          	jal	ra,6320 <__muldf3>
    1dc8:	0000d7b7          	lui	a5,0xd
    1dcc:	d987a603          	lw	a2,-616(a5) # cd98 <__clz_tab+0x1e8>
    1dd0:	d9c7a683          	lw	a3,-612(a5)
    1dd4:	36c030ef          	jal	ra,5140 <__adddf3>
    1dd8:	00040613          	mv	a2,s0
    1ddc:	00048693          	mv	a3,s1
    1de0:	540040ef          	jal	ra,6320 <__muldf3>
    1de4:	0000d7b7          	lui	a5,0xd
    1de8:	da07a603          	lw	a2,-608(a5) # cda0 <__clz_tab+0x1f0>
    1dec:	da47a683          	lw	a3,-604(a5)
    1df0:	39d040ef          	jal	ra,698c <__subdf3>
    1df4:	00040613          	mv	a2,s0
    1df8:	00048693          	mv	a3,s1
    1dfc:	524040ef          	jal	ra,6320 <__muldf3>
    1e00:	0000d7b7          	lui	a5,0xd
    1e04:	da87a603          	lw	a2,-600(a5) # cda8 <__clz_tab+0x1f8>
    1e08:	dac7a683          	lw	a3,-596(a5)
    1e0c:	334030ef          	jal	ra,5140 <__adddf3>
    1e10:	00040613          	mv	a2,s0
    1e14:	00048693          	mv	a3,s1
    1e18:	508040ef          	jal	ra,6320 <__muldf3>
    1e1c:	0000d7b7          	lui	a5,0xd
    1e20:	db07a603          	lw	a2,-592(a5) # cdb0 <__clz_tab+0x200>
    1e24:	db47a683          	lw	a3,-588(a5)
    1e28:	365040ef          	jal	ra,698c <__subdf3>
    1e2c:	00040613          	mv	a2,s0
    1e30:	00048693          	mv	a3,s1
    1e34:	4ec040ef          	jal	ra,6320 <__muldf3>
    1e38:	0000d7b7          	lui	a5,0xd
    1e3c:	db87a603          	lw	a2,-584(a5) # cdb8 <__clz_tab+0x208>
    1e40:	dbc7a683          	lw	a3,-580(a5)
    1e44:	2fc030ef          	jal	ra,5140 <__adddf3>
    1e48:	00040613          	mv	a2,s0
    1e4c:	00048693          	mv	a3,s1
    1e50:	4d0040ef          	jal	ra,6320 <__muldf3>
    1e54:	00050b13          	mv	s6,a0
    1e58:	00058b93          	mv	s7,a1
    1e5c:	00040513          	mv	a0,s0
    1e60:	00048593          	mv	a1,s1
    1e64:	6b0010ef          	jal	ra,3514 <__ieee754_sqrt>
    1e68:	0000d7b7          	lui	a5,0xd
    1e6c:	dc07a603          	lw	a2,-576(a5) # cdc0 <__clz_tab+0x210>
    1e70:	dc47a683          	lw	a3,-572(a5)
    1e74:	00050913          	mv	s2,a0
    1e78:	00058993          	mv	s3,a1
    1e7c:	00040513          	mv	a0,s0
    1e80:	00048593          	mv	a1,s1
    1e84:	49c040ef          	jal	ra,6320 <__muldf3>
    1e88:	0000d7b7          	lui	a5,0xd
    1e8c:	dc87a603          	lw	a2,-568(a5) # cdc8 <__clz_tab+0x218>
    1e90:	dcc7a683          	lw	a3,-564(a5)
    1e94:	2f9040ef          	jal	ra,698c <__subdf3>
    1e98:	00040613          	mv	a2,s0
    1e9c:	00048693          	mv	a3,s1
    1ea0:	480040ef          	jal	ra,6320 <__muldf3>
    1ea4:	0000d7b7          	lui	a5,0xd
    1ea8:	dd07a603          	lw	a2,-560(a5) # cdd0 <__clz_tab+0x220>
    1eac:	dd47a683          	lw	a3,-556(a5)
    1eb0:	290030ef          	jal	ra,5140 <__adddf3>
    1eb4:	00040613          	mv	a2,s0
    1eb8:	00048693          	mv	a3,s1
    1ebc:	464040ef          	jal	ra,6320 <__muldf3>
    1ec0:	0000d7b7          	lui	a5,0xd
    1ec4:	dd87a603          	lw	a2,-552(a5) # cdd8 <__clz_tab+0x228>
    1ec8:	ddc7a683          	lw	a3,-548(a5)
    1ecc:	2c1040ef          	jal	ra,698c <__subdf3>
    1ed0:	00040613          	mv	a2,s0
    1ed4:	00048693          	mv	a3,s1
    1ed8:	448040ef          	jal	ra,6320 <__muldf3>
    1edc:	ce8a2603          	lw	a2,-792(s4)
    1ee0:	ceca2683          	lw	a3,-788(s4)
    1ee4:	25c030ef          	jal	ra,5140 <__adddf3>
    1ee8:	00050613          	mv	a2,a0
    1eec:	00058693          	mv	a3,a1
    1ef0:	000b0513          	mv	a0,s6
    1ef4:	000b8593          	mv	a1,s7
    1ef8:	209030ef          	jal	ra,5900 <__divdf3>
    1efc:	00090613          	mv	a2,s2
    1f00:	00098693          	mv	a3,s3
    1f04:	41c040ef          	jal	ra,6320 <__muldf3>
    1f08:	0000d7b7          	lui	a5,0xd
    1f0c:	de07a603          	lw	a2,-544(a5) # cde0 <__clz_tab+0x230>
    1f10:	de47a683          	lw	a3,-540(a5)
    1f14:	279040ef          	jal	ra,698c <__subdf3>
    1f18:	00090613          	mv	a2,s2
    1f1c:	00098693          	mv	a3,s3
    1f20:	220030ef          	jal	ra,5140 <__adddf3>
    1f24:	00050613          	mv	a2,a0
    1f28:	00058693          	mv	a3,a1
    1f2c:	214030ef          	jal	ra,5140 <__adddf3>
    1f30:	0000d7b7          	lui	a5,0xd
    1f34:	00050613          	mv	a2,a0
    1f38:	00058693          	mv	a3,a1
    1f3c:	d807a503          	lw	a0,-640(a5) # cd80 <__clz_tab+0x1d0>
    1f40:	d847a583          	lw	a1,-636(a5)
    1f44:	249040ef          	jal	ra,698c <__subdf3>
    1f48:	a19ff06f          	j	1960 <__ieee754_acos+0x5c>

00001f4c <__ieee754_pow>:
    1f4c:	80000837          	lui	a6,0x80000
    1f50:	f8010113          	addi	sp,sp,-128
    1f54:	fff84813          	not	a6,a6
    1f58:	07212823          	sw	s2,112(sp)
    1f5c:	0106f933          	and	s2,a3,a6
    1f60:	06112e23          	sw	ra,124(sp)
    1f64:	06812c23          	sw	s0,120(sp)
    1f68:	06912a23          	sw	s1,116(sp)
    1f6c:	07312623          	sw	s3,108(sp)
    1f70:	07412423          	sw	s4,104(sp)
    1f74:	07512223          	sw	s5,100(sp)
    1f78:	07612023          	sw	s6,96(sp)
    1f7c:	05712e23          	sw	s7,92(sp)
    1f80:	05812c23          	sw	s8,88(sp)
    1f84:	05912a23          	sw	s9,84(sp)
    1f88:	05a12823          	sw	s10,80(sp)
    1f8c:	05b12623          	sw	s11,76(sp)
    1f90:	00c967b3          	or	a5,s2,a2
    1f94:	10078063          	beqz	a5,2094 <__ieee754_pow+0x148>
    1f98:	00b87433          	and	s0,a6,a1
    1f9c:	7ff007b7          	lui	a5,0x7ff00
    1fa0:	00058a93          	mv	s5,a1
    1fa4:	00050a13          	mv	s4,a0
    1fa8:	0487dc63          	bge	a5,s0,2000 <__ieee754_pow+0xb4>
    1fac:	c0100837          	lui	a6,0xc0100
    1fb0:	01040833          	add	a6,s0,a6
    1fb4:	00a86833          	or	a6,a6,a0
    1fb8:	3ff005b7          	lui	a1,0x3ff00
    1fbc:	00000513          	li	a0,0
    1fc0:	0e081463          	bnez	a6,20a8 <__ieee754_pow+0x15c>
    1fc4:	07c12083          	lw	ra,124(sp)
    1fc8:	07812403          	lw	s0,120(sp)
    1fcc:	07412483          	lw	s1,116(sp)
    1fd0:	07012903          	lw	s2,112(sp)
    1fd4:	06c12983          	lw	s3,108(sp)
    1fd8:	06812a03          	lw	s4,104(sp)
    1fdc:	06412a83          	lw	s5,100(sp)
    1fe0:	06012b03          	lw	s6,96(sp)
    1fe4:	05c12b83          	lw	s7,92(sp)
    1fe8:	05812c03          	lw	s8,88(sp)
    1fec:	05412c83          	lw	s9,84(sp)
    1ff0:	05012d03          	lw	s10,80(sp)
    1ff4:	04c12d83          	lw	s11,76(sp)
    1ff8:	08010113          	addi	sp,sp,128
    1ffc:	00008067          	ret
    2000:	0af40063          	beq	s0,a5,20a0 <__ieee754_pow+0x154>
    2004:	fb27c4e3          	blt	a5,s2,1fac <__ieee754_pow+0x60>
    2008:	7ff007b7          	lui	a5,0x7ff00
    200c:	24f90863          	beq	s2,a5,225c <__ieee754_pow+0x310>
    2010:	00058493          	mv	s1,a1
    2014:	00050993          	mv	s3,a0
    2018:	00060c93          	mv	s9,a2
    201c:	00068d93          	mv	s11,a3
    2020:	00000d13          	li	s10,0
    2024:	0c0ac463          	bltz	s5,20ec <__ieee754_pow+0x1a0>
    2028:	100c9463          	bnez	s9,2130 <__ieee754_pow+0x1e4>
    202c:	7ff006b7          	lui	a3,0x7ff00
    2030:	1ad90463          	beq	s2,a3,21d8 <__ieee754_pow+0x28c>
    2034:	3ff006b7          	lui	a3,0x3ff00
    2038:	1cd90863          	beq	s2,a3,2208 <__ieee754_pow+0x2bc>
    203c:	400006b7          	lui	a3,0x40000
    2040:	56dd8ae3          	beq	s11,a3,2db4 <__ieee754_pow+0xe68>
    2044:	3fe006b7          	lui	a3,0x3fe00
    2048:	0edd9463          	bne	s11,a3,2130 <__ieee754_pow+0x1e4>
    204c:	0e0ac263          	bltz	s5,2130 <__ieee754_pow+0x1e4>
    2050:	07812403          	lw	s0,120(sp)
    2054:	07c12083          	lw	ra,124(sp)
    2058:	07012903          	lw	s2,112(sp)
    205c:	06812a03          	lw	s4,104(sp)
    2060:	06412a83          	lw	s5,100(sp)
    2064:	06012b03          	lw	s6,96(sp)
    2068:	05c12b83          	lw	s7,92(sp)
    206c:	05812c03          	lw	s8,88(sp)
    2070:	05412c83          	lw	s9,84(sp)
    2074:	05012d03          	lw	s10,80(sp)
    2078:	04c12d83          	lw	s11,76(sp)
    207c:	00098513          	mv	a0,s3
    2080:	00048593          	mv	a1,s1
    2084:	06c12983          	lw	s3,108(sp)
    2088:	07412483          	lw	s1,116(sp)
    208c:	08010113          	addi	sp,sp,128
    2090:	4840106f          	j	3514 <__ieee754_sqrt>
    2094:	00000513          	li	a0,0
    2098:	3ff005b7          	lui	a1,0x3ff00
    209c:	f29ff06f          	j	1fc4 <__ieee754_pow+0x78>
    20a0:	00051463          	bnez	a0,20a8 <__ieee754_pow+0x15c>
    20a4:	f72452e3          	bge	s0,s2,2008 <__ieee754_pow+0xbc>
    20a8:	07812403          	lw	s0,120(sp)
    20ac:	07c12083          	lw	ra,124(sp)
    20b0:	07412483          	lw	s1,116(sp)
    20b4:	07012903          	lw	s2,112(sp)
    20b8:	06c12983          	lw	s3,108(sp)
    20bc:	06812a03          	lw	s4,104(sp)
    20c0:	06412a83          	lw	s5,100(sp)
    20c4:	06012b03          	lw	s6,96(sp)
    20c8:	05c12b83          	lw	s7,92(sp)
    20cc:	05812c03          	lw	s8,88(sp)
    20d0:	05412c83          	lw	s9,84(sp)
    20d4:	05012d03          	lw	s10,80(sp)
    20d8:	04c12d83          	lw	s11,76(sp)
    20dc:	0000d537          	lui	a0,0xd
    20e0:	fd850513          	addi	a0,a0,-40 # cfd8 <__clz_tab+0x428>
    20e4:	08010113          	addi	sp,sp,128
    20e8:	4650206f          	j	4d4c <nan>
    20ec:	434006b7          	lui	a3,0x43400
    20f0:	16d95a63          	bge	s2,a3,2264 <__ieee754_pow+0x318>
    20f4:	3ff006b7          	lui	a3,0x3ff00
    20f8:	02d94a63          	blt	s2,a3,212c <__ieee754_pow+0x1e0>
    20fc:	41495693          	srai	a3,s2,0x14
    2100:	c0168693          	addi	a3,a3,-1023 # 3feffc01 <_impure_ptr+0x3fef27b9>
    2104:	01400613          	li	a2,20
    2108:	4cd652e3          	bge	a2,a3,2dcc <__ieee754_pow+0xe80>
    210c:	03400613          	li	a2,52
    2110:	40d606b3          	sub	a3,a2,a3
    2114:	00dcd633          	srl	a2,s9,a3
    2118:	00d616b3          	sll	a3,a2,a3
    211c:	01969863          	bne	a3,s9,212c <__ieee754_pow+0x1e0>
    2120:	00167613          	andi	a2,a2,1
    2124:	00200313          	li	t1,2
    2128:	40c30d33          	sub	s10,t1,a2
    212c:	f00c84e3          	beqz	s9,2034 <__ieee754_pow+0xe8>
    2130:	00098513          	mv	a0,s3
    2134:	00048593          	mv	a1,s1
    2138:	211020ef          	jal	ra,4b48 <fabs>
    213c:	040a0a63          	beqz	s4,2190 <__ieee754_pow+0x244>
    2140:	01f4de13          	srli	t3,s1,0x1f
    2144:	fffe0e13          	addi	t3,t3,-1
    2148:	01cd66b3          	or	a3,s10,t3
    214c:	12068063          	beqz	a3,226c <__ieee754_pow+0x320>
    2150:	41e006b7          	lui	a3,0x41e00
    2154:	1326de63          	bge	a3,s2,2290 <__ieee754_pow+0x344>
    2158:	43f006b7          	lui	a3,0x43f00
    215c:	2f26d4e3          	bge	a3,s2,2c44 <__ieee754_pow+0xcf8>
    2160:	3ff00737          	lui	a4,0x3ff00
    2164:	0ce45663          	bge	s0,a4,2230 <__ieee754_pow+0x2e4>
    2168:	080dda63          	bgez	s11,21fc <__ieee754_pow+0x2b0>
    216c:	0000d7b7          	lui	a5,0xd
    2170:	e007a603          	lw	a2,-512(a5) # ce00 <__clz_tab+0x250>
    2174:	e047a683          	lw	a3,-508(a5)
    2178:	00060513          	mv	a0,a2
    217c:	00068593          	mv	a1,a3
    2180:	1a0040ef          	jal	ra,6320 <__muldf3>
    2184:	e41ff06f          	j	1fc4 <__ieee754_pow+0x78>
    2188:	1c1020ef          	jal	ra,4b48 <fabs>
    218c:	0e0a1063          	bnez	s4,226c <__ieee754_pow+0x320>
    2190:	00040a63          	beqz	s0,21a4 <__ieee754_pow+0x258>
    2194:	00249693          	slli	a3,s1,0x2
    2198:	0026d693          	srli	a3,a3,0x2
    219c:	3ff00637          	lui	a2,0x3ff00
    21a0:	fac690e3          	bne	a3,a2,2140 <__ieee754_pow+0x1f4>
    21a4:	080dca63          	bltz	s11,2238 <__ieee754_pow+0x2ec>
    21a8:	e00adee3          	bgez	s5,1fc4 <__ieee754_pow+0x78>
    21ac:	c01007b7          	lui	a5,0xc0100
    21b0:	00f407b3          	add	a5,s0,a5
    21b4:	01a7e7b3          	or	a5,a5,s10
    21b8:	46079ee3          	bnez	a5,2e34 <__ieee754_pow+0xee8>
    21bc:	00050613          	mv	a2,a0
    21c0:	00058693          	mv	a3,a1
    21c4:	7c8040ef          	jal	ra,698c <__subdf3>
    21c8:	00050613          	mv	a2,a0
    21cc:	00058693          	mv	a3,a1
    21d0:	730030ef          	jal	ra,5900 <__divdf3>
    21d4:	df1ff06f          	j	1fc4 <__ieee754_pow+0x78>
    21d8:	c0100537          	lui	a0,0xc0100
    21dc:	00a40533          	add	a0,s0,a0
    21e0:	01356533          	or	a0,a0,s3
    21e4:	ea0508e3          	beqz	a0,2094 <__ieee754_pow+0x148>
    21e8:	3ff00737          	lui	a4,0x3ff00
    21ec:	22e44ee3          	blt	s0,a4,2c28 <__ieee754_pow+0xcdc>
    21f0:	000d8593          	mv	a1,s11
    21f4:	00000513          	li	a0,0
    21f8:	dc0dd6e3          	bgez	s11,1fc4 <__ieee754_pow+0x78>
    21fc:	00000513          	li	a0,0
    2200:	00000593          	li	a1,0
    2204:	dc1ff06f          	j	1fc4 <__ieee754_pow+0x78>
    2208:	00098513          	mv	a0,s3
    220c:	00048593          	mv	a1,s1
    2210:	da0ddae3          	bgez	s11,1fc4 <__ieee754_pow+0x78>
    2214:	0000d7b7          	lui	a5,0xd
    2218:	ce87a503          	lw	a0,-792(a5) # cce8 <__clz_tab+0x138>
    221c:	cec7a583          	lw	a1,-788(a5)
    2220:	00098613          	mv	a2,s3
    2224:	00048693          	mv	a3,s1
    2228:	6d8030ef          	jal	ra,5900 <__divdf3>
    222c:	d99ff06f          	j	1fc4 <__ieee754_pow+0x78>
    2230:	f3b04ee3          	bgtz	s11,216c <__ieee754_pow+0x220>
    2234:	fc9ff06f          	j	21fc <__ieee754_pow+0x2b0>
    2238:	0000d737          	lui	a4,0xd
    223c:	00050c93          	mv	s9,a0
    2240:	00058793          	mv	a5,a1
    2244:	ce872503          	lw	a0,-792(a4) # cce8 <__clz_tab+0x138>
    2248:	cec72583          	lw	a1,-788(a4)
    224c:	000c8613          	mv	a2,s9
    2250:	00078693          	mv	a3,a5
    2254:	6ac030ef          	jal	ra,5900 <__divdf3>
    2258:	f51ff06f          	j	21a8 <__ieee754_pow+0x25c>
    225c:	da060ae3          	beqz	a2,2010 <__ieee754_pow+0xc4>
    2260:	d4dff06f          	j	1fac <__ieee754_pow+0x60>
    2264:	00200d13          	li	s10,2
    2268:	dc1ff06f          	j	2028 <__ieee754_pow+0xdc>
    226c:	00098613          	mv	a2,s3
    2270:	00048693          	mv	a3,s1
    2274:	00098513          	mv	a0,s3
    2278:	00048593          	mv	a1,s1
    227c:	710040ef          	jal	ra,698c <__subdf3>
    2280:	00050613          	mv	a2,a0
    2284:	00058693          	mv	a3,a1
    2288:	678030ef          	jal	ra,5900 <__divdf3>
    228c:	d39ff06f          	j	1fc4 <__ieee754_pow+0x78>
    2290:	7ff006b7          	lui	a3,0x7ff00
    2294:	0096f4b3          	and	s1,a3,s1
    2298:	00000613          	li	a2,0
    229c:	02049263          	bnez	s1,22c0 <__ieee754_pow+0x374>
    22a0:	0000d6b7          	lui	a3,0xd
    22a4:	e286a603          	lw	a2,-472(a3) # ce28 <__clz_tab+0x278>
    22a8:	e2c6a683          	lw	a3,-468(a3)
    22ac:	01c12423          	sw	t3,8(sp)
    22b0:	070040ef          	jal	ra,6320 <__muldf3>
    22b4:	00812e03          	lw	t3,8(sp)
    22b8:	00058413          	mv	s0,a1
    22bc:	fcb00613          	li	a2,-53
    22c0:	001005b7          	lui	a1,0x100
    22c4:	41445e93          	srai	t4,s0,0x14
    22c8:	fff58813          	addi	a6,a1,-1 # fffff <_impure_ptr+0xf2bb7>
    22cc:	0003a6b7          	lui	a3,0x3a
    22d0:	c01e8e93          	addi	t4,t4,-1023
    22d4:	01047833          	and	a6,s0,a6
    22d8:	3ff00c37          	lui	s8,0x3ff00
    22dc:	88e68693          	addi	a3,a3,-1906 # 3988e <_impure_ptr+0x2c446>
    22e0:	00ce8eb3          	add	t4,t4,a2
    22e4:	01886c33          	or	s8,a6,s8
    22e8:	1506dae3          	bge	a3,a6,2c3c <__ieee754_pow+0xcf0>
    22ec:	000bb6b7          	lui	a3,0xbb
    22f0:	67968693          	addi	a3,a3,1657 # bb679 <_impure_ptr+0xae231>
    22f4:	3506dce3          	bge	a3,a6,2e4c <__ieee754_pow+0xf00>
    22f8:	0000dab7          	lui	s5,0xd
    22fc:	001e8e93          	addi	t4,t4,1
    2300:	40bc0c33          	sub	s8,s8,a1
    2304:	ce8aa783          	lw	a5,-792(s5) # cce8 <__clz_tab+0x138>
    2308:	cecaa803          	lw	a6,-788(s5)
    230c:	00012823          	sw	zero,16(sp)
    2310:	00012a23          	sw	zero,20(sp)
    2314:	02012c23          	sw	zero,56(sp)
    2318:	02012e23          	sw	zero,60(sp)
    231c:	00000993          	li	s3,0
    2320:	00f12423          	sw	a5,8(sp)
    2324:	01012623          	sw	a6,12(sp)
    2328:	00812403          	lw	s0,8(sp)
    232c:	00c12483          	lw	s1,12(sp)
    2330:	000c0593          	mv	a1,s8
    2334:	00040613          	mv	a2,s0
    2338:	00048693          	mv	a3,s1
    233c:	03d12a23          	sw	t4,52(sp)
    2340:	03c12823          	sw	t3,48(sp)
    2344:	00050913          	mv	s2,a0
    2348:	644040ef          	jal	ra,698c <__subdf3>
    234c:	00050b13          	mv	s6,a0
    2350:	00058b93          	mv	s7,a1
    2354:	00040613          	mv	a2,s0
    2358:	00048693          	mv	a3,s1
    235c:	00090513          	mv	a0,s2
    2360:	000c0593          	mv	a1,s8
    2364:	00812423          	sw	s0,8(sp)
    2368:	00912623          	sw	s1,12(sp)
    236c:	5d5020ef          	jal	ra,5140 <__adddf3>
    2370:	00050613          	mv	a2,a0
    2374:	00058693          	mv	a3,a1
    2378:	ce8aa503          	lw	a0,-792(s5)
    237c:	cecaa583          	lw	a1,-788(s5)
    2380:	00000493          	li	s1,0
    2384:	57c030ef          	jal	ra,5900 <__divdf3>
    2388:	00050613          	mv	a2,a0
    238c:	00058693          	mv	a3,a1
    2390:	00a12c23          	sw	a0,24(sp)
    2394:	00b12e23          	sw	a1,28(sp)
    2398:	000b0513          	mv	a0,s6
    239c:	000b8593          	mv	a1,s7
    23a0:	781030ef          	jal	ra,6320 <__muldf3>
    23a4:	401c5f13          	srai	t5,s8,0x1
    23a8:	200006b7          	lui	a3,0x20000
    23ac:	00df6f33          	or	t5,t5,a3
    23b0:	000806b7          	lui	a3,0x80
    23b4:	00df0f33          	add	t5,t5,a3
    23b8:	013f09b3          	add	s3,t5,s3
    23bc:	00050a13          	mv	s4,a0
    23c0:	00098693          	mv	a3,s3
    23c4:	00000613          	li	a2,0
    23c8:	00048513          	mv	a0,s1
    23cc:	00058413          	mv	s0,a1
    23d0:	751030ef          	jal	ra,6320 <__muldf3>
    23d4:	00050613          	mv	a2,a0
    23d8:	00058693          	mv	a3,a1
    23dc:	000b0513          	mv	a0,s6
    23e0:	000b8593          	mv	a1,s7
    23e4:	5a8040ef          	jal	ra,698c <__subdf3>
    23e8:	00812603          	lw	a2,8(sp)
    23ec:	00c12683          	lw	a3,12(sp)
    23f0:	00050b13          	mv	s6,a0
    23f4:	00058b93          	mv	s7,a1
    23f8:	00000513          	li	a0,0
    23fc:	00098593          	mv	a1,s3
    2400:	58c040ef          	jal	ra,698c <__subdf3>
    2404:	00050613          	mv	a2,a0
    2408:	00058693          	mv	a3,a1
    240c:	00090513          	mv	a0,s2
    2410:	000c0593          	mv	a1,s8
    2414:	578040ef          	jal	ra,698c <__subdf3>
    2418:	00048613          	mv	a2,s1
    241c:	00040693          	mv	a3,s0
    2420:	701030ef          	jal	ra,6320 <__muldf3>
    2424:	00050613          	mv	a2,a0
    2428:	00058693          	mv	a3,a1
    242c:	000b0513          	mv	a0,s6
    2430:	000b8593          	mv	a1,s7
    2434:	558040ef          	jal	ra,698c <__subdf3>
    2438:	01812803          	lw	a6,24(sp)
    243c:	01c12883          	lw	a7,28(sp)
    2440:	0000dbb7          	lui	s7,0xd
    2444:	00080613          	mv	a2,a6
    2448:	00088693          	mv	a3,a7
    244c:	6d5030ef          	jal	ra,6320 <__muldf3>
    2450:	000a0613          	mv	a2,s4
    2454:	00040693          	mv	a3,s0
    2458:	00a12423          	sw	a0,8(sp)
    245c:	00b12623          	sw	a1,12(sp)
    2460:	000a0513          	mv	a0,s4
    2464:	00040593          	mv	a1,s0
    2468:	6b9030ef          	jal	ra,6320 <__muldf3>
    246c:	0000d6b7          	lui	a3,0xd
    2470:	e306a603          	lw	a2,-464(a3) # ce30 <__clz_tab+0x280>
    2474:	e346a683          	lw	a3,-460(a3)
    2478:	00050913          	mv	s2,a0
    247c:	00058993          	mv	s3,a1
    2480:	6a1030ef          	jal	ra,6320 <__muldf3>
    2484:	0000d6b7          	lui	a3,0xd
    2488:	e386a603          	lw	a2,-456(a3) # ce38 <__clz_tab+0x288>
    248c:	e3c6a683          	lw	a3,-452(a3)
    2490:	00000b13          	li	s6,0
    2494:	00000c13          	li	s8,0
    2498:	4a9020ef          	jal	ra,5140 <__adddf3>
    249c:	00090613          	mv	a2,s2
    24a0:	00098693          	mv	a3,s3
    24a4:	67d030ef          	jal	ra,6320 <__muldf3>
    24a8:	0000d6b7          	lui	a3,0xd
    24ac:	e406a603          	lw	a2,-448(a3) # ce40 <__clz_tab+0x290>
    24b0:	e446a683          	lw	a3,-444(a3)
    24b4:	48d020ef          	jal	ra,5140 <__adddf3>
    24b8:	00090613          	mv	a2,s2
    24bc:	00098693          	mv	a3,s3
    24c0:	661030ef          	jal	ra,6320 <__muldf3>
    24c4:	0000d6b7          	lui	a3,0xd
    24c8:	e486a603          	lw	a2,-440(a3) # ce48 <__clz_tab+0x298>
    24cc:	e4c6a683          	lw	a3,-436(a3)
    24d0:	471020ef          	jal	ra,5140 <__adddf3>
    24d4:	00090613          	mv	a2,s2
    24d8:	00098693          	mv	a3,s3
    24dc:	645030ef          	jal	ra,6320 <__muldf3>
    24e0:	0000d6b7          	lui	a3,0xd
    24e4:	e506a603          	lw	a2,-432(a3) # ce50 <__clz_tab+0x2a0>
    24e8:	e546a683          	lw	a3,-428(a3)
    24ec:	455020ef          	jal	ra,5140 <__adddf3>
    24f0:	00090613          	mv	a2,s2
    24f4:	00098693          	mv	a3,s3
    24f8:	629030ef          	jal	ra,6320 <__muldf3>
    24fc:	0000d6b7          	lui	a3,0xd
    2500:	e586a603          	lw	a2,-424(a3) # ce58 <__clz_tab+0x2a8>
    2504:	e5c6a683          	lw	a3,-420(a3)
    2508:	439020ef          	jal	ra,5140 <__adddf3>
    250c:	00090613          	mv	a2,s2
    2510:	00098693          	mv	a3,s3
    2514:	00a12c23          	sw	a0,24(sp)
    2518:	00b12e23          	sw	a1,28(sp)
    251c:	00090513          	mv	a0,s2
    2520:	00098593          	mv	a1,s3
    2524:	5fd030ef          	jal	ra,6320 <__muldf3>
    2528:	01812703          	lw	a4,24(sp)
    252c:	01c12783          	lw	a5,28(sp)
    2530:	00050613          	mv	a2,a0
    2534:	00058693          	mv	a3,a1
    2538:	00070513          	mv	a0,a4
    253c:	00078593          	mv	a1,a5
    2540:	5e1030ef          	jal	ra,6320 <__muldf3>
    2544:	00050913          	mv	s2,a0
    2548:	00058993          	mv	s3,a1
    254c:	00048613          	mv	a2,s1
    2550:	00040693          	mv	a3,s0
    2554:	000a0513          	mv	a0,s4
    2558:	00040593          	mv	a1,s0
    255c:	3e5020ef          	jal	ra,5140 <__adddf3>
    2560:	00812603          	lw	a2,8(sp)
    2564:	00c12683          	lw	a3,12(sp)
    2568:	5b9030ef          	jal	ra,6320 <__muldf3>
    256c:	00090613          	mv	a2,s2
    2570:	00098693          	mv	a3,s3
    2574:	3cd020ef          	jal	ra,5140 <__adddf3>
    2578:	00050913          	mv	s2,a0
    257c:	00058993          	mv	s3,a1
    2580:	00048613          	mv	a2,s1
    2584:	00040693          	mv	a3,s0
    2588:	00048513          	mv	a0,s1
    258c:	00040593          	mv	a1,s0
    2590:	591030ef          	jal	ra,6320 <__muldf3>
    2594:	cb0ba603          	lw	a2,-848(s7) # ccb0 <__clz_tab+0x100>
    2598:	cb4ba683          	lw	a3,-844(s7)
    259c:	02a12423          	sw	a0,40(sp)
    25a0:	02b12623          	sw	a1,44(sp)
    25a4:	39d020ef          	jal	ra,5140 <__adddf3>
    25a8:	00090613          	mv	a2,s2
    25ac:	00098693          	mv	a3,s3
    25b0:	01212c23          	sw	s2,24(sp)
    25b4:	01312e23          	sw	s3,28(sp)
    25b8:	389020ef          	jal	ra,5140 <__adddf3>
    25bc:	00058913          	mv	s2,a1
    25c0:	000b0613          	mv	a2,s6
    25c4:	00058693          	mv	a3,a1
    25c8:	00048513          	mv	a0,s1
    25cc:	00040593          	mv	a1,s0
    25d0:	551030ef          	jal	ra,6320 <__muldf3>
    25d4:	cb0ba603          	lw	a2,-848(s7)
    25d8:	cb4ba683          	lw	a3,-844(s7)
    25dc:	02a12023          	sw	a0,32(sp)
    25e0:	02b12223          	sw	a1,36(sp)
    25e4:	000b0513          	mv	a0,s6
    25e8:	00090593          	mv	a1,s2
    25ec:	3a0040ef          	jal	ra,698c <__subdf3>
    25f0:	02812f03          	lw	t5,40(sp)
    25f4:	02c12f83          	lw	t6,44(sp)
    25f8:	000f0613          	mv	a2,t5
    25fc:	000f8693          	mv	a3,t6
    2600:	38c040ef          	jal	ra,698c <__subdf3>
    2604:	00050613          	mv	a2,a0
    2608:	00058693          	mv	a3,a1
    260c:	01812503          	lw	a0,24(sp)
    2610:	01c12583          	lw	a1,28(sp)
    2614:	378040ef          	jal	ra,698c <__subdf3>
    2618:	000a0613          	mv	a2,s4
    261c:	00040693          	mv	a3,s0
    2620:	501030ef          	jal	ra,6320 <__muldf3>
    2624:	00050413          	mv	s0,a0
    2628:	00058493          	mv	s1,a1
    262c:	00812503          	lw	a0,8(sp)
    2630:	00c12583          	lw	a1,12(sp)
    2634:	000b0613          	mv	a2,s6
    2638:	00090693          	mv	a3,s2
    263c:	4e5030ef          	jal	ra,6320 <__muldf3>
    2640:	00050613          	mv	a2,a0
    2644:	00058693          	mv	a3,a1
    2648:	00040513          	mv	a0,s0
    264c:	00048593          	mv	a1,s1
    2650:	2f1020ef          	jal	ra,5140 <__adddf3>
    2654:	02012b03          	lw	s6,32(sp)
    2658:	02412b83          	lw	s7,36(sp)
    265c:	00050413          	mv	s0,a0
    2660:	00058493          	mv	s1,a1
    2664:	00050613          	mv	a2,a0
    2668:	00058693          	mv	a3,a1
    266c:	000b0513          	mv	a0,s6
    2670:	000b8593          	mv	a1,s7
    2674:	2cd020ef          	jal	ra,5140 <__adddf3>
    2678:	0000d6b7          	lui	a3,0xd
    267c:	e606a603          	lw	a2,-416(a3) # ce60 <__clz_tab+0x2b0>
    2680:	e646a683          	lw	a3,-412(a3)
    2684:	000c0513          	mv	a0,s8
    2688:	00058a13          	mv	s4,a1
    268c:	495030ef          	jal	ra,6320 <__muldf3>
    2690:	00050913          	mv	s2,a0
    2694:	00058993          	mv	s3,a1
    2698:	000b0613          	mv	a2,s6
    269c:	000b8693          	mv	a3,s7
    26a0:	000c0513          	mv	a0,s8
    26a4:	000a0593          	mv	a1,s4
    26a8:	2e4040ef          	jal	ra,698c <__subdf3>
    26ac:	00050613          	mv	a2,a0
    26b0:	00058693          	mv	a3,a1
    26b4:	00040513          	mv	a0,s0
    26b8:	00048593          	mv	a1,s1
    26bc:	2d0040ef          	jal	ra,698c <__subdf3>
    26c0:	0000d6b7          	lui	a3,0xd
    26c4:	e686a603          	lw	a2,-408(a3) # ce68 <__clz_tab+0x2b8>
    26c8:	e6c6a683          	lw	a3,-404(a3)
    26cc:	455030ef          	jal	ra,6320 <__muldf3>
    26d0:	0000d6b7          	lui	a3,0xd
    26d4:	e706a603          	lw	a2,-400(a3) # ce70 <__clz_tab+0x2c0>
    26d8:	e746a683          	lw	a3,-396(a3)
    26dc:	00050413          	mv	s0,a0
    26e0:	00058493          	mv	s1,a1
    26e4:	000c0513          	mv	a0,s8
    26e8:	000a0593          	mv	a1,s4
    26ec:	435030ef          	jal	ra,6320 <__muldf3>
    26f0:	00050613          	mv	a2,a0
    26f4:	00058693          	mv	a3,a1
    26f8:	00040513          	mv	a0,s0
    26fc:	00048593          	mv	a1,s1
    2700:	241020ef          	jal	ra,5140 <__adddf3>
    2704:	03812603          	lw	a2,56(sp)
    2708:	03c12683          	lw	a3,60(sp)
    270c:	235020ef          	jal	ra,5140 <__adddf3>
    2710:	03412e83          	lw	t4,52(sp)
    2714:	00050b13          	mv	s6,a0
    2718:	00058b93          	mv	s7,a1
    271c:	000e8513          	mv	a0,t4
    2720:	2fd040ef          	jal	ra,721c <__floatsidf>
    2724:	00050413          	mv	s0,a0
    2728:	00058493          	mv	s1,a1
    272c:	000b0613          	mv	a2,s6
    2730:	000b8693          	mv	a3,s7
    2734:	00090513          	mv	a0,s2
    2738:	00098593          	mv	a1,s3
    273c:	205020ef          	jal	ra,5140 <__adddf3>
    2740:	01012603          	lw	a2,16(sp)
    2744:	01412683          	lw	a3,20(sp)
    2748:	1f9020ef          	jal	ra,5140 <__adddf3>
    274c:	00040613          	mv	a2,s0
    2750:	00048693          	mv	a3,s1
    2754:	1ed020ef          	jal	ra,5140 <__adddf3>
    2758:	00000613          	li	a2,0
    275c:	00060513          	mv	a0,a2
    2760:	00048693          	mv	a3,s1
    2764:	00040613          	mv	a2,s0
    2768:	00058493          	mv	s1,a1
    276c:	00050413          	mv	s0,a0
    2770:	21c040ef          	jal	ra,698c <__subdf3>
    2774:	01012603          	lw	a2,16(sp)
    2778:	01412683          	lw	a3,20(sp)
    277c:	210040ef          	jal	ra,698c <__subdf3>
    2780:	00090613          	mv	a2,s2
    2784:	00098693          	mv	a3,s3
    2788:	204040ef          	jal	ra,698c <__subdf3>
    278c:	00050613          	mv	a2,a0
    2790:	00058693          	mv	a3,a1
    2794:	000b0513          	mv	a0,s6
    2798:	000b8593          	mv	a1,s7
    279c:	1f0040ef          	jal	ra,698c <__subdf3>
    27a0:	03012e03          	lw	t3,48(sp)
    27a4:	00050913          	mv	s2,a0
    27a8:	00058993          	mv	s3,a1
    27ac:	fffd0313          	addi	t1,s10,-1
    27b0:	01c36e33          	or	t3,t1,t3
    27b4:	460e1063          	bnez	t3,2c14 <__ieee754_pow+0xcc8>
    27b8:	0000d6b7          	lui	a3,0xd
    27bc:	d406a783          	lw	a5,-704(a3) # cd40 <__clz_tab+0x190>
    27c0:	d446a803          	lw	a6,-700(a3)
    27c4:	00f12423          	sw	a5,8(sp)
    27c8:	01012623          	sw	a6,12(sp)
    27cc:	00000c13          	li	s8,0
    27d0:	000c0613          	mv	a2,s8
    27d4:	000d8693          	mv	a3,s11
    27d8:	000c8513          	mv	a0,s9
    27dc:	000d8593          	mv	a1,s11
    27e0:	1ac040ef          	jal	ra,698c <__subdf3>
    27e4:	00040613          	mv	a2,s0
    27e8:	00048693          	mv	a3,s1
    27ec:	335030ef          	jal	ra,6320 <__muldf3>
    27f0:	00050b13          	mv	s6,a0
    27f4:	00058b93          	mv	s7,a1
    27f8:	000c8613          	mv	a2,s9
    27fc:	000d8693          	mv	a3,s11
    2800:	00090513          	mv	a0,s2
    2804:	00098593          	mv	a1,s3
    2808:	319030ef          	jal	ra,6320 <__muldf3>
    280c:	00050613          	mv	a2,a0
    2810:	00058693          	mv	a3,a1
    2814:	000b0513          	mv	a0,s6
    2818:	000b8593          	mv	a1,s7
    281c:	125020ef          	jal	ra,5140 <__adddf3>
    2820:	00050913          	mv	s2,a0
    2824:	00058993          	mv	s3,a1
    2828:	000c0613          	mv	a2,s8
    282c:	000d8693          	mv	a3,s11
    2830:	00040513          	mv	a0,s0
    2834:	00048593          	mv	a1,s1
    2838:	2e9030ef          	jal	ra,6320 <__muldf3>
    283c:	00050613          	mv	a2,a0
    2840:	00058693          	mv	a3,a1
    2844:	00050413          	mv	s0,a0
    2848:	00058493          	mv	s1,a1
    284c:	00090513          	mv	a0,s2
    2850:	00098593          	mv	a1,s3
    2854:	0ed020ef          	jal	ra,5140 <__adddf3>
    2858:	409007b7          	lui	a5,0x40900
    285c:	00050a13          	mv	s4,a0
    2860:	00058b13          	mv	s6,a1
    2864:	00058b93          	mv	s7,a1
    2868:	34f5c063          	blt	a1,a5,2ba8 <__ieee754_pow+0xc5c>
    286c:	40f587b3          	sub	a5,a1,a5
    2870:	00a7e7b3          	or	a5,a5,a0
    2874:	58079c63          	bnez	a5,2e0c <__ieee754_pow+0xec0>
    2878:	0000d7b7          	lui	a5,0xd
    287c:	e787a603          	lw	a2,-392(a5) # ce78 <__clz_tab+0x2c8>
    2880:	e7c7a683          	lw	a3,-388(a5)
    2884:	00090513          	mv	a0,s2
    2888:	00098593          	mv	a1,s3
    288c:	0b5020ef          	jal	ra,5140 <__adddf3>
    2890:	00050d13          	mv	s10,a0
    2894:	00058d93          	mv	s11,a1
    2898:	00040613          	mv	a2,s0
    289c:	00048693          	mv	a3,s1
    28a0:	000a0513          	mv	a0,s4
    28a4:	000b0593          	mv	a1,s6
    28a8:	0e4040ef          	jal	ra,698c <__subdf3>
    28ac:	00050613          	mv	a2,a0
    28b0:	00058693          	mv	a3,a1
    28b4:	000d0513          	mv	a0,s10
    28b8:	000d8593          	mv	a1,s11
    28bc:	09d030ef          	jal	ra,6158 <__gedf2>
    28c0:	54a04663          	bgtz	a0,2e0c <__ieee754_pow+0xec0>
    28c4:	414bd793          	srai	a5,s7,0x14
    28c8:	7ff7f793          	andi	a5,a5,2047
    28cc:	00100537          	lui	a0,0x100
    28d0:	c0278793          	addi	a5,a5,-1022
    28d4:	40f557b3          	sra	a5,a0,a5
    28d8:	017787b3          	add	a5,a5,s7
    28dc:	4147d713          	srai	a4,a5,0x14
    28e0:	7ff77713          	andi	a4,a4,2047
    28e4:	c0170713          	addi	a4,a4,-1023
    28e8:	fff50a13          	addi	s4,a0,-1 # fffff <_impure_ptr+0xf2bb7>
    28ec:	40ea55b3          	sra	a1,s4,a4
    28f0:	fff5c593          	not	a1,a1
    28f4:	00f5f5b3          	and	a1,a1,a5
    28f8:	0147fa33          	and	s4,a5,s4
    28fc:	01400793          	li	a5,20
    2900:	00aa6a33          	or	s4,s4,a0
    2904:	40e78733          	sub	a4,a5,a4
    2908:	00000613          	li	a2,0
    290c:	00058693          	mv	a3,a1
    2910:	40ea5a33          	sra	s4,s4,a4
    2914:	000bd463          	bgez	s7,291c <__ieee754_pow+0x9d0>
    2918:	41400a33          	neg	s4,s4
    291c:	00040513          	mv	a0,s0
    2920:	00048593          	mv	a1,s1
    2924:	068040ef          	jal	ra,698c <__subdf3>
    2928:	00050613          	mv	a2,a0
    292c:	00058693          	mv	a3,a1
    2930:	00050413          	mv	s0,a0
    2934:	00058493          	mv	s1,a1
    2938:	00090513          	mv	a0,s2
    293c:	00098593          	mv	a1,s3
    2940:	001020ef          	jal	ra,5140 <__adddf3>
    2944:	00058b13          	mv	s6,a1
    2948:	014a1d93          	slli	s11,s4,0x14
    294c:	0000d737          	lui	a4,0xd
    2950:	e8872603          	lw	a2,-376(a4) # ce88 <__clz_tab+0x2d8>
    2954:	e8c72683          	lw	a3,-372(a4)
    2958:	00000c13          	li	s8,0
    295c:	000c0513          	mv	a0,s8
    2960:	000b0593          	mv	a1,s6
    2964:	1bd030ef          	jal	ra,6320 <__muldf3>
    2968:	000b0d13          	mv	s10,s6
    296c:	00058b93          	mv	s7,a1
    2970:	00050b13          	mv	s6,a0
    2974:	00040613          	mv	a2,s0
    2978:	00048693          	mv	a3,s1
    297c:	000c0513          	mv	a0,s8
    2980:	000d0593          	mv	a1,s10
    2984:	008040ef          	jal	ra,698c <__subdf3>
    2988:	00050613          	mv	a2,a0
    298c:	00058693          	mv	a3,a1
    2990:	00090513          	mv	a0,s2
    2994:	00098593          	mv	a1,s3
    2998:	7f5030ef          	jal	ra,698c <__subdf3>
    299c:	0000d737          	lui	a4,0xd
    29a0:	e9072603          	lw	a2,-368(a4) # ce90 <__clz_tab+0x2e0>
    29a4:	e9472683          	lw	a3,-364(a4)
    29a8:	179030ef          	jal	ra,6320 <__muldf3>
    29ac:	0000d737          	lui	a4,0xd
    29b0:	e9872603          	lw	a2,-360(a4) # ce98 <__clz_tab+0x2e8>
    29b4:	e9c72683          	lw	a3,-356(a4)
    29b8:	00050413          	mv	s0,a0
    29bc:	00058493          	mv	s1,a1
    29c0:	000c0513          	mv	a0,s8
    29c4:	000d0593          	mv	a1,s10
    29c8:	159030ef          	jal	ra,6320 <__muldf3>
    29cc:	00050613          	mv	a2,a0
    29d0:	00058693          	mv	a3,a1
    29d4:	00040513          	mv	a0,s0
    29d8:	00048593          	mv	a1,s1
    29dc:	764020ef          	jal	ra,5140 <__adddf3>
    29e0:	00050913          	mv	s2,a0
    29e4:	00058993          	mv	s3,a1
    29e8:	00050613          	mv	a2,a0
    29ec:	00058693          	mv	a3,a1
    29f0:	000b0513          	mv	a0,s6
    29f4:	000b8593          	mv	a1,s7
    29f8:	748020ef          	jal	ra,5140 <__adddf3>
    29fc:	000b0613          	mv	a2,s6
    2a00:	000b8693          	mv	a3,s7
    2a04:	00050413          	mv	s0,a0
    2a08:	00058493          	mv	s1,a1
    2a0c:	781030ef          	jal	ra,698c <__subdf3>
    2a10:	00050613          	mv	a2,a0
    2a14:	00058693          	mv	a3,a1
    2a18:	00090513          	mv	a0,s2
    2a1c:	00098593          	mv	a1,s3
    2a20:	76d030ef          	jal	ra,698c <__subdf3>
    2a24:	00050b13          	mv	s6,a0
    2a28:	00058b93          	mv	s7,a1
    2a2c:	00040613          	mv	a2,s0
    2a30:	00048693          	mv	a3,s1
    2a34:	00040513          	mv	a0,s0
    2a38:	00048593          	mv	a1,s1
    2a3c:	0e5030ef          	jal	ra,6320 <__muldf3>
    2a40:	0000d7b7          	lui	a5,0xd
    2a44:	ea07a603          	lw	a2,-352(a5) # cea0 <__clz_tab+0x2f0>
    2a48:	ea47a683          	lw	a3,-348(a5)
    2a4c:	00050913          	mv	s2,a0
    2a50:	00058993          	mv	s3,a1
    2a54:	0cd030ef          	jal	ra,6320 <__muldf3>
    2a58:	0000d7b7          	lui	a5,0xd
    2a5c:	ea87a603          	lw	a2,-344(a5) # cea8 <__clz_tab+0x2f8>
    2a60:	eac7a683          	lw	a3,-340(a5)
    2a64:	729030ef          	jal	ra,698c <__subdf3>
    2a68:	00090613          	mv	a2,s2
    2a6c:	00098693          	mv	a3,s3
    2a70:	0b1030ef          	jal	ra,6320 <__muldf3>
    2a74:	0000d7b7          	lui	a5,0xd
    2a78:	eb07a603          	lw	a2,-336(a5) # ceb0 <__clz_tab+0x300>
    2a7c:	eb47a683          	lw	a3,-332(a5)
    2a80:	6c0020ef          	jal	ra,5140 <__adddf3>
    2a84:	00090613          	mv	a2,s2
    2a88:	00098693          	mv	a3,s3
    2a8c:	095030ef          	jal	ra,6320 <__muldf3>
    2a90:	0000d7b7          	lui	a5,0xd
    2a94:	eb87a603          	lw	a2,-328(a5) # ceb8 <__clz_tab+0x308>
    2a98:	ebc7a683          	lw	a3,-324(a5)
    2a9c:	6f1030ef          	jal	ra,698c <__subdf3>
    2aa0:	00090613          	mv	a2,s2
    2aa4:	00098693          	mv	a3,s3
    2aa8:	079030ef          	jal	ra,6320 <__muldf3>
    2aac:	0000d7b7          	lui	a5,0xd
    2ab0:	ec07a603          	lw	a2,-320(a5) # cec0 <__clz_tab+0x310>
    2ab4:	ec47a683          	lw	a3,-316(a5)
    2ab8:	688020ef          	jal	ra,5140 <__adddf3>
    2abc:	00090613          	mv	a2,s2
    2ac0:	00098693          	mv	a3,s3
    2ac4:	05d030ef          	jal	ra,6320 <__muldf3>
    2ac8:	00050613          	mv	a2,a0
    2acc:	00058693          	mv	a3,a1
    2ad0:	00040513          	mv	a0,s0
    2ad4:	00048593          	mv	a1,s1
    2ad8:	6b5030ef          	jal	ra,698c <__subdf3>
    2adc:	00050613          	mv	a2,a0
    2ae0:	00058693          	mv	a3,a1
    2ae4:	00050c13          	mv	s8,a0
    2ae8:	00058c93          	mv	s9,a1
    2aec:	00040513          	mv	a0,s0
    2af0:	00048593          	mv	a1,s1
    2af4:	02d030ef          	jal	ra,6320 <__muldf3>
    2af8:	0000d6b7          	lui	a3,0xd
    2afc:	d506a603          	lw	a2,-688(a3) # cd50 <__clz_tab+0x1a0>
    2b00:	d546a683          	lw	a3,-684(a3)
    2b04:	00050913          	mv	s2,a0
    2b08:	00058993          	mv	s3,a1
    2b0c:	000c0513          	mv	a0,s8
    2b10:	000c8593          	mv	a1,s9
    2b14:	679030ef          	jal	ra,698c <__subdf3>
    2b18:	00050613          	mv	a2,a0
    2b1c:	00058693          	mv	a3,a1
    2b20:	00090513          	mv	a0,s2
    2b24:	00098593          	mv	a1,s3
    2b28:	5d9020ef          	jal	ra,5900 <__divdf3>
    2b2c:	00050913          	mv	s2,a0
    2b30:	00058993          	mv	s3,a1
    2b34:	000b0613          	mv	a2,s6
    2b38:	000b8693          	mv	a3,s7
    2b3c:	00040513          	mv	a0,s0
    2b40:	00048593          	mv	a1,s1
    2b44:	7dc030ef          	jal	ra,6320 <__muldf3>
    2b48:	000b0613          	mv	a2,s6
    2b4c:	000b8693          	mv	a3,s7
    2b50:	5f0020ef          	jal	ra,5140 <__adddf3>
    2b54:	00050613          	mv	a2,a0
    2b58:	00058693          	mv	a3,a1
    2b5c:	00090513          	mv	a0,s2
    2b60:	00098593          	mv	a1,s3
    2b64:	629030ef          	jal	ra,698c <__subdf3>
    2b68:	00040613          	mv	a2,s0
    2b6c:	00048693          	mv	a3,s1
    2b70:	61d030ef          	jal	ra,698c <__subdf3>
    2b74:	00058693          	mv	a3,a1
    2b78:	00050613          	mv	a2,a0
    2b7c:	cecaa583          	lw	a1,-788(s5)
    2b80:	ce8aa503          	lw	a0,-792(s5)
    2b84:	609030ef          	jal	ra,698c <__subdf3>
    2b88:	00bd87b3          	add	a5,s11,a1
    2b8c:	4147d693          	srai	a3,a5,0x14
    2b90:	30d05263          	blez	a3,2e94 <__ieee754_pow+0xf48>
    2b94:	00078593          	mv	a1,a5
    2b98:	00812603          	lw	a2,8(sp)
    2b9c:	00c12683          	lw	a3,12(sp)
    2ba0:	780030ef          	jal	ra,6320 <__muldf3>
    2ba4:	c20ff06f          	j	1fc4 <__ieee754_pow+0x78>
    2ba8:	00159793          	slli	a5,a1,0x1
    2bac:	4090d6b7          	lui	a3,0x4090d
    2bb0:	0017d793          	srli	a5,a5,0x1
    2bb4:	bff68693          	addi	a3,a3,-1025 # 4090cbff <_impure_ptr+0x408ff7b7>
    2bb8:	22f6de63          	bge	a3,a5,2df4 <__ieee754_pow+0xea8>
    2bbc:	3f6f37b7          	lui	a5,0x3f6f3
    2bc0:	40078793          	addi	a5,a5,1024 # 3f6f3400 <_impure_ptr+0x3f6e5fb8>
    2bc4:	00f587b3          	add	a5,a1,a5
    2bc8:	00a7e7b3          	or	a5,a5,a0
    2bcc:	02079063          	bnez	a5,2bec <__ieee754_pow+0xca0>
    2bd0:	00040613          	mv	a2,s0
    2bd4:	00048693          	mv	a3,s1
    2bd8:	5b5030ef          	jal	ra,698c <__subdf3>
    2bdc:	00090613          	mv	a2,s2
    2be0:	00098693          	mv	a3,s3
    2be4:	574030ef          	jal	ra,6158 <__gedf2>
    2be8:	cc054ee3          	bltz	a0,28c4 <__ieee754_pow+0x978>
    2bec:	0000d437          	lui	s0,0xd
    2bf0:	e8042603          	lw	a2,-384(s0) # ce80 <__clz_tab+0x2d0>
    2bf4:	e8442683          	lw	a3,-380(s0)
    2bf8:	00812503          	lw	a0,8(sp)
    2bfc:	00c12583          	lw	a1,12(sp)
    2c00:	720030ef          	jal	ra,6320 <__muldf3>
    2c04:	e8042603          	lw	a2,-384(s0)
    2c08:	e8442683          	lw	a3,-380(s0)
    2c0c:	714030ef          	jal	ra,6320 <__muldf3>
    2c10:	bb4ff06f          	j	1fc4 <__ieee754_pow+0x78>
    2c14:	ce8aa783          	lw	a5,-792(s5)
    2c18:	cecaa803          	lw	a6,-788(s5)
    2c1c:	00f12423          	sw	a5,8(sp)
    2c20:	01012623          	sw	a6,12(sp)
    2c24:	ba9ff06f          	j	27cc <__ieee754_pow+0x880>
    2c28:	dc0dda63          	bgez	s11,21fc <__ieee754_pow+0x2b0>
    2c2c:	800005b7          	lui	a1,0x80000
    2c30:	00000513          	li	a0,0
    2c34:	01b5c5b3          	xor	a1,a1,s11
    2c38:	b8cff06f          	j	1fc4 <__ieee754_pow+0x78>
    2c3c:	0000dab7          	lui	s5,0xd
    2c40:	ec4ff06f          	j	2304 <__ieee754_pow+0x3b8>
    2c44:	3ff006b7          	lui	a3,0x3ff00
    2c48:	ffe68613          	addi	a2,a3,-2 # 3feffffe <_impure_ptr+0x3fef2bb6>
    2c4c:	d0865e63          	bge	a2,s0,2168 <__ieee754_pow+0x21c>
    2c50:	de86c063          	blt	a3,s0,2230 <__ieee754_pow+0x2e4>
    2c54:	0000dab7          	lui	s5,0xd
    2c58:	ce8aa603          	lw	a2,-792(s5) # cce8 <__clz_tab+0x138>
    2c5c:	cecaa683          	lw	a3,-788(s5)
    2c60:	01c12823          	sw	t3,16(sp)
    2c64:	529030ef          	jal	ra,698c <__subdf3>
    2c68:	0000d6b7          	lui	a3,0xd
    2c6c:	e086a603          	lw	a2,-504(a3) # ce08 <__clz_tab+0x258>
    2c70:	e0c6a683          	lw	a3,-500(a3)
    2c74:	00050413          	mv	s0,a0
    2c78:	00058493          	mv	s1,a1
    2c7c:	6a4030ef          	jal	ra,6320 <__muldf3>
    2c80:	0000d6b7          	lui	a3,0xd
    2c84:	e106a603          	lw	a2,-496(a3) # ce10 <__clz_tab+0x260>
    2c88:	e146a683          	lw	a3,-492(a3)
    2c8c:	00050913          	mv	s2,a0
    2c90:	00058993          	mv	s3,a1
    2c94:	00040513          	mv	a0,s0
    2c98:	00048593          	mv	a1,s1
    2c9c:	684030ef          	jal	ra,6320 <__muldf3>
    2ca0:	0000d6b7          	lui	a3,0xd
    2ca4:	e186a603          	lw	a2,-488(a3) # ce18 <__clz_tab+0x268>
    2ca8:	e1c6a683          	lw	a3,-484(a3)
    2cac:	00a12423          	sw	a0,8(sp)
    2cb0:	00b12623          	sw	a1,12(sp)
    2cb4:	00040513          	mv	a0,s0
    2cb8:	00048593          	mv	a1,s1
    2cbc:	664030ef          	jal	ra,6320 <__muldf3>
    2cc0:	00058693          	mv	a3,a1
    2cc4:	0000d5b7          	lui	a1,0xd
    2cc8:	00050613          	mv	a2,a0
    2ccc:	cd05a503          	lw	a0,-816(a1) # ccd0 <__clz_tab+0x120>
    2cd0:	cd45a583          	lw	a1,-812(a1)
    2cd4:	4b9030ef          	jal	ra,698c <__subdf3>
    2cd8:	00040613          	mv	a2,s0
    2cdc:	00048693          	mv	a3,s1
    2ce0:	640030ef          	jal	ra,6320 <__muldf3>
    2ce4:	00058693          	mv	a3,a1
    2ce8:	0000d5b7          	lui	a1,0xd
    2cec:	00050613          	mv	a2,a0
    2cf0:	d485a503          	lw	a0,-696(a1) # cd48 <__clz_tab+0x198>
    2cf4:	d4c5a583          	lw	a1,-692(a1)
    2cf8:	495030ef          	jal	ra,698c <__subdf3>
    2cfc:	00050b13          	mv	s6,a0
    2d00:	00058b93          	mv	s7,a1
    2d04:	00040613          	mv	a2,s0
    2d08:	00048693          	mv	a3,s1
    2d0c:	00040513          	mv	a0,s0
    2d10:	00048593          	mv	a1,s1
    2d14:	60c030ef          	jal	ra,6320 <__muldf3>
    2d18:	00050613          	mv	a2,a0
    2d1c:	00058693          	mv	a3,a1
    2d20:	000b0513          	mv	a0,s6
    2d24:	000b8593          	mv	a1,s7
    2d28:	5f8030ef          	jal	ra,6320 <__muldf3>
    2d2c:	0000d6b7          	lui	a3,0xd
    2d30:	e206a603          	lw	a2,-480(a3) # ce20 <__clz_tab+0x270>
    2d34:	e246a683          	lw	a3,-476(a3)
    2d38:	5e8030ef          	jal	ra,6320 <__muldf3>
    2d3c:	00812703          	lw	a4,8(sp)
    2d40:	00c12783          	lw	a5,12(sp)
    2d44:	00050613          	mv	a2,a0
    2d48:	00058693          	mv	a3,a1
    2d4c:	00070513          	mv	a0,a4
    2d50:	00078593          	mv	a1,a5
    2d54:	439030ef          	jal	ra,698c <__subdf3>
    2d58:	00050613          	mv	a2,a0
    2d5c:	00058693          	mv	a3,a1
    2d60:	00050b13          	mv	s6,a0
    2d64:	00058b93          	mv	s7,a1
    2d68:	00090513          	mv	a0,s2
    2d6c:	00098593          	mv	a1,s3
    2d70:	3d0020ef          	jal	ra,5140 <__adddf3>
    2d74:	00000613          	li	a2,0
    2d78:	00098693          	mv	a3,s3
    2d7c:	00060513          	mv	a0,a2
    2d80:	00060413          	mv	s0,a2
    2d84:	00090613          	mv	a2,s2
    2d88:	00058493          	mv	s1,a1
    2d8c:	401030ef          	jal	ra,698c <__subdf3>
    2d90:	00050613          	mv	a2,a0
    2d94:	00058693          	mv	a3,a1
    2d98:	000b0513          	mv	a0,s6
    2d9c:	000b8593          	mv	a1,s7
    2da0:	3ed030ef          	jal	ra,698c <__subdf3>
    2da4:	00050913          	mv	s2,a0
    2da8:	00058993          	mv	s3,a1
    2dac:	01012e03          	lw	t3,16(sp)
    2db0:	9fdff06f          	j	27ac <__ieee754_pow+0x860>
    2db4:	00098613          	mv	a2,s3
    2db8:	00098513          	mv	a0,s3
    2dbc:	00048693          	mv	a3,s1
    2dc0:	00048593          	mv	a1,s1
    2dc4:	55c030ef          	jal	ra,6320 <__muldf3>
    2dc8:	9fcff06f          	j	1fc4 <__ieee754_pow+0x78>
    2dcc:	ba0c9e63          	bnez	s9,2188 <__ieee754_pow+0x23c>
    2dd0:	40d606b3          	sub	a3,a2,a3
    2dd4:	40d95633          	sra	a2,s2,a3
    2dd8:	00d616b3          	sll	a3,a2,a3
    2ddc:	000c8d13          	mv	s10,s9
    2de0:	a5269a63          	bne	a3,s2,2034 <__ieee754_pow+0xe8>
    2de4:	00167613          	andi	a2,a2,1
    2de8:	00200313          	li	t1,2
    2dec:	40c30d33          	sub	s10,t1,a2
    2df0:	a44ff06f          	j	2034 <__ieee754_pow+0xe8>
    2df4:	3fe00737          	lui	a4,0x3fe00
    2df8:	00000d93          	li	s11,0
    2dfc:	00000a13          	li	s4,0
    2e00:	b4f756e3          	bge	a4,a5,294c <__ieee754_pow+0xa00>
    2e04:	4147d793          	srai	a5,a5,0x14
    2e08:	ac5ff06f          	j	28cc <__ieee754_pow+0x980>
    2e0c:	0000d437          	lui	s0,0xd
    2e10:	e0042603          	lw	a2,-512(s0) # ce00 <__clz_tab+0x250>
    2e14:	e0442683          	lw	a3,-508(s0)
    2e18:	00812503          	lw	a0,8(sp)
    2e1c:	00c12583          	lw	a1,12(sp)
    2e20:	500030ef          	jal	ra,6320 <__muldf3>
    2e24:	e0042603          	lw	a2,-512(s0)
    2e28:	e0442683          	lw	a3,-508(s0)
    2e2c:	4f4030ef          	jal	ra,6320 <__muldf3>
    2e30:	994ff06f          	j	1fc4 <__ieee754_pow+0x78>
    2e34:	00100793          	li	a5,1
    2e38:	00fd0463          	beq	s10,a5,2e40 <__ieee754_pow+0xef4>
    2e3c:	988ff06f          	j	1fc4 <__ieee754_pow+0x78>
    2e40:	800007b7          	lui	a5,0x80000
    2e44:	00b7c5b3          	xor	a1,a5,a1
    2e48:	97cff06f          	j	1fc4 <__ieee754_pow+0x78>
    2e4c:	0000d6b7          	lui	a3,0xd
    2e50:	de86a783          	lw	a5,-536(a3) # cde8 <__clz_tab+0x238>
    2e54:	dec6a803          	lw	a6,-532(a3)
    2e58:	0000d6b7          	lui	a3,0xd
    2e5c:	00f12823          	sw	a5,16(sp)
    2e60:	01012a23          	sw	a6,20(sp)
    2e64:	df06a783          	lw	a5,-528(a3) # cdf0 <__clz_tab+0x240>
    2e68:	df46a803          	lw	a6,-524(a3)
    2e6c:	0000d6b7          	lui	a3,0xd
    2e70:	02f12c23          	sw	a5,56(sp)
    2e74:	03012e23          	sw	a6,60(sp)
    2e78:	df86a783          	lw	a5,-520(a3) # cdf8 <__clz_tab+0x248>
    2e7c:	dfc6a803          	lw	a6,-516(a3)
    2e80:	000409b7          	lui	s3,0x40
    2e84:	00f12423          	sw	a5,8(sp)
    2e88:	01012623          	sw	a6,12(sp)
    2e8c:	0000dab7          	lui	s5,0xd
    2e90:	c98ff06f          	j	2328 <__ieee754_pow+0x3dc>
    2e94:	000a0613          	mv	a2,s4
    2e98:	0e8020ef          	jal	ra,4f80 <scalbn>
    2e9c:	cfdff06f          	j	2b98 <__ieee754_pow+0xc4c>

00002ea0 <__ieee754_rem_pio2>:
    2ea0:	f9010113          	addi	sp,sp,-112
    2ea4:	06812423          	sw	s0,104(sp)
    2ea8:	3fe92737          	lui	a4,0x3fe92
    2eac:	00159413          	slli	s0,a1,0x1
    2eb0:	06112623          	sw	ra,108(sp)
    2eb4:	06912223          	sw	s1,100(sp)
    2eb8:	07212023          	sw	s2,96(sp)
    2ebc:	05312e23          	sw	s3,92(sp)
    2ec0:	05412c23          	sw	s4,88(sp)
    2ec4:	05512a23          	sw	s5,84(sp)
    2ec8:	05612823          	sw	s6,80(sp)
    2ecc:	05712623          	sw	s7,76(sp)
    2ed0:	05812423          	sw	s8,72(sp)
    2ed4:	05912223          	sw	s9,68(sp)
    2ed8:	05a12023          	sw	s10,64(sp)
    2edc:	03b12e23          	sw	s11,60(sp)
    2ee0:	00145413          	srli	s0,s0,0x1
    2ee4:	1fb70713          	addi	a4,a4,507 # 3fe921fb <_impure_ptr+0x3fe84db3>
    2ee8:	1c875c63          	bge	a4,s0,30c0 <__ieee754_rem_pio2+0x220>
    2eec:	4002e737          	lui	a4,0x4002e
    2ef0:	97b70713          	addi	a4,a4,-1669 # 4002d97b <_impure_ptr+0x40020533>
    2ef4:	00060993          	mv	s3,a2
    2ef8:	0a874863          	blt	a4,s0,2fa8 <__ieee754_rem_pio2+0x108>
    2efc:	0000d7b7          	lui	a5,0xd
    2f00:	ec87a603          	lw	a2,-312(a5) # cec8 <__clz_tab+0x318>
    2f04:	ecc7a683          	lw	a3,-308(a5)
    2f08:	54b05663          	blez	a1,3454 <__ieee754_rem_pio2+0x5b4>
    2f0c:	281030ef          	jal	ra,698c <__subdf3>
    2f10:	3ff927b7          	lui	a5,0x3ff92
    2f14:	1fb78793          	addi	a5,a5,507 # 3ff921fb <_impure_ptr+0x3ff84db3>
    2f18:	00050a13          	mv	s4,a0
    2f1c:	00058a93          	mv	s5,a1
    2f20:	1cf40e63          	beq	s0,a5,30fc <__ieee754_rem_pio2+0x25c>
    2f24:	0000d437          	lui	s0,0xd
    2f28:	ed042603          	lw	a2,-304(s0) # ced0 <__clz_tab+0x320>
    2f2c:	ed442683          	lw	a3,-300(s0)
    2f30:	00100493          	li	s1,1
    2f34:	259030ef          	jal	ra,698c <__subdf3>
    2f38:	00050613          	mv	a2,a0
    2f3c:	00058693          	mv	a3,a1
    2f40:	00a9a023          	sw	a0,0(s3) # 40000 <_impure_ptr+0x32bb8>
    2f44:	00b9a223          	sw	a1,4(s3)
    2f48:	000a0513          	mv	a0,s4
    2f4c:	000a8593          	mv	a1,s5
    2f50:	23d030ef          	jal	ra,698c <__subdf3>
    2f54:	ed042603          	lw	a2,-304(s0)
    2f58:	ed442683          	lw	a3,-300(s0)
    2f5c:	231030ef          	jal	ra,698c <__subdf3>
    2f60:	00a9a423          	sw	a0,8(s3)
    2f64:	00b9a623          	sw	a1,12(s3)
    2f68:	06c12083          	lw	ra,108(sp)
    2f6c:	06812403          	lw	s0,104(sp)
    2f70:	00048513          	mv	a0,s1
    2f74:	06012903          	lw	s2,96(sp)
    2f78:	06412483          	lw	s1,100(sp)
    2f7c:	05c12983          	lw	s3,92(sp)
    2f80:	05812a03          	lw	s4,88(sp)
    2f84:	05412a83          	lw	s5,84(sp)
    2f88:	05012b03          	lw	s6,80(sp)
    2f8c:	04c12b83          	lw	s7,76(sp)
    2f90:	04812c03          	lw	s8,72(sp)
    2f94:	04412c83          	lw	s9,68(sp)
    2f98:	04012d03          	lw	s10,64(sp)
    2f9c:	03c12d83          	lw	s11,60(sp)
    2fa0:	07010113          	addi	sp,sp,112
    2fa4:	00008067          	ret
    2fa8:	41392737          	lui	a4,0x41392
    2fac:	1fb70713          	addi	a4,a4,507 # 413921fb <_impure_ptr+0x41384db3>
    2fb0:	00058913          	mv	s2,a1
    2fb4:	1a875463          	bge	a4,s0,315c <__ieee754_rem_pio2+0x2bc>
    2fb8:	7ff00737          	lui	a4,0x7ff00
    2fbc:	10e45e63          	bge	s0,a4,30d8 <__ieee754_rem_pio2+0x238>
    2fc0:	41445a13          	srai	s4,s0,0x14
    2fc4:	beaa0a13          	addi	s4,s4,-1046
    2fc8:	014a1793          	slli	a5,s4,0x14
    2fcc:	40f40433          	sub	s0,s0,a5
    2fd0:	00040593          	mv	a1,s0
    2fd4:	00050493          	mv	s1,a0
    2fd8:	1c4040ef          	jal	ra,719c <__fixdfsi>
    2fdc:	240040ef          	jal	ra,721c <__floatsidf>
    2fe0:	00050713          	mv	a4,a0
    2fe4:	00058793          	mv	a5,a1
    2fe8:	00070613          	mv	a2,a4
    2fec:	00078693          	mv	a3,a5
    2ff0:	00048513          	mv	a0,s1
    2ff4:	00040593          	mv	a1,s0
    2ff8:	00e12c23          	sw	a4,24(sp)
    2ffc:	00f12e23          	sw	a5,28(sp)
    3000:	0000d4b7          	lui	s1,0xd
    3004:	189030ef          	jal	ra,698c <__subdf3>
    3008:	f004a603          	lw	a2,-256(s1) # cf00 <__clz_tab+0x350>
    300c:	f044a683          	lw	a3,-252(s1)
    3010:	310030ef          	jal	ra,6320 <__muldf3>
    3014:	00058b93          	mv	s7,a1
    3018:	00050b13          	mv	s6,a0
    301c:	180040ef          	jal	ra,719c <__fixdfsi>
    3020:	00050413          	mv	s0,a0
    3024:	1f8040ef          	jal	ra,721c <__floatsidf>
    3028:	00050713          	mv	a4,a0
    302c:	00058793          	mv	a5,a1
    3030:	00050613          	mv	a2,a0
    3034:	00058693          	mv	a3,a1
    3038:	000b0513          	mv	a0,s6
    303c:	000b8593          	mv	a1,s7
    3040:	02e12023          	sw	a4,32(sp)
    3044:	02f12223          	sw	a5,36(sp)
    3048:	145030ef          	jal	ra,698c <__subdf3>
    304c:	f004a603          	lw	a2,-256(s1)
    3050:	f044a683          	lw	a3,-252(s1)
    3054:	2cc030ef          	jal	ra,6320 <__muldf3>
    3058:	00000693          	li	a3,0
    305c:	00000613          	li	a2,0
    3060:	02a12423          	sw	a0,40(sp)
    3064:	02b12623          	sw	a1,44(sp)
    3068:	064030ef          	jal	ra,60cc <__eqdf2>
    306c:	008036b3          	snez	a3,s0
    3070:	00168693          	addi	a3,a3,1
    3074:	30051e63          	bnez	a0,3390 <__ieee754_rem_pio2+0x4f0>
    3078:	0000d7b7          	lui	a5,0xd
    307c:	95878793          	addi	a5,a5,-1704 # c958 <two_over_pi>
    3080:	00200713          	li	a4,2
    3084:	000a0613          	mv	a2,s4
    3088:	00098593          	mv	a1,s3
    308c:	01810513          	addi	a0,sp,24
    3090:	2ed000ef          	jal	ra,3b7c <__kernel_rem_pio2>
    3094:	00050493          	mv	s1,a0
    3098:	ec0958e3          	bgez	s2,2f68 <__ieee754_rem_pio2+0xc8>
    309c:	0049a703          	lw	a4,4(s3)
    30a0:	00c9a783          	lw	a5,12(s3)
    30a4:	800006b7          	lui	a3,0x80000
    30a8:	00d74733          	xor	a4,a4,a3
    30ac:	00d7c7b3          	xor	a5,a5,a3
    30b0:	00e9a223          	sw	a4,4(s3)
    30b4:	00f9a623          	sw	a5,12(s3)
    30b8:	40a004b3          	neg	s1,a0
    30bc:	eadff06f          	j	2f68 <__ieee754_rem_pio2+0xc8>
    30c0:	00a62023          	sw	a0,0(a2) # 3ff00000 <_impure_ptr+0x3fef2bb8>
    30c4:	00b62223          	sw	a1,4(a2)
    30c8:	00062423          	sw	zero,8(a2)
    30cc:	00062623          	sw	zero,12(a2)
    30d0:	00000493          	li	s1,0
    30d4:	e95ff06f          	j	2f68 <__ieee754_rem_pio2+0xc8>
    30d8:	00050613          	mv	a2,a0
    30dc:	00058693          	mv	a3,a1
    30e0:	0ad030ef          	jal	ra,698c <__subdf3>
    30e4:	00a9a423          	sw	a0,8(s3)
    30e8:	00b9a623          	sw	a1,12(s3)
    30ec:	00a9a023          	sw	a0,0(s3)
    30f0:	00b9a223          	sw	a1,4(s3)
    30f4:	00000493          	li	s1,0
    30f8:	e71ff06f          	j	2f68 <__ieee754_rem_pio2+0xc8>
    30fc:	0000d7b7          	lui	a5,0xd
    3100:	ed87a603          	lw	a2,-296(a5) # ced8 <__clz_tab+0x328>
    3104:	edc7a683          	lw	a3,-292(a5)
    3108:	0000d437          	lui	s0,0xd
    310c:	00100493          	li	s1,1
    3110:	07d030ef          	jal	ra,698c <__subdf3>
    3114:	ee042603          	lw	a2,-288(s0) # cee0 <__clz_tab+0x330>
    3118:	ee442683          	lw	a3,-284(s0)
    311c:	00050a13          	mv	s4,a0
    3120:	00058a93          	mv	s5,a1
    3124:	069030ef          	jal	ra,698c <__subdf3>
    3128:	00050613          	mv	a2,a0
    312c:	00058693          	mv	a3,a1
    3130:	00a9a023          	sw	a0,0(s3)
    3134:	00b9a223          	sw	a1,4(s3)
    3138:	000a0513          	mv	a0,s4
    313c:	000a8593          	mv	a1,s5
    3140:	04d030ef          	jal	ra,698c <__subdf3>
    3144:	ee042603          	lw	a2,-288(s0)
    3148:	ee442683          	lw	a3,-284(s0)
    314c:	041030ef          	jal	ra,698c <__subdf3>
    3150:	00a9a423          	sw	a0,8(s3)
    3154:	00b9a623          	sw	a1,12(s3)
    3158:	e11ff06f          	j	2f68 <__ieee754_rem_pio2+0xc8>
    315c:	1ed010ef          	jal	ra,4b48 <fabs>
    3160:	0000d7b7          	lui	a5,0xd
    3164:	ee87a603          	lw	a2,-280(a5) # cee8 <__clz_tab+0x338>
    3168:	eec7a683          	lw	a3,-276(a5)
    316c:	00050a13          	mv	s4,a0
    3170:	00058a93          	mv	s5,a1
    3174:	1ac030ef          	jal	ra,6320 <__muldf3>
    3178:	0000d7b7          	lui	a5,0xd
    317c:	d487a603          	lw	a2,-696(a5) # cd48 <__clz_tab+0x198>
    3180:	d4c7a683          	lw	a3,-692(a5)
    3184:	7bd010ef          	jal	ra,5140 <__adddf3>
    3188:	014040ef          	jal	ra,719c <__fixdfsi>
    318c:	00050493          	mv	s1,a0
    3190:	08c040ef          	jal	ra,721c <__floatsidf>
    3194:	0000d7b7          	lui	a5,0xd
    3198:	ec87a603          	lw	a2,-312(a5) # cec8 <__clz_tab+0x318>
    319c:	ecc7a683          	lw	a3,-308(a5)
    31a0:	00050b13          	mv	s6,a0
    31a4:	00058b93          	mv	s7,a1
    31a8:	178030ef          	jal	ra,6320 <__muldf3>
    31ac:	00050613          	mv	a2,a0
    31b0:	00058693          	mv	a3,a1
    31b4:	000a0513          	mv	a0,s4
    31b8:	000a8593          	mv	a1,s5
    31bc:	7d0030ef          	jal	ra,698c <__subdf3>
    31c0:	0000d7b7          	lui	a5,0xd
    31c4:	ed07a603          	lw	a2,-304(a5) # ced0 <__clz_tab+0x320>
    31c8:	ed47a683          	lw	a3,-300(a5)
    31cc:	00050d13          	mv	s10,a0
    31d0:	00058c93          	mv	s9,a1
    31d4:	000b0513          	mv	a0,s6
    31d8:	000b8593          	mv	a1,s7
    31dc:	144030ef          	jal	ra,6320 <__muldf3>
    31e0:	00050a13          	mv	s4,a0
    31e4:	00058a93          	mv	s5,a1
    31e8:	01f00793          	li	a5,31
    31ec:	000d0513          	mv	a0,s10
    31f0:	000c8593          	mv	a1,s9
    31f4:	000a0613          	mv	a2,s4
    31f8:	000a8693          	mv	a3,s5
    31fc:	0297cc63          	blt	a5,s1,3234 <__ieee754_rem_pio2+0x394>
    3200:	78c030ef          	jal	ra,698c <__subdf3>
    3204:	fff48793          	addi	a5,s1,-1
    3208:	00279713          	slli	a4,a5,0x2
    320c:	0000d7b7          	lui	a5,0xd
    3210:	8d878793          	addi	a5,a5,-1832 # c8d8 <npio2_hw>
    3214:	00e787b3          	add	a5,a5,a4
    3218:	0007a783          	lw	a5,0(a5)
    321c:	00050d93          	mv	s11,a0
    3220:	00058c13          	mv	s8,a1
    3224:	00878e63          	beq	a5,s0,3240 <__ieee754_rem_pio2+0x3a0>
    3228:	00a9a023          	sw	a0,0(s3)
    322c:	00b9a223          	sw	a1,4(s3)
    3230:	0300006f          	j	3260 <__ieee754_rem_pio2+0x3c0>
    3234:	758030ef          	jal	ra,698c <__subdf3>
    3238:	00050d93          	mv	s11,a0
    323c:	00058c13          	mv	s8,a1
    3240:	014c5793          	srli	a5,s8,0x14
    3244:	41445813          	srai	a6,s0,0x14
    3248:	7ff7f793          	andi	a5,a5,2047
    324c:	40f807b3          	sub	a5,a6,a5
    3250:	01000693          	li	a3,16
    3254:	04f6ce63          	blt	a3,a5,32b0 <__ieee754_rem_pio2+0x410>
    3258:	01b9a023          	sw	s11,0(s3)
    325c:	0189a223          	sw	s8,4(s3)
    3260:	000d8613          	mv	a2,s11
    3264:	000c0693          	mv	a3,s8
    3268:	000d0513          	mv	a0,s10
    326c:	000c8593          	mv	a1,s9
    3270:	71c030ef          	jal	ra,698c <__subdf3>
    3274:	000a0613          	mv	a2,s4
    3278:	000a8693          	mv	a3,s5
    327c:	710030ef          	jal	ra,698c <__subdf3>
    3280:	00a9a423          	sw	a0,8(s3)
    3284:	00b9a623          	sw	a1,12(s3)
    3288:	ce0950e3          	bgez	s2,2f68 <__ieee754_rem_pio2+0xc8>
    328c:	800007b7          	lui	a5,0x80000
    3290:	0187cc33          	xor	s8,a5,s8
    3294:	00b7c5b3          	xor	a1,a5,a1
    3298:	01b9a023          	sw	s11,0(s3)
    329c:	0189a223          	sw	s8,4(s3)
    32a0:	00a9a423          	sw	a0,8(s3)
    32a4:	00b9a623          	sw	a1,12(s3)
    32a8:	409004b3          	neg	s1,s1
    32ac:	cbdff06f          	j	2f68 <__ieee754_rem_pio2+0xc8>
    32b0:	0000d7b7          	lui	a5,0xd
    32b4:	ed87a603          	lw	a2,-296(a5) # ced8 <__clz_tab+0x328>
    32b8:	edc7a683          	lw	a3,-292(a5)
    32bc:	000b0513          	mv	a0,s6
    32c0:	000b8593          	mv	a1,s7
    32c4:	01012423          	sw	a6,8(sp)
    32c8:	058030ef          	jal	ra,6320 <__muldf3>
    32cc:	00050a13          	mv	s4,a0
    32d0:	00058a93          	mv	s5,a1
    32d4:	00050613          	mv	a2,a0
    32d8:	00058693          	mv	a3,a1
    32dc:	000d0513          	mv	a0,s10
    32e0:	000c8593          	mv	a1,s9
    32e4:	6a8030ef          	jal	ra,698c <__subdf3>
    32e8:	00058c13          	mv	s8,a1
    32ec:	00050613          	mv	a2,a0
    32f0:	00058693          	mv	a3,a1
    32f4:	00050413          	mv	s0,a0
    32f8:	00b12623          	sw	a1,12(sp)
    32fc:	000d0513          	mv	a0,s10
    3300:	000c8593          	mv	a1,s9
    3304:	688030ef          	jal	ra,698c <__subdf3>
    3308:	000a0613          	mv	a2,s4
    330c:	000a8693          	mv	a3,s5
    3310:	67c030ef          	jal	ra,698c <__subdf3>
    3314:	0000d7b7          	lui	a5,0xd
    3318:	ee07a603          	lw	a2,-288(a5) # cee0 <__clz_tab+0x330>
    331c:	ee47a683          	lw	a3,-284(a5)
    3320:	00050a13          	mv	s4,a0
    3324:	00058a93          	mv	s5,a1
    3328:	000b0513          	mv	a0,s6
    332c:	000b8593          	mv	a1,s7
    3330:	7f1020ef          	jal	ra,6320 <__muldf3>
    3334:	000a0613          	mv	a2,s4
    3338:	000a8693          	mv	a3,s5
    333c:	650030ef          	jal	ra,698c <__subdf3>
    3340:	00050613          	mv	a2,a0
    3344:	00058693          	mv	a3,a1
    3348:	00050a13          	mv	s4,a0
    334c:	00058a93          	mv	s5,a1
    3350:	00040513          	mv	a0,s0
    3354:	000c0593          	mv	a1,s8
    3358:	634030ef          	jal	ra,698c <__subdf3>
    335c:	00812803          	lw	a6,8(sp)
    3360:	0145d793          	srli	a5,a1,0x14
    3364:	7ff7f793          	andi	a5,a5,2047
    3368:	40f80833          	sub	a6,a6,a5
    336c:	03100793          	li	a5,49
    3370:	000c0c93          	mv	s9,s8
    3374:	00050d93          	mv	s11,a0
    3378:	00058c13          	mv	s8,a1
    337c:	0107ce63          	blt	a5,a6,3398 <__ieee754_rem_pio2+0x4f8>
    3380:	00a9a023          	sw	a0,0(s3)
    3384:	00b9a223          	sw	a1,4(s3)
    3388:	00040d13          	mv	s10,s0
    338c:	ed5ff06f          	j	3260 <__ieee754_rem_pio2+0x3c0>
    3390:	00300693          	li	a3,3
    3394:	ce5ff06f          	j	3078 <__ieee754_rem_pio2+0x1d8>
    3398:	0000d7b7          	lui	a5,0xd
    339c:	ef07a603          	lw	a2,-272(a5) # cef0 <__clz_tab+0x340>
    33a0:	ef47a683          	lw	a3,-268(a5)
    33a4:	000b0513          	mv	a0,s6
    33a8:	000b8593          	mv	a1,s7
    33ac:	775020ef          	jal	ra,6320 <__muldf3>
    33b0:	00c12c03          	lw	s8,12(sp)
    33b4:	00050a13          	mv	s4,a0
    33b8:	00058a93          	mv	s5,a1
    33bc:	00050613          	mv	a2,a0
    33c0:	00058693          	mv	a3,a1
    33c4:	00040513          	mv	a0,s0
    33c8:	000c0593          	mv	a1,s8
    33cc:	5c0030ef          	jal	ra,698c <__subdf3>
    33d0:	00050613          	mv	a2,a0
    33d4:	00058693          	mv	a3,a1
    33d8:	00050d13          	mv	s10,a0
    33dc:	00058c93          	mv	s9,a1
    33e0:	00040513          	mv	a0,s0
    33e4:	000c0593          	mv	a1,s8
    33e8:	5a4030ef          	jal	ra,698c <__subdf3>
    33ec:	000a0613          	mv	a2,s4
    33f0:	000a8693          	mv	a3,s5
    33f4:	598030ef          	jal	ra,698c <__subdf3>
    33f8:	0000d7b7          	lui	a5,0xd
    33fc:	ef87a603          	lw	a2,-264(a5) # cef8 <__clz_tab+0x348>
    3400:	efc7a683          	lw	a3,-260(a5)
    3404:	00050a13          	mv	s4,a0
    3408:	00058a93          	mv	s5,a1
    340c:	000b0513          	mv	a0,s6
    3410:	000b8593          	mv	a1,s7
    3414:	70d020ef          	jal	ra,6320 <__muldf3>
    3418:	000a0613          	mv	a2,s4
    341c:	000a8693          	mv	a3,s5
    3420:	56c030ef          	jal	ra,698c <__subdf3>
    3424:	00050613          	mv	a2,a0
    3428:	00058693          	mv	a3,a1
    342c:	00050a13          	mv	s4,a0
    3430:	00058a93          	mv	s5,a1
    3434:	000d0513          	mv	a0,s10
    3438:	000c8593          	mv	a1,s9
    343c:	550030ef          	jal	ra,698c <__subdf3>
    3440:	00050d93          	mv	s11,a0
    3444:	00058c13          	mv	s8,a1
    3448:	00a9a023          	sw	a0,0(s3)
    344c:	00b9a223          	sw	a1,4(s3)
    3450:	e11ff06f          	j	3260 <__ieee754_rem_pio2+0x3c0>
    3454:	4ed010ef          	jal	ra,5140 <__adddf3>
    3458:	3ff927b7          	lui	a5,0x3ff92
    345c:	1fb78793          	addi	a5,a5,507 # 3ff921fb <_impure_ptr+0x3ff84db3>
    3460:	00050a13          	mv	s4,a0
    3464:	00058a93          	mv	s5,a1
    3468:	04f40663          	beq	s0,a5,34b4 <__ieee754_rem_pio2+0x614>
    346c:	0000d437          	lui	s0,0xd
    3470:	ed042603          	lw	a2,-304(s0) # ced0 <__clz_tab+0x320>
    3474:	ed442683          	lw	a3,-300(s0)
    3478:	fff00493          	li	s1,-1
    347c:	4c5010ef          	jal	ra,5140 <__adddf3>
    3480:	00050613          	mv	a2,a0
    3484:	00058693          	mv	a3,a1
    3488:	00a9a023          	sw	a0,0(s3)
    348c:	00b9a223          	sw	a1,4(s3)
    3490:	000a0513          	mv	a0,s4
    3494:	000a8593          	mv	a1,s5
    3498:	4f4030ef          	jal	ra,698c <__subdf3>
    349c:	ed042603          	lw	a2,-304(s0)
    34a0:	ed442683          	lw	a3,-300(s0)
    34a4:	49d010ef          	jal	ra,5140 <__adddf3>
    34a8:	00a9a423          	sw	a0,8(s3)
    34ac:	00b9a623          	sw	a1,12(s3)
    34b0:	ab9ff06f          	j	2f68 <__ieee754_rem_pio2+0xc8>
    34b4:	0000d7b7          	lui	a5,0xd
    34b8:	ed87a603          	lw	a2,-296(a5) # ced8 <__clz_tab+0x328>
    34bc:	edc7a683          	lw	a3,-292(a5)
    34c0:	0000d437          	lui	s0,0xd
    34c4:	fff00493          	li	s1,-1
    34c8:	479010ef          	jal	ra,5140 <__adddf3>
    34cc:	ee042603          	lw	a2,-288(s0) # cee0 <__clz_tab+0x330>
    34d0:	ee442683          	lw	a3,-284(s0)
    34d4:	00050a13          	mv	s4,a0
    34d8:	00058a93          	mv	s5,a1
    34dc:	465010ef          	jal	ra,5140 <__adddf3>
    34e0:	00050613          	mv	a2,a0
    34e4:	00058693          	mv	a3,a1
    34e8:	00a9a023          	sw	a0,0(s3)
    34ec:	00b9a223          	sw	a1,4(s3)
    34f0:	000a0513          	mv	a0,s4
    34f4:	000a8593          	mv	a1,s5
    34f8:	494030ef          	jal	ra,698c <__subdf3>
    34fc:	ee042603          	lw	a2,-288(s0)
    3500:	ee442683          	lw	a3,-284(s0)
    3504:	43d010ef          	jal	ra,5140 <__adddf3>
    3508:	00a9a423          	sw	a0,8(s3)
    350c:	00b9a623          	sw	a1,12(s3)
    3510:	a59ff06f          	j	2f68 <__ieee754_rem_pio2+0xc8>

00003514 <__ieee754_sqrt>:
    3514:	ff010113          	addi	sp,sp,-16
    3518:	7ff00737          	lui	a4,0x7ff00
    351c:	00812423          	sw	s0,8(sp)
    3520:	00912223          	sw	s1,4(sp)
    3524:	00112623          	sw	ra,12(sp)
    3528:	00b77833          	and	a6,a4,a1
    352c:	00058493          	mv	s1,a1
    3530:	00050413          	mv	s0,a0
    3534:	20e80863          	beq	a6,a4,3744 <__ieee754_sqrt+0x230>
    3538:	00058793          	mv	a5,a1
    353c:	00050693          	mv	a3,a0
    3540:	14b05a63          	blez	a1,3694 <__ieee754_sqrt+0x180>
    3544:	4145de13          	srai	t3,a1,0x14
    3548:	240e0e63          	beqz	t3,37a4 <__ieee754_sqrt+0x290>
    354c:	00100737          	lui	a4,0x100
    3550:	fff70613          	addi	a2,a4,-1 # fffff <_impure_ptr+0xf2bb7>
    3554:	00c7f7b3          	and	a5,a5,a2
    3558:	00e7e7b3          	or	a5,a5,a4
    355c:	c01e0e13          	addi	t3,t3,-1023
    3560:	00179713          	slli	a4,a5,0x1
    3564:	001e7613          	andi	a2,t3,1
    3568:	01f6d793          	srli	a5,a3,0x1f
    356c:	00f707b3          	add	a5,a4,a5
    3570:	00169713          	slli	a4,a3,0x1
    3574:	00060a63          	beqz	a2,3588 <__ieee754_sqrt+0x74>
    3578:	01f75713          	srli	a4,a4,0x1f
    357c:	00179793          	slli	a5,a5,0x1
    3580:	00e787b3          	add	a5,a5,a4
    3584:	00269713          	slli	a4,a3,0x2
    3588:	401e5e13          	srai	t3,t3,0x1
    358c:	01600593          	li	a1,22
    3590:	00000e93          	li	t4,0
    3594:	00000693          	li	a3,0
    3598:	00200637          	lui	a2,0x200
    359c:	00c68533          	add	a0,a3,a2
    35a0:	01f75813          	srli	a6,a4,0x1f
    35a4:	fff58593          	addi	a1,a1,-1
    35a8:	00a7c863          	blt	a5,a0,35b8 <__ieee754_sqrt+0xa4>
    35ac:	40a787b3          	sub	a5,a5,a0
    35b0:	00c506b3          	add	a3,a0,a2
    35b4:	00ce8eb3          	add	t4,t4,a2
    35b8:	00179793          	slli	a5,a5,0x1
    35bc:	00f807b3          	add	a5,a6,a5
    35c0:	00171713          	slli	a4,a4,0x1
    35c4:	00165613          	srli	a2,a2,0x1
    35c8:	fc059ae3          	bnez	a1,359c <__ieee754_sqrt+0x88>
    35cc:	00000313          	li	t1,0
    35d0:	02000813          	li	a6,32
    35d4:	80000637          	lui	a2,0x80000
    35d8:	0240006f          	j	35fc <__ieee754_sqrt+0xe8>
    35dc:	12d78e63          	beq	a5,a3,3718 <__ieee754_sqrt+0x204>
    35e0:	01f75513          	srli	a0,a4,0x1f
    35e4:	00179793          	slli	a5,a5,0x1
    35e8:	fff80813          	addi	a6,a6,-1 # c00fffff <_impure_ptr+0xc00f2bb7>
    35ec:	00a787b3          	add	a5,a5,a0
    35f0:	00171713          	slli	a4,a4,0x1
    35f4:	00165613          	srli	a2,a2,0x1
    35f8:	04080663          	beqz	a6,3644 <__ieee754_sqrt+0x130>
    35fc:	00b60533          	add	a0,a2,a1
    3600:	fcf6dee3          	bge	a3,a5,35dc <__ieee754_sqrt+0xc8>
    3604:	00c505b3          	add	a1,a0,a2
    3608:	00068893          	mv	a7,a3
    360c:	0e054e63          	bltz	a0,3708 <__ieee754_sqrt+0x1f4>
    3610:	40d787b3          	sub	a5,a5,a3
    3614:	00a736b3          	sltu	a3,a4,a0
    3618:	40d787b3          	sub	a5,a5,a3
    361c:	40a70733          	sub	a4,a4,a0
    3620:	01f75513          	srli	a0,a4,0x1f
    3624:	00179793          	slli	a5,a5,0x1
    3628:	fff80813          	addi	a6,a6,-1
    362c:	00c30333          	add	t1,t1,a2
    3630:	00088693          	mv	a3,a7
    3634:	00a787b3          	add	a5,a5,a0
    3638:	00171713          	slli	a4,a4,0x1
    363c:	00165613          	srli	a2,a2,0x1
    3640:	fa081ee3          	bnez	a6,35fc <__ieee754_sqrt+0xe8>
    3644:	00e7e7b3          	or	a5,a5,a4
    3648:	0e079463          	bnez	a5,3730 <__ieee754_sqrt+0x21c>
    364c:	00135813          	srli	a6,t1,0x1
    3650:	401ed713          	srai	a4,t4,0x1
    3654:	3fe004b7          	lui	s1,0x3fe00
    3658:	001efe93          	andi	t4,t4,1
    365c:	009704b3          	add	s1,a4,s1
    3660:	000e8663          	beqz	t4,366c <__ieee754_sqrt+0x158>
    3664:	800007b7          	lui	a5,0x80000
    3668:	00f86833          	or	a6,a6,a5
    366c:	014e1713          	slli	a4,t3,0x14
    3670:	00080413          	mv	s0,a6
    3674:	00970733          	add	a4,a4,s1
    3678:	00040513          	mv	a0,s0
    367c:	00c12083          	lw	ra,12(sp)
    3680:	00812403          	lw	s0,8(sp)
    3684:	00412483          	lw	s1,4(sp)
    3688:	00070593          	mv	a1,a4
    368c:	01010113          	addi	sp,sp,16
    3690:	00008067          	ret
    3694:	00159713          	slli	a4,a1,0x1
    3698:	00175713          	srli	a4,a4,0x1
    369c:	00a76833          	or	a6,a4,a0
    36a0:	00058713          	mv	a4,a1
    36a4:	fc080ae3          	beqz	a6,3678 <__ieee754_sqrt+0x164>
    36a8:	0c059c63          	bnez	a1,3780 <__ieee754_sqrt+0x26c>
    36ac:	00b6d593          	srli	a1,a3,0xb
    36b0:	feb78793          	addi	a5,a5,-21 # 7fffffeb <_impure_ptr+0x7fff2ba3>
    36b4:	00058713          	mv	a4,a1
    36b8:	01569693          	slli	a3,a3,0x15
    36bc:	fe0588e3          	beqz	a1,36ac <__ieee754_sqrt+0x198>
    36c0:	0145d613          	srli	a2,a1,0x14
    36c4:	0e061a63          	bnez	a2,37b8 <__ieee754_sqrt+0x2a4>
    36c8:	00000613          	li	a2,0
    36cc:	0080006f          	j	36d4 <__ieee754_sqrt+0x1c0>
    36d0:	00050613          	mv	a2,a0
    36d4:	00171713          	slli	a4,a4,0x1
    36d8:	00b71593          	slli	a1,a4,0xb
    36dc:	00160513          	addi	a0,a2,1 # 80000001 <_impure_ptr+0x7fff2bb9>
    36e0:	fe05d8e3          	bgez	a1,36d0 <__ieee754_sqrt+0x1bc>
    36e4:	02000893          	li	a7,32
    36e8:	00068813          	mv	a6,a3
    36ec:	40a888b3          	sub	a7,a7,a0
    36f0:	00070593          	mv	a1,a4
    36f4:	00a696b3          	sll	a3,a3,a0
    36f8:	01185733          	srl	a4,a6,a7
    36fc:	40c78e33          	sub	t3,a5,a2
    3700:	00b767b3          	or	a5,a4,a1
    3704:	e49ff06f          	j	354c <__ieee754_sqrt+0x38>
    3708:	fff5c893          	not	a7,a1
    370c:	01f8d893          	srli	a7,a7,0x1f
    3710:	011688b3          	add	a7,a3,a7
    3714:	efdff06f          	j	3610 <__ieee754_sqrt+0xfc>
    3718:	eca764e3          	bltu	a4,a0,35e0 <__ieee754_sqrt+0xcc>
    371c:	00c505b3          	add	a1,a0,a2
    3720:	fe0544e3          	bltz	a0,3708 <__ieee754_sqrt+0x1f4>
    3724:	00078893          	mv	a7,a5
    3728:	00000793          	li	a5,0
    372c:	ef1ff06f          	j	361c <__ieee754_sqrt+0x108>
    3730:	fff00793          	li	a5,-1
    3734:	06f30e63          	beq	t1,a5,37b0 <__ieee754_sqrt+0x29c>
    3738:	00130813          	addi	a6,t1,1
    373c:	00185813          	srli	a6,a6,0x1
    3740:	f11ff06f          	j	3650 <__ieee754_sqrt+0x13c>
    3744:	00050613          	mv	a2,a0
    3748:	00058693          	mv	a3,a1
    374c:	3d5020ef          	jal	ra,6320 <__muldf3>
    3750:	00040613          	mv	a2,s0
    3754:	00048693          	mv	a3,s1
    3758:	1e9010ef          	jal	ra,5140 <__adddf3>
    375c:	00050413          	mv	s0,a0
    3760:	00040513          	mv	a0,s0
    3764:	00c12083          	lw	ra,12(sp)
    3768:	00812403          	lw	s0,8(sp)
    376c:	00058713          	mv	a4,a1
    3770:	00412483          	lw	s1,4(sp)
    3774:	00070593          	mv	a1,a4
    3778:	01010113          	addi	sp,sp,16
    377c:	00008067          	ret
    3780:	00050613          	mv	a2,a0
    3784:	00058693          	mv	a3,a1
    3788:	204030ef          	jal	ra,698c <__subdf3>
    378c:	00050613          	mv	a2,a0
    3790:	00058693          	mv	a3,a1
    3794:	16c020ef          	jal	ra,5900 <__divdf3>
    3798:	00050413          	mv	s0,a0
    379c:	00058713          	mv	a4,a1
    37a0:	ed9ff06f          	j	3678 <__ieee754_sqrt+0x164>
    37a4:	00058713          	mv	a4,a1
    37a8:	00000793          	li	a5,0
    37ac:	f1dff06f          	j	36c8 <__ieee754_sqrt+0x1b4>
    37b0:	001e8e93          	addi	t4,t4,1
    37b4:	e9dff06f          	j	3650 <__ieee754_sqrt+0x13c>
    37b8:	00068813          	mv	a6,a3
    37bc:	02000893          	li	a7,32
    37c0:	fff00613          	li	a2,-1
    37c4:	f35ff06f          	j	36f8 <__ieee754_sqrt+0x1e4>

000037c8 <__kernel_cos>:
    37c8:	fc010113          	addi	sp,sp,-64
    37cc:	03612023          	sw	s6,32(sp)
    37d0:	00159b13          	slli	s6,a1,0x1
    37d4:	03212823          	sw	s2,48(sp)
    37d8:	03312623          	sw	s3,44(sp)
    37dc:	01812c23          	sw	s8,24(sp)
    37e0:	01912a23          	sw	s9,20(sp)
    37e4:	02112e23          	sw	ra,60(sp)
    37e8:	02812c23          	sw	s0,56(sp)
    37ec:	02912a23          	sw	s1,52(sp)
    37f0:	03412423          	sw	s4,40(sp)
    37f4:	03512223          	sw	s5,36(sp)
    37f8:	01712e23          	sw	s7,28(sp)
    37fc:	01a12823          	sw	s10,16(sp)
    3800:	01b12623          	sw	s11,12(sp)
    3804:	001b5b13          	srli	s6,s6,0x1
    3808:	3e4007b7          	lui	a5,0x3e400
    380c:	00058c13          	mv	s8,a1
    3810:	00050c93          	mv	s9,a0
    3814:	00060913          	mv	s2,a2
    3818:	00068993          	mv	s3,a3
    381c:	16fb5063          	bge	s6,a5,397c <__kernel_cos+0x1b4>
    3820:	17d030ef          	jal	ra,719c <__fixdfsi>
    3824:	34050463          	beqz	a0,3b6c <__kernel_cos+0x3a4>
    3828:	000c8613          	mv	a2,s9
    382c:	000c0693          	mv	a3,s8
    3830:	000c8513          	mv	a0,s9
    3834:	000c0593          	mv	a1,s8
    3838:	2e9020ef          	jal	ra,6320 <__muldf3>
    383c:	0000d7b7          	lui	a5,0xd
    3840:	f187a603          	lw	a2,-232(a5) # cf18 <__clz_tab+0x368>
    3844:	f1c7a683          	lw	a3,-228(a5)
    3848:	00050413          	mv	s0,a0
    384c:	00058493          	mv	s1,a1
    3850:	2d1020ef          	jal	ra,6320 <__muldf3>
    3854:	0000d7b7          	lui	a5,0xd
    3858:	f207a603          	lw	a2,-224(a5) # cf20 <__clz_tab+0x370>
    385c:	f247a683          	lw	a3,-220(a5)
    3860:	0e1010ef          	jal	ra,5140 <__adddf3>
    3864:	00040613          	mv	a2,s0
    3868:	00048693          	mv	a3,s1
    386c:	2b5020ef          	jal	ra,6320 <__muldf3>
    3870:	0000d7b7          	lui	a5,0xd
    3874:	f287a603          	lw	a2,-216(a5) # cf28 <__clz_tab+0x378>
    3878:	f2c7a683          	lw	a3,-212(a5)
    387c:	110030ef          	jal	ra,698c <__subdf3>
    3880:	00040613          	mv	a2,s0
    3884:	00048693          	mv	a3,s1
    3888:	299020ef          	jal	ra,6320 <__muldf3>
    388c:	0000d7b7          	lui	a5,0xd
    3890:	f307a603          	lw	a2,-208(a5) # cf30 <__clz_tab+0x380>
    3894:	f347a683          	lw	a3,-204(a5)
    3898:	0a9010ef          	jal	ra,5140 <__adddf3>
    389c:	00040613          	mv	a2,s0
    38a0:	00048693          	mv	a3,s1
    38a4:	27d020ef          	jal	ra,6320 <__muldf3>
    38a8:	0000d7b7          	lui	a5,0xd
    38ac:	f387a603          	lw	a2,-200(a5) # cf38 <__clz_tab+0x388>
    38b0:	f3c7a683          	lw	a3,-196(a5)
    38b4:	0d8030ef          	jal	ra,698c <__subdf3>
    38b8:	00040613          	mv	a2,s0
    38bc:	00048693          	mv	a3,s1
    38c0:	261020ef          	jal	ra,6320 <__muldf3>
    38c4:	0000d7b7          	lui	a5,0xd
    38c8:	f407a603          	lw	a2,-192(a5) # cf40 <__clz_tab+0x390>
    38cc:	f447a683          	lw	a3,-188(a5)
    38d0:	071010ef          	jal	ra,5140 <__adddf3>
    38d4:	00040613          	mv	a2,s0
    38d8:	00048693          	mv	a3,s1
    38dc:	245020ef          	jal	ra,6320 <__muldf3>
    38e0:	00050a13          	mv	s4,a0
    38e4:	00058a93          	mv	s5,a1
    38e8:	0000d7b7          	lui	a5,0xd
    38ec:	d487a603          	lw	a2,-696(a5) # cd48 <__clz_tab+0x198>
    38f0:	d4c7a683          	lw	a3,-692(a5)
    38f4:	00040513          	mv	a0,s0
    38f8:	00048593          	mv	a1,s1
    38fc:	225020ef          	jal	ra,6320 <__muldf3>
    3900:	00050b13          	mv	s6,a0
    3904:	00058b93          	mv	s7,a1
    3908:	000a0613          	mv	a2,s4
    390c:	000a8693          	mv	a3,s5
    3910:	00040513          	mv	a0,s0
    3914:	00048593          	mv	a1,s1
    3918:	209020ef          	jal	ra,6320 <__muldf3>
    391c:	00050413          	mv	s0,a0
    3920:	00058493          	mv	s1,a1
    3924:	00090613          	mv	a2,s2
    3928:	00098693          	mv	a3,s3
    392c:	000c8513          	mv	a0,s9
    3930:	000c0593          	mv	a1,s8
    3934:	1ed020ef          	jal	ra,6320 <__muldf3>
    3938:	00050613          	mv	a2,a0
    393c:	00058693          	mv	a3,a1
    3940:	00040513          	mv	a0,s0
    3944:	00048593          	mv	a1,s1
    3948:	044030ef          	jal	ra,698c <__subdf3>
    394c:	00050613          	mv	a2,a0
    3950:	00058693          	mv	a3,a1
    3954:	000b0513          	mv	a0,s6
    3958:	000b8593          	mv	a1,s7
    395c:	030030ef          	jal	ra,698c <__subdf3>
    3960:	0000d7b7          	lui	a5,0xd
    3964:	00050613          	mv	a2,a0
    3968:	00058693          	mv	a3,a1
    396c:	ce87a503          	lw	a0,-792(a5) # cce8 <__clz_tab+0x138>
    3970:	cec7a583          	lw	a1,-788(a5)
    3974:	018030ef          	jal	ra,698c <__subdf3>
    3978:	19c0006f          	j	3b14 <__kernel_cos+0x34c>
    397c:	00050613          	mv	a2,a0
    3980:	00058693          	mv	a3,a1
    3984:	19d020ef          	jal	ra,6320 <__muldf3>
    3988:	0000d7b7          	lui	a5,0xd
    398c:	f187a603          	lw	a2,-232(a5) # cf18 <__clz_tab+0x368>
    3990:	f1c7a683          	lw	a3,-228(a5)
    3994:	00050413          	mv	s0,a0
    3998:	00058493          	mv	s1,a1
    399c:	185020ef          	jal	ra,6320 <__muldf3>
    39a0:	0000d7b7          	lui	a5,0xd
    39a4:	f207a603          	lw	a2,-224(a5) # cf20 <__clz_tab+0x370>
    39a8:	f247a683          	lw	a3,-220(a5)
    39ac:	794010ef          	jal	ra,5140 <__adddf3>
    39b0:	00040613          	mv	a2,s0
    39b4:	00048693          	mv	a3,s1
    39b8:	169020ef          	jal	ra,6320 <__muldf3>
    39bc:	0000d7b7          	lui	a5,0xd
    39c0:	f287a603          	lw	a2,-216(a5) # cf28 <__clz_tab+0x378>
    39c4:	f2c7a683          	lw	a3,-212(a5)
    39c8:	7c5020ef          	jal	ra,698c <__subdf3>
    39cc:	00040613          	mv	a2,s0
    39d0:	00048693          	mv	a3,s1
    39d4:	14d020ef          	jal	ra,6320 <__muldf3>
    39d8:	0000d7b7          	lui	a5,0xd
    39dc:	f307a603          	lw	a2,-208(a5) # cf30 <__clz_tab+0x380>
    39e0:	f347a683          	lw	a3,-204(a5)
    39e4:	75c010ef          	jal	ra,5140 <__adddf3>
    39e8:	00040613          	mv	a2,s0
    39ec:	00048693          	mv	a3,s1
    39f0:	131020ef          	jal	ra,6320 <__muldf3>
    39f4:	0000d7b7          	lui	a5,0xd
    39f8:	f387a603          	lw	a2,-200(a5) # cf38 <__clz_tab+0x388>
    39fc:	f3c7a683          	lw	a3,-196(a5)
    3a00:	78d020ef          	jal	ra,698c <__subdf3>
    3a04:	00040613          	mv	a2,s0
    3a08:	00048693          	mv	a3,s1
    3a0c:	115020ef          	jal	ra,6320 <__muldf3>
    3a10:	0000d7b7          	lui	a5,0xd
    3a14:	f407a603          	lw	a2,-192(a5) # cf40 <__clz_tab+0x390>
    3a18:	f447a683          	lw	a3,-188(a5)
    3a1c:	724010ef          	jal	ra,5140 <__adddf3>
    3a20:	00040613          	mv	a2,s0
    3a24:	00048693          	mv	a3,s1
    3a28:	0f9020ef          	jal	ra,6320 <__muldf3>
    3a2c:	3fd337b7          	lui	a5,0x3fd33
    3a30:	33278793          	addi	a5,a5,818 # 3fd33332 <_impure_ptr+0x3fd25eea>
    3a34:	00050a13          	mv	s4,a0
    3a38:	00058a93          	mv	s5,a1
    3a3c:	eb67d6e3          	bge	a5,s6,38e8 <__kernel_cos+0x120>
    3a40:	3fe907b7          	lui	a5,0x3fe90
    3a44:	1167c663          	blt	a5,s6,3b50 <__kernel_cos+0x388>
    3a48:	0000d737          	lui	a4,0xd
    3a4c:	ffe007b7          	lui	a5,0xffe00
    3a50:	ce872503          	lw	a0,-792(a4) # cce8 <__clz_tab+0x138>
    3a54:	cec72583          	lw	a1,-788(a4)
    3a58:	00fb0b33          	add	s6,s6,a5
    3a5c:	00000793          	li	a5,0
    3a60:	000b0693          	mv	a3,s6
    3a64:	00078613          	mv	a2,a5
    3a68:	00078d13          	mv	s10,a5
    3a6c:	721020ef          	jal	ra,698c <__subdf3>
    3a70:	000b0d93          	mv	s11,s6
    3a74:	00058b93          	mv	s7,a1
    3a78:	00050b13          	mv	s6,a0
    3a7c:	0000d7b7          	lui	a5,0xd
    3a80:	d487a603          	lw	a2,-696(a5) # cd48 <__clz_tab+0x198>
    3a84:	d4c7a683          	lw	a3,-692(a5)
    3a88:	00040513          	mv	a0,s0
    3a8c:	00048593          	mv	a1,s1
    3a90:	091020ef          	jal	ra,6320 <__muldf3>
    3a94:	000d0613          	mv	a2,s10
    3a98:	000d8693          	mv	a3,s11
    3a9c:	6f1020ef          	jal	ra,698c <__subdf3>
    3aa0:	00050d13          	mv	s10,a0
    3aa4:	00058d93          	mv	s11,a1
    3aa8:	000a0613          	mv	a2,s4
    3aac:	000a8693          	mv	a3,s5
    3ab0:	00040513          	mv	a0,s0
    3ab4:	00048593          	mv	a1,s1
    3ab8:	069020ef          	jal	ra,6320 <__muldf3>
    3abc:	00050413          	mv	s0,a0
    3ac0:	00058493          	mv	s1,a1
    3ac4:	00090613          	mv	a2,s2
    3ac8:	00098693          	mv	a3,s3
    3acc:	000c8513          	mv	a0,s9
    3ad0:	000c0593          	mv	a1,s8
    3ad4:	04d020ef          	jal	ra,6320 <__muldf3>
    3ad8:	00050613          	mv	a2,a0
    3adc:	00058693          	mv	a3,a1
    3ae0:	00040513          	mv	a0,s0
    3ae4:	00048593          	mv	a1,s1
    3ae8:	6a5020ef          	jal	ra,698c <__subdf3>
    3aec:	00050613          	mv	a2,a0
    3af0:	00058693          	mv	a3,a1
    3af4:	000d0513          	mv	a0,s10
    3af8:	000d8593          	mv	a1,s11
    3afc:	691020ef          	jal	ra,698c <__subdf3>
    3b00:	00050613          	mv	a2,a0
    3b04:	00058693          	mv	a3,a1
    3b08:	000b0513          	mv	a0,s6
    3b0c:	000b8593          	mv	a1,s7
    3b10:	67d020ef          	jal	ra,698c <__subdf3>
    3b14:	03c12083          	lw	ra,60(sp)
    3b18:	03812403          	lw	s0,56(sp)
    3b1c:	03412483          	lw	s1,52(sp)
    3b20:	03012903          	lw	s2,48(sp)
    3b24:	02c12983          	lw	s3,44(sp)
    3b28:	02812a03          	lw	s4,40(sp)
    3b2c:	02412a83          	lw	s5,36(sp)
    3b30:	02012b03          	lw	s6,32(sp)
    3b34:	01c12b83          	lw	s7,28(sp)
    3b38:	01812c03          	lw	s8,24(sp)
    3b3c:	01412c83          	lw	s9,20(sp)
    3b40:	01012d03          	lw	s10,16(sp)
    3b44:	00c12d83          	lw	s11,12(sp)
    3b48:	04010113          	addi	sp,sp,64
    3b4c:	00008067          	ret
    3b50:	0000d7b7          	lui	a5,0xd
    3b54:	f087ab03          	lw	s6,-248(a5) # cf08 <__clz_tab+0x358>
    3b58:	f0c7ab83          	lw	s7,-244(a5)
    3b5c:	0000d7b7          	lui	a5,0xd
    3b60:	f107ad03          	lw	s10,-240(a5) # cf10 <__clz_tab+0x360>
    3b64:	f147ad83          	lw	s11,-236(a5)
    3b68:	f15ff06f          	j	3a7c <__kernel_cos+0x2b4>
    3b6c:	0000d7b7          	lui	a5,0xd
    3b70:	ce87a503          	lw	a0,-792(a5) # cce8 <__clz_tab+0x138>
    3b74:	cec7a583          	lw	a1,-788(a5)
    3b78:	f9dff06f          	j	3b14 <__kernel_cos+0x34c>

00003b7c <__kernel_rem_pio2>:
    3b7c:	d2010113          	addi	sp,sp,-736
    3b80:	00070893          	mv	a7,a4
    3b84:	04e12823          	sw	a4,80(sp)
    3b88:	0000d737          	lui	a4,0xd
    3b8c:	a6070813          	addi	a6,a4,-1440 # ca60 <init_jk>
    3b90:	00289713          	slli	a4,a7,0x2
    3b94:	2c812c23          	sw	s0,728(sp)
    3b98:	2d212823          	sw	s2,720(sp)
    3b9c:	00068413          	mv	s0,a3
    3ba0:	2b812c23          	sw	s8,696(sp)
    3ba4:	2b912a23          	sw	s9,692(sp)
    3ba8:	00e80733          	add	a4,a6,a4
    3bac:	2c112e23          	sw	ra,732(sp)
    3bb0:	2c912a23          	sw	s1,724(sp)
    3bb4:	2d312623          	sw	s3,716(sp)
    3bb8:	2d412423          	sw	s4,712(sp)
    3bbc:	2d512223          	sw	s5,708(sp)
    3bc0:	2d612023          	sw	s6,704(sp)
    3bc4:	2b712e23          	sw	s7,700(sp)
    3bc8:	2ba12823          	sw	s10,688(sp)
    3bcc:	2bb12623          	sw	s11,684(sp)
    3bd0:	05012023          	sw	a6,64(sp)
    3bd4:	fec00693          	li	a3,-20
    3bd8:	00a12c23          	sw	a0,24(sp)
    3bdc:	04b12223          	sw	a1,68(sp)
    3be0:	02f12c23          	sw	a5,56(sp)
    3be4:	00060913          	mv	s2,a2
    3be8:	00072c03          	lw	s8,0(a4)
    3bec:	fff40c93          	addi	s9,s0,-1
    3bf0:	36d64ee3          	blt	a2,a3,476c <__kernel_rem_pio2+0xbf0>
    3bf4:	01800593          	li	a1,24
    3bf8:	ffd60513          	addi	a0,a2,-3
    3bfc:	281080ef          	jal	ra,c67c <__divsi3>
    3c00:	00150793          	addi	a5,a0,1
    3c04:	00279713          	slli	a4,a5,0x2
    3c08:	40e787b3          	sub	a5,a5,a4
    3c0c:	02a12a23          	sw	a0,52(sp)
    3c10:	00379793          	slli	a5,a5,0x3
    3c14:	03412683          	lw	a3,52(sp)
    3c18:	00f907b3          	add	a5,s2,a5
    3c1c:	019c0733          	add	a4,s8,s9
    3c20:	419684b3          	sub	s1,a3,s9
    3c24:	00170993          	addi	s3,a4,1
    3c28:	00f12e23          	sw	a5,28(sp)
    3c2c:	0c010913          	addi	s2,sp,192
    3c30:	009989b3          	add	s3,s3,s1
    3c34:	02074c63          	bltz	a4,3c6c <__kernel_rem_pio2+0xf0>
    3c38:	03812a03          	lw	s4,56(sp)
    3c3c:	00249793          	slli	a5,s1,0x2
    3c40:	00fa07b3          	add	a5,s4,a5
    3c44:	00000513          	li	a0,0
    3c48:	00000593          	li	a1,0
    3c4c:	0004c663          	bltz	s1,3c58 <__kernel_rem_pio2+0xdc>
    3c50:	0007a503          	lw	a0,0(a5)
    3c54:	5c8030ef          	jal	ra,721c <__floatsidf>
    3c58:	00a92023          	sw	a0,0(s2)
    3c5c:	00b92223          	sw	a1,4(s2)
    3c60:	00148493          	addi	s1,s1,1 # 3fe00001 <_impure_ptr+0x3fdf2bb9>
    3c64:	00890913          	addi	s2,s2,8
    3c68:	fd349ae3          	bne	s1,s3,3c3c <__kernel_rem_pio2+0xc0>
    3c6c:	080c4a63          	bltz	s8,3d00 <__kernel_rem_pio2+0x184>
    3c70:	01812d83          	lw	s11,24(sp)
    3c74:	003c9993          	slli	s3,s9,0x3
    3c78:	0c010793          	addi	a5,sp,192
    3c7c:	01378bb3          	add	s7,a5,s3
    3c80:	003c1a13          	slli	s4,s8,0x3
    3c84:	00898493          	addi	s1,s3,8
    3c88:	20810793          	addi	a5,sp,520
    3c8c:	20010d13          	addi	s10,sp,512
    3c90:	01478a33          	add	s4,a5,s4
    3c94:	01b484b3          	add	s1,s1,s11
    3c98:	000b8a93          	mv	s5,s7
    3c9c:	000a8993          	mv	s3,s5
    3ca0:	000d8913          	mv	s2,s11
    3ca4:	00000b13          	li	s6,0
    3ca8:	00000b93          	li	s7,0
    3cac:	040cc063          	bltz	s9,3cec <__kernel_rem_pio2+0x170>
    3cb0:	0009a603          	lw	a2,0(s3)
    3cb4:	0049a683          	lw	a3,4(s3)
    3cb8:	00092503          	lw	a0,0(s2)
    3cbc:	00492583          	lw	a1,4(s2)
    3cc0:	00890913          	addi	s2,s2,8
    3cc4:	ff898993          	addi	s3,s3,-8
    3cc8:	658020ef          	jal	ra,6320 <__muldf3>
    3ccc:	00050613          	mv	a2,a0
    3cd0:	00058693          	mv	a3,a1
    3cd4:	000b0513          	mv	a0,s6
    3cd8:	000b8593          	mv	a1,s7
    3cdc:	464010ef          	jal	ra,5140 <__adddf3>
    3ce0:	00050b13          	mv	s6,a0
    3ce4:	00058b93          	mv	s7,a1
    3ce8:	fc9914e3          	bne	s2,s1,3cb0 <__kernel_rem_pio2+0x134>
    3cec:	016d2023          	sw	s6,0(s10)
    3cf0:	017d2223          	sw	s7,4(s10)
    3cf4:	008d0d13          	addi	s10,s10,8
    3cf8:	008a8a93          	addi	s5,s5,8 # d008 <heap_requested>
    3cfc:	fb4d10e3          	bne	s10,s4,3c9c <__kernel_rem_pio2+0x120>
    3d00:	0000d7b7          	lui	a5,0xd
    3d04:	ce87a703          	lw	a4,-792(a5) # cce8 <__clz_tab+0x138>
    3d08:	cec7a683          	lw	a3,-788(a5)
    3d0c:	0000d7b7          	lui	a5,0xd
    3d10:	f547a803          	lw	a6,-172(a5) # cf54 <__clz_tab+0x3a4>
    3d14:	f507a783          	lw	a5,-176(a5)
    3d18:	002c1d13          	slli	s10,s8,0x2
    3d1c:	01012623          	sw	a6,12(sp)
    3d20:	00f12423          	sw	a5,8(sp)
    3d24:	0000d7b7          	lui	a5,0xd
    3d28:	f047a803          	lw	a6,-252(a5) # cf04 <__clz_tab+0x354>
    3d2c:	f007a783          	lw	a5,-256(a5)
    3d30:	06c10613          	addi	a2,sp,108
    3d34:	01012a23          	sw	a6,20(sp)
    3d38:	00f12823          	sw	a5,16(sp)
    3d3c:	0000d7b7          	lui	a5,0xd
    3d40:	f5c7a803          	lw	a6,-164(a5) # cf5c <__clz_tab+0x3ac>
    3d44:	f587a783          	lw	a5,-168(a5)
    3d48:	01a60ab3          	add	s5,a2,s10
    3d4c:	03012223          	sw	a6,36(sp)
    3d50:	02f12023          	sw	a5,32(sp)
    3d54:	0000d7b7          	lui	a5,0xd
    3d58:	f647a803          	lw	a6,-156(a5) # cf64 <__clz_tab+0x3b4>
    3d5c:	f607a783          	lw	a5,-160(a5)
    3d60:	07010613          	addi	a2,sp,112
    3d64:	03012623          	sw	a6,44(sp)
    3d68:	02f12423          	sw	a5,40(sp)
    3d6c:	0000d7b7          	lui	a5,0xd
    3d70:	d4c7a803          	lw	a6,-692(a5) # cd4c <__clz_tab+0x19c>
    3d74:	d487a783          	lw	a5,-696(a5)
    3d78:	00341413          	slli	s0,s0,0x3
    3d7c:	04e12a23          	sw	a4,84(sp)
    3d80:	04f12423          	sw	a5,72(sp)
    3d84:	ff8d0793          	addi	a5,s10,-8
    3d88:	00f607b3          	add	a5,a2,a5
    3d8c:	02f12e23          	sw	a5,60(sp)
    3d90:	01812783          	lw	a5,24(sp)
    3d94:	04d12c23          	sw	a3,88(sp)
    3d98:	05012623          	sw	a6,76(sp)
    3d9c:	00878433          	add	s0,a5,s0
    3da0:	04e12e23          	sw	a4,92(sp)
    3da4:	06d12023          	sw	a3,96(sp)
    3da8:	06e12223          	sw	a4,100(sp)
    3dac:	06d12423          	sw	a3,104(sp)
    3db0:	000c0b13          	mv	s6,s8
    3db4:	03812823          	sw	s8,48(sp)
    3db8:	003b1793          	slli	a5,s6,0x3
    3dbc:	2a010713          	addi	a4,sp,672
    3dc0:	00f707b3          	add	a5,a4,a5
    3dc4:	f607ad03          	lw	s10,-160(a5)
    3dc8:	f647ad83          	lw	s11,-156(a5)
    3dcc:	09605e63          	blez	s6,3e68 <__kernel_rem_pio2+0x2ec>
    3dd0:	003b1913          	slli	s2,s6,0x3
    3dd4:	20010993          	addi	s3,sp,512
    3dd8:	ff890913          	addi	s2,s2,-8
    3ddc:	01298933          	add	s2,s3,s2
    3de0:	07010493          	addi	s1,sp,112
    3de4:	000a8b93          	mv	s7,s5
    3de8:	0080006f          	j	3df0 <__kernel_rem_pio2+0x274>
    3dec:	00078913          	mv	s2,a5
    3df0:	00812603          	lw	a2,8(sp)
    3df4:	00c12683          	lw	a3,12(sp)
    3df8:	000d0513          	mv	a0,s10
    3dfc:	000d8593          	mv	a1,s11
    3e00:	520020ef          	jal	ra,6320 <__muldf3>
    3e04:	398030ef          	jal	ra,719c <__fixdfsi>
    3e08:	414030ef          	jal	ra,721c <__floatsidf>
    3e0c:	01012603          	lw	a2,16(sp)
    3e10:	01412683          	lw	a3,20(sp)
    3e14:	00050a13          	mv	s4,a0
    3e18:	00058a93          	mv	s5,a1
    3e1c:	504020ef          	jal	ra,6320 <__muldf3>
    3e20:	00050613          	mv	a2,a0
    3e24:	00058693          	mv	a3,a1
    3e28:	000d0513          	mv	a0,s10
    3e2c:	000d8593          	mv	a1,s11
    3e30:	35d020ef          	jal	ra,698c <__subdf3>
    3e34:	368030ef          	jal	ra,719c <__fixdfsi>
    3e38:	00092603          	lw	a2,0(s2)
    3e3c:	00492683          	lw	a3,4(s2)
    3e40:	00a4a023          	sw	a0,0(s1)
    3e44:	000a8593          	mv	a1,s5
    3e48:	000a0513          	mv	a0,s4
    3e4c:	2f4010ef          	jal	ra,5140 <__adddf3>
    3e50:	00050d13          	mv	s10,a0
    3e54:	00058d93          	mv	s11,a1
    3e58:	ff890793          	addi	a5,s2,-8
    3e5c:	00448493          	addi	s1,s1,4
    3e60:	f92996e3          	bne	s3,s2,3dec <__kernel_rem_pio2+0x270>
    3e64:	000b8a93          	mv	s5,s7
    3e68:	01c12483          	lw	s1,28(sp)
    3e6c:	000d0513          	mv	a0,s10
    3e70:	000d8593          	mv	a1,s11
    3e74:	00048613          	mv	a2,s1
    3e78:	108010ef          	jal	ra,4f80 <scalbn>
    3e7c:	02012603          	lw	a2,32(sp)
    3e80:	02412683          	lw	a3,36(sp)
    3e84:	00050913          	mv	s2,a0
    3e88:	00058993          	mv	s3,a1
    3e8c:	494020ef          	jal	ra,6320 <__muldf3>
    3e90:	4dd000ef          	jal	ra,4b6c <floor>
    3e94:	02812603          	lw	a2,40(sp)
    3e98:	02c12683          	lw	a3,44(sp)
    3e9c:	484020ef          	jal	ra,6320 <__muldf3>
    3ea0:	00050613          	mv	a2,a0
    3ea4:	00058693          	mv	a3,a1
    3ea8:	00090513          	mv	a0,s2
    3eac:	00098593          	mv	a1,s3
    3eb0:	2dd020ef          	jal	ra,698c <__subdf3>
    3eb4:	00058993          	mv	s3,a1
    3eb8:	00050913          	mv	s2,a0
    3ebc:	2e0030ef          	jal	ra,719c <__fixdfsi>
    3ec0:	00050a13          	mv	s4,a0
    3ec4:	358030ef          	jal	ra,721c <__floatsidf>
    3ec8:	00050613          	mv	a2,a0
    3ecc:	00058693          	mv	a3,a1
    3ed0:	00090513          	mv	a0,s2
    3ed4:	00098593          	mv	a1,s3
    3ed8:	2b5020ef          	jal	ra,698c <__subdf3>
    3edc:	00050913          	mv	s2,a0
    3ee0:	00058993          	mv	s3,a1
    3ee4:	00048613          	mv	a2,s1
    3ee8:	1c905063          	blez	s1,40a8 <__kernel_rem_pio2+0x52c>
    3eec:	fffb0793          	addi	a5,s6,-1
    3ef0:	2a010713          	addi	a4,sp,672
    3ef4:	00279793          	slli	a5,a5,0x2
    3ef8:	00f707b3          	add	a5,a4,a5
    3efc:	dd07a483          	lw	s1,-560(a5)
    3f00:	01800713          	li	a4,24
    3f04:	40c70733          	sub	a4,a4,a2
    3f08:	40e4d6b3          	sra	a3,s1,a4
    3f0c:	00e69733          	sll	a4,a3,a4
    3f10:	40e48733          	sub	a4,s1,a4
    3f14:	01700493          	li	s1,23
    3f18:	40c484b3          	sub	s1,s1,a2
    3f1c:	dce7a823          	sw	a4,-560(a5)
    3f20:	409754b3          	sra	s1,a4,s1
    3f24:	00da0a33          	add	s4,s4,a3
    3f28:	1a904263          	bgtz	s1,40cc <__kernel_rem_pio2+0x550>
    3f2c:	00000613          	li	a2,0
    3f30:	00000693          	li	a3,0
    3f34:	00090513          	mv	a0,s2
    3f38:	00098593          	mv	a1,s3
    3f3c:	190020ef          	jal	ra,60cc <__eqdf2>
    3f40:	26051863          	bnez	a0,41b0 <__kernel_rem_pio2+0x634>
    3f44:	03012783          	lw	a5,48(sp)
    3f48:	fffb0913          	addi	s2,s6,-1
    3f4c:	02f94663          	blt	s2,a5,3f78 <__kernel_rem_pio2+0x3fc>
    3f50:	002b1793          	slli	a5,s6,0x2
    3f54:	07010713          	addi	a4,sp,112
    3f58:	ffc78793          	addi	a5,a5,-4
    3f5c:	00f707b3          	add	a5,a4,a5
    3f60:	00000713          	li	a4,0
    3f64:	0007a683          	lw	a3,0(a5)
    3f68:	ffc78793          	addi	a5,a5,-4
    3f6c:	00d76733          	or	a4,a4,a3
    3f70:	ff579ae3          	bne	a5,s5,3f64 <__kernel_rem_pio2+0x3e8>
    3f74:	3a071663          	bnez	a4,4320 <__kernel_rem_pio2+0x7a4>
    3f78:	03012783          	lw	a5,48(sp)
    3f7c:	2a010713          	addi	a4,sp,672
    3f80:	fff78793          	addi	a5,a5,-1
    3f84:	00279793          	slli	a5,a5,0x2
    3f88:	00f707b3          	add	a5,a4,a5
    3f8c:	dd07a783          	lw	a5,-560(a5)
    3f90:	38079063          	bnez	a5,4310 <__kernel_rem_pio2+0x794>
    3f94:	03c12783          	lw	a5,60(sp)
    3f98:	00100713          	li	a4,1
    3f9c:	ffc78793          	addi	a5,a5,-4
    3fa0:	0047a683          	lw	a3,4(a5)
    3fa4:	00170713          	addi	a4,a4,1
    3fa8:	fe068ae3          	beqz	a3,3f9c <__kernel_rem_pio2+0x420>
    3fac:	001b0793          	addi	a5,s6,1
    3fb0:	00078a13          	mv	s4,a5
    3fb4:	00eb0b33          	add	s6,s6,a4
    3fb8:	03412703          	lw	a4,52(sp)
    3fbc:	00fc84b3          	add	s1,s9,a5
    3fc0:	00349493          	slli	s1,s1,0x3
    3fc4:	00f70933          	add	s2,a4,a5
    3fc8:	2a010713          	addi	a4,sp,672
    3fcc:	009704b3          	add	s1,a4,s1
    3fd0:	03812703          	lw	a4,56(sp)
    3fd4:	00291913          	slli	s2,s2,0x2
    3fd8:	00379793          	slli	a5,a5,0x3
    3fdc:	01270933          	add	s2,a4,s2
    3fe0:	00092503          	lw	a0,0(s2)
    3fe4:	20010713          	addi	a4,sp,512
    3fe8:	e1848493          	addi	s1,s1,-488
    3fec:	00f709b3          	add	s3,a4,a5
    3ff0:	22c030ef          	jal	ra,721c <__floatsidf>
    3ff4:	00a4a423          	sw	a0,8(s1)
    3ff8:	00b4a623          	sw	a1,12(s1)
    3ffc:	080cc263          	bltz	s9,4080 <__kernel_rem_pio2+0x504>
    4000:	00048c13          	mv	s8,s1
    4004:	01812b83          	lw	s7,24(sp)
    4008:	00000d13          	li	s10,0
    400c:	00000d93          	li	s11,0
    4010:	0100006f          	j	4020 <__kernel_rem_pio2+0x4a4>
    4014:	000c2503          	lw	a0,0(s8) # 3ff00000 <_impure_ptr+0x3fef2bb8>
    4018:	004c2583          	lw	a1,4(s8)
    401c:	ff8c0c13          	addi	s8,s8,-8
    4020:	000ba603          	lw	a2,0(s7)
    4024:	004ba683          	lw	a3,4(s7)
    4028:	008b8b93          	addi	s7,s7,8
    402c:	2f4020ef          	jal	ra,6320 <__muldf3>
    4030:	00050613          	mv	a2,a0
    4034:	00058693          	mv	a3,a1
    4038:	000d0513          	mv	a0,s10
    403c:	000d8593          	mv	a1,s11
    4040:	100010ef          	jal	ra,5140 <__adddf3>
    4044:	00050d13          	mv	s10,a0
    4048:	00058d93          	mv	s11,a1
    404c:	fc8b94e3          	bne	s7,s0,4014 <__kernel_rem_pio2+0x498>
    4050:	01a9a023          	sw	s10,0(s3)
    4054:	01b9a223          	sw	s11,4(s3)
    4058:	001a0a13          	addi	s4,s4,1
    405c:	00490913          	addi	s2,s2,4
    4060:	00898993          	addi	s3,s3,8
    4064:	00848493          	addi	s1,s1,8
    4068:	d54b48e3          	blt	s6,s4,3db8 <__kernel_rem_pio2+0x23c>
    406c:	00092503          	lw	a0,0(s2)
    4070:	1ac030ef          	jal	ra,721c <__floatsidf>
    4074:	00a4a423          	sw	a0,8(s1)
    4078:	00b4a623          	sw	a1,12(s1)
    407c:	f80cd2e3          	bgez	s9,4000 <__kernel_rem_pio2+0x484>
    4080:	00000d13          	li	s10,0
    4084:	00000d93          	li	s11,0
    4088:	01a9a023          	sw	s10,0(s3)
    408c:	01b9a223          	sw	s11,4(s3)
    4090:	001a0a13          	addi	s4,s4,1
    4094:	00490913          	addi	s2,s2,4
    4098:	00898993          	addi	s3,s3,8
    409c:	00848493          	addi	s1,s1,8
    40a0:	fd4b56e3          	bge	s6,s4,406c <__kernel_rem_pio2+0x4f0>
    40a4:	d15ff06f          	j	3db8 <__kernel_rem_pio2+0x23c>
    40a8:	01c12783          	lw	a5,28(sp)
    40ac:	22079263          	bnez	a5,42d0 <__kernel_rem_pio2+0x754>
    40b0:	fffb0793          	addi	a5,s6,-1
    40b4:	00279793          	slli	a5,a5,0x2
    40b8:	2a010713          	addi	a4,sp,672
    40bc:	00f707b3          	add	a5,a4,a5
    40c0:	dd07a483          	lw	s1,-560(a5)
    40c4:	4174d493          	srai	s1,s1,0x17
    40c8:	e69052e3          	blez	s1,3f2c <__kernel_rem_pio2+0x3b0>
    40cc:	001a0a13          	addi	s4,s4,1
    40d0:	6b605463          	blez	s6,4778 <__kernel_rem_pio2+0xbfc>
    40d4:	07012803          	lw	a6,112(sp)
    40d8:	00100793          	li	a5,1
    40dc:	18081a63          	bnez	a6,4270 <__kernel_rem_pio2+0x6f4>
    40e0:	02fb0263          	beq	s6,a5,4104 <__kernel_rem_pio2+0x588>
    40e4:	07410693          	addi	a3,sp,116
    40e8:	00100713          	li	a4,1
    40ec:	0006a803          	lw	a6,0(a3) # 80000000 <_impure_ptr+0x7fff2bb8>
    40f0:	00170793          	addi	a5,a4,1
    40f4:	00468693          	addi	a3,a3,4
    40f8:	16081e63          	bnez	a6,4274 <__kernel_rem_pio2+0x6f8>
    40fc:	00078713          	mv	a4,a5
    4100:	fefb16e3          	bne	s6,a5,40ec <__kernel_rem_pio2+0x570>
    4104:	01c12703          	lw	a4,28(sp)
    4108:	02e05a63          	blez	a4,413c <__kernel_rem_pio2+0x5c0>
    410c:	00100793          	li	a5,1
    4110:	62f70c63          	beq	a4,a5,4748 <__kernel_rem_pio2+0xbcc>
    4114:	00200793          	li	a5,2
    4118:	02f71263          	bne	a4,a5,413c <__kernel_rem_pio2+0x5c0>
    411c:	fffb0793          	addi	a5,s6,-1
    4120:	2a010713          	addi	a4,sp,672
    4124:	00279793          	slli	a5,a5,0x2
    4128:	00f707b3          	add	a5,a4,a5
    412c:	dd07a703          	lw	a4,-560(a5)
    4130:	00a71713          	slli	a4,a4,0xa
    4134:	00a75713          	srli	a4,a4,0xa
    4138:	dce7a823          	sw	a4,-560(a5)
    413c:	00200793          	li	a5,2
    4140:	def496e3          	bne	s1,a5,3f2c <__kernel_rem_pio2+0x3b0>
    4144:	05412503          	lw	a0,84(sp)
    4148:	05812583          	lw	a1,88(sp)
    414c:	00090613          	mv	a2,s2
    4150:	00098693          	mv	a3,s3
    4154:	07012623          	sw	a6,108(sp)
    4158:	035020ef          	jal	ra,698c <__subdf3>
    415c:	06c12803          	lw	a6,108(sp)
    4160:	00050913          	mv	s2,a0
    4164:	00058993          	mv	s3,a1
    4168:	dc0802e3          	beqz	a6,3f2c <__kernel_rem_pio2+0x3b0>
    416c:	01c12603          	lw	a2,28(sp)
    4170:	05c12503          	lw	a0,92(sp)
    4174:	06012583          	lw	a1,96(sp)
    4178:	609000ef          	jal	ra,4f80 <scalbn>
    417c:	00050613          	mv	a2,a0
    4180:	00058693          	mv	a3,a1
    4184:	00090513          	mv	a0,s2
    4188:	00098593          	mv	a1,s3
    418c:	001020ef          	jal	ra,698c <__subdf3>
    4190:	00050913          	mv	s2,a0
    4194:	00058993          	mv	s3,a1
    4198:	00000613          	li	a2,0
    419c:	00000693          	li	a3,0
    41a0:	00090513          	mv	a0,s2
    41a4:	00098593          	mv	a1,s3
    41a8:	725010ef          	jal	ra,60cc <__eqdf2>
    41ac:	d8050ce3          	beqz	a0,3f44 <__kernel_rem_pio2+0x3c8>
    41b0:	01c12403          	lw	s0,28(sp)
    41b4:	00090513          	mv	a0,s2
    41b8:	00098593          	mv	a1,s3
    41bc:	40800633          	neg	a2,s0
    41c0:	00912423          	sw	s1,8(sp)
    41c4:	03012c03          	lw	s8,48(sp)
    41c8:	5b9000ef          	jal	ra,4f80 <scalbn>
    41cc:	0000d7b7          	lui	a5,0xd
    41d0:	000b0493          	mv	s1,s6
    41d4:	f047aa83          	lw	s5,-252(a5) # cf04 <__clz_tab+0x354>
    41d8:	000a0b13          	mv	s6,s4
    41dc:	f007aa03          	lw	s4,-256(a5)
    41e0:	000a8693          	mv	a3,s5
    41e4:	00050d13          	mv	s10,a0
    41e8:	000a0613          	mv	a2,s4
    41ec:	00058d93          	mv	s11,a1
    41f0:	769010ef          	jal	ra,6158 <__gedf2>
    41f4:	64054263          	bltz	a0,4838 <__kernel_rem_pio2+0xcbc>
    41f8:	0000d7b7          	lui	a5,0xd
    41fc:	f507a603          	lw	a2,-176(a5) # cf50 <__clz_tab+0x3a0>
    4200:	f547a683          	lw	a3,-172(a5)
    4204:	000d0513          	mv	a0,s10
    4208:	000d8593          	mv	a1,s11
    420c:	114020ef          	jal	ra,6320 <__muldf3>
    4210:	78d020ef          	jal	ra,719c <__fixdfsi>
    4214:	2a010793          	addi	a5,sp,672
    4218:	00148913          	addi	s2,s1,1
    421c:	00249493          	slli	s1,s1,0x2
    4220:	009784b3          	add	s1,a5,s1
    4224:	00050993          	mv	s3,a0
    4228:	7f5020ef          	jal	ra,721c <__floatsidf>
    422c:	000a0613          	mv	a2,s4
    4230:	000a8693          	mv	a3,s5
    4234:	0ec020ef          	jal	ra,6320 <__muldf3>
    4238:	00050613          	mv	a2,a0
    423c:	00058693          	mv	a3,a1
    4240:	000d0513          	mv	a0,s10
    4244:	000d8593          	mv	a1,s11
    4248:	744020ef          	jal	ra,698c <__subdf3>
    424c:	751020ef          	jal	ra,719c <__fixdfsi>
    4250:	2a010713          	addi	a4,sp,672
    4254:	00291793          	slli	a5,s2,0x2
    4258:	00f707b3          	add	a5,a4,a5
    425c:	dca4a823          	sw	a0,-560(s1)
    4260:	01840713          	addi	a4,s0,24
    4264:	00e12e23          	sw	a4,28(sp)
    4268:	dd37a823          	sw	s3,-560(a5)
    426c:	10c0006f          	j	4378 <__kernel_rem_pio2+0x7fc>
    4270:	00000713          	li	a4,0
    4274:	00271713          	slli	a4,a4,0x2
    4278:	01000637          	lui	a2,0x1000
    427c:	2a010693          	addi	a3,sp,672
    4280:	00e68733          	add	a4,a3,a4
    4284:	41060833          	sub	a6,a2,a6
    4288:	dd072823          	sw	a6,-560(a4)
    428c:	0367de63          	bge	a5,s6,42c8 <__kernel_rem_pio2+0x74c>
    4290:	00279793          	slli	a5,a5,0x2
    4294:	00f68733          	add	a4,a3,a5
    4298:	07010593          	addi	a1,sp,112
    429c:	002b1693          	slli	a3,s6,0x2
    42a0:	dd072703          	lw	a4,-560(a4)
    42a4:	00f587b3          	add	a5,a1,a5
    42a8:	00d586b3          	add	a3,a1,a3
    42ac:	fff60613          	addi	a2,a2,-1 # ffffff <_impure_ptr+0xff2bb7>
    42b0:	0080006f          	j	42b8 <__kernel_rem_pio2+0x73c>
    42b4:	0007a703          	lw	a4,0(a5)
    42b8:	40e60733          	sub	a4,a2,a4
    42bc:	00e7a023          	sw	a4,0(a5)
    42c0:	00478793          	addi	a5,a5,4
    42c4:	fed798e3          	bne	a5,a3,42b4 <__kernel_rem_pio2+0x738>
    42c8:	00100813          	li	a6,1
    42cc:	e39ff06f          	j	4104 <__kernel_rem_pio2+0x588>
    42d0:	04812603          	lw	a2,72(sp)
    42d4:	04c12683          	lw	a3,76(sp)
    42d8:	00000493          	li	s1,0
    42dc:	67d010ef          	jal	ra,6158 <__gedf2>
    42e0:	c40546e3          	bltz	a0,3f2c <__kernel_rem_pio2+0x3b0>
    42e4:	001a0a13          	addi	s4,s4,1
    42e8:	00200493          	li	s1,2
    42ec:	df6044e3          	bgtz	s6,40d4 <__kernel_rem_pio2+0x558>
    42f0:	06412503          	lw	a0,100(sp)
    42f4:	06812583          	lw	a1,104(sp)
    42f8:	00090613          	mv	a2,s2
    42fc:	00098693          	mv	a3,s3
    4300:	68c020ef          	jal	ra,698c <__subdf3>
    4304:	00050913          	mv	s2,a0
    4308:	00058993          	mv	s3,a1
    430c:	c21ff06f          	j	3f2c <__kernel_rem_pio2+0x3b0>
    4310:	001b0793          	addi	a5,s6,1
    4314:	00078a13          	mv	s4,a5
    4318:	00078b13          	mv	s6,a5
    431c:	c9dff06f          	j	3fb8 <__kernel_rem_pio2+0x43c>
    4320:	2a010713          	addi	a4,sp,672
    4324:	00291793          	slli	a5,s2,0x2
    4328:	00f707b3          	add	a5,a4,a5
    432c:	01c12703          	lw	a4,28(sp)
    4330:	dd07a783          	lw	a5,-560(a5)
    4334:	00912423          	sw	s1,8(sp)
    4338:	fe870713          	addi	a4,a4,-24
    433c:	00e12e23          	sw	a4,28(sp)
    4340:	000b0493          	mv	s1,s6
    4344:	03012c03          	lw	s8,48(sp)
    4348:	000a0b13          	mv	s6,s4
    434c:	02079663          	bnez	a5,4378 <__kernel_rem_pio2+0x7fc>
    4350:	00249493          	slli	s1,s1,0x2
    4354:	ff848793          	addi	a5,s1,-8
    4358:	07010693          	addi	a3,sp,112
    435c:	00f687b3          	add	a5,a3,a5
    4360:	ffc78793          	addi	a5,a5,-4
    4364:	0047a683          	lw	a3,4(a5)
    4368:	fff90913          	addi	s2,s2,-1
    436c:	fe870713          	addi	a4,a4,-24
    4370:	fe0688e3          	beqz	a3,4360 <__kernel_rem_pio2+0x7e4>
    4374:	00e12e23          	sw	a4,28(sp)
    4378:	0000d7b7          	lui	a5,0xd
    437c:	ce87a503          	lw	a0,-792(a5) # cce8 <__clz_tab+0x138>
    4380:	cec7a583          	lw	a1,-788(a5)
    4384:	01c12603          	lw	a2,28(sp)
    4388:	3f9000ef          	jal	ra,4f80 <scalbn>
    438c:	00050413          	mv	s0,a0
    4390:	00058493          	mv	s1,a1
    4394:	50094a63          	bltz	s2,48a8 <__kernel_rem_pio2+0xd2c>
    4398:	00391793          	slli	a5,s2,0x3
    439c:	20010d13          	addi	s10,sp,512
    43a0:	00fd09b3          	add	s3,s10,a5
    43a4:	00f12c23          	sw	a5,24(sp)
    43a8:	00291d93          	slli	s11,s2,0x2
    43ac:	0000d7b7          	lui	a5,0xd
    43b0:	07010713          	addi	a4,sp,112
    43b4:	01b70db3          	add	s11,a4,s11
    43b8:	00098b93          	mv	s7,s3
    43bc:	f507aa03          	lw	s4,-176(a5) # cf50 <__clz_tab+0x3a0>
    43c0:	f547aa83          	lw	s5,-172(a5)
    43c4:	0080006f          	j	43cc <__kernel_rem_pio2+0x850>
    43c8:	00078d93          	mv	s11,a5
    43cc:	000da503          	lw	a0,0(s11)
    43d0:	ff8b8b93          	addi	s7,s7,-8
    43d4:	649020ef          	jal	ra,721c <__floatsidf>
    43d8:	00040613          	mv	a2,s0
    43dc:	00048693          	mv	a3,s1
    43e0:	741010ef          	jal	ra,6320 <__muldf3>
    43e4:	00aba423          	sw	a0,8(s7)
    43e8:	00bba623          	sw	a1,12(s7)
    43ec:	00040513          	mv	a0,s0
    43f0:	00048593          	mv	a1,s1
    43f4:	000a0613          	mv	a2,s4
    43f8:	000a8693          	mv	a3,s5
    43fc:	725010ef          	jal	ra,6320 <__muldf3>
    4400:	07010713          	addi	a4,sp,112
    4404:	00050413          	mv	s0,a0
    4408:	00058493          	mv	s1,a1
    440c:	ffcd8793          	addi	a5,s11,-4
    4410:	fbb71ce3          	bne	a4,s11,43c8 <__kernel_rem_pio2+0x84c>
    4414:	16010713          	addi	a4,sp,352
    4418:	0000d7b7          	lui	a5,0xd
    441c:	00000413          	li	s0,0
    4420:	00e12823          	sw	a4,16(sp)
    4424:	01612e23          	sw	s6,28(sp)
    4428:	03212823          	sw	s2,48(sp)
    442c:	f487ac83          	lw	s9,-184(a5) # cf48 <__clz_tab+0x398>
    4430:	f4c7ad83          	lw	s11,-180(a5)
    4434:	00070b93          	mv	s7,a4
    4438:	00040a93          	mv	s5,s0
    443c:	080c4a63          	bltz	s8,44d0 <__kernel_rem_pio2+0x954>
    4440:	04012783          	lw	a5,64(sp)
    4444:	00098913          	mv	s2,s3
    4448:	000c8893          	mv	a7,s9
    444c:	01078b13          	addi	s6,a5,16
    4450:	000d8813          	mv	a6,s11
    4454:	00000413          	li	s0,0
    4458:	00000493          	li	s1,0
    445c:	00000a13          	li	s4,0
    4460:	0180006f          	j	4478 <__kernel_rem_pio2+0x8fc>
    4464:	008b0b13          	addi	s6,s6,8
    4468:	00890913          	addi	s2,s2,8
    446c:	054ac263          	blt	s5,s4,44b0 <__kernel_rem_pio2+0x934>
    4470:	000b2883          	lw	a7,0(s6)
    4474:	004b2803          	lw	a6,4(s6)
    4478:	00092603          	lw	a2,0(s2)
    447c:	00492683          	lw	a3,4(s2)
    4480:	00088513          	mv	a0,a7
    4484:	00080593          	mv	a1,a6
    4488:	699010ef          	jal	ra,6320 <__muldf3>
    448c:	00050613          	mv	a2,a0
    4490:	00058693          	mv	a3,a1
    4494:	00040513          	mv	a0,s0
    4498:	00048593          	mv	a1,s1
    449c:	4a5000ef          	jal	ra,5140 <__adddf3>
    44a0:	001a0a13          	addi	s4,s4,1
    44a4:	00050413          	mv	s0,a0
    44a8:	00058493          	mv	s1,a1
    44ac:	fb4c5ce3          	bge	s8,s4,4464 <__kernel_rem_pio2+0x8e8>
    44b0:	008ba023          	sw	s0,0(s7)
    44b4:	009ba223          	sw	s1,4(s7)
    44b8:	001a8a93          	addi	s5,s5,1
    44bc:	008b8b93          	addi	s7,s7,8
    44c0:	ff898793          	addi	a5,s3,-8
    44c4:	033d0663          	beq	s10,s3,44f0 <__kernel_rem_pio2+0x974>
    44c8:	00078993          	mv	s3,a5
    44cc:	f60c5ae3          	bgez	s8,4440 <__kernel_rem_pio2+0x8c4>
    44d0:	00000413          	li	s0,0
    44d4:	00000493          	li	s1,0
    44d8:	008ba023          	sw	s0,0(s7)
    44dc:	009ba223          	sw	s1,4(s7)
    44e0:	001a8a93          	addi	s5,s5,1
    44e4:	008b8b93          	addi	s7,s7,8
    44e8:	ff898793          	addi	a5,s3,-8
    44ec:	fd3d1ee3          	bne	s10,s3,44c8 <__kernel_rem_pio2+0x94c>
    44f0:	05012703          	lw	a4,80(sp)
    44f4:	00200793          	li	a5,2
    44f8:	01c12b03          	lw	s6,28(sp)
    44fc:	03012903          	lw	s2,48(sp)
    4500:	0ae7c463          	blt	a5,a4,45a8 <__kernel_rem_pio2+0xa2c>
    4504:	26e04e63          	bgtz	a4,4780 <__kernel_rem_pio2+0xc04>
    4508:	06071063          	bnez	a4,4568 <__kernel_rem_pio2+0x9ec>
    450c:	01812783          	lw	a5,24(sp)
    4510:	01012403          	lw	s0,16(sp)
    4514:	00000513          	li	a0,0
    4518:	00000593          	li	a1,0
    451c:	00f40cb3          	add	s9,s0,a5
    4520:	000ca603          	lw	a2,0(s9)
    4524:	004ca683          	lw	a3,4(s9)
    4528:	419000ef          	jal	ra,5140 <__adddf3>
    452c:	ff8c8793          	addi	a5,s9,-8
    4530:	01940e63          	beq	s0,s9,454c <__kernel_rem_pio2+0x9d0>
    4534:	00078c93          	mv	s9,a5
    4538:	000ca603          	lw	a2,0(s9)
    453c:	004ca683          	lw	a3,4(s9)
    4540:	401000ef          	jal	ra,5140 <__adddf3>
    4544:	ff8c8793          	addi	a5,s9,-8
    4548:	ff9416e3          	bne	s0,s9,4534 <__kernel_rem_pio2+0x9b8>
    454c:	00812783          	lw	a5,8(sp)
    4550:	00078663          	beqz	a5,455c <__kernel_rem_pio2+0x9e0>
    4554:	800007b7          	lui	a5,0x80000
    4558:	00b7c5b3          	xor	a1,a5,a1
    455c:	04412683          	lw	a3,68(sp)
    4560:	00a6a023          	sw	a0,0(a3)
    4564:	00b6a223          	sw	a1,4(a3)
    4568:	2dc12083          	lw	ra,732(sp)
    456c:	2d812403          	lw	s0,728(sp)
    4570:	007b7513          	andi	a0,s6,7
    4574:	2d412483          	lw	s1,724(sp)
    4578:	2d012903          	lw	s2,720(sp)
    457c:	2cc12983          	lw	s3,716(sp)
    4580:	2c812a03          	lw	s4,712(sp)
    4584:	2c412a83          	lw	s5,708(sp)
    4588:	2c012b03          	lw	s6,704(sp)
    458c:	2bc12b83          	lw	s7,700(sp)
    4590:	2b812c03          	lw	s8,696(sp)
    4594:	2b412c83          	lw	s9,692(sp)
    4598:	2b012d03          	lw	s10,688(sp)
    459c:	2ac12d83          	lw	s11,684(sp)
    45a0:	2e010113          	addi	sp,sp,736
    45a4:	00008067          	ret
    45a8:	05012703          	lw	a4,80(sp)
    45ac:	00300793          	li	a5,3
    45b0:	faf71ce3          	bne	a4,a5,4568 <__kernel_rem_pio2+0x9ec>
    45b4:	33205063          	blez	s2,48d4 <__kernel_rem_pio2+0xd58>
    45b8:	00391a93          	slli	s5,s2,0x3
    45bc:	2a010793          	addi	a5,sp,672
    45c0:	015787b3          	add	a5,a5,s5
    45c4:	16010a13          	addi	s4,sp,352
    45c8:	ff8a8413          	addi	s0,s5,-8
    45cc:	01412823          	sw	s4,16(sp)
    45d0:	ec07ad03          	lw	s10,-320(a5) # 7ffffec0 <_impure_ptr+0x7fff2a78>
    45d4:	ec47ab83          	lw	s7,-316(a5)
    45d8:	008a0433          	add	s0,s4,s0
    45dc:	0080006f          	j	45e4 <__kernel_rem_pio2+0xa68>
    45e0:	00078413          	mv	s0,a5
    45e4:	00042c03          	lw	s8,0(s0)
    45e8:	00442c83          	lw	s9,4(s0)
    45ec:	000d0613          	mv	a2,s10
    45f0:	000b8693          	mv	a3,s7
    45f4:	000c0513          	mv	a0,s8
    45f8:	000c8593          	mv	a1,s9
    45fc:	345000ef          	jal	ra,5140 <__adddf3>
    4600:	00050993          	mv	s3,a0
    4604:	00058493          	mv	s1,a1
    4608:	00050613          	mv	a2,a0
    460c:	00058693          	mv	a3,a1
    4610:	000c0513          	mv	a0,s8
    4614:	000c8593          	mv	a1,s9
    4618:	374020ef          	jal	ra,698c <__subdf3>
    461c:	000d0613          	mv	a2,s10
    4620:	000b8693          	mv	a3,s7
    4624:	31d000ef          	jal	ra,5140 <__adddf3>
    4628:	00a42423          	sw	a0,8(s0)
    462c:	00b42623          	sw	a1,12(s0)
    4630:	01342023          	sw	s3,0(s0)
    4634:	00942223          	sw	s1,4(s0)
    4638:	ff840793          	addi	a5,s0,-8
    463c:	00098d13          	mv	s10,s3
    4640:	00048b93          	mv	s7,s1
    4644:	f88a1ee3          	bne	s4,s0,45e0 <__kernel_rem_pio2+0xa64>
    4648:	00100793          	li	a5,1
    464c:	2927d463          	bge	a5,s2,48d4 <__kernel_rem_pio2+0xd58>
    4650:	01012a03          	lw	s4,16(sp)
    4654:	00391413          	slli	s0,s2,0x3
    4658:	2a010793          	addi	a5,sp,672
    465c:	01578ab3          	add	s5,a5,s5
    4660:	ff840413          	addi	s0,s0,-8
    4664:	ec0aab83          	lw	s7,-320(s5)
    4668:	008a04b3          	add	s1,s4,s0
    466c:	ec4aaa83          	lw	s5,-316(s5)
    4670:	0080006f          	j	4678 <__kernel_rem_pio2+0xafc>
    4674:	00078493          	mv	s1,a5
    4678:	0004ac03          	lw	s8,0(s1)
    467c:	0044ac83          	lw	s9,4(s1)
    4680:	000b8613          	mv	a2,s7
    4684:	000a8693          	mv	a3,s5
    4688:	000c0513          	mv	a0,s8
    468c:	000c8593          	mv	a1,s9
    4690:	2b1000ef          	jal	ra,5140 <__adddf3>
    4694:	00050993          	mv	s3,a0
    4698:	00058913          	mv	s2,a1
    469c:	00050613          	mv	a2,a0
    46a0:	00058693          	mv	a3,a1
    46a4:	000c0513          	mv	a0,s8
    46a8:	000c8593          	mv	a1,s9
    46ac:	2e0020ef          	jal	ra,698c <__subdf3>
    46b0:	000b8613          	mv	a2,s7
    46b4:	000a8693          	mv	a3,s5
    46b8:	289000ef          	jal	ra,5140 <__adddf3>
    46bc:	00a4a423          	sw	a0,8(s1)
    46c0:	00b4a623          	sw	a1,12(s1)
    46c4:	0134a023          	sw	s3,0(s1)
    46c8:	0124a223          	sw	s2,4(s1)
    46cc:	ff848793          	addi	a5,s1,-8
    46d0:	00098b93          	mv	s7,s3
    46d4:	00090a93          	mv	s5,s2
    46d8:	f8fa1ee3          	bne	s4,a5,4674 <__kernel_rem_pio2+0xaf8>
    46dc:	01012783          	lw	a5,16(sp)
    46e0:	00840413          	addi	s0,s0,8
    46e4:	00000513          	li	a0,0
    46e8:	00878a33          	add	s4,a5,s0
    46ec:	00000593          	li	a1,0
    46f0:	000a2603          	lw	a2,0(s4)
    46f4:	004a2683          	lw	a3,4(s4)
    46f8:	ff8a0a13          	addi	s4,s4,-8
    46fc:	245000ef          	jal	ra,5140 <__adddf3>
    4700:	ff4498e3          	bne	s1,s4,46f0 <__kernel_rem_pio2+0xb74>
    4704:	00812683          	lw	a3,8(sp)
    4708:	16012803          	lw	a6,352(sp)
    470c:	16412703          	lw	a4,356(sp)
    4710:	16812603          	lw	a2,360(sp)
    4714:	16c12783          	lw	a5,364(sp)
    4718:	14069263          	bnez	a3,485c <__kernel_rem_pio2+0xce0>
    471c:	00078893          	mv	a7,a5
    4720:	04412783          	lw	a5,68(sp)
    4724:	00080313          	mv	t1,a6
    4728:	00060813          	mv	a6,a2
    472c:	0067a023          	sw	t1,0(a5)
    4730:	00e7a223          	sw	a4,4(a5)
    4734:	0107a423          	sw	a6,8(a5)
    4738:	0117a623          	sw	a7,12(a5)
    473c:	00a7a823          	sw	a0,16(a5)
    4740:	00b7aa23          	sw	a1,20(a5)
    4744:	e25ff06f          	j	4568 <__kernel_rem_pio2+0x9ec>
    4748:	fffb0793          	addi	a5,s6,-1
    474c:	2a010713          	addi	a4,sp,672
    4750:	00279793          	slli	a5,a5,0x2
    4754:	00f707b3          	add	a5,a4,a5
    4758:	dd07a703          	lw	a4,-560(a5)
    475c:	00971713          	slli	a4,a4,0x9
    4760:	00975713          	srli	a4,a4,0x9
    4764:	dce7a823          	sw	a4,-560(a5)
    4768:	9d5ff06f          	j	413c <__kernel_rem_pio2+0x5c0>
    476c:	fe800793          	li	a5,-24
    4770:	02012a23          	sw	zero,52(sp)
    4774:	ca0ff06f          	j	3c14 <__kernel_rem_pio2+0x98>
    4778:	00000813          	li	a6,0
    477c:	989ff06f          	j	4104 <__kernel_rem_pio2+0x588>
    4780:	01012703          	lw	a4,16(sp)
    4784:	01812783          	lw	a5,24(sp)
    4788:	00000413          	li	s0,0
    478c:	00000493          	li	s1,0
    4790:	00f70cb3          	add	s9,a4,a5
    4794:	00040793          	mv	a5,s0
    4798:	00070413          	mv	s0,a4
    479c:	0080006f          	j	47a4 <__kernel_rem_pio2+0xc28>
    47a0:	00070c93          	mv	s9,a4
    47a4:	000ca603          	lw	a2,0(s9)
    47a8:	004ca683          	lw	a3,4(s9)
    47ac:	00048513          	mv	a0,s1
    47b0:	00078593          	mv	a1,a5
    47b4:	18d000ef          	jal	ra,5140 <__adddf3>
    47b8:	ff8c8713          	addi	a4,s9,-8
    47bc:	00050493          	mv	s1,a0
    47c0:	00058793          	mv	a5,a1
    47c4:	fd941ee3          	bne	s0,s9,47a0 <__kernel_rem_pio2+0xc24>
    47c8:	00058413          	mv	s0,a1
    47cc:	16012503          	lw	a0,352(sp)
    47d0:	16412583          	lw	a1,356(sp)
    47d4:	00048613          	mv	a2,s1
    47d8:	00040693          	mv	a3,s0
    47dc:	1b0020ef          	jal	ra,698c <__subdf3>
    47e0:	00812783          	lw	a5,8(sp)
    47e4:	0a079463          	bnez	a5,488c <__kernel_rem_pio2+0xd10>
    47e8:	04412683          	lw	a3,68(sp)
    47ec:	0096a023          	sw	s1,0(a3)
    47f0:	0086a223          	sw	s0,4(a3)
    47f4:	03205a63          	blez	s2,4828 <__kernel_rem_pio2+0xcac>
    47f8:	16810493          	addi	s1,sp,360
    47fc:	00100413          	li	s0,1
    4800:	0004a603          	lw	a2,0(s1)
    4804:	0044a683          	lw	a3,4(s1)
    4808:	00140413          	addi	s0,s0,1
    480c:	00848493          	addi	s1,s1,8
    4810:	131000ef          	jal	ra,5140 <__adddf3>
    4814:	fe8956e3          	bge	s2,s0,4800 <__kernel_rem_pio2+0xc84>
    4818:	00812783          	lw	a5,8(sp)
    481c:	00078663          	beqz	a5,4828 <__kernel_rem_pio2+0xcac>
    4820:	800007b7          	lui	a5,0x80000
    4824:	00b7c5b3          	xor	a1,a5,a1
    4828:	04412683          	lw	a3,68(sp)
    482c:	00a6a423          	sw	a0,8(a3)
    4830:	00b6a623          	sw	a1,12(a3)
    4834:	d35ff06f          	j	4568 <__kernel_rem_pio2+0x9ec>
    4838:	2a010793          	addi	a5,sp,672
    483c:	00249413          	slli	s0,s1,0x2
    4840:	000d0513          	mv	a0,s10
    4844:	000d8593          	mv	a1,s11
    4848:	00878433          	add	s0,a5,s0
    484c:	151020ef          	jal	ra,719c <__fixdfsi>
    4850:	dca42823          	sw	a0,-560(s0)
    4854:	00048913          	mv	s2,s1
    4858:	b21ff06f          	j	4378 <__kernel_rem_pio2+0x7fc>
    485c:	800006b7          	lui	a3,0x80000
    4860:	00e6c733          	xor	a4,a3,a4
    4864:	00f6c7b3          	xor	a5,a3,a5
    4868:	00b6c6b3          	xor	a3,a3,a1
    486c:	04412583          	lw	a1,68(sp)
    4870:	0105a023          	sw	a6,0(a1)
    4874:	00e5a223          	sw	a4,4(a1)
    4878:	00c5a423          	sw	a2,8(a1)
    487c:	00f5a623          	sw	a5,12(a1)
    4880:	00a5a823          	sw	a0,16(a1)
    4884:	00d5aa23          	sw	a3,20(a1)
    4888:	ce1ff06f          	j	4568 <__kernel_rem_pio2+0x9ec>
    488c:	800007b7          	lui	a5,0x80000
    4890:	0087c433          	xor	s0,a5,s0
    4894:	04412783          	lw	a5,68(sp)
    4898:	0097a023          	sw	s1,0(a5) # 80000000 <_impure_ptr+0x7fff2bb8>
    489c:	0087a223          	sw	s0,4(a5)
    48a0:	f5204ce3          	bgtz	s2,47f8 <__kernel_rem_pio2+0xc7c>
    48a4:	f7dff06f          	j	4820 <__kernel_rem_pio2+0xca4>
    48a8:	05012703          	lw	a4,80(sp)
    48ac:	00200793          	li	a5,2
    48b0:	cee7cce3          	blt	a5,a4,45a8 <__kernel_rem_pio2+0xa2c>
    48b4:	00e04a63          	bgtz	a4,48c8 <__kernel_rem_pio2+0xd4c>
    48b8:	00000513          	li	a0,0
    48bc:	00000593          	li	a1,0
    48c0:	c80706e3          	beqz	a4,454c <__kernel_rem_pio2+0x9d0>
    48c4:	ca5ff06f          	j	4568 <__kernel_rem_pio2+0x9ec>
    48c8:	00000493          	li	s1,0
    48cc:	00000413          	li	s0,0
    48d0:	efdff06f          	j	47cc <__kernel_rem_pio2+0xc50>
    48d4:	00000513          	li	a0,0
    48d8:	00000593          	li	a1,0
    48dc:	e29ff06f          	j	4704 <__kernel_rem_pio2+0xb88>

000048e0 <__kernel_sin>:
    48e0:	fc010113          	addi	sp,sp,-64
    48e4:	00159793          	slli	a5,a1,0x1
    48e8:	02812c23          	sw	s0,56(sp)
    48ec:	02912a23          	sw	s1,52(sp)
    48f0:	03412423          	sw	s4,40(sp)
    48f4:	03512223          	sw	s5,36(sp)
    48f8:	01812c23          	sw	s8,24(sp)
    48fc:	02112e23          	sw	ra,60(sp)
    4900:	03212823          	sw	s2,48(sp)
    4904:	03312623          	sw	s3,44(sp)
    4908:	03612023          	sw	s6,32(sp)
    490c:	01712e23          	sw	s7,28(sp)
    4910:	01912a23          	sw	s9,20(sp)
    4914:	01a12823          	sw	s10,16(sp)
    4918:	01b12623          	sw	s11,12(sp)
    491c:	0017d793          	srli	a5,a5,0x1
    4920:	3e400837          	lui	a6,0x3e400
    4924:	00058413          	mv	s0,a1
    4928:	00050493          	mv	s1,a0
    492c:	00060a13          	mv	s4,a2
    4930:	00068a93          	mv	s5,a3
    4934:	00070c13          	mv	s8,a4
    4938:	0107da63          	bge	a5,a6,494c <__kernel_sin+0x6c>
    493c:	061020ef          	jal	ra,719c <__fixdfsi>
    4940:	00048713          	mv	a4,s1
    4944:	00040793          	mv	a5,s0
    4948:	10050463          	beqz	a0,4a50 <__kernel_sin+0x170>
    494c:	00048613          	mv	a2,s1
    4950:	00040693          	mv	a3,s0
    4954:	00048513          	mv	a0,s1
    4958:	00040593          	mv	a1,s0
    495c:	1c5010ef          	jal	ra,6320 <__muldf3>
    4960:	00050913          	mv	s2,a0
    4964:	00058993          	mv	s3,a1
    4968:	00050613          	mv	a2,a0
    496c:	00058693          	mv	a3,a1
    4970:	00048513          	mv	a0,s1
    4974:	00040593          	mv	a1,s0
    4978:	1a9010ef          	jal	ra,6320 <__muldf3>
    497c:	0000d7b7          	lui	a5,0xd
    4980:	f687a603          	lw	a2,-152(a5) # cf68 <__clz_tab+0x3b8>
    4984:	f6c7a683          	lw	a3,-148(a5)
    4988:	00050b13          	mv	s6,a0
    498c:	00058b93          	mv	s7,a1
    4990:	00090513          	mv	a0,s2
    4994:	00098593          	mv	a1,s3
    4998:	189010ef          	jal	ra,6320 <__muldf3>
    499c:	0000d7b7          	lui	a5,0xd
    49a0:	f707a603          	lw	a2,-144(a5) # cf70 <__clz_tab+0x3c0>
    49a4:	f747a683          	lw	a3,-140(a5)
    49a8:	7e5010ef          	jal	ra,698c <__subdf3>
    49ac:	00090613          	mv	a2,s2
    49b0:	00098693          	mv	a3,s3
    49b4:	16d010ef          	jal	ra,6320 <__muldf3>
    49b8:	0000d7b7          	lui	a5,0xd
    49bc:	f787a603          	lw	a2,-136(a5) # cf78 <__clz_tab+0x3c8>
    49c0:	f7c7a683          	lw	a3,-132(a5)
    49c4:	77c000ef          	jal	ra,5140 <__adddf3>
    49c8:	00090613          	mv	a2,s2
    49cc:	00098693          	mv	a3,s3
    49d0:	151010ef          	jal	ra,6320 <__muldf3>
    49d4:	0000d7b7          	lui	a5,0xd
    49d8:	f807a603          	lw	a2,-128(a5) # cf80 <__clz_tab+0x3d0>
    49dc:	f847a683          	lw	a3,-124(a5)
    49e0:	7ad010ef          	jal	ra,698c <__subdf3>
    49e4:	00090613          	mv	a2,s2
    49e8:	00098693          	mv	a3,s3
    49ec:	135010ef          	jal	ra,6320 <__muldf3>
    49f0:	0000d7b7          	lui	a5,0xd
    49f4:	f887a603          	lw	a2,-120(a5) # cf88 <__clz_tab+0x3d8>
    49f8:	f8c7a683          	lw	a3,-116(a5)
    49fc:	744000ef          	jal	ra,5140 <__adddf3>
    4a00:	00050d13          	mv	s10,a0
    4a04:	00058d93          	mv	s11,a1
    4a08:	080c1663          	bnez	s8,4a94 <__kernel_sin+0x1b4>
    4a0c:	00050613          	mv	a2,a0
    4a10:	00058693          	mv	a3,a1
    4a14:	00090513          	mv	a0,s2
    4a18:	00098593          	mv	a1,s3
    4a1c:	105010ef          	jal	ra,6320 <__muldf3>
    4a20:	0000d7b7          	lui	a5,0xd
    4a24:	f907a603          	lw	a2,-112(a5) # cf90 <__clz_tab+0x3e0>
    4a28:	f947a683          	lw	a3,-108(a5)
    4a2c:	761010ef          	jal	ra,698c <__subdf3>
    4a30:	000b0613          	mv	a2,s6
    4a34:	000b8693          	mv	a3,s7
    4a38:	0e9010ef          	jal	ra,6320 <__muldf3>
    4a3c:	00048613          	mv	a2,s1
    4a40:	00040693          	mv	a3,s0
    4a44:	6fc000ef          	jal	ra,5140 <__adddf3>
    4a48:	00050713          	mv	a4,a0
    4a4c:	00058793          	mv	a5,a1
    4a50:	03c12083          	lw	ra,60(sp)
    4a54:	03812403          	lw	s0,56(sp)
    4a58:	03412483          	lw	s1,52(sp)
    4a5c:	03012903          	lw	s2,48(sp)
    4a60:	02c12983          	lw	s3,44(sp)
    4a64:	02812a03          	lw	s4,40(sp)
    4a68:	02412a83          	lw	s5,36(sp)
    4a6c:	02012b03          	lw	s6,32(sp)
    4a70:	01c12b83          	lw	s7,28(sp)
    4a74:	01812c03          	lw	s8,24(sp)
    4a78:	01412c83          	lw	s9,20(sp)
    4a7c:	01012d03          	lw	s10,16(sp)
    4a80:	00c12d83          	lw	s11,12(sp)
    4a84:	00070513          	mv	a0,a4
    4a88:	00078593          	mv	a1,a5
    4a8c:	04010113          	addi	sp,sp,64
    4a90:	00008067          	ret
    4a94:	0000d7b7          	lui	a5,0xd
    4a98:	d487a603          	lw	a2,-696(a5) # cd48 <__clz_tab+0x198>
    4a9c:	d4c7a683          	lw	a3,-692(a5)
    4aa0:	000a0513          	mv	a0,s4
    4aa4:	000a8593          	mv	a1,s5
    4aa8:	079010ef          	jal	ra,6320 <__muldf3>
    4aac:	00050c13          	mv	s8,a0
    4ab0:	00058c93          	mv	s9,a1
    4ab4:	000d0613          	mv	a2,s10
    4ab8:	000d8693          	mv	a3,s11
    4abc:	000b0513          	mv	a0,s6
    4ac0:	000b8593          	mv	a1,s7
    4ac4:	05d010ef          	jal	ra,6320 <__muldf3>
    4ac8:	00050613          	mv	a2,a0
    4acc:	00058693          	mv	a3,a1
    4ad0:	000c0513          	mv	a0,s8
    4ad4:	000c8593          	mv	a1,s9
    4ad8:	6b5010ef          	jal	ra,698c <__subdf3>
    4adc:	00090613          	mv	a2,s2
    4ae0:	00098693          	mv	a3,s3
    4ae4:	03d010ef          	jal	ra,6320 <__muldf3>
    4ae8:	000a0613          	mv	a2,s4
    4aec:	000a8693          	mv	a3,s5
    4af0:	69d010ef          	jal	ra,698c <__subdf3>
    4af4:	0000d7b7          	lui	a5,0xd
    4af8:	f907a603          	lw	a2,-112(a5) # cf90 <__clz_tab+0x3e0>
    4afc:	f947a683          	lw	a3,-108(a5)
    4b00:	00050913          	mv	s2,a0
    4b04:	00058993          	mv	s3,a1
    4b08:	000b0513          	mv	a0,s6
    4b0c:	000b8593          	mv	a1,s7
    4b10:	011010ef          	jal	ra,6320 <__muldf3>
    4b14:	00050613          	mv	a2,a0
    4b18:	00058693          	mv	a3,a1
    4b1c:	00090513          	mv	a0,s2
    4b20:	00098593          	mv	a1,s3
    4b24:	61c000ef          	jal	ra,5140 <__adddf3>
    4b28:	00050613          	mv	a2,a0
    4b2c:	00058693          	mv	a3,a1
    4b30:	00048513          	mv	a0,s1
    4b34:	00040593          	mv	a1,s0
    4b38:	655010ef          	jal	ra,698c <__subdf3>
    4b3c:	00050713          	mv	a4,a0
    4b40:	00058793          	mv	a5,a1
    4b44:	f0dff06f          	j	4a50 <__kernel_sin+0x170>

00004b48 <fabs>:
    4b48:	00159593          	slli	a1,a1,0x1
    4b4c:	0015d593          	srli	a1,a1,0x1
    4b50:	00008067          	ret

00004b54 <finite>:
    4b54:	00159593          	slli	a1,a1,0x1
    4b58:	0015d593          	srli	a1,a1,0x1
    4b5c:	80100537          	lui	a0,0x80100
    4b60:	00a58533          	add	a0,a1,a0
    4b64:	01f55513          	srli	a0,a0,0x1f
    4b68:	00008067          	ret

00004b6c <floor>:
    4b6c:	4145d793          	srai	a5,a1,0x14
    4b70:	fe010113          	addi	sp,sp,-32
    4b74:	7ff7f793          	andi	a5,a5,2047
    4b78:	00812c23          	sw	s0,24(sp)
    4b7c:	00912a23          	sw	s1,20(sp)
    4b80:	01212823          	sw	s2,16(sp)
    4b84:	01312623          	sw	s3,12(sp)
    4b88:	01412423          	sw	s4,8(sp)
    4b8c:	00112e23          	sw	ra,28(sp)
    4b90:	01512223          	sw	s5,4(sp)
    4b94:	01612023          	sw	s6,0(sp)
    4b98:	c0178493          	addi	s1,a5,-1023
    4b9c:	01300713          	li	a4,19
    4ba0:	00058413          	mv	s0,a1
    4ba4:	00050993          	mv	s3,a0
    4ba8:	00058913          	mv	s2,a1
    4bac:	00050a13          	mv	s4,a0
    4bb0:	0c974463          	blt	a4,s1,4c78 <floor+0x10c>
    4bb4:	0804ca63          	bltz	s1,4c48 <floor+0xdc>
    4bb8:	00100b37          	lui	s6,0x100
    4bbc:	fffb0a93          	addi	s5,s6,-1 # fffff <_impure_ptr+0xf2bb7>
    4bc0:	409adab3          	sra	s5,s5,s1
    4bc4:	00baf7b3          	and	a5,s5,a1
    4bc8:	00a7e7b3          	or	a5,a5,a0
    4bcc:	00050693          	mv	a3,a0
    4bd0:	00058713          	mv	a4,a1
    4bd4:	04078263          	beqz	a5,4c18 <floor+0xac>
    4bd8:	0000d7b7          	lui	a5,0xd
    4bdc:	e007a603          	lw	a2,-512(a5) # ce00 <__clz_tab+0x250>
    4be0:	e047a683          	lw	a3,-508(a5)
    4be4:	55c000ef          	jal	ra,5140 <__adddf3>
    4be8:	00000613          	li	a2,0
    4bec:	00000693          	li	a3,0
    4bf0:	568010ef          	jal	ra,6158 <__gedf2>
    4bf4:	00a05e63          	blez	a0,4c10 <floor+0xa4>
    4bf8:	00045663          	bgez	s0,4c04 <floor+0x98>
    4bfc:	409b54b3          	sra	s1,s6,s1
    4c00:	00848933          	add	s2,s1,s0
    4c04:	fffaca93          	not	s5,s5
    4c08:	01597933          	and	s2,s2,s5
    4c0c:	00000a13          	li	s4,0
    4c10:	000a0693          	mv	a3,s4
    4c14:	00090713          	mv	a4,s2
    4c18:	01c12083          	lw	ra,28(sp)
    4c1c:	01812403          	lw	s0,24(sp)
    4c20:	01412483          	lw	s1,20(sp)
    4c24:	01012903          	lw	s2,16(sp)
    4c28:	00c12983          	lw	s3,12(sp)
    4c2c:	00812a03          	lw	s4,8(sp)
    4c30:	00412a83          	lw	s5,4(sp)
    4c34:	00012b03          	lw	s6,0(sp)
    4c38:	00068513          	mv	a0,a3
    4c3c:	00070593          	mv	a1,a4
    4c40:	02010113          	addi	sp,sp,32
    4c44:	00008067          	ret
    4c48:	0000d7b7          	lui	a5,0xd
    4c4c:	e007a603          	lw	a2,-512(a5) # ce00 <__clz_tab+0x250>
    4c50:	e047a683          	lw	a3,-508(a5)
    4c54:	4ec000ef          	jal	ra,5140 <__adddf3>
    4c58:	00000613          	li	a2,0
    4c5c:	00000693          	li	a3,0
    4c60:	4f8010ef          	jal	ra,6158 <__gedf2>
    4c64:	faa056e3          	blez	a0,4c10 <floor+0xa4>
    4c68:	08044663          	bltz	s0,4cf4 <floor+0x188>
    4c6c:	00000a13          	li	s4,0
    4c70:	00000913          	li	s2,0
    4c74:	f9dff06f          	j	4c10 <floor+0xa4>
    4c78:	03300713          	li	a4,51
    4c7c:	02975663          	bge	a4,s1,4ca8 <floor+0x13c>
    4c80:	40000793          	li	a5,1024
    4c84:	00050693          	mv	a3,a0
    4c88:	00058713          	mv	a4,a1
    4c8c:	f8f496e3          	bne	s1,a5,4c18 <floor+0xac>
    4c90:	00058693          	mv	a3,a1
    4c94:	00050613          	mv	a2,a0
    4c98:	4a8000ef          	jal	ra,5140 <__adddf3>
    4c9c:	00050693          	mv	a3,a0
    4ca0:	00058713          	mv	a4,a1
    4ca4:	f75ff06f          	j	4c18 <floor+0xac>
    4ca8:	bed78793          	addi	a5,a5,-1043
    4cac:	fff00a93          	li	s5,-1
    4cb0:	00fadab3          	srl	s5,s5,a5
    4cb4:	00aaf7b3          	and	a5,s5,a0
    4cb8:	00050693          	mv	a3,a0
    4cbc:	00058713          	mv	a4,a1
    4cc0:	f4078ce3          	beqz	a5,4c18 <floor+0xac>
    4cc4:	0000d7b7          	lui	a5,0xd
    4cc8:	e007a603          	lw	a2,-512(a5) # ce00 <__clz_tab+0x250>
    4ccc:	e047a683          	lw	a3,-508(a5)
    4cd0:	470000ef          	jal	ra,5140 <__adddf3>
    4cd4:	00000613          	li	a2,0
    4cd8:	00000693          	li	a3,0
    4cdc:	47c010ef          	jal	ra,6158 <__gedf2>
    4ce0:	f2a058e3          	blez	a0,4c10 <floor+0xa4>
    4ce4:	02044663          	bltz	s0,4d10 <floor+0x1a4>
    4ce8:	fffac793          	not	a5,s5
    4cec:	00fa7a33          	and	s4,s4,a5
    4cf0:	f21ff06f          	j	4c10 <floor+0xa4>
    4cf4:	00141413          	slli	s0,s0,0x1
    4cf8:	00145413          	srli	s0,s0,0x1
    4cfc:	01346433          	or	s0,s0,s3
    4d00:	00000a13          	li	s4,0
    4d04:	f00406e3          	beqz	s0,4c10 <floor+0xa4>
    4d08:	bff00937          	lui	s2,0xbff00
    4d0c:	f05ff06f          	j	4c10 <floor+0xa4>
    4d10:	01400793          	li	a5,20
    4d14:	02f48463          	beq	s1,a5,4d3c <floor+0x1d0>
    4d18:	03400793          	li	a5,52
    4d1c:	409787b3          	sub	a5,a5,s1
    4d20:	00100493          	li	s1,1
    4d24:	00f494b3          	sll	s1,s1,a5
    4d28:	013489b3          	add	s3,s1,s3
    4d2c:	0149fc63          	bgeu	s3,s4,4d44 <floor+0x1d8>
    4d30:	00140913          	addi	s2,s0,1
    4d34:	00098a13          	mv	s4,s3
    4d38:	fb1ff06f          	j	4ce8 <floor+0x17c>
    4d3c:	00140913          	addi	s2,s0,1
    4d40:	fa9ff06f          	j	4ce8 <floor+0x17c>
    4d44:	00098a13          	mv	s4,s3
    4d48:	fa1ff06f          	j	4ce8 <floor+0x17c>

00004d4c <nan>:
    4d4c:	0000d7b7          	lui	a5,0xd
    4d50:	f987a503          	lw	a0,-104(a5) # cf98 <__clz_tab+0x3e8>
    4d54:	f9c7a583          	lw	a1,-100(a5)
    4d58:	00008067          	ret

00004d5c <rint>:
    4d5c:	4145d713          	srai	a4,a1,0x14
    4d60:	fd010113          	addi	sp,sp,-48
    4d64:	7ff77713          	andi	a4,a4,2047
    4d68:	02812423          	sw	s0,40(sp)
    4d6c:	02112623          	sw	ra,44(sp)
    4d70:	02912223          	sw	s1,36(sp)
    4d74:	03212023          	sw	s2,32(sp)
    4d78:	01312e23          	sw	s3,28(sp)
    4d7c:	c0170613          	addi	a2,a4,-1023
    4d80:	01300893          	li	a7,19
    4d84:	00058793          	mv	a5,a1
    4d88:	00050693          	mv	a3,a0
    4d8c:	00058e13          	mv	t3,a1
    4d90:	01f5d413          	srli	s0,a1,0x1f
    4d94:	16c8cc63          	blt	a7,a2,4f0c <rint+0x1b0>
    4d98:	0c064863          	bltz	a2,4e68 <rint+0x10c>
    4d9c:	001005b7          	lui	a1,0x100
    4da0:	fff58593          	addi	a1,a1,-1 # fffff <_impure_ptr+0xf2bb7>
    4da4:	40c5d5b3          	sra	a1,a1,a2
    4da8:	00f5f533          	and	a0,a1,a5
    4dac:	00d56533          	or	a0,a0,a3
    4db0:	00068893          	mv	a7,a3
    4db4:	00078313          	mv	t1,a5
    4db8:	08050663          	beqz	a0,4e44 <rint+0xe8>
    4dbc:	0015d593          	srli	a1,a1,0x1
    4dc0:	00f5f833          	and	a6,a1,a5
    4dc4:	00d86833          	or	a6,a6,a3
    4dc8:	02080663          	beqz	a6,4df4 <rint+0x98>
    4dcc:	bee70693          	addi	a3,a4,-1042
    4dd0:	00040e37          	lui	t3,0x40
    4dd4:	0016b693          	seqz	a3,a3
    4dd8:	fff5c593          	not	a1,a1
    4ddc:	80000837          	lui	a6,0x80000
    4de0:	40d006b3          	neg	a3,a3
    4de4:	00f5f7b3          	and	a5,a1,a5
    4de8:	40ce5633          	sra	a2,t3,a2
    4dec:	00d87833          	and	a6,a6,a3
    4df0:	00c7ee33          	or	t3,a5,a2
    4df4:	0000d7b7          	lui	a5,0xd
    4df8:	ab078793          	addi	a5,a5,-1360 # cab0 <TWO52>
    4dfc:	00341313          	slli	t1,s0,0x3
    4e00:	00678333          	add	t1,a5,t1
    4e04:	00032403          	lw	s0,0(t1)
    4e08:	00432483          	lw	s1,4(t1)
    4e0c:	00080613          	mv	a2,a6
    4e10:	000e0693          	mv	a3,t3
    4e14:	00040513          	mv	a0,s0
    4e18:	00048593          	mv	a1,s1
    4e1c:	324000ef          	jal	ra,5140 <__adddf3>
    4e20:	00a12423          	sw	a0,8(sp)
    4e24:	00b12623          	sw	a1,12(sp)
    4e28:	00812503          	lw	a0,8(sp)
    4e2c:	00c12583          	lw	a1,12(sp)
    4e30:	00040613          	mv	a2,s0
    4e34:	00048693          	mv	a3,s1
    4e38:	355010ef          	jal	ra,698c <__subdf3>
    4e3c:	00050893          	mv	a7,a0
    4e40:	00058313          	mv	t1,a1
    4e44:	02c12083          	lw	ra,44(sp)
    4e48:	02812403          	lw	s0,40(sp)
    4e4c:	02412483          	lw	s1,36(sp)
    4e50:	02012903          	lw	s2,32(sp)
    4e54:	01c12983          	lw	s3,28(sp)
    4e58:	00088513          	mv	a0,a7
    4e5c:	00030593          	mv	a1,t1
    4e60:	03010113          	addi	sp,sp,48
    4e64:	00008067          	ret
    4e68:	800004b7          	lui	s1,0x80000
    4e6c:	fff4c493          	not	s1,s1
    4e70:	00b4f733          	and	a4,s1,a1
    4e74:	00a76733          	or	a4,a4,a0
    4e78:	00050893          	mv	a7,a0
    4e7c:	00058313          	mv	t1,a1
    4e80:	fc0702e3          	beqz	a4,4e44 <rint+0xe8>
    4e84:	00c59793          	slli	a5,a1,0xc
    4e88:	00c7d793          	srli	a5,a5,0xc
    4e8c:	00a7e733          	or	a4,a5,a0
    4e90:	40e007b3          	neg	a5,a4
    4e94:	00e7e7b3          	or	a5,a5,a4
    4e98:	0000d737          	lui	a4,0xd
    4e9c:	00341693          	slli	a3,s0,0x3
    4ea0:	ab070713          	addi	a4,a4,-1360 # cab0 <TWO52>
    4ea4:	00d70733          	add	a4,a4,a3
    4ea8:	00072903          	lw	s2,0(a4)
    4eac:	00472983          	lw	s3,4(a4)
    4eb0:	00c7d793          	srli	a5,a5,0xc
    4eb4:	fffe06b7          	lui	a3,0xfffe0
    4eb8:	00080337          	lui	t1,0x80
    4ebc:	00b6f6b3          	and	a3,a3,a1
    4ec0:	0067f333          	and	t1,a5,t1
    4ec4:	00d36333          	or	t1,t1,a3
    4ec8:	00030693          	mv	a3,t1
    4ecc:	00050613          	mv	a2,a0
    4ed0:	00098593          	mv	a1,s3
    4ed4:	00090513          	mv	a0,s2
    4ed8:	268000ef          	jal	ra,5140 <__adddf3>
    4edc:	00a12423          	sw	a0,8(sp)
    4ee0:	00b12623          	sw	a1,12(sp)
    4ee4:	00812503          	lw	a0,8(sp)
    4ee8:	00c12583          	lw	a1,12(sp)
    4eec:	00090613          	mv	a2,s2
    4ef0:	00098693          	mv	a3,s3
    4ef4:	299010ef          	jal	ra,698c <__subdf3>
    4ef8:	00b4f4b3          	and	s1,s1,a1
    4efc:	01f41313          	slli	t1,s0,0x1f
    4f00:	0064e333          	or	t1,s1,t1
    4f04:	00050893          	mv	a7,a0
    4f08:	f3dff06f          	j	4e44 <rint+0xe8>
    4f0c:	03300893          	li	a7,51
    4f10:	02c8d663          	bge	a7,a2,4f3c <rint+0x1e0>
    4f14:	40000713          	li	a4,1024
    4f18:	00050893          	mv	a7,a0
    4f1c:	00058313          	mv	t1,a1
    4f20:	f2e612e3          	bne	a2,a4,4e44 <rint+0xe8>
    4f24:	00050613          	mv	a2,a0
    4f28:	000e0693          	mv	a3,t3
    4f2c:	214000ef          	jal	ra,5140 <__adddf3>
    4f30:	00050893          	mv	a7,a0
    4f34:	00058313          	mv	t1,a1
    4f38:	f0dff06f          	j	4e44 <rint+0xe8>
    4f3c:	bed70713          	addi	a4,a4,-1043
    4f40:	fff00613          	li	a2,-1
    4f44:	00e65633          	srl	a2,a2,a4
    4f48:	00a675b3          	and	a1,a2,a0
    4f4c:	00050893          	mv	a7,a0
    4f50:	00078313          	mv	t1,a5
    4f54:	ee0588e3          	beqz	a1,4e44 <rint+0xe8>
    4f58:	00165613          	srli	a2,a2,0x1
    4f5c:	00a677b3          	and	a5,a2,a0
    4f60:	00050813          	mv	a6,a0
    4f64:	e80788e3          	beqz	a5,4df4 <rint+0x98>
    4f68:	40000837          	lui	a6,0x40000
    4f6c:	fff64613          	not	a2,a2
    4f70:	00a676b3          	and	a3,a2,a0
    4f74:	40e85733          	sra	a4,a6,a4
    4f78:	00e6e833          	or	a6,a3,a4
    4f7c:	e79ff06f          	j	4df4 <rint+0x98>

00004f80 <scalbn>:
    4f80:	ff010113          	addi	sp,sp,-16
    4f84:	4145d793          	srai	a5,a1,0x14
    4f88:	00812423          	sw	s0,8(sp)
    4f8c:	00112623          	sw	ra,12(sp)
    4f90:	7ff7f793          	andi	a5,a5,2047
    4f94:	00060413          	mv	s0,a2
    4f98:	08079c63          	bnez	a5,5030 <scalbn+0xb0>
    4f9c:	00159793          	slli	a5,a1,0x1
    4fa0:	0017d793          	srli	a5,a5,0x1
    4fa4:	00a7e7b3          	or	a5,a5,a0
    4fa8:	06078c63          	beqz	a5,5020 <scalbn+0xa0>
    4fac:	0000d7b7          	lui	a5,0xd
    4fb0:	fa07a603          	lw	a2,-96(a5) # cfa0 <__clz_tab+0x3f0>
    4fb4:	fa47a683          	lw	a3,-92(a5)
    4fb8:	368010ef          	jal	ra,6320 <__muldf3>
    4fbc:	ffff47b7          	lui	a5,0xffff4
    4fc0:	cb078793          	addi	a5,a5,-848 # ffff3cb0 <_impure_ptr+0xfffe6868>
    4fc4:	00058713          	mv	a4,a1
    4fc8:	14f44463          	blt	s0,a5,5110 <scalbn+0x190>
    4fcc:	4145d793          	srai	a5,a1,0x14
    4fd0:	7ff7f793          	andi	a5,a5,2047
    4fd4:	fca78793          	addi	a5,a5,-54
    4fd8:	00f407b3          	add	a5,s0,a5
    4fdc:	7fe00693          	li	a3,2046
    4fe0:	06f6cc63          	blt	a3,a5,5058 <scalbn+0xd8>
    4fe4:	10f04463          	bgtz	a5,50ec <scalbn+0x16c>
    4fe8:	fcb00693          	li	a3,-53
    4fec:	0cd7d263          	bge	a5,a3,50b0 <scalbn+0x130>
    4ff0:	0000c7b7          	lui	a5,0xc
    4ff4:	35078793          	addi	a5,a5,848 # c350 <__trunctfdf2+0x2c>
    4ff8:	0687c063          	blt	a5,s0,5058 <scalbn+0xd8>
    4ffc:	0000d7b7          	lui	a5,0xd
    5000:	e807a803          	lw	a6,-384(a5) # ce80 <__clz_tab+0x2d0>
    5004:	e847a883          	lw	a7,-380(a5)
    5008:	1205c463          	bltz	a1,5130 <scalbn+0x1b0>
    500c:	e807a603          	lw	a2,-384(a5)
    5010:	e847a683          	lw	a3,-380(a5)
    5014:	00080513          	mv	a0,a6
    5018:	00088593          	mv	a1,a7
    501c:	304010ef          	jal	ra,6320 <__muldf3>
    5020:	00c12083          	lw	ra,12(sp)
    5024:	00812403          	lw	s0,8(sp)
    5028:	01010113          	addi	sp,sp,16
    502c:	00008067          	ret
    5030:	7ff00693          	li	a3,2047
    5034:	00058713          	mv	a4,a1
    5038:	fad790e3          	bne	a5,a3,4fd8 <scalbn+0x58>
    503c:	00050613          	mv	a2,a0
    5040:	00058693          	mv	a3,a1
    5044:	0fc000ef          	jal	ra,5140 <__adddf3>
    5048:	00c12083          	lw	ra,12(sp)
    504c:	00812403          	lw	s0,8(sp)
    5050:	01010113          	addi	sp,sp,16
    5054:	00008067          	ret
    5058:	0000d7b7          	lui	a5,0xd
    505c:	e007a803          	lw	a6,-512(a5) # ce00 <__clz_tab+0x250>
    5060:	e047a883          	lw	a7,-508(a5)
    5064:	0205c463          	bltz	a1,508c <scalbn+0x10c>
    5068:	e007a603          	lw	a2,-512(a5)
    506c:	e047a683          	lw	a3,-508(a5)
    5070:	00080513          	mv	a0,a6
    5074:	00088593          	mv	a1,a7
    5078:	2a8010ef          	jal	ra,6320 <__muldf3>
    507c:	00c12083          	lw	ra,12(sp)
    5080:	00812403          	lw	s0,8(sp)
    5084:	01010113          	addi	sp,sp,16
    5088:	00008067          	ret
    508c:	0000d737          	lui	a4,0xd
    5090:	fa872803          	lw	a6,-88(a4) # cfa8 <__clz_tab+0x3f8>
    5094:	fac72883          	lw	a7,-84(a4)
    5098:	e007a603          	lw	a2,-512(a5)
    509c:	e047a683          	lw	a3,-508(a5)
    50a0:	00080513          	mv	a0,a6
    50a4:	00088593          	mv	a1,a7
    50a8:	278010ef          	jal	ra,6320 <__muldf3>
    50ac:	fd1ff06f          	j	507c <scalbn+0xfc>
    50b0:	801005b7          	lui	a1,0x80100
    50b4:	fff58593          	addi	a1,a1,-1 # 800fffff <_impure_ptr+0x800f2bb7>
    50b8:	03678793          	addi	a5,a5,54
    50bc:	00b77733          	and	a4,a4,a1
    50c0:	01479793          	slli	a5,a5,0x14
    50c4:	00e7e7b3          	or	a5,a5,a4
    50c8:	0000d737          	lui	a4,0xd
    50cc:	fb872603          	lw	a2,-72(a4) # cfb8 <__clz_tab+0x408>
    50d0:	fbc72683          	lw	a3,-68(a4)
    50d4:	00078593          	mv	a1,a5
    50d8:	248010ef          	jal	ra,6320 <__muldf3>
    50dc:	00c12083          	lw	ra,12(sp)
    50e0:	00812403          	lw	s0,8(sp)
    50e4:	01010113          	addi	sp,sp,16
    50e8:	00008067          	ret
    50ec:	00c12083          	lw	ra,12(sp)
    50f0:	00812403          	lw	s0,8(sp)
    50f4:	801005b7          	lui	a1,0x80100
    50f8:	fff58593          	addi	a1,a1,-1 # 800fffff <_impure_ptr+0x800f2bb7>
    50fc:	00b77733          	and	a4,a4,a1
    5100:	01479593          	slli	a1,a5,0x14
    5104:	00b765b3          	or	a1,a4,a1
    5108:	01010113          	addi	sp,sp,16
    510c:	00008067          	ret
    5110:	0000d6b7          	lui	a3,0xd
    5114:	e806a603          	lw	a2,-384(a3) # ce80 <__clz_tab+0x2d0>
    5118:	e846a683          	lw	a3,-380(a3)
    511c:	204010ef          	jal	ra,6320 <__muldf3>
    5120:	00c12083          	lw	ra,12(sp)
    5124:	00812403          	lw	s0,8(sp)
    5128:	01010113          	addi	sp,sp,16
    512c:	00008067          	ret
    5130:	0000d737          	lui	a4,0xd
    5134:	fb072803          	lw	a6,-80(a4) # cfb0 <__clz_tab+0x400>
    5138:	fb472883          	lw	a7,-76(a4)
    513c:	ed1ff06f          	j	500c <scalbn+0x8c>

00005140 <__adddf3>:
    5140:	00100837          	lui	a6,0x100
    5144:	fff80813          	addi	a6,a6,-1 # fffff <_impure_ptr+0xf2bb7>
    5148:	00b878b3          	and	a7,a6,a1
    514c:	00389893          	slli	a7,a7,0x3
    5150:	01d55793          	srli	a5,a0,0x1d
    5154:	fe010113          	addi	sp,sp,-32
    5158:	0145d713          	srli	a4,a1,0x14
    515c:	00d87833          	and	a6,a6,a3
    5160:	0117e7b3          	or	a5,a5,a7
    5164:	0146d893          	srli	a7,a3,0x14
    5168:	00381813          	slli	a6,a6,0x3
    516c:	00912a23          	sw	s1,20(sp)
    5170:	01212823          	sw	s2,16(sp)
    5174:	7ff77493          	andi	s1,a4,2047
    5178:	7ff8f893          	andi	a7,a7,2047
    517c:	01d65713          	srli	a4,a2,0x1d
    5180:	00112e23          	sw	ra,28(sp)
    5184:	00812c23          	sw	s0,24(sp)
    5188:	01312623          	sw	s3,12(sp)
    518c:	01f5d913          	srli	s2,a1,0x1f
    5190:	01f6d693          	srli	a3,a3,0x1f
    5194:	01076733          	or	a4,a4,a6
    5198:	00351513          	slli	a0,a0,0x3
    519c:	00361613          	slli	a2,a2,0x3
    51a0:	41148833          	sub	a6,s1,a7
    51a4:	2cd91463          	bne	s2,a3,546c <__adddf3+0x32c>
    51a8:	11005e63          	blez	a6,52c4 <__adddf3+0x184>
    51ac:	04089063          	bnez	a7,51ec <__adddf3+0xac>
    51b0:	00c766b3          	or	a3,a4,a2
    51b4:	70068063          	beqz	a3,58b4 <__adddf3+0x774>
    51b8:	fff80593          	addi	a1,a6,-1
    51bc:	02059063          	bnez	a1,51dc <__adddf3+0x9c>
    51c0:	00c50633          	add	a2,a0,a2
    51c4:	00a63533          	sltu	a0,a2,a0
    51c8:	00e787b3          	add	a5,a5,a4
    51cc:	00a787b3          	add	a5,a5,a0
    51d0:	00060513          	mv	a0,a2
    51d4:	00100493          	li	s1,1
    51d8:	0700006f          	j	5248 <__adddf3+0x108>
    51dc:	7ff00693          	li	a3,2047
    51e0:	02d81063          	bne	a6,a3,5200 <__adddf3+0xc0>
    51e4:	7ff00493          	li	s1,2047
    51e8:	20c0006f          	j	53f4 <__adddf3+0x2b4>
    51ec:	7ff00693          	li	a3,2047
    51f0:	20d48263          	beq	s1,a3,53f4 <__adddf3+0x2b4>
    51f4:	008006b7          	lui	a3,0x800
    51f8:	00d76733          	or	a4,a4,a3
    51fc:	00080593          	mv	a1,a6
    5200:	03800693          	li	a3,56
    5204:	0ab6ca63          	blt	a3,a1,52b8 <__adddf3+0x178>
    5208:	01f00693          	li	a3,31
    520c:	06b6cc63          	blt	a3,a1,5284 <__adddf3+0x144>
    5210:	02000813          	li	a6,32
    5214:	40b80833          	sub	a6,a6,a1
    5218:	010716b3          	sll	a3,a4,a6
    521c:	00b658b3          	srl	a7,a2,a1
    5220:	01061633          	sll	a2,a2,a6
    5224:	0116e6b3          	or	a3,a3,a7
    5228:	00c03633          	snez	a2,a2
    522c:	00c6e633          	or	a2,a3,a2
    5230:	00b75733          	srl	a4,a4,a1
    5234:	00a60633          	add	a2,a2,a0
    5238:	00f70733          	add	a4,a4,a5
    523c:	00a637b3          	sltu	a5,a2,a0
    5240:	00f707b3          	add	a5,a4,a5
    5244:	00060513          	mv	a0,a2
    5248:	00879713          	slli	a4,a5,0x8
    524c:	1a075463          	bgez	a4,53f4 <__adddf3+0x2b4>
    5250:	00148493          	addi	s1,s1,1 # 80000001 <_impure_ptr+0x7fff2bb9>
    5254:	7ff00713          	li	a4,2047
    5258:	5ce48463          	beq	s1,a4,5820 <__adddf3+0x6e0>
    525c:	ff8006b7          	lui	a3,0xff800
    5260:	fff68693          	addi	a3,a3,-1 # ff7fffff <_impure_ptr+0xff7f2bb7>
    5264:	00d7f6b3          	and	a3,a5,a3
    5268:	00155593          	srli	a1,a0,0x1
    526c:	00157513          	andi	a0,a0,1
    5270:	01f69793          	slli	a5,a3,0x1f
    5274:	00a5e533          	or	a0,a1,a0
    5278:	00a7e533          	or	a0,a5,a0
    527c:	0016d793          	srli	a5,a3,0x1
    5280:	1740006f          	j	53f4 <__adddf3+0x2b4>
    5284:	fe058693          	addi	a3,a1,-32
    5288:	02000893          	li	a7,32
    528c:	00d756b3          	srl	a3,a4,a3
    5290:	00000813          	li	a6,0
    5294:	01158863          	beq	a1,a7,52a4 <__adddf3+0x164>
    5298:	04000813          	li	a6,64
    529c:	40b805b3          	sub	a1,a6,a1
    52a0:	00b71833          	sll	a6,a4,a1
    52a4:	00c86633          	or	a2,a6,a2
    52a8:	00c03633          	snez	a2,a2
    52ac:	00c6e633          	or	a2,a3,a2
    52b0:	00000713          	li	a4,0
    52b4:	f81ff06f          	j	5234 <__adddf3+0xf4>
    52b8:	00c76633          	or	a2,a4,a2
    52bc:	00c03633          	snez	a2,a2
    52c0:	ff1ff06f          	j	52b0 <__adddf3+0x170>
    52c4:	0e080263          	beqz	a6,53a8 <__adddf3+0x268>
    52c8:	409885b3          	sub	a1,a7,s1
    52cc:	02049e63          	bnez	s1,5308 <__adddf3+0x1c8>
    52d0:	00a7e6b3          	or	a3,a5,a0
    52d4:	52068663          	beqz	a3,5800 <__adddf3+0x6c0>
    52d8:	fff58693          	addi	a3,a1,-1
    52dc:	00069c63          	bnez	a3,52f4 <__adddf3+0x1b4>
    52e0:	00c50533          	add	a0,a0,a2
    52e4:	00e787b3          	add	a5,a5,a4
    52e8:	00c53633          	sltu	a2,a0,a2
    52ec:	00c787b3          	add	a5,a5,a2
    52f0:	ee5ff06f          	j	51d4 <__adddf3+0x94>
    52f4:	7ff00813          	li	a6,2047
    52f8:	03059263          	bne	a1,a6,531c <__adddf3+0x1dc>
    52fc:	00070793          	mv	a5,a4
    5300:	00060513          	mv	a0,a2
    5304:	ee1ff06f          	j	51e4 <__adddf3+0xa4>
    5308:	7ff00693          	li	a3,2047
    530c:	fed888e3          	beq	a7,a3,52fc <__adddf3+0x1bc>
    5310:	008006b7          	lui	a3,0x800
    5314:	00d7e7b3          	or	a5,a5,a3
    5318:	00058693          	mv	a3,a1
    531c:	03800593          	li	a1,56
    5320:	06d5ce63          	blt	a1,a3,539c <__adddf3+0x25c>
    5324:	01f00593          	li	a1,31
    5328:	04d5c063          	blt	a1,a3,5368 <__adddf3+0x228>
    532c:	02000813          	li	a6,32
    5330:	40d80833          	sub	a6,a6,a3
    5334:	00d55333          	srl	t1,a0,a3
    5338:	010795b3          	sll	a1,a5,a6
    533c:	01051533          	sll	a0,a0,a6
    5340:	0065e5b3          	or	a1,a1,t1
    5344:	00a03533          	snez	a0,a0
    5348:	00a5e533          	or	a0,a1,a0
    534c:	00d7d6b3          	srl	a3,a5,a3
    5350:	00c50533          	add	a0,a0,a2
    5354:	00e687b3          	add	a5,a3,a4
    5358:	00c53633          	sltu	a2,a0,a2
    535c:	00c787b3          	add	a5,a5,a2
    5360:	00088493          	mv	s1,a7
    5364:	ee5ff06f          	j	5248 <__adddf3+0x108>
    5368:	fe068593          	addi	a1,a3,-32 # 7fffe0 <_impure_ptr+0x7f2b98>
    536c:	02000313          	li	t1,32
    5370:	00b7d5b3          	srl	a1,a5,a1
    5374:	00000813          	li	a6,0
    5378:	00668863          	beq	a3,t1,5388 <__adddf3+0x248>
    537c:	04000813          	li	a6,64
    5380:	40d806b3          	sub	a3,a6,a3
    5384:	00d79833          	sll	a6,a5,a3
    5388:	00a86533          	or	a0,a6,a0
    538c:	00a03533          	snez	a0,a0
    5390:	00a5e533          	or	a0,a1,a0
    5394:	00000693          	li	a3,0
    5398:	fb9ff06f          	j	5350 <__adddf3+0x210>
    539c:	00a7e533          	or	a0,a5,a0
    53a0:	00a03533          	snez	a0,a0
    53a4:	ff1ff06f          	j	5394 <__adddf3+0x254>
    53a8:	00148693          	addi	a3,s1,1
    53ac:	7fe6f593          	andi	a1,a3,2046
    53b0:	08059663          	bnez	a1,543c <__adddf3+0x2fc>
    53b4:	00a7e6b3          	or	a3,a5,a0
    53b8:	06049263          	bnez	s1,541c <__adddf3+0x2dc>
    53bc:	44068a63          	beqz	a3,5810 <__adddf3+0x6d0>
    53c0:	00c766b3          	or	a3,a4,a2
    53c4:	02068863          	beqz	a3,53f4 <__adddf3+0x2b4>
    53c8:	00c50633          	add	a2,a0,a2
    53cc:	00e787b3          	add	a5,a5,a4
    53d0:	00a63533          	sltu	a0,a2,a0
    53d4:	00a787b3          	add	a5,a5,a0
    53d8:	00879713          	slli	a4,a5,0x8
    53dc:	00060513          	mv	a0,a2
    53e0:	00075a63          	bgez	a4,53f4 <__adddf3+0x2b4>
    53e4:	ff800737          	lui	a4,0xff800
    53e8:	fff70713          	addi	a4,a4,-1 # ff7fffff <_impure_ptr+0xff7f2bb7>
    53ec:	00e7f7b3          	and	a5,a5,a4
    53f0:	00100493          	li	s1,1
    53f4:	00757713          	andi	a4,a0,7
    53f8:	42070863          	beqz	a4,5828 <__adddf3+0x6e8>
    53fc:	00f57713          	andi	a4,a0,15
    5400:	00400693          	li	a3,4
    5404:	42d70263          	beq	a4,a3,5828 <__adddf3+0x6e8>
    5408:	00450693          	addi	a3,a0,4 # 80100004 <_impure_ptr+0x800f2bbc>
    540c:	00a6b533          	sltu	a0,a3,a0
    5410:	00a787b3          	add	a5,a5,a0
    5414:	00068513          	mv	a0,a3
    5418:	4100006f          	j	5828 <__adddf3+0x6e8>
    541c:	ee0680e3          	beqz	a3,52fc <__adddf3+0x1bc>
    5420:	00c76633          	or	a2,a4,a2
    5424:	dc0600e3          	beqz	a2,51e4 <__adddf3+0xa4>
    5428:	00000913          	li	s2,0
    542c:	004007b7          	lui	a5,0x400
    5430:	00000513          	li	a0,0
    5434:	7ff00493          	li	s1,2047
    5438:	3f00006f          	j	5828 <__adddf3+0x6e8>
    543c:	7ff00593          	li	a1,2047
    5440:	3cb68e63          	beq	a3,a1,581c <__adddf3+0x6dc>
    5444:	00c50633          	add	a2,a0,a2
    5448:	00e78733          	add	a4,a5,a4
    544c:	00a637b3          	sltu	a5,a2,a0
    5450:	00f70733          	add	a4,a4,a5
    5454:	01f71513          	slli	a0,a4,0x1f
    5458:	00165613          	srli	a2,a2,0x1
    545c:	00c56533          	or	a0,a0,a2
    5460:	00175793          	srli	a5,a4,0x1
    5464:	00068493          	mv	s1,a3
    5468:	f8dff06f          	j	53f4 <__adddf3+0x2b4>
    546c:	0f005c63          	blez	a6,5564 <__adddf3+0x424>
    5470:	08089e63          	bnez	a7,550c <__adddf3+0x3cc>
    5474:	00c766b3          	or	a3,a4,a2
    5478:	42068e63          	beqz	a3,58b4 <__adddf3+0x774>
    547c:	fff80593          	addi	a1,a6,-1
    5480:	02059063          	bnez	a1,54a0 <__adddf3+0x360>
    5484:	40c50633          	sub	a2,a0,a2
    5488:	00c53533          	sltu	a0,a0,a2
    548c:	40e787b3          	sub	a5,a5,a4
    5490:	40a787b3          	sub	a5,a5,a0
    5494:	00060513          	mv	a0,a2
    5498:	00100493          	li	s1,1
    549c:	0540006f          	j	54f0 <__adddf3+0x3b0>
    54a0:	7ff00693          	li	a3,2047
    54a4:	d4d800e3          	beq	a6,a3,51e4 <__adddf3+0xa4>
    54a8:	03800693          	li	a3,56
    54ac:	0ab6c663          	blt	a3,a1,5558 <__adddf3+0x418>
    54b0:	01f00693          	li	a3,31
    54b4:	06b6c863          	blt	a3,a1,5524 <__adddf3+0x3e4>
    54b8:	02000813          	li	a6,32
    54bc:	40b80833          	sub	a6,a6,a1
    54c0:	010716b3          	sll	a3,a4,a6
    54c4:	00b658b3          	srl	a7,a2,a1
    54c8:	01061633          	sll	a2,a2,a6
    54cc:	0116e6b3          	or	a3,a3,a7
    54d0:	00c03633          	snez	a2,a2
    54d4:	00c6e633          	or	a2,a3,a2
    54d8:	00b75733          	srl	a4,a4,a1
    54dc:	40c50633          	sub	a2,a0,a2
    54e0:	40e78733          	sub	a4,a5,a4
    54e4:	00c537b3          	sltu	a5,a0,a2
    54e8:	40f707b3          	sub	a5,a4,a5
    54ec:	00060513          	mv	a0,a2
    54f0:	00879713          	slli	a4,a5,0x8
    54f4:	f00750e3          	bgez	a4,53f4 <__adddf3+0x2b4>
    54f8:	00800437          	lui	s0,0x800
    54fc:	fff40413          	addi	s0,s0,-1 # 7fffff <_impure_ptr+0x7f2bb7>
    5500:	0087f433          	and	s0,a5,s0
    5504:	00050993          	mv	s3,a0
    5508:	20c0006f          	j	5714 <__adddf3+0x5d4>
    550c:	7ff00693          	li	a3,2047
    5510:	eed482e3          	beq	s1,a3,53f4 <__adddf3+0x2b4>
    5514:	008006b7          	lui	a3,0x800
    5518:	00d76733          	or	a4,a4,a3
    551c:	00080593          	mv	a1,a6
    5520:	f89ff06f          	j	54a8 <__adddf3+0x368>
    5524:	fe058693          	addi	a3,a1,-32
    5528:	02000893          	li	a7,32
    552c:	00d756b3          	srl	a3,a4,a3
    5530:	00000813          	li	a6,0
    5534:	01158863          	beq	a1,a7,5544 <__adddf3+0x404>
    5538:	04000813          	li	a6,64
    553c:	40b805b3          	sub	a1,a6,a1
    5540:	00b71833          	sll	a6,a4,a1
    5544:	00c86633          	or	a2,a6,a2
    5548:	00c03633          	snez	a2,a2
    554c:	00c6e633          	or	a2,a3,a2
    5550:	00000713          	li	a4,0
    5554:	f89ff06f          	j	54dc <__adddf3+0x39c>
    5558:	00c76633          	or	a2,a4,a2
    555c:	00c03633          	snez	a2,a2
    5560:	ff1ff06f          	j	5550 <__adddf3+0x410>
    5564:	0e080863          	beqz	a6,5654 <__adddf3+0x514>
    5568:	40988833          	sub	a6,a7,s1
    556c:	04049263          	bnez	s1,55b0 <__adddf3+0x470>
    5570:	00a7e5b3          	or	a1,a5,a0
    5574:	34058463          	beqz	a1,58bc <__adddf3+0x77c>
    5578:	fff80593          	addi	a1,a6,-1
    557c:	00059e63          	bnez	a1,5598 <__adddf3+0x458>
    5580:	40a60533          	sub	a0,a2,a0
    5584:	40f707b3          	sub	a5,a4,a5
    5588:	00a63633          	sltu	a2,a2,a0
    558c:	40c787b3          	sub	a5,a5,a2
    5590:	00068913          	mv	s2,a3
    5594:	f05ff06f          	j	5498 <__adddf3+0x358>
    5598:	7ff00313          	li	t1,2047
    559c:	02681463          	bne	a6,t1,55c4 <__adddf3+0x484>
    55a0:	00070793          	mv	a5,a4
    55a4:	00060513          	mv	a0,a2
    55a8:	7ff00493          	li	s1,2047
    55ac:	0d00006f          	j	567c <__adddf3+0x53c>
    55b0:	7ff00593          	li	a1,2047
    55b4:	feb886e3          	beq	a7,a1,55a0 <__adddf3+0x460>
    55b8:	008005b7          	lui	a1,0x800
    55bc:	00b7e7b3          	or	a5,a5,a1
    55c0:	00080593          	mv	a1,a6
    55c4:	03800813          	li	a6,56
    55c8:	08b84063          	blt	a6,a1,5648 <__adddf3+0x508>
    55cc:	01f00813          	li	a6,31
    55d0:	04b84263          	blt	a6,a1,5614 <__adddf3+0x4d4>
    55d4:	02000313          	li	t1,32
    55d8:	40b30333          	sub	t1,t1,a1
    55dc:	00b55e33          	srl	t3,a0,a1
    55e0:	00679833          	sll	a6,a5,t1
    55e4:	00651533          	sll	a0,a0,t1
    55e8:	01c86833          	or	a6,a6,t3
    55ec:	00a03533          	snez	a0,a0
    55f0:	00a86533          	or	a0,a6,a0
    55f4:	00b7d5b3          	srl	a1,a5,a1
    55f8:	40a60533          	sub	a0,a2,a0
    55fc:	40b707b3          	sub	a5,a4,a1
    5600:	00a63633          	sltu	a2,a2,a0
    5604:	40c787b3          	sub	a5,a5,a2
    5608:	00088493          	mv	s1,a7
    560c:	00068913          	mv	s2,a3
    5610:	ee1ff06f          	j	54f0 <__adddf3+0x3b0>
    5614:	fe058813          	addi	a6,a1,-32 # 7fffe0 <_impure_ptr+0x7f2b98>
    5618:	02000e13          	li	t3,32
    561c:	0107d833          	srl	a6,a5,a6
    5620:	00000313          	li	t1,0
    5624:	01c58863          	beq	a1,t3,5634 <__adddf3+0x4f4>
    5628:	04000313          	li	t1,64
    562c:	40b305b3          	sub	a1,t1,a1
    5630:	00b79333          	sll	t1,a5,a1
    5634:	00a36533          	or	a0,t1,a0
    5638:	00a03533          	snez	a0,a0
    563c:	00a86533          	or	a0,a6,a0
    5640:	00000593          	li	a1,0
    5644:	fb5ff06f          	j	55f8 <__adddf3+0x4b8>
    5648:	00a7e533          	or	a0,a5,a0
    564c:	00a03533          	snez	a0,a0
    5650:	ff1ff06f          	j	5640 <__adddf3+0x500>
    5654:	00148593          	addi	a1,s1,1
    5658:	7fe5f593          	andi	a1,a1,2046
    565c:	08059663          	bnez	a1,56e8 <__adddf3+0x5a8>
    5660:	00a7e833          	or	a6,a5,a0
    5664:	00c765b3          	or	a1,a4,a2
    5668:	06049063          	bnez	s1,56c8 <__adddf3+0x588>
    566c:	00081c63          	bnez	a6,5684 <__adddf3+0x544>
    5670:	24058e63          	beqz	a1,58cc <__adddf3+0x78c>
    5674:	00070793          	mv	a5,a4
    5678:	00060513          	mv	a0,a2
    567c:	00068913          	mv	s2,a3
    5680:	d75ff06f          	j	53f4 <__adddf3+0x2b4>
    5684:	d60588e3          	beqz	a1,53f4 <__adddf3+0x2b4>
    5688:	40c50833          	sub	a6,a0,a2
    568c:	010538b3          	sltu	a7,a0,a6
    5690:	40e785b3          	sub	a1,a5,a4
    5694:	411585b3          	sub	a1,a1,a7
    5698:	00859893          	slli	a7,a1,0x8
    569c:	0008dc63          	bgez	a7,56b4 <__adddf3+0x574>
    56a0:	40a60533          	sub	a0,a2,a0
