
bd/src/matmult-int/matmult-int:     file format elf32-littleriscv


Disassembly of section .init:

00000000 <_start>:
   0:	00000013          	nop
   4:	00000033          	add	zero,zero,zero
   8:	000000b3          	add	ra,zero,zero
   c:	00000133          	add	sp,zero,zero
  10:	000001b3          	add	gp,zero,zero
  14:	00000233          	add	tp,zero,zero
  18:	000002b3          	add	t0,zero,zero
  1c:	00000333          	add	t1,zero,zero
  20:	000003b3          	add	t2,zero,zero
  24:	00000433          	add	s0,zero,zero
  28:	000004b3          	add	s1,zero,zero
  2c:	00000533          	add	a0,zero,zero
  30:	000005b3          	add	a1,zero,zero
  34:	00000633          	add	a2,zero,zero
  38:	000006b3          	add	a3,zero,zero
  3c:	00000733          	add	a4,zero,zero
  40:	000007b3          	add	a5,zero,zero
  44:	00000833          	add	a6,zero,zero
  48:	000008b3          	add	a7,zero,zero
  4c:	00000933          	add	s2,zero,zero
  50:	000009b3          	add	s3,zero,zero
  54:	00000a33          	add	s4,zero,zero
  58:	00000ab3          	add	s5,zero,zero
  5c:	00000b33          	add	s6,zero,zero
  60:	00000bb3          	add	s7,zero,zero
  64:	00000c33          	add	s8,zero,zero
  68:	00000cb3          	add	s9,zero,zero
  6c:	00000d33          	add	s10,zero,zero
  70:	00000db3          	add	s11,zero,zero
  74:	00000e33          	add	t3,zero,zero
  78:	00000eb3          	add	t4,zero,zero
  7c:	00000f33          	add	t5,zero,zero
  80:	00000fb3          	add	t6,zero,zero
  84:	00010137          	lui	sp,0x10
  88:	17d0006f          	j	a04 <main>
  8c:	00000013          	nop

Disassembly of section .text:

00000090 <values_match>:
  90:	40b50533          	sub	a0,a0,a1
  94:	00153513          	seqz	a0,a0
  98:	00008067          	ret

0000009c <InitSeed>:
  9c:	000017b7          	lui	a5,0x1
  a0:	0c07a623          	sw	zero,204(a5) # 10cc <Seed>
  a4:	00008067          	ret

000000a8 <RandomInteger>:
  a8:	ff010113          	addi	sp,sp,-16 # fff0 <TOHOST_ADDR+0xcfd0>
  ac:	00812423          	sw	s0,8(sp)
  b0:	00001437          	lui	s0,0x1
  b4:	0cc42783          	lw	a5,204(s0) # 10cc <Seed>
  b8:	000025b7          	lui	a1,0x2
  bc:	f9f58593          	addi	a1,a1,-97 # 1f9f <ArrayB+0x24f>
  c0:	00579513          	slli	a0,a5,0x5
  c4:	00f50533          	add	a0,a0,a5
  c8:	00251513          	slli	a0,a0,0x2
  cc:	00f50533          	add	a0,a0,a5
  d0:	05150513          	addi	a0,a0,81
  d4:	00112623          	sw	ra,12(sp)
  d8:	798000ef          	jal	ra,870 <__modsi3>
  dc:	0ca42623          	sw	a0,204(s0)
  e0:	00c12083          	lw	ra,12(sp)
  e4:	00812403          	lw	s0,8(sp)
  e8:	01010113          	addi	sp,sp,16
  ec:	00008067          	ret

000000f0 <Multiply>:
  f0:	fd010113          	addi	sp,sp,-48
  f4:	01512a23          	sw	s5,20(sp)
  f8:	01612823          	sw	s6,16(sp)
  fc:	01712623          	sw	s7,12(sp)
 100:	01812423          	sw	s8,8(sp)
 104:	01912223          	sw	s9,4(sp)
 108:	02112623          	sw	ra,44(sp)
 10c:	02812423          	sw	s0,40(sp)
 110:	02912223          	sw	s1,36(sp)
 114:	03212023          	sw	s2,32(sp)
 118:	01312e23          	sw	s3,28(sp)
 11c:	01412c23          	sw	s4,24(sp)
 120:	00050a93          	mv	s5,a0
 124:	00060b93          	mv	s7,a2
 128:	64050c93          	addi	s9,a0,1600
 12c:	64058c13          	addi	s8,a1,1600
 130:	69058b13          	addi	s6,a1,1680
 134:	000c0a13          	mv	s4,s8
 138:	000b8993          	mv	s3,s7
 13c:	0009a023          	sw	zero,0(s3)
 140:	9c0a0413          	addi	s0,s4,-1600
 144:	000a8913          	mv	s2,s5
 148:	00000493          	li	s1,0
 14c:	00042583          	lw	a1,0(s0)
 150:	00092503          	lw	a0,0(s2)
 154:	05040413          	addi	s0,s0,80
 158:	00490913          	addi	s2,s2,4
 15c:	66c000ef          	jal	ra,7c8 <__mulsi3>
 160:	00a484b3          	add	s1,s1,a0
 164:	0099a023          	sw	s1,0(s3)
 168:	ff4412e3          	bne	s0,s4,14c <Multiply+0x5c>
 16c:	00440a13          	addi	s4,s0,4
 170:	00498993          	addi	s3,s3,4
 174:	fd4b14e3          	bne	s6,s4,13c <Multiply+0x4c>
 178:	050a8a93          	addi	s5,s5,80
 17c:	050b8b93          	addi	s7,s7,80
 180:	fb9a9ae3          	bne	s5,s9,134 <Multiply+0x44>
 184:	02c12083          	lw	ra,44(sp)
 188:	02812403          	lw	s0,40(sp)
 18c:	02412483          	lw	s1,36(sp)
 190:	02012903          	lw	s2,32(sp)
 194:	01c12983          	lw	s3,28(sp)
 198:	01812a03          	lw	s4,24(sp)
 19c:	01412a83          	lw	s5,20(sp)
 1a0:	01012b03          	lw	s6,16(sp)
 1a4:	00c12b83          	lw	s7,12(sp)
 1a8:	00812c03          	lw	s8,8(sp)
 1ac:	00412c83          	lw	s9,4(sp)
 1b0:	03010113          	addi	sp,sp,48
 1b4:	00008067          	ret

000001b8 <Test>:
 1b8:	f39ff06f          	j	f0 <Multiply>

000001bc <benchmark_body>:
 1bc:	12a05863          	blez	a0,2ec <benchmark_body+0x130>
 1c0:	fd010113          	addi	sp,sp,-48
 1c4:	02912223          	sw	s1,36(sp)
 1c8:	03212023          	sw	s2,32(sp)
 1cc:	01312e23          	sw	s3,28(sp)
 1d0:	01412c23          	sw	s4,24(sp)
 1d4:	01512a23          	sw	s5,20(sp)
 1d8:	01612823          	sw	s6,16(sp)
 1dc:	00002ab7          	lui	s5,0x2
 1e0:	00003b37          	lui	s6,0x3
 1e4:	00002a37          	lui	s4,0x2
 1e8:	00003937          	lui	s2,0x3
 1ec:	000019b7          	lui	s3,0x1
 1f0:	000014b7          	lui	s1,0x1
 1f4:	02812423          	sw	s0,40(sp)
 1f8:	01712623          	sw	s7,12(sp)
 1fc:	01812423          	sw	s8,8(sp)
 200:	01912223          	sw	s9,4(sp)
 204:	01a12023          	sw	s10,0(sp)
 208:	02112623          	sw	ra,44(sp)
 20c:	00050413          	mv	s0,a0
 210:	00000d13          	li	s10,0
 214:	390a0a13          	addi	s4,s4,912 # 2390 <ArrayA_ref>
 218:	9d0b0c93          	addi	s9,s6,-1584 # 29d0 <ArrayA>
 21c:	9d090913          	addi	s2,s2,-1584 # 29d0 <ArrayA>
 220:	0d098993          	addi	s3,s3,208 # 10d0 <ArrayB_ref>
 224:	d50a8c13          	addi	s8,s5,-688 # 1d50 <ArrayB>
 228:	71048493          	addi	s1,s1,1808 # 1710 <ResultArray>
 22c:	00001bb7          	lui	s7,0x1
 230:	000a0793          	mv	a5,s4
 234:	000c8713          	mv	a4,s9
 238:	0007a503          	lw	a0,0(a5)
 23c:	0047a583          	lw	a1,4(a5)
 240:	0087a603          	lw	a2,8(a5)
 244:	00c7a683          	lw	a3,12(a5)
 248:	00a72023          	sw	a0,0(a4)
 24c:	00b72223          	sw	a1,4(a4)
 250:	00c72423          	sw	a2,8(a4)
 254:	00d72623          	sw	a3,12(a4)
 258:	01078793          	addi	a5,a5,16
 25c:	01070713          	addi	a4,a4,16
 260:	fd279ce3          	bne	a5,s2,238 <benchmark_body+0x7c>
 264:	00098793          	mv	a5,s3
 268:	000c0713          	mv	a4,s8
 26c:	0007a503          	lw	a0,0(a5)
 270:	0047a583          	lw	a1,4(a5)
 274:	0087a603          	lw	a2,8(a5)
 278:	00c7a683          	lw	a3,12(a5)
 27c:	00a72023          	sw	a0,0(a4)
 280:	00b72223          	sw	a1,4(a4)
 284:	00c72423          	sw	a2,8(a4)
 288:	00d72623          	sw	a3,12(a4)
 28c:	01078793          	addi	a5,a5,16
 290:	01070713          	addi	a4,a4,16
 294:	fc979ce3          	bne	a5,s1,26c <benchmark_body+0xb0>
 298:	001d0d13          	addi	s10,s10,1
 29c:	710b8613          	addi	a2,s7,1808 # 1710 <ResultArray>
 2a0:	d50a8593          	addi	a1,s5,-688
 2a4:	9d0b0513          	addi	a0,s6,-1584
 2a8:	e49ff0ef          	jal	ra,f0 <Multiply>
 2ac:	f9a412e3          	bne	s0,s10,230 <benchmark_body+0x74>
 2b0:	02c12083          	lw	ra,44(sp)
 2b4:	02812403          	lw	s0,40(sp)
 2b8:	02412483          	lw	s1,36(sp)
 2bc:	02012903          	lw	s2,32(sp)
 2c0:	01c12983          	lw	s3,28(sp)
 2c4:	01812a03          	lw	s4,24(sp)
 2c8:	01412a83          	lw	s5,20(sp)
 2cc:	01012b03          	lw	s6,16(sp)
 2d0:	00c12b83          	lw	s7,12(sp)
 2d4:	00812c03          	lw	s8,8(sp)
 2d8:	00412c83          	lw	s9,4(sp)
 2dc:	00012d03          	lw	s10,0(sp)
 2e0:	00000513          	li	a0,0
 2e4:	03010113          	addi	sp,sp,48
 2e8:	00008067          	ret
 2ec:	00000513          	li	a0,0
 2f0:	00008067          	ret

000002f4 <warm_caches>:
 2f4:	ec9ff06f          	j	1bc <benchmark_body>

000002f8 <benchmark>:
 2f8:	00001537          	lui	a0,0x1
 2fc:	25c50513          	addi	a0,a0,604 # 125c <ArrayB_ref+0x18c>
 300:	ebdff06f          	j	1bc <benchmark_body>

00000304 <initialise_benchmark>:
 304:	fe010113          	addi	sp,sp,-32
 308:	01412423          	sw	s4,8(sp)
 30c:	00002a37          	lui	s4,0x2
 310:	390a0a13          	addi	s4,s4,912 # 2390 <ArrayA_ref>
 314:	00912a23          	sw	s1,20(sp)
 318:	01312623          	sw	s3,12(sp)
 31c:	000014b7          	lui	s1,0x1
 320:	000029b7          	lui	s3,0x2
 324:	01212823          	sw	s2,16(sp)
 328:	00112e23          	sw	ra,28(sp)
 32c:	050a0913          	addi	s2,s4,80
 330:	00812c23          	sw	s0,24(sp)
 334:	0c04a623          	sw	zero,204(s1) # 10cc <Seed>
 338:	690a0a13          	addi	s4,s4,1680
 33c:	00000513          	li	a0,0
 340:	f9f98993          	addi	s3,s3,-97 # 1f9f <ArrayB+0x24f>
 344:	fb090413          	addi	s0,s2,-80
 348:	00551793          	slli	a5,a0,0x5
 34c:	00a787b3          	add	a5,a5,a0
 350:	00279793          	slli	a5,a5,0x2
 354:	00a78533          	add	a0,a5,a0
 358:	00098593          	mv	a1,s3
 35c:	05150513          	addi	a0,a0,81
 360:	510000ef          	jal	ra,870 <__modsi3>
 364:	00a42023          	sw	a0,0(s0)
 368:	00440413          	addi	s0,s0,4
 36c:	fd241ee3          	bne	s0,s2,348 <initialise_benchmark+0x44>
 370:	05040913          	addi	s2,s0,80
 374:	fd4918e3          	bne	s2,s4,344 <initialise_benchmark+0x40>
 378:	00001a37          	lui	s4,0x1
 37c:	0d0a0a13          	addi	s4,s4,208 # 10d0 <ArrayB_ref>
 380:	000029b7          	lui	s3,0x2
 384:	050a0913          	addi	s2,s4,80
 388:	0ca4a623          	sw	a0,204(s1)
 38c:	690a0a13          	addi	s4,s4,1680
 390:	f9f98993          	addi	s3,s3,-97 # 1f9f <ArrayB+0x24f>
 394:	fb090413          	addi	s0,s2,-80
 398:	00551793          	slli	a5,a0,0x5
 39c:	00a787b3          	add	a5,a5,a0
 3a0:	00279793          	slli	a5,a5,0x2
 3a4:	00a78533          	add	a0,a5,a0
 3a8:	00098593          	mv	a1,s3
 3ac:	05150513          	addi	a0,a0,81
 3b0:	4c0000ef          	jal	ra,870 <__modsi3>
 3b4:	00a42023          	sw	a0,0(s0)
 3b8:	00440413          	addi	s0,s0,4
 3bc:	fd241ee3          	bne	s0,s2,398 <initialise_benchmark+0x94>
 3c0:	05040913          	addi	s2,s0,80
 3c4:	fd2a18e3          	bne	s4,s2,394 <initialise_benchmark+0x90>
 3c8:	01c12083          	lw	ra,28(sp)
 3cc:	01812403          	lw	s0,24(sp)
 3d0:	0ca4a623          	sw	a0,204(s1)
 3d4:	01012903          	lw	s2,16(sp)
 3d8:	01412483          	lw	s1,20(sp)
 3dc:	00c12983          	lw	s3,12(sp)
 3e0:	00812a03          	lw	s4,8(sp)
 3e4:	02010113          	addi	sp,sp,32
 3e8:	00008067          	ret

000003ec <verify_benchmark>:
 3ec:	000017b7          	lui	a5,0x1
 3f0:	9b010113          	addi	sp,sp,-1616
 3f4:	a7478793          	addi	a5,a5,-1420 # a74 <main+0x70>
 3f8:	64112623          	sw	ra,1612(sp)
 3fc:	00010713          	mv	a4,sp
 400:	64078693          	addi	a3,a5,1600
 404:	0007a803          	lw	a6,0(a5)
 408:	0047a503          	lw	a0,4(a5)
 40c:	0087a583          	lw	a1,8(a5)
 410:	00c7a603          	lw	a2,12(a5)
 414:	01072023          	sw	a6,0(a4)
 418:	00a72223          	sw	a0,4(a4)
 41c:	00b72423          	sw	a1,8(a4)
 420:	00c72623          	sw	a2,12(a4)
 424:	01078793          	addi	a5,a5,16
 428:	01070713          	addi	a4,a4,16
 42c:	fcd79ce3          	bne	a5,a3,404 <verify_benchmark+0x18>
 430:	00001537          	lui	a0,0x1
 434:	00010593          	mv	a1,sp
 438:	64000613          	li	a2,1600
 43c:	71050513          	addi	a0,a0,1808 # 1710 <ResultArray>
 440:	460000ef          	jal	ra,8a0 <memcmp>
 444:	64c12083          	lw	ra,1612(sp)
 448:	00153513          	seqz	a0,a0
 44c:	65010113          	addi	sp,sp,1616
 450:	00008067          	ret

00000454 <initialise_board>:
 454:	00000513          	li	a0,0
 458:	00008067          	ret

0000045c <start_trigger>:
 45c:	00000513          	li	a0,0
 460:	00008067          	ret

00000464 <stop_trigger>:
 464:	00000513          	li	a0,0
 468:	00008067          	ret

0000046c <rand_beebs>:
 46c:	000036b7          	lui	a3,0x3
 470:	01c6a703          	lw	a4,28(a3) # 301c <seed>
 474:	00871793          	slli	a5,a4,0x8
 478:	40e787b3          	sub	a5,a5,a4
 47c:	00379793          	slli	a5,a5,0x3
 480:	00e787b3          	add	a5,a5,a4
 484:	00779793          	slli	a5,a5,0x7
 488:	00e787b3          	add	a5,a5,a4
 48c:	00379793          	slli	a5,a5,0x3
 490:	40e787b3          	sub	a5,a5,a4
 494:	00579513          	slli	a0,a5,0x5
 498:	00a78533          	add	a0,a5,a0
 49c:	00251513          	slli	a0,a0,0x2
 4a0:	40e50533          	sub	a0,a0,a4
 4a4:	00251513          	slli	a0,a0,0x2
 4a8:	000037b7          	lui	a5,0x3
 4ac:	00e50533          	add	a0,a0,a4
 4b0:	03978793          	addi	a5,a5,57 # 3039 <TOHOST_ADDR+0x19>
 4b4:	00f50533          	add	a0,a0,a5
 4b8:	00151513          	slli	a0,a0,0x1
 4bc:	00155513          	srli	a0,a0,0x1
 4c0:	00a6ae23          	sw	a0,28(a3)
 4c4:	01055513          	srli	a0,a0,0x10
 4c8:	00008067          	ret

000004cc <srand_beebs>:
 4cc:	000037b7          	lui	a5,0x3
 4d0:	00a7ae23          	sw	a0,28(a5) # 301c <seed>
 4d4:	00008067          	ret

000004d8 <init_heap_beebs>:
 4d8:	000037b7          	lui	a5,0x3
 4dc:	00b505b3          	add	a1,a0,a1
 4e0:	00a7ac23          	sw	a0,24(a5) # 3018 <heap_ptr>
 4e4:	000037b7          	lui	a5,0x3
 4e8:	00b7aa23          	sw	a1,20(a5) # 3014 <heap_end>
 4ec:	000037b7          	lui	a5,0x3
 4f0:	0007a823          	sw	zero,16(a5) # 3010 <heap_requested>
 4f4:	00008067          	ret

000004f8 <check_heap_beebs>:
 4f8:	000037b7          	lui	a5,0x3
 4fc:	0107a703          	lw	a4,16(a5) # 3010 <heap_requested>
 500:	000037b7          	lui	a5,0x3
 504:	0147a783          	lw	a5,20(a5) # 3014 <heap_end>
 508:	00e50533          	add	a0,a0,a4
 50c:	00a7b533          	sltu	a0,a5,a0
 510:	00154513          	xori	a0,a0,1
 514:	00008067          	ret

00000518 <malloc_beebs>:
 518:	000036b7          	lui	a3,0x3
 51c:	0106a783          	lw	a5,16(a3) # 3010 <heap_requested>
 520:	00003637          	lui	a2,0x3
 524:	01862703          	lw	a4,24(a2) # 3018 <heap_ptr>
 528:	000035b7          	lui	a1,0x3
 52c:	0145a583          	lw	a1,20(a1) # 3014 <heap_end>
 530:	00a787b3          	add	a5,a5,a0
 534:	00f6a823          	sw	a5,16(a3)
 538:	00a707b3          	add	a5,a4,a0
 53c:	00f5ea63          	bltu	a1,a5,550 <malloc_beebs+0x38>
 540:	00050863          	beqz	a0,550 <malloc_beebs+0x38>
 544:	00f62c23          	sw	a5,24(a2)
 548:	00070513          	mv	a0,a4
 54c:	00008067          	ret
 550:	00000713          	li	a4,0
 554:	00070513          	mv	a0,a4
 558:	00008067          	ret

0000055c <calloc_beebs>:
 55c:	ff010113          	addi	sp,sp,-16
 560:	00112623          	sw	ra,12(sp)
 564:	264000ef          	jal	ra,7c8 <__mulsi3>
 568:	000036b7          	lui	a3,0x3
 56c:	0106a703          	lw	a4,16(a3) # 3010 <heap_requested>
 570:	00003637          	lui	a2,0x3
 574:	01862783          	lw	a5,24(a2) # 3018 <heap_ptr>
 578:	000035b7          	lui	a1,0x3
 57c:	0145a583          	lw	a1,20(a1) # 3014 <heap_end>
 580:	00a70733          	add	a4,a4,a0
 584:	00e6a823          	sw	a4,16(a3)
 588:	00a78733          	add	a4,a5,a0
 58c:	02e5ea63          	bltu	a1,a4,5c0 <calloc_beebs+0x64>
 590:	02050863          	beqz	a0,5c0 <calloc_beebs+0x64>
 594:	00e62c23          	sw	a4,24(a2)
 598:	00078c63          	beqz	a5,5b0 <calloc_beebs+0x54>
 59c:	00050613          	mv	a2,a0
 5a0:	00000593          	li	a1,0
 5a4:	00078513          	mv	a0,a5
 5a8:	380000ef          	jal	ra,928 <memset>
 5ac:	00050793          	mv	a5,a0
 5b0:	00c12083          	lw	ra,12(sp)
 5b4:	00078513          	mv	a0,a5
 5b8:	01010113          	addi	sp,sp,16
 5bc:	00008067          	ret
 5c0:	00c12083          	lw	ra,12(sp)
 5c4:	00000793          	li	a5,0
 5c8:	00078513          	mv	a0,a5
 5cc:	01010113          	addi	sp,sp,16
 5d0:	00008067          	ret

000005d4 <realloc_beebs>:
 5d4:	00003737          	lui	a4,0x3
 5d8:	01072783          	lw	a5,16(a4) # 3010 <heap_requested>
 5dc:	00003637          	lui	a2,0x3
 5e0:	01862683          	lw	a3,24(a2) # 3018 <heap_ptr>
 5e4:	00003837          	lui	a6,0x3
 5e8:	01482803          	lw	a6,20(a6) # 3014 <heap_end>
 5ec:	00b787b3          	add	a5,a5,a1
 5f0:	00f72823          	sw	a5,16(a4)
 5f4:	00b687b3          	add	a5,a3,a1
 5f8:	02f86a63          	bltu	a6,a5,62c <realloc_beebs+0x58>
 5fc:	02058863          	beqz	a1,62c <realloc_beebs+0x58>
 600:	00f62c23          	sw	a5,24(a2)
 604:	02050063          	beqz	a0,624 <realloc_beebs+0x50>
 608:	00068793          	mv	a5,a3
 60c:	00b505b3          	add	a1,a0,a1
 610:	00054703          	lbu	a4,0(a0)
 614:	00178793          	addi	a5,a5,1
 618:	00150513          	addi	a0,a0,1
 61c:	fee78fa3          	sb	a4,-1(a5)
 620:	feb518e3          	bne	a0,a1,610 <realloc_beebs+0x3c>
 624:	00068513          	mv	a0,a3
 628:	00008067          	ret
 62c:	00000693          	li	a3,0
 630:	00068513          	mv	a0,a3
 634:	00008067          	ret

00000638 <free_beebs>:
 638:	00008067          	ret

0000063c <simrv_exit>:
 63c:	000037b7          	lui	a5,0x3
 640:	0207a783          	lw	a5,32(a5) # 3020 <TOHOST_ADDR>
 644:	00020737          	lui	a4,0x20
 648:	00e7a023          	sw	a4,0(a5)
 64c:	0000006f          	j	64c <simrv_exit+0x10>

00000650 <simrv_putc>:
 650:	000037b7          	lui	a5,0x3
 654:	0207a703          	lw	a4,32(a5) # 3020 <TOHOST_ADDR>
 658:	000107b7          	lui	a5,0x10
 65c:	00f56533          	or	a0,a0,a5
 660:	00a72023          	sw	a0,0(a4) # 20000 <TOHOST_ADDR+0x1cfe0>
 664:	00008067          	ret

00000668 <simrv_puts>:
 668:	00054783          	lbu	a5,0(a0)
 66c:	02078263          	beqz	a5,690 <simrv_puts+0x28>
 670:	00003737          	lui	a4,0x3
 674:	02072683          	lw	a3,32(a4) # 3020 <TOHOST_ADDR>
 678:	00010737          	lui	a4,0x10
 67c:	00e7e7b3          	or	a5,a5,a4
 680:	00f6a023          	sw	a5,0(a3)
 684:	00150513          	addi	a0,a0,1
 688:	00054783          	lbu	a5,0(a0)
 68c:	fe0798e3          	bnez	a5,67c <simrv_puts+0x14>
 690:	00008067          	ret

00000694 <simrv_puti>:
 694:	fd010113          	addi	sp,sp,-48
 698:	02912223          	sw	s1,36(sp)
 69c:	03212023          	sw	s2,32(sp)
 6a0:	01412c23          	sw	s4,24(sp)
 6a4:	02112623          	sw	ra,44(sp)
 6a8:	02812423          	sw	s0,40(sp)
 6ac:	01312e23          	sw	s3,28(sp)
 6b0:	00050913          	mv	s2,a0
 6b4:	00000493          	li	s1,0
 6b8:	00410a13          	addi	s4,sp,4
 6bc:	0080006f          	j	6c4 <simrv_puti+0x30>
 6c0:	00098493          	mv	s1,s3
 6c4:	00a00593          	li	a1,10
 6c8:	00090513          	mv	a0,s2
 6cc:	1a4000ef          	jal	ra,870 <__modsi3>
 6d0:	03050513          	addi	a0,a0,48
 6d4:	00148993          	addi	s3,s1,1
 6d8:	0ff57413          	andi	s0,a0,255
 6dc:	013a07b3          	add	a5,s4,s3
 6e0:	00090513          	mv	a0,s2
 6e4:	00a00593          	li	a1,10
 6e8:	fe878fa3          	sb	s0,-1(a5) # ffff <TOHOST_ADDR+0xcfdf>
 6ec:	100000ef          	jal	ra,7ec <__divsi3>
 6f0:	00050913          	mv	s2,a0
 6f4:	fc0516e3          	bnez	a0,6c0 <simrv_puti+0x2c>
 6f8:	000037b7          	lui	a5,0x3
 6fc:	0207a603          	lw	a2,32(a5) # 3020 <TOHOST_ADDR>
 700:	000106b7          	lui	a3,0x10
 704:	009a07b3          	add	a5,s4,s1
 708:	00c0006f          	j	714 <simrv_puti+0x80>
 70c:	fff7c403          	lbu	s0,-1(a5)
 710:	00070793          	mv	a5,a4
 714:	00d46433          	or	s0,s0,a3
 718:	00862023          	sw	s0,0(a2)
 71c:	fff78713          	addi	a4,a5,-1
 720:	fefa16e3          	bne	s4,a5,70c <simrv_puti+0x78>
 724:	02c12083          	lw	ra,44(sp)
 728:	02812403          	lw	s0,40(sp)
 72c:	02412483          	lw	s1,36(sp)
 730:	02012903          	lw	s2,32(sp)
 734:	01c12983          	lw	s3,28(sp)
 738:	01812a03          	lw	s4,24(sp)
 73c:	03010113          	addi	sp,sp,48
 740:	00008067          	ret

00000744 <simrv_puth>:
 744:	ff010113          	addi	sp,sp,-16
 748:	00000793          	li	a5,0
 74c:	00810593          	addi	a1,sp,8
 750:	00900e13          	li	t3,9
 754:	0140006f          	j	768 <simrv_puth+0x24>
 758:	fe688fa3          	sb	t1,-1(a7)
 75c:	00455513          	srli	a0,a0,0x4
 760:	02050863          	beqz	a0,790 <simrv_puth+0x4c>
 764:	00060793          	mv	a5,a2
 768:	00f57713          	andi	a4,a0,15
 76c:	0ff77693          	andi	a3,a4,255
 770:	00178613          	addi	a2,a5,1
 774:	03068313          	addi	t1,a3,48 # 10030 <TOHOST_ADDR+0xd010>
 778:	00c588b3          	add	a7,a1,a2
 77c:	03768693          	addi	a3,a3,55
 780:	fcee7ce3          	bgeu	t3,a4,758 <simrv_puth+0x14>
 784:	fed88fa3          	sb	a3,-1(a7)
 788:	00455513          	srli	a0,a0,0x4
 78c:	fc051ce3          	bnez	a0,764 <simrv_puth+0x20>
 790:	0207c863          	bltz	a5,7c0 <simrv_puth+0x7c>
 794:	00003737          	lui	a4,0x3
 798:	02072503          	lw	a0,32(a4) # 3020 <TOHOST_ADDR>
 79c:	00f587b3          	add	a5,a1,a5
 7a0:	00010637          	lui	a2,0x10
 7a4:	0080006f          	j	7ac <simrv_puth+0x68>
 7a8:	00068793          	mv	a5,a3
 7ac:	0007c703          	lbu	a4,0(a5)
 7b0:	fff78693          	addi	a3,a5,-1
 7b4:	00c76733          	or	a4,a4,a2
 7b8:	00e52023          	sw	a4,0(a0)
 7bc:	fef596e3          	bne	a1,a5,7a8 <simrv_puth+0x64>
 7c0:	01010113          	addi	sp,sp,16
 7c4:	00008067          	ret

000007c8 <__mulsi3>:
 7c8:	00050613          	mv	a2,a0
 7cc:	00000513          	li	a0,0
 7d0:	0015f693          	andi	a3,a1,1
 7d4:	00068463          	beqz	a3,7dc <__mulsi3+0x14>
 7d8:	00c50533          	add	a0,a0,a2
 7dc:	0015d593          	srli	a1,a1,0x1
 7e0:	00161613          	slli	a2,a2,0x1
 7e4:	fe0596e3          	bnez	a1,7d0 <__mulsi3+0x8>
 7e8:	00008067          	ret

000007ec <__divsi3>:
 7ec:	06054063          	bltz	a0,84c <__umodsi3+0x10>
 7f0:	0605c663          	bltz	a1,85c <__umodsi3+0x20>

000007f4 <__udivsi3>:
 7f4:	00058613          	mv	a2,a1
 7f8:	00050593          	mv	a1,a0
 7fc:	fff00513          	li	a0,-1
 800:	02060c63          	beqz	a2,838 <__udivsi3+0x44>
 804:	00100693          	li	a3,1
 808:	00b67a63          	bgeu	a2,a1,81c <__udivsi3+0x28>
 80c:	00c05863          	blez	a2,81c <__udivsi3+0x28>
 810:	00161613          	slli	a2,a2,0x1
 814:	00169693          	slli	a3,a3,0x1
 818:	feb66ae3          	bltu	a2,a1,80c <__udivsi3+0x18>
 81c:	00000513          	li	a0,0
 820:	00c5e663          	bltu	a1,a2,82c <__udivsi3+0x38>
 824:	40c585b3          	sub	a1,a1,a2
 828:	00d56533          	or	a0,a0,a3
 82c:	0016d693          	srli	a3,a3,0x1
 830:	00165613          	srli	a2,a2,0x1
 834:	fe0696e3          	bnez	a3,820 <__udivsi3+0x2c>
 838:	00008067          	ret

0000083c <__umodsi3>:
 83c:	00008293          	mv	t0,ra
 840:	fb5ff0ef          	jal	ra,7f4 <__udivsi3>
 844:	00058513          	mv	a0,a1
 848:	00028067          	jr	t0
 84c:	40a00533          	neg	a0,a0
 850:	0005d863          	bgez	a1,860 <__umodsi3+0x24>
 854:	40b005b3          	neg	a1,a1
 858:	f9dff06f          	j	7f4 <__udivsi3>
 85c:	40b005b3          	neg	a1,a1
 860:	00008293          	mv	t0,ra
 864:	f91ff0ef          	jal	ra,7f4 <__udivsi3>
 868:	40a00533          	neg	a0,a0
 86c:	00028067          	jr	t0

00000870 <__modsi3>:
 870:	00008293          	mv	t0,ra
 874:	0005ca63          	bltz	a1,888 <__modsi3+0x18>
 878:	00054c63          	bltz	a0,890 <__modsi3+0x20>
 87c:	f79ff0ef          	jal	ra,7f4 <__udivsi3>
 880:	00058513          	mv	a0,a1
 884:	00028067          	jr	t0
 888:	40b005b3          	neg	a1,a1
 88c:	fe0558e3          	bgez	a0,87c <__modsi3+0xc>
 890:	40a00533          	neg	a0,a0
 894:	f61ff0ef          	jal	ra,7f4 <__udivsi3>
 898:	40b00533          	neg	a0,a1
 89c:	00028067          	jr	t0

000008a0 <memcmp>:
 8a0:	00300793          	li	a5,3
 8a4:	02c7f863          	bgeu	a5,a2,8d4 <memcmp+0x34>
 8a8:	00b567b3          	or	a5,a0,a1
 8ac:	0037f793          	andi	a5,a5,3
 8b0:	00300693          	li	a3,3
 8b4:	06079263          	bnez	a5,918 <memcmp+0x78>
 8b8:	00052703          	lw	a4,0(a0)
 8bc:	0005a783          	lw	a5,0(a1)
 8c0:	04f71c63          	bne	a4,a5,918 <memcmp+0x78>
 8c4:	ffc60613          	addi	a2,a2,-4 # fffc <TOHOST_ADDR+0xcfdc>
 8c8:	00450513          	addi	a0,a0,4
 8cc:	00458593          	addi	a1,a1,4
 8d0:	fec6e4e3          	bltu	a3,a2,8b8 <memcmp+0x18>
 8d4:	fff60793          	addi	a5,a2,-1
 8d8:	02060c63          	beqz	a2,910 <memcmp+0x70>
 8dc:	00054703          	lbu	a4,0(a0)
 8e0:	0005c683          	lbu	a3,0(a1)
 8e4:	02d71e63          	bne	a4,a3,920 <memcmp+0x80>
 8e8:	00178713          	addi	a4,a5,1
 8ec:	00150793          	addi	a5,a0,1
 8f0:	00e50533          	add	a0,a0,a4
 8f4:	0140006f          	j	908 <memcmp+0x68>
 8f8:	0007c703          	lbu	a4,0(a5)
 8fc:	0005c683          	lbu	a3,0(a1)
 900:	00178793          	addi	a5,a5,1
 904:	00d71e63          	bne	a4,a3,920 <memcmp+0x80>
 908:	00158593          	addi	a1,a1,1
 90c:	fea796e3          	bne	a5,a0,8f8 <memcmp+0x58>
 910:	00000513          	li	a0,0
 914:	00008067          	ret
 918:	fff60793          	addi	a5,a2,-1
 91c:	fc1ff06f          	j	8dc <memcmp+0x3c>
 920:	40d70533          	sub	a0,a4,a3
 924:	00008067          	ret

00000928 <memset>:
 928:	00f00313          	li	t1,15
 92c:	00050713          	mv	a4,a0
 930:	02c37e63          	bgeu	t1,a2,96c <memset+0x44>
 934:	00f77793          	andi	a5,a4,15
 938:	0a079063          	bnez	a5,9d8 <memset+0xb0>
 93c:	08059263          	bnez	a1,9c0 <memset+0x98>
 940:	ff067693          	andi	a3,a2,-16
 944:	00f67613          	andi	a2,a2,15
 948:	00e686b3          	add	a3,a3,a4
 94c:	00b72023          	sw	a1,0(a4)
 950:	00b72223          	sw	a1,4(a4)
 954:	00b72423          	sw	a1,8(a4)
 958:	00b72623          	sw	a1,12(a4)
 95c:	01070713          	addi	a4,a4,16
 960:	fed766e3          	bltu	a4,a3,94c <memset+0x24>
 964:	00061463          	bnez	a2,96c <memset+0x44>
 968:	00008067          	ret
 96c:	40c306b3          	sub	a3,t1,a2
 970:	00269693          	slli	a3,a3,0x2
 974:	00000297          	auipc	t0,0x0
 978:	005686b3          	add	a3,a3,t0
 97c:	00c68067          	jr	12(a3)
 980:	00b70723          	sb	a1,14(a4)
 984:	00b706a3          	sb	a1,13(a4)
 988:	00b70623          	sb	a1,12(a4)
 98c:	00b705a3          	sb	a1,11(a4)
 990:	00b70523          	sb	a1,10(a4)
 994:	00b704a3          	sb	a1,9(a4)
 998:	00b70423          	sb	a1,8(a4)
 99c:	00b703a3          	sb	a1,7(a4)
 9a0:	00b70323          	sb	a1,6(a4)
 9a4:	00b702a3          	sb	a1,5(a4)
 9a8:	00b70223          	sb	a1,4(a4)
 9ac:	00b701a3          	sb	a1,3(a4)
 9b0:	00b70123          	sb	a1,2(a4)
 9b4:	00b700a3          	sb	a1,1(a4)
 9b8:	00b70023          	sb	a1,0(a4)
 9bc:	00008067          	ret
 9c0:	0ff5f593          	andi	a1,a1,255
 9c4:	00859693          	slli	a3,a1,0x8
 9c8:	00d5e5b3          	or	a1,a1,a3
 9cc:	01059693          	slli	a3,a1,0x10
 9d0:	00d5e5b3          	or	a1,a1,a3
 9d4:	f6dff06f          	j	940 <memset+0x18>
 9d8:	00279693          	slli	a3,a5,0x2
 9dc:	00000297          	auipc	t0,0x0
 9e0:	005686b3          	add	a3,a3,t0
 9e4:	00008293          	mv	t0,ra
 9e8:	fa0680e7          	jalr	-96(a3)
 9ec:	00028093          	mv	ra,t0
 9f0:	ff078793          	addi	a5,a5,-16
 9f4:	40f70733          	sub	a4,a4,a5
 9f8:	00f60633          	add	a2,a2,a5
 9fc:	f6c378e3          	bgeu	t1,a2,96c <memset+0x44>
 a00:	f3dff06f          	j	93c <memset+0x14>

Disassembly of section .text.startup:

00000a04 <main>:
 a04:	fe010113          	addi	sp,sp,-32
 a08:	00112e23          	sw	ra,28(sp)
 a0c:	00812c23          	sw	s0,24(sp)
 a10:	a45ff0ef          	jal	ra,454 <initialise_board>
 a14:	8f1ff0ef          	jal	ra,304 <initialise_benchmark>
 a18:	00100513          	li	a0,1
 a1c:	8d9ff0ef          	jal	ra,2f4 <warm_caches>
 a20:	a3dff0ef          	jal	ra,45c <start_trigger>
 a24:	8d5ff0ef          	jal	ra,2f8 <benchmark>
 a28:	00a12623          	sw	a0,12(sp)
 a2c:	a39ff0ef          	jal	ra,464 <stop_trigger>
 a30:	00c12503          	lw	a0,12(sp)
 a34:	9b9ff0ef          	jal	ra,3ec <verify_benchmark>
 a38:	00050413          	mv	s0,a0
 a3c:	02050463          	beqz	a0,a64 <main+0x60>
 a40:	00001537          	lui	a0,0x1
 a44:	0b450513          	addi	a0,a0,180 # 10b4 <main+0x6b0>
 a48:	c21ff0ef          	jal	ra,668 <simrv_puts>
 a4c:	bf1ff0ef          	jal	ra,63c <simrv_exit>
 a50:	00143513          	seqz	a0,s0
 a54:	01c12083          	lw	ra,28(sp)
 a58:	01812403          	lw	s0,24(sp)
 a5c:	02010113          	addi	sp,sp,32
 a60:	00008067          	ret
 a64:	00001537          	lui	a0,0x1
 a68:	0c050513          	addi	a0,a0,192 # 10c0 <main+0x6bc>
 a6c:	bfdff0ef          	jal	ra,668 <simrv_puts>
 a70:	fddff06f          	j	a4c <main+0x48>
