
bd/src/nbody/nbody:     file format elf32-littleriscv


Disassembly of section .init:

00000000 <_start>:
   0:	00000013          	nop
   4:	00000033          	add	zero,zero,zero
   8:	000000b3          	add	ra,zero,zero
   c:	00000133          	add	sp,zero,zero
  10:	000001b3          	add	gp,zero,zero
  14:	00000233          	add	tp,zero,zero
  18:	000002b3          	add	t0,zero,zero
  1c:	00000333          	add	t1,zero,zero
  20:	000003b3          	add	t2,zero,zero
  24:	00000433          	add	s0,zero,zero
  28:	000004b3          	add	s1,zero,zero
  2c:	00000533          	add	a0,zero,zero
  30:	000005b3          	add	a1,zero,zero
  34:	00000633          	add	a2,zero,zero
  38:	000006b3          	add	a3,zero,zero
  3c:	00000733          	add	a4,zero,zero
  40:	000007b3          	add	a5,zero,zero
  44:	00000833          	add	a6,zero,zero
  48:	000008b3          	add	a7,zero,zero
  4c:	00000933          	add	s2,zero,zero
  50:	000009b3          	add	s3,zero,zero
  54:	00000a33          	add	s4,zero,zero
  58:	00000ab3          	add	s5,zero,zero
  5c:	00000b33          	add	s6,zero,zero
  60:	00000bb3          	add	s7,zero,zero
  64:	00000c33          	add	s8,zero,zero
  68:	00000cb3          	add	s9,zero,zero
  6c:	00000d33          	add	s10,zero,zero
  70:	00000db3          	add	s11,zero,zero
  74:	00000e33          	add	t3,zero,zero
  78:	00000eb3          	add	t4,zero,zero
  7c:	00000f33          	add	t5,zero,zero
  80:	00000fb3          	add	t6,zero,zero
  84:	00010137          	lui	sp,0x10
  88:	6390206f          	j	2ec0 <main>
  8c:	00000013          	nop

Disassembly of section .text:

00000090 <offset_momentum>:
      90:	0e058463          	beqz	a1,178 <offset_momentum+0xe8>
      94:	fd010113          	addi	sp,sp,-48 # ffd0 <_impure_ptr+0xc828>
      98:	000037b7          	lui	a5,0x3
      9c:	01612823          	sw	s6,16(sp)
      a0:	01712623          	sw	s7,12(sp)
      a4:	1e87ab03          	lw	s6,488(a5) # 31e8 <__clz_tab+0x100>
      a8:	1ec7ab83          	lw	s7,492(a5)
      ac:	01812423          	sw	s8,8(sp)
      b0:	01912223          	sw	s9,4(sp)
      b4:	00659c13          	slli	s8,a1,0x6
      b8:	02050c93          	addi	s9,a0,32
      bc:	03212023          	sw	s2,32(sp)
      c0:	01312e23          	sw	s3,28(sp)
      c4:	02112623          	sw	ra,44(sp)
      c8:	02812423          	sw	s0,40(sp)
      cc:	02912223          	sw	s1,36(sp)
      d0:	01412c23          	sw	s4,24(sp)
      d4:	01512a23          	sw	s5,20(sp)
      d8:	018c8c33          	add	s8,s9,s8
      dc:	000c8913          	mv	s2,s9
      e0:	03850993          	addi	s3,a0,56
      e4:	01892a03          	lw	s4,24(s2)
      e8:	01c92a83          	lw	s5,28(s2)
      ec:	00090493          	mv	s1,s2
      f0:	000c8413          	mv	s0,s9
      f4:	0004a603          	lw	a2,0(s1)
      f8:	0044a683          	lw	a3,4(s1)
      fc:	000a0513          	mv	a0,s4
     100:	000a8593          	mv	a1,s5
     104:	535010ef          	jal	ra,1e38 <__muldf3>
     108:	000b0613          	mv	a2,s6
     10c:	000b8693          	mv	a3,s7
     110:	478010ef          	jal	ra,1588 <__divdf3>
     114:	00840413          	addi	s0,s0,8
     118:	00050613          	mv	a2,a0
     11c:	00058693          	mv	a3,a1
     120:	ff842503          	lw	a0,-8(s0)
     124:	ffc42583          	lw	a1,-4(s0)
     128:	00848493          	addi	s1,s1,8
     12c:	378020ef          	jal	ra,24a4 <__subdf3>
     130:	fea42c23          	sw	a0,-8(s0)
     134:	feb42e23          	sw	a1,-4(s0)
     138:	fa899ee3          	bne	s3,s0,f4 <offset_momentum+0x64>
     13c:	04090913          	addi	s2,s2,64
     140:	fb8912e3          	bne	s2,s8,e4 <offset_momentum+0x54>
     144:	02c12083          	lw	ra,44(sp)
     148:	02812403          	lw	s0,40(sp)
     14c:	02412483          	lw	s1,36(sp)
     150:	02012903          	lw	s2,32(sp)
     154:	01c12983          	lw	s3,28(sp)
     158:	01812a03          	lw	s4,24(sp)
     15c:	01412a83          	lw	s5,20(sp)
     160:	01012b03          	lw	s6,16(sp)
     164:	00c12b83          	lw	s7,12(sp)
     168:	00812c03          	lw	s8,8(sp)
     16c:	00412c83          	lw	s9,4(sp)
     170:	03010113          	addi	sp,sp,48
     174:	00008067          	ret
     178:	00008067          	ret

0000017c <bodies_energy>:
     17c:	f9010113          	addi	sp,sp,-112
     180:	06112623          	sw	ra,108(sp)
     184:	06812423          	sw	s0,104(sp)
     188:	06912223          	sw	s1,100(sp)
     18c:	07212023          	sw	s2,96(sp)
     190:	05312e23          	sw	s3,92(sp)
     194:	05412c23          	sw	s4,88(sp)
     198:	05512a23          	sw	s5,84(sp)
     19c:	05612823          	sw	s6,80(sp)
     1a0:	05712623          	sw	s7,76(sp)
     1a4:	05812423          	sw	s8,72(sp)
     1a8:	05912223          	sw	s9,68(sp)
     1ac:	05a12023          	sw	s10,64(sp)
     1b0:	03b12e23          	sw	s11,60(sp)
     1b4:	20058063          	beqz	a1,3b4 <bodies_energy+0x238>
     1b8:	000037b7          	lui	a5,0x3
     1bc:	1f47a803          	lw	a6,500(a5) # 31f4 <__clz_tab+0x10c>
     1c0:	1f07a783          	lw	a5,496(a5)
     1c4:	00659c13          	slli	s8,a1,0x6
     1c8:	fc050c93          	addi	s9,a0,-64
     1cc:	018c8cb3          	add	s9,s9,s8
     1d0:	00050993          	mv	s3,a0
     1d4:	00f12423          	sw	a5,8(sp)
     1d8:	01012623          	sw	a6,12(sp)
     1dc:	01850c33          	add	s8,a0,s8
     1e0:	00000a13          	li	s4,0
     1e4:	00000a93          	li	s5,0
     1e8:	01800913          	li	s2,24
     1ec:	0209a603          	lw	a2,32(s3)
     1f0:	0249a683          	lw	a3,36(s3)
     1f4:	0289ad03          	lw	s10,40(s3)
     1f8:	02c9ad83          	lw	s11,44(s3)
     1fc:	00060513          	mv	a0,a2
     200:	00068593          	mv	a1,a3
     204:	435010ef          	jal	ra,1e38 <__muldf3>
     208:	00050b13          	mv	s6,a0
     20c:	00058b93          	mv	s7,a1
     210:	000d0613          	mv	a2,s10
     214:	000d8693          	mv	a3,s11
     218:	000d0513          	mv	a0,s10
     21c:	000d8593          	mv	a1,s11
     220:	419010ef          	jal	ra,1e38 <__muldf3>
     224:	0349a483          	lw	s1,52(s3)
     228:	0309a403          	lw	s0,48(s3)
     22c:	00050613          	mv	a2,a0
     230:	00058693          	mv	a3,a1
     234:	000b0513          	mv	a0,s6
     238:	000b8593          	mv	a1,s7
     23c:	38d000ef          	jal	ra,dc8 <__adddf3>
     240:	00048693          	mv	a3,s1
     244:	00050b13          	mv	s6,a0
     248:	00058b93          	mv	s7,a1
     24c:	00040613          	mv	a2,s0
     250:	00048593          	mv	a1,s1
     254:	00040513          	mv	a0,s0
     258:	3e1010ef          	jal	ra,1e38 <__muldf3>
     25c:	00050613          	mv	a2,a0
     260:	00058693          	mv	a3,a1
     264:	000b0513          	mv	a0,s6
     268:	000b8593          	mv	a1,s7
     26c:	35d000ef          	jal	ra,dc8 <__adddf3>
     270:	0389a603          	lw	a2,56(s3)
     274:	03c9a683          	lw	a3,60(s3)
     278:	00098493          	mv	s1,s3
     27c:	3bd010ef          	jal	ra,1e38 <__muldf3>
     280:	00812603          	lw	a2,8(sp)
     284:	00c12683          	lw	a3,12(sp)
     288:	3b1010ef          	jal	ra,1e38 <__muldf3>
     28c:	00050613          	mv	a2,a0
     290:	00058693          	mv	a3,a1
     294:	000a0513          	mv	a0,s4
     298:	000a8593          	mv	a1,s5
     29c:	32d000ef          	jal	ra,dc8 <__adddf3>
     2a0:	00050a13          	mv	s4,a0
     2a4:	00058a93          	mv	s5,a1
     2a8:	113c8a63          	beq	s9,s3,3bc <bodies_energy+0x240>
     2ac:	04098993          	addi	s3,s3,64
     2b0:	00098413          	mv	s0,s3
     2b4:	01810b93          	addi	s7,sp,24
     2b8:	00000b13          	li	s6,0
     2bc:	016487b3          	add	a5,s1,s6
     2c0:	01640733          	add	a4,s0,s6
     2c4:	00072603          	lw	a2,0(a4)
     2c8:	00472683          	lw	a3,4(a4)
     2cc:	0007a503          	lw	a0,0(a5)
     2d0:	0047a583          	lw	a1,4(a5)
     2d4:	008b8b93          	addi	s7,s7,8
     2d8:	008b0b13          	addi	s6,s6,8
     2dc:	1c8020ef          	jal	ra,24a4 <__subdf3>
     2e0:	feabac23          	sw	a0,-8(s7)
     2e4:	febbae23          	sw	a1,-4(s7)
     2e8:	fd2b1ae3          	bne	s6,s2,2bc <bodies_energy+0x140>
     2ec:	01812603          	lw	a2,24(sp)
     2f0:	01c12683          	lw	a3,28(sp)
     2f4:	04040413          	addi	s0,s0,64
     2f8:	00060513          	mv	a0,a2
     2fc:	00068593          	mv	a1,a3
     300:	339010ef          	jal	ra,1e38 <__muldf3>
     304:	02012603          	lw	a2,32(sp)
     308:	02412683          	lw	a3,36(sp)
     30c:	00050b13          	mv	s6,a0
     310:	00058b93          	mv	s7,a1
     314:	00060513          	mv	a0,a2
     318:	00068593          	mv	a1,a3
     31c:	31d010ef          	jal	ra,1e38 <__muldf3>
     320:	00050613          	mv	a2,a0
     324:	00058693          	mv	a3,a1
     328:	000b0513          	mv	a0,s6
     32c:	000b8593          	mv	a1,s7
     330:	299000ef          	jal	ra,dc8 <__adddf3>
     334:	02812603          	lw	a2,40(sp)
     338:	02c12683          	lw	a3,44(sp)
     33c:	00050b13          	mv	s6,a0
     340:	00058b93          	mv	s7,a1
     344:	00060513          	mv	a0,a2
     348:	00068593          	mv	a1,a3
     34c:	2ed010ef          	jal	ra,1e38 <__muldf3>
     350:	00050613          	mv	a2,a0
     354:	00058693          	mv	a3,a1
     358:	000b0513          	mv	a0,s6
     35c:	000b8593          	mv	a1,s7
     360:	269000ef          	jal	ra,dc8 <__adddf3>
     364:	6f4000ef          	jal	ra,a58 <sqrt>
     368:	ff842603          	lw	a2,-8(s0)
     36c:	ffc42683          	lw	a3,-4(s0)
     370:	00050b13          	mv	s6,a0
     374:	00058b93          	mv	s7,a1
     378:	0384a503          	lw	a0,56(s1)
     37c:	03c4a583          	lw	a1,60(s1)
     380:	2b9010ef          	jal	ra,1e38 <__muldf3>
     384:	000b0613          	mv	a2,s6
     388:	000b8693          	mv	a3,s7
     38c:	1fc010ef          	jal	ra,1588 <__divdf3>
     390:	00050613          	mv	a2,a0
     394:	00058693          	mv	a3,a1
     398:	000a0513          	mv	a0,s4
     39c:	000a8593          	mv	a1,s5
     3a0:	104020ef          	jal	ra,24a4 <__subdf3>
     3a4:	00050a13          	mv	s4,a0
     3a8:	00058a93          	mv	s5,a1
     3ac:	f08c14e3          	bne	s8,s0,2b4 <bodies_energy+0x138>
     3b0:	e3dff06f          	j	1ec <bodies_energy+0x70>
     3b4:	00000a13          	li	s4,0
     3b8:	00000a93          	li	s5,0
     3bc:	06c12083          	lw	ra,108(sp)
     3c0:	06812403          	lw	s0,104(sp)
     3c4:	000a0513          	mv	a0,s4
     3c8:	000a8593          	mv	a1,s5
     3cc:	06412483          	lw	s1,100(sp)
     3d0:	06012903          	lw	s2,96(sp)
     3d4:	05c12983          	lw	s3,92(sp)
     3d8:	05812a03          	lw	s4,88(sp)
     3dc:	05412a83          	lw	s5,84(sp)
     3e0:	05012b03          	lw	s6,80(sp)
     3e4:	04c12b83          	lw	s7,76(sp)
     3e8:	04812c03          	lw	s8,72(sp)
     3ec:	04412c83          	lw	s9,68(sp)
     3f0:	04012d03          	lw	s10,64(sp)
     3f4:	03c12d83          	lw	s11,60(sp)
     3f8:	07010113          	addi	sp,sp,112
     3fc:	00008067          	ret

00000400 <benchmark_body>:
     400:	18a05263          	blez	a0,584 <benchmark_body+0x184>
     404:	fb010113          	addi	sp,sp,-80
     408:	000037b7          	lui	a5,0x3
     40c:	03612823          	sw	s6,48(sp)
     410:	03712623          	sw	s7,44(sp)
     414:	1e87ab03          	lw	s6,488(a5) # 31e8 <__clz_tab+0x100>
     418:	1ec7ab83          	lw	s7,492(a5)
     41c:	04912223          	sw	s1,68(sp)
     420:	03412c23          	sw	s4,56(sp)
     424:	03512a23          	sw	s5,52(sp)
     428:	03a12023          	sw	s10,32(sp)
     42c:	00003a37          	lui	s4,0x3
     430:	00003d37          	lui	s10,0x3
     434:	00003ab7          	lui	s5,0x3
     438:	000034b7          	lui	s1,0x3
     43c:	03812423          	sw	s8,40(sp)
     440:	04112623          	sw	ra,76(sp)
     444:	04812423          	sw	s0,72(sp)
     448:	05212023          	sw	s2,64(sp)
     44c:	03312e23          	sw	s3,60(sp)
     450:	03912223          	sw	s9,36(sp)
     454:	01b12e23          	sw	s11,28(sp)
     458:	00a12623          	sw	a0,12(sp)
     45c:	00000c13          	li	s8,0
     460:	250a0a13          	addi	s4,s4,592 # 3250 <solar_bodies+0x18>
     464:	258d0d13          	addi	s10,s10,600 # 3258 <solar_bodies+0x20>
     468:	398a8a93          	addi	s5,s5,920 # 3398 <impure_data+0x20>
     46c:	23848493          	addi	s1,s1,568 # 3238 <solar_bodies>
     470:	000d0d93          	mv	s11,s10
     474:	018da903          	lw	s2,24(s11)
     478:	01cda983          	lw	s3,28(s11)
     47c:	000d8413          	mv	s0,s11
     480:	00048c93          	mv	s9,s1
     484:	00042603          	lw	a2,0(s0)
     488:	00442683          	lw	a3,4(s0)
     48c:	00090513          	mv	a0,s2
     490:	00098593          	mv	a1,s3
     494:	1a5010ef          	jal	ra,1e38 <__muldf3>
     498:	000b0613          	mv	a2,s6
     49c:	000b8693          	mv	a3,s7
     4a0:	0e8010ef          	jal	ra,1588 <__divdf3>
     4a4:	008c8c93          	addi	s9,s9,8
     4a8:	00050613          	mv	a2,a0
     4ac:	00058693          	mv	a3,a1
     4b0:	018ca503          	lw	a0,24(s9)
     4b4:	01cca583          	lw	a1,28(s9)
     4b8:	00840413          	addi	s0,s0,8
     4bc:	7e9010ef          	jal	ra,24a4 <__subdf3>
     4c0:	00acac23          	sw	a0,24(s9)
     4c4:	00bcae23          	sw	a1,28(s9)
     4c8:	fb9a1ee3          	bne	s4,s9,484 <benchmark_body+0x84>
     4cc:	040d8d93          	addi	s11,s11,64
     4d0:	fbba92e3          	bne	s5,s11,474 <benchmark_body+0x74>
     4d4:	06400413          	li	s0,100
     4d8:	00000913          	li	s2,0
     4dc:	00000993          	li	s3,0
     4e0:	00500593          	li	a1,5
     4e4:	00048513          	mv	a0,s1
     4e8:	c95ff0ef          	jal	ra,17c <bodies_energy>
     4ec:	00050613          	mv	a2,a0
     4f0:	00058693          	mv	a3,a1
     4f4:	00090513          	mv	a0,s2
     4f8:	00098593          	mv	a1,s3
     4fc:	0cd000ef          	jal	ra,dc8 <__adddf3>
     500:	fff40413          	addi	s0,s0,-1
     504:	00050913          	mv	s2,a0
     508:	00058993          	mv	s3,a1
     50c:	fc041ae3          	bnez	s0,4e0 <benchmark_body+0xe0>
     510:	00c12783          	lw	a5,12(sp)
     514:	001c0c13          	addi	s8,s8,1
     518:	f5879ce3          	bne	a5,s8,470 <benchmark_body+0x70>
     51c:	000037b7          	lui	a5,0x3
     520:	1f87a603          	lw	a2,504(a5) # 31f8 <__clz_tab+0x110>
     524:	1fc7a683          	lw	a3,508(a5)
     528:	0a1000ef          	jal	ra,dc8 <__adddf3>
     52c:	000037b7          	lui	a5,0x3
     530:	2007a603          	lw	a2,512(a5) # 3200 <__clz_tab+0x118>
     534:	2047a683          	lw	a3,516(a5)
     538:	00159593          	slli	a1,a1,0x1
     53c:	0015d593          	srli	a1,a1,0x1
     540:	015010ef          	jal	ra,1d54 <__ledf2>
     544:	04c12083          	lw	ra,76(sp)
     548:	04812403          	lw	s0,72(sp)
     54c:	04412483          	lw	s1,68(sp)
     550:	04012903          	lw	s2,64(sp)
     554:	03c12983          	lw	s3,60(sp)
     558:	03812a03          	lw	s4,56(sp)
     55c:	03412a83          	lw	s5,52(sp)
     560:	03012b03          	lw	s6,48(sp)
     564:	02c12b83          	lw	s7,44(sp)
     568:	02812c03          	lw	s8,40(sp)
     56c:	02412c83          	lw	s9,36(sp)
     570:	02012d03          	lw	s10,32(sp)
     574:	01c12d83          	lw	s11,28(sp)
     578:	00052513          	slti	a0,a0,0
     57c:	05010113          	addi	sp,sp,80
     580:	00008067          	ret
     584:	00000513          	li	a0,0
     588:	00008067          	ret

0000058c <initialise_benchmark>:
     58c:	00008067          	ret

00000590 <warm_caches>:
     590:	e71ff06f          	j	400 <benchmark_body>

00000594 <benchmark>:
     594:	06400513          	li	a0,100
     598:	e69ff06f          	j	400 <benchmark_body>

0000059c <verify_benchmark>:
     59c:	10050463          	beqz	a0,6a4 <verify_benchmark+0x108>
     5a0:	fd010113          	addi	sp,sp,-48
     5a4:	000037b7          	lui	a5,0x3
     5a8:	03212023          	sw	s2,32(sp)
     5ac:	01312e23          	sw	s3,28(sp)
     5b0:	01712623          	sw	s7,12(sp)
     5b4:	2007a903          	lw	s2,512(a5) # 3200 <__clz_tab+0x118>
     5b8:	00003bb7          	lui	s7,0x3
     5bc:	2047a983          	lw	s3,516(a5)
     5c0:	238b8b93          	addi	s7,s7,568 # 3238 <solar_bodies>
     5c4:	01412c23          	sw	s4,24(sp)
     5c8:	01612823          	sw	s6,16(sp)
     5cc:	80000a37          	lui	s4,0x80000
     5d0:	00003b37          	lui	s6,0x3
     5d4:	01512a23          	sw	s5,20(sp)
     5d8:	02112623          	sw	ra,44(sp)
     5dc:	018b8a93          	addi	s5,s7,24
     5e0:	02812423          	sw	s0,40(sp)
     5e4:	02912223          	sw	s1,36(sp)
     5e8:	f30b0b13          	addi	s6,s6,-208 # 2f30 <expected.2594>
     5ec:	158b8b93          	addi	s7,s7,344
     5f0:	00000613          	li	a2,0
     5f4:	00000693          	li	a3,0
     5f8:	fffa4a13          	not	s4,s4
     5fc:	fe8a8413          	addi	s0,s5,-24
     600:	000b0493          	mv	s1,s6
     604:	00042503          	lw	a0,0(s0)
     608:	00442583          	lw	a1,4(s0)
     60c:	699010ef          	jal	ra,24a4 <__subdf3>
     610:	00090613          	mv	a2,s2
     614:	00098693          	mv	a3,s3
     618:	0145f5b3          	and	a1,a1,s4
     61c:	738010ef          	jal	ra,1d54 <__ledf2>
     620:	0a055e63          	bgez	a0,6dc <verify_benchmark+0x140>
     624:	0204a603          	lw	a2,32(s1)
     628:	0244a683          	lw	a3,36(s1)
     62c:	02042503          	lw	a0,32(s0)
     630:	02442583          	lw	a1,36(s0)
     634:	00848493          	addi	s1,s1,8
     638:	00840413          	addi	s0,s0,8
     63c:	669010ef          	jal	ra,24a4 <__subdf3>
     640:	00090613          	mv	a2,s2
     644:	00098693          	mv	a3,s3
     648:	0145f5b3          	and	a1,a1,s4
     64c:	708010ef          	jal	ra,1d54 <__ledf2>
     650:	08055663          	bgez	a0,6dc <verify_benchmark+0x140>
     654:	01540863          	beq	s0,s5,664 <verify_benchmark+0xc8>
     658:	0004a603          	lw	a2,0(s1)
     65c:	0044a683          	lw	a3,4(s1)
     660:	fa5ff06f          	j	604 <verify_benchmark+0x68>
     664:	038b2603          	lw	a2,56(s6)
     668:	03cb2683          	lw	a3,60(s6)
     66c:	02042503          	lw	a0,32(s0)
     670:	02442583          	lw	a1,36(s0)
     674:	631010ef          	jal	ra,24a4 <__subdf3>
     678:	00090613          	mv	a2,s2
     67c:	00098693          	mv	a3,s3
     680:	0145f5b3          	and	a1,a1,s4
     684:	6d0010ef          	jal	ra,1d54 <__ledf2>
     688:	04055a63          	bgez	a0,6dc <verify_benchmark+0x140>
     68c:	040a8a93          	addi	s5,s5,64
     690:	040b0b13          	addi	s6,s6,64
     694:	017a8c63          	beq	s5,s7,6ac <verify_benchmark+0x110>
     698:	000b2603          	lw	a2,0(s6)
     69c:	004b2683          	lw	a3,4(s6)
     6a0:	f5dff06f          	j	5fc <verify_benchmark+0x60>
     6a4:	00000513          	li	a0,0
     6a8:	00008067          	ret
     6ac:	00100513          	li	a0,1
     6b0:	02c12083          	lw	ra,44(sp)
     6b4:	02812403          	lw	s0,40(sp)
     6b8:	02412483          	lw	s1,36(sp)
     6bc:	02012903          	lw	s2,32(sp)
     6c0:	01c12983          	lw	s3,28(sp)
     6c4:	01812a03          	lw	s4,24(sp)
     6c8:	01412a83          	lw	s5,20(sp)
     6cc:	01012b03          	lw	s6,16(sp)
     6d0:	00c12b83          	lw	s7,12(sp)
     6d4:	03010113          	addi	sp,sp,48
     6d8:	00008067          	ret
     6dc:	00000513          	li	a0,0
     6e0:	fd1ff06f          	j	6b0 <verify_benchmark+0x114>

000006e4 <initialise_board>:
     6e4:	00000513          	li	a0,0
     6e8:	00008067          	ret

000006ec <start_trigger>:
     6ec:	00000513          	li	a0,0
     6f0:	00008067          	ret

000006f4 <stop_trigger>:
     6f4:	00000513          	li	a0,0
     6f8:	00008067          	ret

000006fc <rand_beebs>:
     6fc:	000036b7          	lui	a3,0x3
     700:	2306a703          	lw	a4,560(a3) # 3230 <seed>
     704:	00871793          	slli	a5,a4,0x8
     708:	40e787b3          	sub	a5,a5,a4
     70c:	00379793          	slli	a5,a5,0x3
     710:	00e787b3          	add	a5,a5,a4
     714:	00779793          	slli	a5,a5,0x7
     718:	00e787b3          	add	a5,a5,a4
     71c:	00379793          	slli	a5,a5,0x3
     720:	40e787b3          	sub	a5,a5,a4
     724:	00579513          	slli	a0,a5,0x5
     728:	00a78533          	add	a0,a5,a0
     72c:	00251513          	slli	a0,a0,0x2
     730:	40e50533          	sub	a0,a0,a4
     734:	00251513          	slli	a0,a0,0x2
     738:	000037b7          	lui	a5,0x3
     73c:	00e50533          	add	a0,a0,a4
     740:	03978793          	addi	a5,a5,57 # 3039 <expected.2594+0x109>
     744:	00f50533          	add	a0,a0,a5
     748:	00151513          	slli	a0,a0,0x1
     74c:	00155513          	srli	a0,a0,0x1
     750:	22a6a823          	sw	a0,560(a3)
     754:	01055513          	srli	a0,a0,0x10
     758:	00008067          	ret

0000075c <srand_beebs>:
     75c:	000037b7          	lui	a5,0x3
     760:	22a7a823          	sw	a0,560(a5) # 3230 <seed>
     764:	00008067          	ret

00000768 <init_heap_beebs>:
     768:	000037b7          	lui	a5,0x3
     76c:	00b505b3          	add	a1,a0,a1
     770:	22a7a623          	sw	a0,556(a5) # 322c <heap_ptr>
     774:	000037b7          	lui	a5,0x3
     778:	22b7a423          	sw	a1,552(a5) # 3228 <heap_end>
     77c:	000037b7          	lui	a5,0x3
     780:	2207a223          	sw	zero,548(a5) # 3224 <heap_requested>
     784:	00008067          	ret

00000788 <check_heap_beebs>:
     788:	000037b7          	lui	a5,0x3
     78c:	2247a703          	lw	a4,548(a5) # 3224 <heap_requested>
     790:	000037b7          	lui	a5,0x3
     794:	2287a783          	lw	a5,552(a5) # 3228 <heap_end>
     798:	00e50533          	add	a0,a0,a4
     79c:	00a7b533          	sltu	a0,a5,a0
     7a0:	00154513          	xori	a0,a0,1
     7a4:	00008067          	ret

000007a8 <malloc_beebs>:
     7a8:	000036b7          	lui	a3,0x3
     7ac:	2246a783          	lw	a5,548(a3) # 3224 <heap_requested>
     7b0:	00003637          	lui	a2,0x3
     7b4:	22c62703          	lw	a4,556(a2) # 322c <heap_ptr>
     7b8:	000035b7          	lui	a1,0x3
     7bc:	2285a583          	lw	a1,552(a1) # 3228 <heap_end>
     7c0:	00a787b3          	add	a5,a5,a0
     7c4:	22f6a223          	sw	a5,548(a3)
     7c8:	00a707b3          	add	a5,a4,a0
     7cc:	00f5ea63          	bltu	a1,a5,7e0 <malloc_beebs+0x38>
     7d0:	00050863          	beqz	a0,7e0 <malloc_beebs+0x38>
     7d4:	22f62623          	sw	a5,556(a2)
     7d8:	00070513          	mv	a0,a4
     7dc:	00008067          	ret
     7e0:	00000713          	li	a4,0
     7e4:	00070513          	mv	a0,a4
     7e8:	00008067          	ret

000007ec <calloc_beebs>:
     7ec:	ff010113          	addi	sp,sp,-16
     7f0:	00112623          	sw	ra,12(sp)
     7f4:	4c0020ef          	jal	ra,2cb4 <__mulsi3>
     7f8:	000036b7          	lui	a3,0x3
     7fc:	2246a703          	lw	a4,548(a3) # 3224 <heap_requested>
     800:	00003637          	lui	a2,0x3
     804:	22c62783          	lw	a5,556(a2) # 322c <heap_ptr>
     808:	000035b7          	lui	a1,0x3
     80c:	2285a583          	lw	a1,552(a1) # 3228 <heap_end>
     810:	00a70733          	add	a4,a4,a0
     814:	22e6a223          	sw	a4,548(a3)
     818:	00a78733          	add	a4,a5,a0
     81c:	02e5ea63          	bltu	a1,a4,850 <calloc_beebs+0x64>
     820:	02050863          	beqz	a0,850 <calloc_beebs+0x64>
     824:	22e62623          	sw	a4,556(a2)
     828:	00078c63          	beqz	a5,840 <calloc_beebs+0x54>
     82c:	00050613          	mv	a2,a0
     830:	00000593          	li	a1,0
     834:	00078513          	mv	a0,a5
     838:	5ac020ef          	jal	ra,2de4 <memset>
     83c:	00050793          	mv	a5,a0
     840:	00c12083          	lw	ra,12(sp)
     844:	00078513          	mv	a0,a5
     848:	01010113          	addi	sp,sp,16
     84c:	00008067          	ret
     850:	00c12083          	lw	ra,12(sp)
     854:	00000793          	li	a5,0
     858:	00078513          	mv	a0,a5
     85c:	01010113          	addi	sp,sp,16
     860:	00008067          	ret

00000864 <realloc_beebs>:
     864:	00003737          	lui	a4,0x3
     868:	22472783          	lw	a5,548(a4) # 3224 <heap_requested>
     86c:	00003637          	lui	a2,0x3
     870:	22c62683          	lw	a3,556(a2) # 322c <heap_ptr>
     874:	00003837          	lui	a6,0x3
     878:	22882803          	lw	a6,552(a6) # 3228 <heap_end>
     87c:	00b787b3          	add	a5,a5,a1
     880:	22f72223          	sw	a5,548(a4)
     884:	00b687b3          	add	a5,a3,a1
     888:	02f86a63          	bltu	a6,a5,8bc <realloc_beebs+0x58>
     88c:	02058863          	beqz	a1,8bc <realloc_beebs+0x58>
     890:	22f62623          	sw	a5,556(a2)
     894:	02050063          	beqz	a0,8b4 <realloc_beebs+0x50>
     898:	00068793          	mv	a5,a3
     89c:	00b505b3          	add	a1,a0,a1
     8a0:	00054703          	lbu	a4,0(a0)
     8a4:	00178793          	addi	a5,a5,1
     8a8:	00150513          	addi	a0,a0,1
     8ac:	fee78fa3          	sb	a4,-1(a5)
     8b0:	feb518e3          	bne	a0,a1,8a0 <realloc_beebs+0x3c>
     8b4:	00068513          	mv	a0,a3
     8b8:	00008067          	ret
     8bc:	00000693          	li	a3,0
     8c0:	00068513          	mv	a0,a3
     8c4:	00008067          	ret

000008c8 <free_beebs>:
     8c8:	00008067          	ret

000008cc <simrv_exit>:
     8cc:	000037b7          	lui	a5,0x3
     8d0:	7a07a783          	lw	a5,1952(a5) # 37a0 <TOHOST_ADDR>
     8d4:	00020737          	lui	a4,0x20
     8d8:	00e7a023          	sw	a4,0(a5)
     8dc:	0000006f          	j	8dc <simrv_exit+0x10>

000008e0 <simrv_putc>:
     8e0:	000037b7          	lui	a5,0x3
     8e4:	7a07a703          	lw	a4,1952(a5) # 37a0 <TOHOST_ADDR>
     8e8:	000107b7          	lui	a5,0x10
     8ec:	00f56533          	or	a0,a0,a5
     8f0:	00a72023          	sw	a0,0(a4) # 20000 <_impure_ptr+0x1c858>
     8f4:	00008067          	ret

000008f8 <simrv_puts>:
     8f8:	00054783          	lbu	a5,0(a0)
     8fc:	02078263          	beqz	a5,920 <simrv_puts+0x28>
     900:	00003737          	lui	a4,0x3
     904:	7a072683          	lw	a3,1952(a4) # 37a0 <TOHOST_ADDR>
     908:	00010737          	lui	a4,0x10
     90c:	00e7e7b3          	or	a5,a5,a4
     910:	00f6a023          	sw	a5,0(a3)
     914:	00150513          	addi	a0,a0,1
     918:	00054783          	lbu	a5,0(a0)
     91c:	fe0798e3          	bnez	a5,90c <simrv_puts+0x14>
     920:	00008067          	ret

00000924 <simrv_puti>:
     924:	fd010113          	addi	sp,sp,-48
     928:	02912223          	sw	s1,36(sp)
     92c:	03212023          	sw	s2,32(sp)
     930:	01412c23          	sw	s4,24(sp)
     934:	02112623          	sw	ra,44(sp)
     938:	02812423          	sw	s0,40(sp)
     93c:	01312e23          	sw	s3,28(sp)
     940:	00050913          	mv	s2,a0
     944:	00000493          	li	s1,0
     948:	00410a13          	addi	s4,sp,4
     94c:	0080006f          	j	954 <simrv_puti+0x30>
     950:	00098493          	mv	s1,s3
     954:	00a00593          	li	a1,10
     958:	00090513          	mv	a0,s2
     95c:	400020ef          	jal	ra,2d5c <__modsi3>
     960:	03050513          	addi	a0,a0,48
     964:	00148993          	addi	s3,s1,1
     968:	0ff57413          	andi	s0,a0,255
     96c:	013a07b3          	add	a5,s4,s3
     970:	00090513          	mv	a0,s2
     974:	00a00593          	li	a1,10
     978:	fe878fa3          	sb	s0,-1(a5) # ffff <_impure_ptr+0xc857>
     97c:	35c020ef          	jal	ra,2cd8 <__divsi3>
     980:	00050913          	mv	s2,a0
     984:	fc0516e3          	bnez	a0,950 <simrv_puti+0x2c>
     988:	000037b7          	lui	a5,0x3
     98c:	7a07a603          	lw	a2,1952(a5) # 37a0 <TOHOST_ADDR>
     990:	000106b7          	lui	a3,0x10
     994:	009a07b3          	add	a5,s4,s1
     998:	00c0006f          	j	9a4 <simrv_puti+0x80>
     99c:	fff7c403          	lbu	s0,-1(a5)
     9a0:	00070793          	mv	a5,a4
     9a4:	00d46433          	or	s0,s0,a3
     9a8:	00862023          	sw	s0,0(a2)
     9ac:	fff78713          	addi	a4,a5,-1
     9b0:	fefa16e3          	bne	s4,a5,99c <simrv_puti+0x78>
     9b4:	02c12083          	lw	ra,44(sp)
     9b8:	02812403          	lw	s0,40(sp)
     9bc:	02412483          	lw	s1,36(sp)
     9c0:	02012903          	lw	s2,32(sp)
     9c4:	01c12983          	lw	s3,28(sp)
     9c8:	01812a03          	lw	s4,24(sp)
     9cc:	03010113          	addi	sp,sp,48
     9d0:	00008067          	ret

000009d4 <simrv_puth>:
     9d4:	ff010113          	addi	sp,sp,-16
     9d8:	00000793          	li	a5,0
     9dc:	00810593          	addi	a1,sp,8
     9e0:	00900e13          	li	t3,9
     9e4:	0140006f          	j	9f8 <simrv_puth+0x24>
     9e8:	fe688fa3          	sb	t1,-1(a7)
     9ec:	00455513          	srli	a0,a0,0x4
     9f0:	02050863          	beqz	a0,a20 <simrv_puth+0x4c>
     9f4:	00060793          	mv	a5,a2
     9f8:	00f57713          	andi	a4,a0,15
     9fc:	0ff77693          	andi	a3,a4,255
     a00:	00178613          	addi	a2,a5,1
     a04:	03068313          	addi	t1,a3,48 # 10030 <_impure_ptr+0xc888>
     a08:	00c588b3          	add	a7,a1,a2
     a0c:	03768693          	addi	a3,a3,55
     a10:	fcee7ce3          	bgeu	t3,a4,9e8 <simrv_puth+0x14>
     a14:	fed88fa3          	sb	a3,-1(a7)
     a18:	00455513          	srli	a0,a0,0x4
     a1c:	fc051ce3          	bnez	a0,9f4 <simrv_puth+0x20>
     a20:	0207c863          	bltz	a5,a50 <simrv_puth+0x7c>
     a24:	00003737          	lui	a4,0x3
     a28:	7a072503          	lw	a0,1952(a4) # 37a0 <TOHOST_ADDR>
     a2c:	00f587b3          	add	a5,a1,a5
     a30:	00010637          	lui	a2,0x10
     a34:	0080006f          	j	a3c <simrv_puth+0x68>
     a38:	00068793          	mv	a5,a3
     a3c:	0007c703          	lbu	a4,0(a5)
     a40:	fff78693          	addi	a3,a5,-1
     a44:	00c76733          	or	a4,a4,a2
     a48:	00e52023          	sw	a4,0(a0)
     a4c:	fef596e3          	bne	a1,a5,a38 <simrv_puth+0x64>
     a50:	01010113          	addi	sp,sp,16
     a54:	00008067          	ret

00000a58 <sqrt>:
     a58:	fe010113          	addi	sp,sp,-32
     a5c:	00812c23          	sw	s0,24(sp)
     a60:	00912a23          	sw	s1,20(sp)
     a64:	01212823          	sw	s2,16(sp)
     a68:	01312623          	sw	s3,12(sp)
     a6c:	00112e23          	sw	ra,28(sp)
     a70:	00050413          	mv	s0,a0
     a74:	00058493          	mv	s1,a1
     a78:	09c000ef          	jal	ra,b14 <__ieee754_sqrt>
     a7c:	000037b7          	lui	a5,0x3
     a80:	7a47a703          	lw	a4,1956(a5) # 37a4 <__fdlib_version>
     a84:	fff00793          	li	a5,-1
     a88:	00050913          	mv	s2,a0
     a8c:	00058993          	mv	s3,a1
     a90:	02f70a63          	beq	a4,a5,ac4 <sqrt+0x6c>
     a94:	00040613          	mv	a2,s0
     a98:	00048693          	mv	a3,s1
     a9c:	00040513          	mv	a0,s0
     aa0:	00048593          	mv	a1,s1
     aa4:	1c4020ef          	jal	ra,2c68 <__unorddf2>
     aa8:	00051e63          	bnez	a0,ac4 <sqrt+0x6c>
     aac:	00000613          	li	a2,0
     ab0:	00000693          	li	a3,0
     ab4:	00040513          	mv	a0,s0
     ab8:	00048593          	mv	a1,s1
     abc:	298010ef          	jal	ra,1d54 <__ledf2>
     ac0:	02054463          	bltz	a0,ae8 <sqrt+0x90>
     ac4:	01c12083          	lw	ra,28(sp)
     ac8:	01812403          	lw	s0,24(sp)
     acc:	00090513          	mv	a0,s2
     ad0:	00098593          	mv	a1,s3
     ad4:	01412483          	lw	s1,20(sp)
     ad8:	01012903          	lw	s2,16(sp)
     adc:	00c12983          	lw	s3,12(sp)
     ae0:	02010113          	addi	sp,sp,32
     ae4:	00008067          	ret
     ae8:	2f0020ef          	jal	ra,2dd8 <__errno>
     aec:	02100793          	li	a5,33
     af0:	00000613          	li	a2,0
     af4:	00000693          	li	a3,0
     af8:	00f52023          	sw	a5,0(a0)
     afc:	00068593          	mv	a1,a3
     b00:	00060513          	mv	a0,a2
     b04:	285000ef          	jal	ra,1588 <__divdf3>
     b08:	00050913          	mv	s2,a0
     b0c:	00058993          	mv	s3,a1
     b10:	fb5ff06f          	j	ac4 <sqrt+0x6c>

00000b14 <__ieee754_sqrt>:
     b14:	ff010113          	addi	sp,sp,-16
     b18:	7ff00737          	lui	a4,0x7ff00
     b1c:	00812423          	sw	s0,8(sp)
     b20:	00912223          	sw	s1,4(sp)
     b24:	00112623          	sw	ra,12(sp)
     b28:	00b77833          	and	a6,a4,a1
     b2c:	00058493          	mv	s1,a1
     b30:	00050413          	mv	s0,a0
     b34:	20e80863          	beq	a6,a4,d44 <__ieee754_sqrt+0x230>
     b38:	00058793          	mv	a5,a1
     b3c:	00050693          	mv	a3,a0
     b40:	14b05a63          	blez	a1,c94 <__ieee754_sqrt+0x180>
     b44:	4145de13          	srai	t3,a1,0x14
     b48:	240e0e63          	beqz	t3,da4 <__ieee754_sqrt+0x290>
     b4c:	00100737          	lui	a4,0x100
     b50:	fff70613          	addi	a2,a4,-1 # fffff <_impure_ptr+0xfc857>
     b54:	00c7f7b3          	and	a5,a5,a2
     b58:	00e7e7b3          	or	a5,a5,a4
     b5c:	c01e0e13          	addi	t3,t3,-1023
     b60:	00179713          	slli	a4,a5,0x1
     b64:	001e7613          	andi	a2,t3,1
     b68:	01f6d793          	srli	a5,a3,0x1f
     b6c:	00f707b3          	add	a5,a4,a5
     b70:	00169713          	slli	a4,a3,0x1
     b74:	00060a63          	beqz	a2,b88 <__ieee754_sqrt+0x74>
     b78:	01f75713          	srli	a4,a4,0x1f
     b7c:	00179793          	slli	a5,a5,0x1
     b80:	00e787b3          	add	a5,a5,a4
     b84:	00269713          	slli	a4,a3,0x2
     b88:	401e5e13          	srai	t3,t3,0x1
     b8c:	01600593          	li	a1,22
     b90:	00000e93          	li	t4,0
     b94:	00000693          	li	a3,0
     b98:	00200637          	lui	a2,0x200
     b9c:	00c68533          	add	a0,a3,a2
     ba0:	01f75813          	srli	a6,a4,0x1f
     ba4:	fff58593          	addi	a1,a1,-1
     ba8:	00a7c863          	blt	a5,a0,bb8 <__ieee754_sqrt+0xa4>
     bac:	40a787b3          	sub	a5,a5,a0
     bb0:	00c506b3          	add	a3,a0,a2
     bb4:	00ce8eb3          	add	t4,t4,a2
     bb8:	00179793          	slli	a5,a5,0x1
     bbc:	00f807b3          	add	a5,a6,a5
     bc0:	00171713          	slli	a4,a4,0x1
     bc4:	00165613          	srli	a2,a2,0x1
     bc8:	fc059ae3          	bnez	a1,b9c <__ieee754_sqrt+0x88>
     bcc:	00000313          	li	t1,0
     bd0:	02000813          	li	a6,32
     bd4:	80000637          	lui	a2,0x80000
     bd8:	0240006f          	j	bfc <__ieee754_sqrt+0xe8>
     bdc:	12d78e63          	beq	a5,a3,d18 <__ieee754_sqrt+0x204>
     be0:	01f75513          	srli	a0,a4,0x1f
     be4:	00179793          	slli	a5,a5,0x1
     be8:	fff80813          	addi	a6,a6,-1
     bec:	00a787b3          	add	a5,a5,a0
     bf0:	00171713          	slli	a4,a4,0x1
     bf4:	00165613          	srli	a2,a2,0x1
     bf8:	04080663          	beqz	a6,c44 <__ieee754_sqrt+0x130>
     bfc:	00b60533          	add	a0,a2,a1
     c00:	fcf6dee3          	bge	a3,a5,bdc <__ieee754_sqrt+0xc8>
     c04:	00c505b3          	add	a1,a0,a2
     c08:	00068893          	mv	a7,a3
     c0c:	0e054e63          	bltz	a0,d08 <__ieee754_sqrt+0x1f4>
     c10:	40d787b3          	sub	a5,a5,a3
     c14:	00a736b3          	sltu	a3,a4,a0
     c18:	40d787b3          	sub	a5,a5,a3
     c1c:	40a70733          	sub	a4,a4,a0
     c20:	01f75513          	srli	a0,a4,0x1f
     c24:	00179793          	slli	a5,a5,0x1
     c28:	fff80813          	addi	a6,a6,-1
     c2c:	00c30333          	add	t1,t1,a2
     c30:	00088693          	mv	a3,a7
     c34:	00a787b3          	add	a5,a5,a0
     c38:	00171713          	slli	a4,a4,0x1
     c3c:	00165613          	srli	a2,a2,0x1
     c40:	fa081ee3          	bnez	a6,bfc <__ieee754_sqrt+0xe8>
     c44:	00e7e7b3          	or	a5,a5,a4
     c48:	0e079463          	bnez	a5,d30 <__ieee754_sqrt+0x21c>
     c4c:	00135813          	srli	a6,t1,0x1
     c50:	401ed713          	srai	a4,t4,0x1
     c54:	3fe004b7          	lui	s1,0x3fe00
     c58:	001efe93          	andi	t4,t4,1
     c5c:	009704b3          	add	s1,a4,s1
     c60:	000e8663          	beqz	t4,c6c <__ieee754_sqrt+0x158>
     c64:	800007b7          	lui	a5,0x80000
     c68:	00f86833          	or	a6,a6,a5
     c6c:	014e1713          	slli	a4,t3,0x14
     c70:	00080413          	mv	s0,a6
     c74:	00970733          	add	a4,a4,s1
     c78:	00040513          	mv	a0,s0
     c7c:	00c12083          	lw	ra,12(sp)
     c80:	00812403          	lw	s0,8(sp)
     c84:	00412483          	lw	s1,4(sp)
     c88:	00070593          	mv	a1,a4
     c8c:	01010113          	addi	sp,sp,16
     c90:	00008067          	ret
     c94:	00159713          	slli	a4,a1,0x1
     c98:	00175713          	srli	a4,a4,0x1
     c9c:	00a76833          	or	a6,a4,a0
     ca0:	00058713          	mv	a4,a1
     ca4:	fc080ae3          	beqz	a6,c78 <__ieee754_sqrt+0x164>
     ca8:	0c059c63          	bnez	a1,d80 <__ieee754_sqrt+0x26c>
     cac:	00b6d593          	srli	a1,a3,0xb
     cb0:	feb78793          	addi	a5,a5,-21 # 7fffffeb <_impure_ptr+0x7fffc843>
     cb4:	00058713          	mv	a4,a1
     cb8:	01569693          	slli	a3,a3,0x15
     cbc:	fe0588e3          	beqz	a1,cac <__ieee754_sqrt+0x198>
     cc0:	0145d613          	srli	a2,a1,0x14
     cc4:	0e061a63          	bnez	a2,db8 <__ieee754_sqrt+0x2a4>
     cc8:	00000613          	li	a2,0
     ccc:	0080006f          	j	cd4 <__ieee754_sqrt+0x1c0>
     cd0:	00050613          	mv	a2,a0
     cd4:	00171713          	slli	a4,a4,0x1
     cd8:	00b71593          	slli	a1,a4,0xb
     cdc:	00160513          	addi	a0,a2,1 # 80000001 <_impure_ptr+0x7fffc859>
     ce0:	fe05d8e3          	bgez	a1,cd0 <__ieee754_sqrt+0x1bc>
     ce4:	02000893          	li	a7,32
     ce8:	00068813          	mv	a6,a3
     cec:	40a888b3          	sub	a7,a7,a0
     cf0:	00070593          	mv	a1,a4
     cf4:	00a696b3          	sll	a3,a3,a0
     cf8:	01185733          	srl	a4,a6,a7
     cfc:	40c78e33          	sub	t3,a5,a2
     d00:	00b767b3          	or	a5,a4,a1
     d04:	e49ff06f          	j	b4c <__ieee754_sqrt+0x38>
     d08:	fff5c893          	not	a7,a1
     d0c:	01f8d893          	srli	a7,a7,0x1f
     d10:	011688b3          	add	a7,a3,a7
     d14:	efdff06f          	j	c10 <__ieee754_sqrt+0xfc>
     d18:	eca764e3          	bltu	a4,a0,be0 <__ieee754_sqrt+0xcc>
     d1c:	00c505b3          	add	a1,a0,a2
     d20:	fe0544e3          	bltz	a0,d08 <__ieee754_sqrt+0x1f4>
     d24:	00078893          	mv	a7,a5
     d28:	00000793          	li	a5,0
     d2c:	ef1ff06f          	j	c1c <__ieee754_sqrt+0x108>
     d30:	fff00793          	li	a5,-1
     d34:	06f30e63          	beq	t1,a5,db0 <__ieee754_sqrt+0x29c>
     d38:	00130813          	addi	a6,t1,1
     d3c:	00185813          	srli	a6,a6,0x1
     d40:	f11ff06f          	j	c50 <__ieee754_sqrt+0x13c>
     d44:	00050613          	mv	a2,a0
     d48:	00058693          	mv	a3,a1
     d4c:	0ec010ef          	jal	ra,1e38 <__muldf3>
     d50:	00040613          	mv	a2,s0
     d54:	00048693          	mv	a3,s1
     d58:	070000ef          	jal	ra,dc8 <__adddf3>
     d5c:	00050413          	mv	s0,a0
     d60:	00040513          	mv	a0,s0
     d64:	00c12083          	lw	ra,12(sp)
     d68:	00812403          	lw	s0,8(sp)
     d6c:	00058713          	mv	a4,a1
     d70:	00412483          	lw	s1,4(sp)
     d74:	00070593          	mv	a1,a4
     d78:	01010113          	addi	sp,sp,16
     d7c:	00008067          	ret
     d80:	00050613          	mv	a2,a0
     d84:	00058693          	mv	a3,a1
     d88:	71c010ef          	jal	ra,24a4 <__subdf3>
     d8c:	00050613          	mv	a2,a0
     d90:	00058693          	mv	a3,a1
     d94:	7f4000ef          	jal	ra,1588 <__divdf3>
     d98:	00050413          	mv	s0,a0
     d9c:	00058713          	mv	a4,a1
     da0:	ed9ff06f          	j	c78 <__ieee754_sqrt+0x164>
     da4:	00058713          	mv	a4,a1
     da8:	00000793          	li	a5,0
     dac:	f1dff06f          	j	cc8 <__ieee754_sqrt+0x1b4>
     db0:	001e8e93          	addi	t4,t4,1
     db4:	e9dff06f          	j	c50 <__ieee754_sqrt+0x13c>
     db8:	00068813          	mv	a6,a3
     dbc:	02000893          	li	a7,32
     dc0:	fff00613          	li	a2,-1
     dc4:	f35ff06f          	j	cf8 <__ieee754_sqrt+0x1e4>

00000dc8 <__adddf3>:
     dc8:	00100837          	lui	a6,0x100
     dcc:	fff80813          	addi	a6,a6,-1 # fffff <_impure_ptr+0xfc857>
     dd0:	00b878b3          	and	a7,a6,a1
     dd4:	00389893          	slli	a7,a7,0x3
     dd8:	01d55793          	srli	a5,a0,0x1d
     ddc:	fe010113          	addi	sp,sp,-32
     de0:	0145d713          	srli	a4,a1,0x14
     de4:	00d87833          	and	a6,a6,a3
     de8:	0117e7b3          	or	a5,a5,a7
     dec:	0146d893          	srli	a7,a3,0x14
     df0:	00381813          	slli	a6,a6,0x3
     df4:	00912a23          	sw	s1,20(sp)
     df8:	01212823          	sw	s2,16(sp)
     dfc:	7ff77493          	andi	s1,a4,2047
     e00:	7ff8f893          	andi	a7,a7,2047
     e04:	01d65713          	srli	a4,a2,0x1d
     e08:	00112e23          	sw	ra,28(sp)
     e0c:	00812c23          	sw	s0,24(sp)
     e10:	01312623          	sw	s3,12(sp)
     e14:	01f5d913          	srli	s2,a1,0x1f
     e18:	01f6d693          	srli	a3,a3,0x1f
     e1c:	01076733          	or	a4,a4,a6
     e20:	00351513          	slli	a0,a0,0x3
     e24:	00361613          	slli	a2,a2,0x3
     e28:	41148833          	sub	a6,s1,a7
     e2c:	2cd91463          	bne	s2,a3,10f4 <__adddf3+0x32c>
     e30:	11005e63          	blez	a6,f4c <__adddf3+0x184>
     e34:	04089063          	bnez	a7,e74 <__adddf3+0xac>
     e38:	00c766b3          	or	a3,a4,a2
     e3c:	70068063          	beqz	a3,153c <__adddf3+0x774>
     e40:	fff80593          	addi	a1,a6,-1
     e44:	02059063          	bnez	a1,e64 <__adddf3+0x9c>
     e48:	00c50633          	add	a2,a0,a2
     e4c:	00a63533          	sltu	a0,a2,a0
     e50:	00e787b3          	add	a5,a5,a4
     e54:	00a787b3          	add	a5,a5,a0
     e58:	00060513          	mv	a0,a2
     e5c:	00100493          	li	s1,1
     e60:	0700006f          	j	ed0 <__adddf3+0x108>
     e64:	7ff00693          	li	a3,2047
     e68:	02d81063          	bne	a6,a3,e88 <__adddf3+0xc0>
     e6c:	7ff00493          	li	s1,2047
     e70:	20c0006f          	j	107c <__adddf3+0x2b4>
     e74:	7ff00693          	li	a3,2047
     e78:	20d48263          	beq	s1,a3,107c <__adddf3+0x2b4>
     e7c:	008006b7          	lui	a3,0x800
     e80:	00d76733          	or	a4,a4,a3
     e84:	00080593          	mv	a1,a6
     e88:	03800693          	li	a3,56
     e8c:	0ab6ca63          	blt	a3,a1,f40 <__adddf3+0x178>
     e90:	01f00693          	li	a3,31
     e94:	06b6cc63          	blt	a3,a1,f0c <__adddf3+0x144>
     e98:	02000813          	li	a6,32
     e9c:	40b80833          	sub	a6,a6,a1
     ea0:	010716b3          	sll	a3,a4,a6
     ea4:	00b658b3          	srl	a7,a2,a1
     ea8:	01061633          	sll	a2,a2,a6
     eac:	0116e6b3          	or	a3,a3,a7
     eb0:	00c03633          	snez	a2,a2
     eb4:	00c6e633          	or	a2,a3,a2
     eb8:	00b75733          	srl	a4,a4,a1
     ebc:	00a60633          	add	a2,a2,a0
     ec0:	00f70733          	add	a4,a4,a5
     ec4:	00a637b3          	sltu	a5,a2,a0
     ec8:	00f707b3          	add	a5,a4,a5
     ecc:	00060513          	mv	a0,a2
     ed0:	00879713          	slli	a4,a5,0x8
     ed4:	1a075463          	bgez	a4,107c <__adddf3+0x2b4>
     ed8:	00148493          	addi	s1,s1,1 # 3fe00001 <_impure_ptr+0x3fdfc859>
     edc:	7ff00713          	li	a4,2047
     ee0:	5ce48463          	beq	s1,a4,14a8 <__adddf3+0x6e0>
     ee4:	ff8006b7          	lui	a3,0xff800
     ee8:	fff68693          	addi	a3,a3,-1 # ff7fffff <_impure_ptr+0xff7fc857>
     eec:	00d7f6b3          	and	a3,a5,a3
     ef0:	00155593          	srli	a1,a0,0x1
     ef4:	00157513          	andi	a0,a0,1
     ef8:	01f69793          	slli	a5,a3,0x1f
     efc:	00a5e533          	or	a0,a1,a0
     f00:	00a7e533          	or	a0,a5,a0
     f04:	0016d793          	srli	a5,a3,0x1
     f08:	1740006f          	j	107c <__adddf3+0x2b4>
     f0c:	fe058693          	addi	a3,a1,-32
     f10:	02000893          	li	a7,32
     f14:	00d756b3          	srl	a3,a4,a3
     f18:	00000813          	li	a6,0
     f1c:	01158863          	beq	a1,a7,f2c <__adddf3+0x164>
     f20:	04000813          	li	a6,64
     f24:	40b805b3          	sub	a1,a6,a1
     f28:	00b71833          	sll	a6,a4,a1
     f2c:	00c86633          	or	a2,a6,a2
     f30:	00c03633          	snez	a2,a2
     f34:	00c6e633          	or	a2,a3,a2
     f38:	00000713          	li	a4,0
     f3c:	f81ff06f          	j	ebc <__adddf3+0xf4>
     f40:	00c76633          	or	a2,a4,a2
     f44:	00c03633          	snez	a2,a2
     f48:	ff1ff06f          	j	f38 <__adddf3+0x170>
     f4c:	0e080263          	beqz	a6,1030 <__adddf3+0x268>
     f50:	409885b3          	sub	a1,a7,s1
     f54:	02049e63          	bnez	s1,f90 <__adddf3+0x1c8>
     f58:	00a7e6b3          	or	a3,a5,a0
     f5c:	52068663          	beqz	a3,1488 <__adddf3+0x6c0>
     f60:	fff58693          	addi	a3,a1,-1
     f64:	00069c63          	bnez	a3,f7c <__adddf3+0x1b4>
     f68:	00c50533          	add	a0,a0,a2
     f6c:	00e787b3          	add	a5,a5,a4
     f70:	00c53633          	sltu	a2,a0,a2
     f74:	00c787b3          	add	a5,a5,a2
     f78:	ee5ff06f          	j	e5c <__adddf3+0x94>
     f7c:	7ff00813          	li	a6,2047
     f80:	03059263          	bne	a1,a6,fa4 <__adddf3+0x1dc>
     f84:	00070793          	mv	a5,a4
     f88:	00060513          	mv	a0,a2
     f8c:	ee1ff06f          	j	e6c <__adddf3+0xa4>
     f90:	7ff00693          	li	a3,2047
     f94:	fed888e3          	beq	a7,a3,f84 <__adddf3+0x1bc>
     f98:	008006b7          	lui	a3,0x800
     f9c:	00d7e7b3          	or	a5,a5,a3
     fa0:	00058693          	mv	a3,a1
     fa4:	03800593          	li	a1,56
     fa8:	06d5ce63          	blt	a1,a3,1024 <__adddf3+0x25c>
     fac:	01f00593          	li	a1,31
     fb0:	04d5c063          	blt	a1,a3,ff0 <__adddf3+0x228>
     fb4:	02000813          	li	a6,32
     fb8:	40d80833          	sub	a6,a6,a3
     fbc:	00d55333          	srl	t1,a0,a3
     fc0:	010795b3          	sll	a1,a5,a6
     fc4:	01051533          	sll	a0,a0,a6
     fc8:	0065e5b3          	or	a1,a1,t1
     fcc:	00a03533          	snez	a0,a0
     fd0:	00a5e533          	or	a0,a1,a0
     fd4:	00d7d6b3          	srl	a3,a5,a3
     fd8:	00c50533          	add	a0,a0,a2
     fdc:	00e687b3          	add	a5,a3,a4
     fe0:	00c53633          	sltu	a2,a0,a2
     fe4:	00c787b3          	add	a5,a5,a2
     fe8:	00088493          	mv	s1,a7
     fec:	ee5ff06f          	j	ed0 <__adddf3+0x108>
     ff0:	fe068593          	addi	a1,a3,-32 # 7fffe0 <_impure_ptr+0x7fc838>
     ff4:	02000313          	li	t1,32
     ff8:	00b7d5b3          	srl	a1,a5,a1
     ffc:	00000813          	li	a6,0
    1000:	00668863          	beq	a3,t1,1010 <__adddf3+0x248>
    1004:	04000813          	li	a6,64
    1008:	40d806b3          	sub	a3,a6,a3
    100c:	00d79833          	sll	a6,a5,a3
    1010:	00a86533          	or	a0,a6,a0
    1014:	00a03533          	snez	a0,a0
    1018:	00a5e533          	or	a0,a1,a0
    101c:	00000693          	li	a3,0
    1020:	fb9ff06f          	j	fd8 <__adddf3+0x210>
    1024:	00a7e533          	or	a0,a5,a0
    1028:	00a03533          	snez	a0,a0
    102c:	ff1ff06f          	j	101c <__adddf3+0x254>
    1030:	00148693          	addi	a3,s1,1
    1034:	7fe6f593          	andi	a1,a3,2046
    1038:	08059663          	bnez	a1,10c4 <__adddf3+0x2fc>
    103c:	00a7e6b3          	or	a3,a5,a0
    1040:	06049263          	bnez	s1,10a4 <__adddf3+0x2dc>
    1044:	44068a63          	beqz	a3,1498 <__adddf3+0x6d0>
    1048:	00c766b3          	or	a3,a4,a2
    104c:	02068863          	beqz	a3,107c <__adddf3+0x2b4>
    1050:	00c50633          	add	a2,a0,a2
    1054:	00e787b3          	add	a5,a5,a4
    1058:	00a63533          	sltu	a0,a2,a0
    105c:	00a787b3          	add	a5,a5,a0
    1060:	00879713          	slli	a4,a5,0x8
    1064:	00060513          	mv	a0,a2
    1068:	00075a63          	bgez	a4,107c <__adddf3+0x2b4>
    106c:	ff800737          	lui	a4,0xff800
    1070:	fff70713          	addi	a4,a4,-1 # ff7fffff <_impure_ptr+0xff7fc857>
    1074:	00e7f7b3          	and	a5,a5,a4
    1078:	00100493          	li	s1,1
    107c:	00757713          	andi	a4,a0,7
    1080:	42070863          	beqz	a4,14b0 <__adddf3+0x6e8>
    1084:	00f57713          	andi	a4,a0,15
    1088:	00400693          	li	a3,4
    108c:	42d70263          	beq	a4,a3,14b0 <__adddf3+0x6e8>
    1090:	00450693          	addi	a3,a0,4
    1094:	00a6b533          	sltu	a0,a3,a0
    1098:	00a787b3          	add	a5,a5,a0
    109c:	00068513          	mv	a0,a3
    10a0:	4100006f          	j	14b0 <__adddf3+0x6e8>
    10a4:	ee0680e3          	beqz	a3,f84 <__adddf3+0x1bc>
    10a8:	00c76633          	or	a2,a4,a2
    10ac:	dc0600e3          	beqz	a2,e6c <__adddf3+0xa4>
    10b0:	00000913          	li	s2,0
    10b4:	004007b7          	lui	a5,0x400
    10b8:	00000513          	li	a0,0
    10bc:	7ff00493          	li	s1,2047
    10c0:	3f00006f          	j	14b0 <__adddf3+0x6e8>
    10c4:	7ff00593          	li	a1,2047
    10c8:	3cb68e63          	beq	a3,a1,14a4 <__adddf3+0x6dc>
    10cc:	00c50633          	add	a2,a0,a2
    10d0:	00e78733          	add	a4,a5,a4
    10d4:	00a637b3          	sltu	a5,a2,a0
    10d8:	00f70733          	add	a4,a4,a5
    10dc:	01f71513          	slli	a0,a4,0x1f
    10e0:	00165613          	srli	a2,a2,0x1
    10e4:	00c56533          	or	a0,a0,a2
    10e8:	00175793          	srli	a5,a4,0x1
    10ec:	00068493          	mv	s1,a3
    10f0:	f8dff06f          	j	107c <__adddf3+0x2b4>
    10f4:	0f005c63          	blez	a6,11ec <__adddf3+0x424>
    10f8:	08089e63          	bnez	a7,1194 <__adddf3+0x3cc>
    10fc:	00c766b3          	or	a3,a4,a2
    1100:	42068e63          	beqz	a3,153c <__adddf3+0x774>
    1104:	fff80593          	addi	a1,a6,-1
    1108:	02059063          	bnez	a1,1128 <__adddf3+0x360>
    110c:	40c50633          	sub	a2,a0,a2
    1110:	00c53533          	sltu	a0,a0,a2
    1114:	40e787b3          	sub	a5,a5,a4
    1118:	40a787b3          	sub	a5,a5,a0
    111c:	00060513          	mv	a0,a2
    1120:	00100493          	li	s1,1
    1124:	0540006f          	j	1178 <__adddf3+0x3b0>
    1128:	7ff00693          	li	a3,2047
    112c:	d4d800e3          	beq	a6,a3,e6c <__adddf3+0xa4>
    1130:	03800693          	li	a3,56
    1134:	0ab6c663          	blt	a3,a1,11e0 <__adddf3+0x418>
    1138:	01f00693          	li	a3,31
    113c:	06b6c863          	blt	a3,a1,11ac <__adddf3+0x3e4>
    1140:	02000813          	li	a6,32
    1144:	40b80833          	sub	a6,a6,a1
    1148:	010716b3          	sll	a3,a4,a6
    114c:	00b658b3          	srl	a7,a2,a1
    1150:	01061633          	sll	a2,a2,a6
    1154:	0116e6b3          	or	a3,a3,a7
    1158:	00c03633          	snez	a2,a2
    115c:	00c6e633          	or	a2,a3,a2
    1160:	00b75733          	srl	a4,a4,a1
    1164:	40c50633          	sub	a2,a0,a2
    1168:	40e78733          	sub	a4,a5,a4
    116c:	00c537b3          	sltu	a5,a0,a2
    1170:	40f707b3          	sub	a5,a4,a5
    1174:	00060513          	mv	a0,a2
    1178:	00879713          	slli	a4,a5,0x8
    117c:	f00750e3          	bgez	a4,107c <__adddf3+0x2b4>
    1180:	00800437          	lui	s0,0x800
    1184:	fff40413          	addi	s0,s0,-1 # 7fffff <_impure_ptr+0x7fc857>
    1188:	0087f433          	and	s0,a5,s0
    118c:	00050993          	mv	s3,a0
    1190:	20c0006f          	j	139c <__adddf3+0x5d4>
    1194:	7ff00693          	li	a3,2047
    1198:	eed482e3          	beq	s1,a3,107c <__adddf3+0x2b4>
    119c:	008006b7          	lui	a3,0x800
    11a0:	00d76733          	or	a4,a4,a3
    11a4:	00080593          	mv	a1,a6
    11a8:	f89ff06f          	j	1130 <__adddf3+0x368>
    11ac:	fe058693          	addi	a3,a1,-32
    11b0:	02000893          	li	a7,32
    11b4:	00d756b3          	srl	a3,a4,a3
    11b8:	00000813          	li	a6,0
    11bc:	01158863          	beq	a1,a7,11cc <__adddf3+0x404>
    11c0:	04000813          	li	a6,64
    11c4:	40b805b3          	sub	a1,a6,a1
    11c8:	00b71833          	sll	a6,a4,a1
    11cc:	00c86633          	or	a2,a6,a2
    11d0:	00c03633          	snez	a2,a2
    11d4:	00c6e633          	or	a2,a3,a2
    11d8:	00000713          	li	a4,0
    11dc:	f89ff06f          	j	1164 <__adddf3+0x39c>
    11e0:	00c76633          	or	a2,a4,a2
    11e4:	00c03633          	snez	a2,a2
    11e8:	ff1ff06f          	j	11d8 <__adddf3+0x410>
    11ec:	0e080863          	beqz	a6,12dc <__adddf3+0x514>
    11f0:	40988833          	sub	a6,a7,s1
    11f4:	04049263          	bnez	s1,1238 <__adddf3+0x470>
    11f8:	00a7e5b3          	or	a1,a5,a0
    11fc:	34058463          	beqz	a1,1544 <__adddf3+0x77c>
    1200:	fff80593          	addi	a1,a6,-1
    1204:	00059e63          	bnez	a1,1220 <__adddf3+0x458>
    1208:	40a60533          	sub	a0,a2,a0
    120c:	40f707b3          	sub	a5,a4,a5
    1210:	00a63633          	sltu	a2,a2,a0
    1214:	40c787b3          	sub	a5,a5,a2
    1218:	00068913          	mv	s2,a3
    121c:	f05ff06f          	j	1120 <__adddf3+0x358>
    1220:	7ff00313          	li	t1,2047
    1224:	02681463          	bne	a6,t1,124c <__adddf3+0x484>
    1228:	00070793          	mv	a5,a4
    122c:	00060513          	mv	a0,a2
    1230:	7ff00493          	li	s1,2047
    1234:	0d00006f          	j	1304 <__adddf3+0x53c>
    1238:	7ff00593          	li	a1,2047
    123c:	feb886e3          	beq	a7,a1,1228 <__adddf3+0x460>
    1240:	008005b7          	lui	a1,0x800
    1244:	00b7e7b3          	or	a5,a5,a1
    1248:	00080593          	mv	a1,a6
    124c:	03800813          	li	a6,56
    1250:	08b84063          	blt	a6,a1,12d0 <__adddf3+0x508>
    1254:	01f00813          	li	a6,31
    1258:	04b84263          	blt	a6,a1,129c <__adddf3+0x4d4>
    125c:	02000313          	li	t1,32
    1260:	40b30333          	sub	t1,t1,a1
    1264:	00b55e33          	srl	t3,a0,a1
    1268:	00679833          	sll	a6,a5,t1
    126c:	00651533          	sll	a0,a0,t1
    1270:	01c86833          	or	a6,a6,t3
    1274:	00a03533          	snez	a0,a0
    1278:	00a86533          	or	a0,a6,a0
    127c:	00b7d5b3          	srl	a1,a5,a1
    1280:	40a60533          	sub	a0,a2,a0
    1284:	40b707b3          	sub	a5,a4,a1
    1288:	00a63633          	sltu	a2,a2,a0
    128c:	40c787b3          	sub	a5,a5,a2
    1290:	00088493          	mv	s1,a7
    1294:	00068913          	mv	s2,a3
    1298:	ee1ff06f          	j	1178 <__adddf3+0x3b0>
    129c:	fe058813          	addi	a6,a1,-32 # 7fffe0 <_impure_ptr+0x7fc838>
    12a0:	02000e13          	li	t3,32
    12a4:	0107d833          	srl	a6,a5,a6
    12a8:	00000313          	li	t1,0
    12ac:	01c58863          	beq	a1,t3,12bc <__adddf3+0x4f4>
    12b0:	04000313          	li	t1,64
    12b4:	40b305b3          	sub	a1,t1,a1
    12b8:	00b79333          	sll	t1,a5,a1
    12bc:	00a36533          	or	a0,t1,a0
    12c0:	00a03533          	snez	a0,a0
    12c4:	00a86533          	or	a0,a6,a0
    12c8:	00000593          	li	a1,0
    12cc:	fb5ff06f          	j	1280 <__adddf3+0x4b8>
    12d0:	00a7e533          	or	a0,a5,a0
    12d4:	00a03533          	snez	a0,a0
    12d8:	ff1ff06f          	j	12c8 <__adddf3+0x500>
    12dc:	00148593          	addi	a1,s1,1
    12e0:	7fe5f593          	andi	a1,a1,2046
    12e4:	08059663          	bnez	a1,1370 <__adddf3+0x5a8>
    12e8:	00a7e833          	or	a6,a5,a0
    12ec:	00c765b3          	or	a1,a4,a2
    12f0:	06049063          	bnez	s1,1350 <__adddf3+0x588>
    12f4:	00081c63          	bnez	a6,130c <__adddf3+0x544>
    12f8:	24058e63          	beqz	a1,1554 <__adddf3+0x78c>
    12fc:	00070793          	mv	a5,a4
    1300:	00060513          	mv	a0,a2
    1304:	00068913          	mv	s2,a3
    1308:	d75ff06f          	j	107c <__adddf3+0x2b4>
    130c:	d60588e3          	beqz	a1,107c <__adddf3+0x2b4>
    1310:	40c50833          	sub	a6,a0,a2
    1314:	010538b3          	sltu	a7,a0,a6
    1318:	40e785b3          	sub	a1,a5,a4
    131c:	411585b3          	sub	a1,a1,a7
    1320:	00859893          	slli	a7,a1,0x8
    1324:	0008dc63          	bgez	a7,133c <__adddf3+0x574>
    1328:	40a60533          	sub	a0,a2,a0
    132c:	40f707b3          	sub	a5,a4,a5
    1330:	00a63633          	sltu	a2,a2,a0
    1334:	40c787b3          	sub	a5,a5,a2
    1338:	fcdff06f          	j	1304 <__adddf3+0x53c>
    133c:	00b86533          	or	a0,a6,a1
    1340:	22050263          	beqz	a0,1564 <__adddf3+0x79c>
    1344:	00058793          	mv	a5,a1
    1348:	00080513          	mv	a0,a6
    134c:	d31ff06f          	j	107c <__adddf3+0x2b4>
    1350:	00081c63          	bnez	a6,1368 <__adddf3+0x5a0>
    1354:	20058c63          	beqz	a1,156c <__adddf3+0x7a4>
    1358:	00070793          	mv	a5,a4
    135c:	00060513          	mv	a0,a2
    1360:	00068913          	mv	s2,a3
    1364:	b09ff06f          	j	e6c <__adddf3+0xa4>
    1368:	b00582e3          	beqz	a1,e6c <__adddf3+0xa4>
    136c:	d45ff06f          	j	10b0 <__adddf3+0x2e8>
    1370:	40c509b3          	sub	s3,a0,a2
    1374:	013535b3          	sltu	a1,a0,s3
    1378:	40e78433          	sub	s0,a5,a4
    137c:	40b40433          	sub	s0,s0,a1
    1380:	00841593          	slli	a1,s0,0x8
    1384:	0805d463          	bgez	a1,140c <__adddf3+0x644>
    1388:	40a609b3          	sub	s3,a2,a0
    138c:	40f707b3          	sub	a5,a4,a5
    1390:	01363633          	sltu	a2,a2,s3
    1394:	40c78433          	sub	s0,a5,a2
    1398:	00068913          	mv	s2,a3
    139c:	08040263          	beqz	s0,1420 <__adddf3+0x658>
    13a0:	00040513          	mv	a0,s0
    13a4:	1e9010ef          	jal	ra,2d8c <__clzsi2>
    13a8:	ff850713          	addi	a4,a0,-8
    13ac:	01f00793          	li	a5,31
    13b0:	08e7c063          	blt	a5,a4,1430 <__adddf3+0x668>
    13b4:	02000793          	li	a5,32
    13b8:	40e787b3          	sub	a5,a5,a4
    13bc:	00e41433          	sll	s0,s0,a4
    13c0:	00f9d7b3          	srl	a5,s3,a5
    13c4:	0087e433          	or	s0,a5,s0
    13c8:	00e99533          	sll	a0,s3,a4
    13cc:	0a974463          	blt	a4,s1,1474 <__adddf3+0x6ac>
    13d0:	40970733          	sub	a4,a4,s1
    13d4:	00170793          	addi	a5,a4,1
    13d8:	01f00693          	li	a3,31
    13dc:	06f6c263          	blt	a3,a5,1440 <__adddf3+0x678>
    13e0:	02000713          	li	a4,32
    13e4:	40f70733          	sub	a4,a4,a5
    13e8:	00f55633          	srl	a2,a0,a5
    13ec:	00e416b3          	sll	a3,s0,a4
    13f0:	00e51533          	sll	a0,a0,a4
    13f4:	00c6e6b3          	or	a3,a3,a2
    13f8:	00a03533          	snez	a0,a0
    13fc:	00a6e533          	or	a0,a3,a0
    1400:	00f457b3          	srl	a5,s0,a5
    1404:	00000493          	li	s1,0
    1408:	c75ff06f          	j	107c <__adddf3+0x2b4>
    140c:	0089e533          	or	a0,s3,s0
    1410:	f80516e3          	bnez	a0,139c <__adddf3+0x5d4>
    1414:	00000793          	li	a5,0
    1418:	00000493          	li	s1,0
    141c:	1400006f          	j	155c <__adddf3+0x794>
    1420:	00098513          	mv	a0,s3
    1424:	169010ef          	jal	ra,2d8c <__clzsi2>
    1428:	02050513          	addi	a0,a0,32
    142c:	f7dff06f          	j	13a8 <__adddf3+0x5e0>
    1430:	fd850413          	addi	s0,a0,-40
    1434:	00899433          	sll	s0,s3,s0
    1438:	00000513          	li	a0,0
    143c:	f91ff06f          	j	13cc <__adddf3+0x604>
    1440:	fe170713          	addi	a4,a4,-31
    1444:	02000613          	li	a2,32
    1448:	00e45733          	srl	a4,s0,a4
    144c:	00000693          	li	a3,0
    1450:	00c78863          	beq	a5,a2,1460 <__adddf3+0x698>
    1454:	04000693          	li	a3,64
    1458:	40f686b3          	sub	a3,a3,a5
    145c:	00d416b3          	sll	a3,s0,a3
    1460:	00d56533          	or	a0,a0,a3
    1464:	00a03533          	snez	a0,a0
    1468:	00a76533          	or	a0,a4,a0
    146c:	00000793          	li	a5,0
    1470:	f95ff06f          	j	1404 <__adddf3+0x63c>
    1474:	ff8007b7          	lui	a5,0xff800
    1478:	fff78793          	addi	a5,a5,-1 # ff7fffff <_impure_ptr+0xff7fc857>
    147c:	40e484b3          	sub	s1,s1,a4
    1480:	00f477b3          	and	a5,s0,a5
    1484:	bf9ff06f          	j	107c <__adddf3+0x2b4>
    1488:	00070793          	mv	a5,a4
    148c:	00060513          	mv	a0,a2
    1490:	00058493          	mv	s1,a1
    1494:	be9ff06f          	j	107c <__adddf3+0x2b4>
    1498:	00070793          	mv	a5,a4
    149c:	00060513          	mv	a0,a2
    14a0:	bddff06f          	j	107c <__adddf3+0x2b4>
    14a4:	7ff00493          	li	s1,2047
    14a8:	00000793          	li	a5,0
    14ac:	00000513          	li	a0,0
    14b0:	00879713          	slli	a4,a5,0x8
    14b4:	00075e63          	bgez	a4,14d0 <__adddf3+0x708>
    14b8:	00148493          	addi	s1,s1,1
    14bc:	7ff00713          	li	a4,2047
    14c0:	0ae48e63          	beq	s1,a4,157c <__adddf3+0x7b4>
    14c4:	ff800737          	lui	a4,0xff800
    14c8:	fff70713          	addi	a4,a4,-1 # ff7fffff <_impure_ptr+0xff7fc857>
    14cc:	00e7f7b3          	and	a5,a5,a4
    14d0:	01d79713          	slli	a4,a5,0x1d
    14d4:	00355513          	srli	a0,a0,0x3
    14d8:	00a76533          	or	a0,a4,a0
    14dc:	7ff00713          	li	a4,2047
    14e0:	0037d793          	srli	a5,a5,0x3
    14e4:	00e49e63          	bne	s1,a4,1500 <__adddf3+0x738>
    14e8:	00f56533          	or	a0,a0,a5
    14ec:	00000793          	li	a5,0
    14f0:	00050863          	beqz	a0,1500 <__adddf3+0x738>
    14f4:	000807b7          	lui	a5,0x80
    14f8:	00000513          	li	a0,0
    14fc:	00000913          	li	s2,0
    1500:	7ff4f713          	andi	a4,s1,2047
    1504:	00c79793          	slli	a5,a5,0xc
    1508:	01471713          	slli	a4,a4,0x14
    150c:	01c12083          	lw	ra,28(sp)
    1510:	01812403          	lw	s0,24(sp)
    1514:	00c7d793          	srli	a5,a5,0xc
    1518:	01f91593          	slli	a1,s2,0x1f
    151c:	00e7e7b3          	or	a5,a5,a4
    1520:	00b7e733          	or	a4,a5,a1
    1524:	01412483          	lw	s1,20(sp)
    1528:	01012903          	lw	s2,16(sp)
    152c:	00c12983          	lw	s3,12(sp)
    1530:	00070593          	mv	a1,a4
    1534:	02010113          	addi	sp,sp,32
    1538:	00008067          	ret
    153c:	00080493          	mv	s1,a6
    1540:	b3dff06f          	j	107c <__adddf3+0x2b4>
    1544:	00070793          	mv	a5,a4
    1548:	00060513          	mv	a0,a2
    154c:	00080493          	mv	s1,a6
    1550:	db5ff06f          	j	1304 <__adddf3+0x53c>
    1554:	00000793          	li	a5,0
    1558:	00000513          	li	a0,0
    155c:	00000913          	li	s2,0
    1560:	f51ff06f          	j	14b0 <__adddf3+0x6e8>
    1564:	00000793          	li	a5,0
    1568:	ff5ff06f          	j	155c <__adddf3+0x794>
    156c:	00000513          	li	a0,0
    1570:	00000913          	li	s2,0
    1574:	004007b7          	lui	a5,0x400
    1578:	b45ff06f          	j	10bc <__adddf3+0x2f4>
    157c:	00000793          	li	a5,0
    1580:	00000513          	li	a0,0
    1584:	f4dff06f          	j	14d0 <__adddf3+0x708>

00001588 <__divdf3>:
    1588:	fb010113          	addi	sp,sp,-80
    158c:	03312e23          	sw	s3,60(sp)
    1590:	0145d993          	srli	s3,a1,0x14
    1594:	04912223          	sw	s1,68(sp)
    1598:	05212023          	sw	s2,64(sp)
    159c:	03512a23          	sw	s5,52(sp)
    15a0:	03612823          	sw	s6,48(sp)
    15a4:	03712623          	sw	s7,44(sp)
    15a8:	00c59493          	slli	s1,a1,0xc
    15ac:	04112623          	sw	ra,76(sp)
    15b0:	04812423          	sw	s0,72(sp)
    15b4:	03412c23          	sw	s4,56(sp)
    15b8:	03812423          	sw	s8,40(sp)
    15bc:	03912223          	sw	s9,36(sp)
    15c0:	03a12023          	sw	s10,32(sp)
    15c4:	01b12e23          	sw	s11,28(sp)
    15c8:	7ff9f993          	andi	s3,s3,2047
    15cc:	00050913          	mv	s2,a0
    15d0:	00060b93          	mv	s7,a2
    15d4:	00068b13          	mv	s6,a3
    15d8:	00c4d493          	srli	s1,s1,0xc
    15dc:	01f5da93          	srli	s5,a1,0x1f
    15e0:	0a098063          	beqz	s3,1680 <__divdf3+0xf8>
    15e4:	7ff00793          	li	a5,2047
    15e8:	0ef98e63          	beq	s3,a5,16e4 <__divdf3+0x15c>
    15ec:	01d55c93          	srli	s9,a0,0x1d
    15f0:	00349493          	slli	s1,s1,0x3
    15f4:	009ce4b3          	or	s1,s9,s1
    15f8:	00800cb7          	lui	s9,0x800
    15fc:	0194ecb3          	or	s9,s1,s9
    1600:	00351413          	slli	s0,a0,0x3
    1604:	c0198a13          	addi	s4,s3,-1023
    1608:	00000c13          	li	s8,0
    160c:	014b5513          	srli	a0,s6,0x14
    1610:	00cb1913          	slli	s2,s6,0xc
    1614:	7ff57993          	andi	s3,a0,2047
    1618:	00c95913          	srli	s2,s2,0xc
    161c:	01fb5b13          	srli	s6,s6,0x1f
    1620:	10098063          	beqz	s3,1720 <__divdf3+0x198>
    1624:	7ff00793          	li	a5,2047
    1628:	16f98063          	beq	s3,a5,1788 <__divdf3+0x200>
    162c:	00391513          	slli	a0,s2,0x3
    1630:	01dbd793          	srli	a5,s7,0x1d
    1634:	00a7e533          	or	a0,a5,a0
    1638:	00800937          	lui	s2,0x800
    163c:	01256933          	or	s2,a0,s2
    1640:	003b9813          	slli	a6,s7,0x3
    1644:	c0198513          	addi	a0,s3,-1023
    1648:	00000793          	li	a5,0
    164c:	002c1713          	slli	a4,s8,0x2
    1650:	00f76733          	or	a4,a4,a5
    1654:	fff70713          	addi	a4,a4,-1
    1658:	00e00693          	li	a3,14
    165c:	016ac4b3          	xor	s1,s5,s6
    1660:	40aa09b3          	sub	s3,s4,a0
    1664:	14e6ee63          	bltu	a3,a4,17c0 <__divdf3+0x238>
    1668:	000036b7          	lui	a3,0x3
    166c:	00271713          	slli	a4,a4,0x2
    1670:	07068693          	addi	a3,a3,112 # 3070 <expected.2594+0x140>
    1674:	00d70733          	add	a4,a4,a3
    1678:	00072703          	lw	a4,0(a4)
    167c:	00070067          	jr	a4
    1680:	00a4ecb3          	or	s9,s1,a0
    1684:	060c8e63          	beqz	s9,1700 <__divdf3+0x178>
    1688:	04048063          	beqz	s1,16c8 <__divdf3+0x140>
    168c:	00048513          	mv	a0,s1
    1690:	6fc010ef          	jal	ra,2d8c <__clzsi2>
    1694:	ff550793          	addi	a5,a0,-11
    1698:	01c00713          	li	a4,28
    169c:	02f74c63          	blt	a4,a5,16d4 <__divdf3+0x14c>
    16a0:	01d00c93          	li	s9,29
    16a4:	ff850413          	addi	s0,a0,-8
    16a8:	40fc8cb3          	sub	s9,s9,a5
    16ac:	008494b3          	sll	s1,s1,s0
    16b0:	01995cb3          	srl	s9,s2,s9
    16b4:	009cecb3          	or	s9,s9,s1
    16b8:	00891433          	sll	s0,s2,s0
    16bc:	c0d00993          	li	s3,-1011
    16c0:	40a98a33          	sub	s4,s3,a0
    16c4:	f45ff06f          	j	1608 <__divdf3+0x80>
    16c8:	6c4010ef          	jal	ra,2d8c <__clzsi2>
    16cc:	02050513          	addi	a0,a0,32
    16d0:	fc5ff06f          	j	1694 <__divdf3+0x10c>
    16d4:	fd850493          	addi	s1,a0,-40
    16d8:	00991cb3          	sll	s9,s2,s1
    16dc:	00000413          	li	s0,0
    16e0:	fddff06f          	j	16bc <__divdf3+0x134>
    16e4:	00a4ecb3          	or	s9,s1,a0
    16e8:	020c8463          	beqz	s9,1710 <__divdf3+0x188>
    16ec:	00050413          	mv	s0,a0
    16f0:	00048c93          	mv	s9,s1
    16f4:	7ff00a13          	li	s4,2047
    16f8:	00300c13          	li	s8,3
    16fc:	f11ff06f          	j	160c <__divdf3+0x84>
    1700:	00000413          	li	s0,0
    1704:	00000a13          	li	s4,0
    1708:	00100c13          	li	s8,1
    170c:	f01ff06f          	j	160c <__divdf3+0x84>
    1710:	00000413          	li	s0,0
    1714:	7ff00a13          	li	s4,2047
    1718:	00200c13          	li	s8,2
    171c:	ef1ff06f          	j	160c <__divdf3+0x84>
    1720:	01796833          	or	a6,s2,s7
    1724:	06080e63          	beqz	a6,17a0 <__divdf3+0x218>
    1728:	04090063          	beqz	s2,1768 <__divdf3+0x1e0>
    172c:	00090513          	mv	a0,s2
    1730:	65c010ef          	jal	ra,2d8c <__clzsi2>
    1734:	ff550793          	addi	a5,a0,-11
    1738:	01c00713          	li	a4,28
    173c:	02f74e63          	blt	a4,a5,1778 <__divdf3+0x1f0>
    1740:	01d00713          	li	a4,29
    1744:	ff850813          	addi	a6,a0,-8
    1748:	40f70733          	sub	a4,a4,a5
    174c:	01091933          	sll	s2,s2,a6
    1750:	00ebd733          	srl	a4,s7,a4
    1754:	01276933          	or	s2,a4,s2
    1758:	010b9833          	sll	a6,s7,a6
    175c:	c0d00713          	li	a4,-1011
    1760:	40a70533          	sub	a0,a4,a0
    1764:	ee5ff06f          	j	1648 <__divdf3+0xc0>
    1768:	000b8513          	mv	a0,s7
    176c:	620010ef          	jal	ra,2d8c <__clzsi2>
    1770:	02050513          	addi	a0,a0,32
    1774:	fc1ff06f          	j	1734 <__divdf3+0x1ac>
    1778:	fd850913          	addi	s2,a0,-40
    177c:	012b9933          	sll	s2,s7,s2
    1780:	00000813          	li	a6,0
    1784:	fd9ff06f          	j	175c <__divdf3+0x1d4>
    1788:	01796833          	or	a6,s2,s7
    178c:	02080263          	beqz	a6,17b0 <__divdf3+0x228>
    1790:	000b8813          	mv	a6,s7
    1794:	7ff00513          	li	a0,2047
    1798:	00300793          	li	a5,3
    179c:	eb1ff06f          	j	164c <__divdf3+0xc4>
    17a0:	00000913          	li	s2,0
    17a4:	00000513          	li	a0,0
    17a8:	00100793          	li	a5,1
    17ac:	ea1ff06f          	j	164c <__divdf3+0xc4>
    17b0:	00000913          	li	s2,0
    17b4:	7ff00513          	li	a0,2047
    17b8:	00200793          	li	a5,2
    17bc:	e91ff06f          	j	164c <__divdf3+0xc4>
    17c0:	01996663          	bltu	s2,s9,17cc <__divdf3+0x244>
    17c4:	452c9263          	bne	s9,s2,1c08 <__divdf3+0x680>
    17c8:	45046063          	bltu	s0,a6,1c08 <__divdf3+0x680>
    17cc:	01fc9713          	slli	a4,s9,0x1f
    17d0:	00145793          	srli	a5,s0,0x1
    17d4:	01f41d93          	slli	s11,s0,0x1f
    17d8:	001cdc93          	srli	s9,s9,0x1
    17dc:	00f76433          	or	s0,a4,a5
    17e0:	01885b93          	srli	s7,a6,0x18
    17e4:	00891513          	slli	a0,s2,0x8
    17e8:	00abebb3          	or	s7,s7,a0
    17ec:	010bda93          	srli	s5,s7,0x10
    17f0:	000a8593          	mv	a1,s5
    17f4:	010b9b13          	slli	s6,s7,0x10
    17f8:	000c8513          	mv	a0,s9
    17fc:	00881c13          	slli	s8,a6,0x8
    1800:	010b5b13          	srli	s6,s6,0x10
    1804:	4dc010ef          	jal	ra,2ce0 <__udivsi3>
    1808:	00050593          	mv	a1,a0
    180c:	00050d13          	mv	s10,a0
    1810:	000b0513          	mv	a0,s6
    1814:	4a0010ef          	jal	ra,2cb4 <__mulsi3>
    1818:	00050913          	mv	s2,a0
    181c:	000a8593          	mv	a1,s5
    1820:	000c8513          	mv	a0,s9
    1824:	504010ef          	jal	ra,2d28 <__umodsi3>
    1828:	01051513          	slli	a0,a0,0x10
    182c:	01045793          	srli	a5,s0,0x10
    1830:	00a7e533          	or	a0,a5,a0
    1834:	000d0a13          	mv	s4,s10
    1838:	01257e63          	bgeu	a0,s2,1854 <__divdf3+0x2cc>
    183c:	01750533          	add	a0,a0,s7
    1840:	fffd0a13          	addi	s4,s10,-1
    1844:	01756863          	bltu	a0,s7,1854 <__divdf3+0x2cc>
    1848:	01257663          	bgeu	a0,s2,1854 <__divdf3+0x2cc>
    184c:	ffed0a13          	addi	s4,s10,-2
    1850:	01750533          	add	a0,a0,s7
    1854:	41250933          	sub	s2,a0,s2
    1858:	000a8593          	mv	a1,s5
    185c:	00090513          	mv	a0,s2
    1860:	480010ef          	jal	ra,2ce0 <__udivsi3>
    1864:	00050593          	mv	a1,a0
    1868:	00050d13          	mv	s10,a0
    186c:	000b0513          	mv	a0,s6
    1870:	444010ef          	jal	ra,2cb4 <__mulsi3>
    1874:	00050c93          	mv	s9,a0
    1878:	000a8593          	mv	a1,s5
    187c:	00090513          	mv	a0,s2
    1880:	4a8010ef          	jal	ra,2d28 <__umodsi3>
    1884:	01041413          	slli	s0,s0,0x10
    1888:	01051513          	slli	a0,a0,0x10
    188c:	01045413          	srli	s0,s0,0x10
    1890:	00a46433          	or	s0,s0,a0
    1894:	000d0713          	mv	a4,s10
    1898:	01947e63          	bgeu	s0,s9,18b4 <__divdf3+0x32c>
    189c:	01740433          	add	s0,s0,s7
    18a0:	fffd0713          	addi	a4,s10,-1
    18a4:	01746863          	bltu	s0,s7,18b4 <__divdf3+0x32c>
    18a8:	01947663          	bgeu	s0,s9,18b4 <__divdf3+0x32c>
    18ac:	ffed0713          	addi	a4,s10,-2
    18b0:	01740433          	add	s0,s0,s7
    18b4:	010a1793          	slli	a5,s4,0x10
    18b8:	00010e37          	lui	t3,0x10
    18bc:	00e7e7b3          	or	a5,a5,a4
    18c0:	41940833          	sub	a6,s0,s9
    18c4:	fffe0c93          	addi	s9,t3,-1 # ffff <_impure_ptr+0xc857>
    18c8:	0197f333          	and	t1,a5,s9
    18cc:	019c7cb3          	and	s9,s8,s9
    18d0:	0107d713          	srli	a4,a5,0x10
    18d4:	010c5d13          	srli	s10,s8,0x10
    18d8:	00030513          	mv	a0,t1
    18dc:	000c8593          	mv	a1,s9
    18e0:	3d4010ef          	jal	ra,2cb4 <__mulsi3>
    18e4:	00050893          	mv	a7,a0
    18e8:	000d0593          	mv	a1,s10
    18ec:	00030513          	mv	a0,t1
    18f0:	3c4010ef          	jal	ra,2cb4 <__mulsi3>
    18f4:	00050313          	mv	t1,a0
    18f8:	000c8593          	mv	a1,s9
    18fc:	00070513          	mv	a0,a4
    1900:	3b4010ef          	jal	ra,2cb4 <__mulsi3>
    1904:	00050e93          	mv	t4,a0
    1908:	000d0593          	mv	a1,s10
    190c:	00070513          	mv	a0,a4
    1910:	3a4010ef          	jal	ra,2cb4 <__mulsi3>
    1914:	0108d713          	srli	a4,a7,0x10
    1918:	01d30333          	add	t1,t1,t4
    191c:	00670733          	add	a4,a4,t1
    1920:	01d77463          	bgeu	a4,t4,1928 <__divdf3+0x3a0>
    1924:	01c50533          	add	a0,a0,t3
    1928:	01075413          	srli	s0,a4,0x10
    192c:	00a40433          	add	s0,s0,a0
    1930:	00010537          	lui	a0,0x10
    1934:	fff50513          	addi	a0,a0,-1 # ffff <_impure_ptr+0xc857>
    1938:	00a77a33          	and	s4,a4,a0
    193c:	010a1a13          	slli	s4,s4,0x10
    1940:	00a8f8b3          	and	a7,a7,a0
    1944:	011a0a33          	add	s4,s4,a7
    1948:	00886863          	bltu	a6,s0,1958 <__divdf3+0x3d0>
    194c:	00078913          	mv	s2,a5
    1950:	04881463          	bne	a6,s0,1998 <__divdf3+0x410>
    1954:	054df263          	bgeu	s11,s4,1998 <__divdf3+0x410>
    1958:	018d8db3          	add	s11,s11,s8
    195c:	018db733          	sltu	a4,s11,s8
    1960:	01770733          	add	a4,a4,s7
    1964:	00e80833          	add	a6,a6,a4
    1968:	fff78913          	addi	s2,a5,-1 # 3fffff <_impure_ptr+0x3fc857>
    196c:	010be663          	bltu	s7,a6,1978 <__divdf3+0x3f0>
    1970:	030b9463          	bne	s7,a6,1998 <__divdf3+0x410>
    1974:	038de263          	bltu	s11,s8,1998 <__divdf3+0x410>
    1978:	00886663          	bltu	a6,s0,1984 <__divdf3+0x3fc>
    197c:	01041e63          	bne	s0,a6,1998 <__divdf3+0x410>
    1980:	014dfc63          	bgeu	s11,s4,1998 <__divdf3+0x410>
    1984:	018d8db3          	add	s11,s11,s8
    1988:	ffe78913          	addi	s2,a5,-2
    198c:	018db7b3          	sltu	a5,s11,s8
    1990:	017787b3          	add	a5,a5,s7
    1994:	00f80833          	add	a6,a6,a5
    1998:	414d8a33          	sub	s4,s11,s4
    199c:	40880433          	sub	s0,a6,s0
    19a0:	014db7b3          	sltu	a5,s11,s4
    19a4:	40f40433          	sub	s0,s0,a5
    19a8:	fff00813          	li	a6,-1
    19ac:	1a8b8063          	beq	s7,s0,1b4c <__divdf3+0x5c4>
    19b0:	000a8593          	mv	a1,s5
    19b4:	00040513          	mv	a0,s0
    19b8:	328010ef          	jal	ra,2ce0 <__udivsi3>
    19bc:	00050593          	mv	a1,a0
    19c0:	00a12623          	sw	a0,12(sp)
    19c4:	000b0513          	mv	a0,s6
    19c8:	2ec010ef          	jal	ra,2cb4 <__mulsi3>
    19cc:	00a12423          	sw	a0,8(sp)
    19d0:	000a8593          	mv	a1,s5
    19d4:	00040513          	mv	a0,s0
    19d8:	350010ef          	jal	ra,2d28 <__umodsi3>
    19dc:	00c12683          	lw	a3,12(sp)
    19e0:	00812703          	lw	a4,8(sp)
    19e4:	01051513          	slli	a0,a0,0x10
    19e8:	010a5793          	srli	a5,s4,0x10
    19ec:	00a7e533          	or	a0,a5,a0
    19f0:	00068d93          	mv	s11,a3
    19f4:	00e57e63          	bgeu	a0,a4,1a10 <__divdf3+0x488>
    19f8:	01750533          	add	a0,a0,s7
    19fc:	fff68d93          	addi	s11,a3,-1
    1a00:	01756863          	bltu	a0,s7,1a10 <__divdf3+0x488>
    1a04:	00e57663          	bgeu	a0,a4,1a10 <__divdf3+0x488>
    1a08:	ffe68d93          	addi	s11,a3,-2
    1a0c:	01750533          	add	a0,a0,s7
    1a10:	40e50433          	sub	s0,a0,a4
    1a14:	000a8593          	mv	a1,s5
    1a18:	00040513          	mv	a0,s0
    1a1c:	2c4010ef          	jal	ra,2ce0 <__udivsi3>
    1a20:	00050593          	mv	a1,a0
    1a24:	00a12423          	sw	a0,8(sp)
    1a28:	000b0513          	mv	a0,s6
    1a2c:	288010ef          	jal	ra,2cb4 <__mulsi3>
    1a30:	00050b13          	mv	s6,a0
    1a34:	000a8593          	mv	a1,s5
    1a38:	00040513          	mv	a0,s0
    1a3c:	2ec010ef          	jal	ra,2d28 <__umodsi3>
    1a40:	010a1a13          	slli	s4,s4,0x10
    1a44:	00812703          	lw	a4,8(sp)
    1a48:	01051513          	slli	a0,a0,0x10
    1a4c:	010a5a13          	srli	s4,s4,0x10
    1a50:	00aa6533          	or	a0,s4,a0
    1a54:	00070793          	mv	a5,a4
    1a58:	01657e63          	bgeu	a0,s6,1a74 <__divdf3+0x4ec>
    1a5c:	01750533          	add	a0,a0,s7
    1a60:	fff70793          	addi	a5,a4,-1
    1a64:	01756863          	bltu	a0,s7,1a74 <__divdf3+0x4ec>
    1a68:	01657663          	bgeu	a0,s6,1a74 <__divdf3+0x4ec>
    1a6c:	ffe70793          	addi	a5,a4,-2
    1a70:	01750533          	add	a0,a0,s7
    1a74:	010d9893          	slli	a7,s11,0x10
    1a78:	00f8e8b3          	or	a7,a7,a5
    1a7c:	01089713          	slli	a4,a7,0x10
    1a80:	01075713          	srli	a4,a4,0x10
    1a84:	41650333          	sub	t1,a0,s6
    1a88:	0108d793          	srli	a5,a7,0x10
    1a8c:	00070513          	mv	a0,a4
    1a90:	000c8593          	mv	a1,s9
    1a94:	220010ef          	jal	ra,2cb4 <__mulsi3>
    1a98:	00050813          	mv	a6,a0
    1a9c:	000d0593          	mv	a1,s10
    1aa0:	00070513          	mv	a0,a4
    1aa4:	210010ef          	jal	ra,2cb4 <__mulsi3>
    1aa8:	00050713          	mv	a4,a0
    1aac:	000c8593          	mv	a1,s9
    1ab0:	00078513          	mv	a0,a5
    1ab4:	200010ef          	jal	ra,2cb4 <__mulsi3>
    1ab8:	00050e13          	mv	t3,a0
    1abc:	000d0593          	mv	a1,s10
    1ac0:	00078513          	mv	a0,a5
    1ac4:	1f0010ef          	jal	ra,2cb4 <__mulsi3>
    1ac8:	01085793          	srli	a5,a6,0x10
    1acc:	01c70733          	add	a4,a4,t3
    1ad0:	00e787b3          	add	a5,a5,a4
    1ad4:	01c7f663          	bgeu	a5,t3,1ae0 <__divdf3+0x558>
    1ad8:	00010737          	lui	a4,0x10
    1adc:	00e50533          	add	a0,a0,a4
    1ae0:	00010637          	lui	a2,0x10
    1ae4:	fff60613          	addi	a2,a2,-1 # ffff <_impure_ptr+0xc857>
    1ae8:	0107d693          	srli	a3,a5,0x10
    1aec:	00c7f733          	and	a4,a5,a2
    1af0:	01071713          	slli	a4,a4,0x10
    1af4:	00c87833          	and	a6,a6,a2
    1af8:	00a686b3          	add	a3,a3,a0
    1afc:	01070733          	add	a4,a4,a6
    1b00:	00d36863          	bltu	t1,a3,1b10 <__divdf3+0x588>
    1b04:	24d31463          	bne	t1,a3,1d4c <__divdf3+0x7c4>
    1b08:	00088813          	mv	a6,a7
    1b0c:	04070063          	beqz	a4,1b4c <__divdf3+0x5c4>
    1b10:	006b8533          	add	a0,s7,t1
    1b14:	fff88813          	addi	a6,a7,-1
    1b18:	03756463          	bltu	a0,s7,1b40 <__divdf3+0x5b8>
    1b1c:	00d56663          	bltu	a0,a3,1b28 <__divdf3+0x5a0>
    1b20:	22d51463          	bne	a0,a3,1d48 <__divdf3+0x7c0>
    1b24:	02ec7063          	bgeu	s8,a4,1b44 <__divdf3+0x5bc>
    1b28:	001c1793          	slli	a5,s8,0x1
    1b2c:	0187bc33          	sltu	s8,a5,s8
    1b30:	017c0bb3          	add	s7,s8,s7
    1b34:	ffe88813          	addi	a6,a7,-2
    1b38:	01750533          	add	a0,a0,s7
    1b3c:	00078c13          	mv	s8,a5
    1b40:	00d51463          	bne	a0,a3,1b48 <__divdf3+0x5c0>
    1b44:	00ec0463          	beq	s8,a4,1b4c <__divdf3+0x5c4>
    1b48:	00186813          	ori	a6,a6,1
    1b4c:	3ff98713          	addi	a4,s3,1023
    1b50:	10e05a63          	blez	a4,1c64 <__divdf3+0x6dc>
    1b54:	00787793          	andi	a5,a6,7
    1b58:	02078063          	beqz	a5,1b78 <__divdf3+0x5f0>
    1b5c:	00f87793          	andi	a5,a6,15
    1b60:	00400693          	li	a3,4
    1b64:	00d78a63          	beq	a5,a3,1b78 <__divdf3+0x5f0>
    1b68:	00480693          	addi	a3,a6,4
    1b6c:	0106b833          	sltu	a6,a3,a6
    1b70:	01090933          	add	s2,s2,a6
    1b74:	00068813          	mv	a6,a3
    1b78:	00791793          	slli	a5,s2,0x7
    1b7c:	0007da63          	bgez	a5,1b90 <__divdf3+0x608>
    1b80:	ff0007b7          	lui	a5,0xff000
    1b84:	fff78793          	addi	a5,a5,-1 # feffffff <_impure_ptr+0xfeffc857>
    1b88:	00f97933          	and	s2,s2,a5
    1b8c:	40098713          	addi	a4,s3,1024
    1b90:	7fe00793          	li	a5,2046
    1b94:	18e7ca63          	blt	a5,a4,1d28 <__divdf3+0x7a0>
    1b98:	00385813          	srli	a6,a6,0x3
    1b9c:	01d91793          	slli	a5,s2,0x1d
    1ba0:	0107e7b3          	or	a5,a5,a6
    1ba4:	00395513          	srli	a0,s2,0x3
    1ba8:	00c51513          	slli	a0,a0,0xc
    1bac:	7ff77713          	andi	a4,a4,2047
    1bb0:	01471713          	slli	a4,a4,0x14
    1bb4:	04c12083          	lw	ra,76(sp)
    1bb8:	04812403          	lw	s0,72(sp)
    1bbc:	00c55513          	srli	a0,a0,0xc
    1bc0:	01f49493          	slli	s1,s1,0x1f
    1bc4:	00e56533          	or	a0,a0,a4
    1bc8:	00956733          	or	a4,a0,s1
    1bcc:	04012903          	lw	s2,64(sp)
    1bd0:	04412483          	lw	s1,68(sp)
    1bd4:	03c12983          	lw	s3,60(sp)
    1bd8:	03812a03          	lw	s4,56(sp)
    1bdc:	03412a83          	lw	s5,52(sp)
    1be0:	03012b03          	lw	s6,48(sp)
    1be4:	02c12b83          	lw	s7,44(sp)
    1be8:	02812c03          	lw	s8,40(sp)
    1bec:	02412c83          	lw	s9,36(sp)
    1bf0:	02012d03          	lw	s10,32(sp)
    1bf4:	01c12d83          	lw	s11,28(sp)
    1bf8:	00078513          	mv	a0,a5
    1bfc:	00070593          	mv	a1,a4
    1c00:	05010113          	addi	sp,sp,80
    1c04:	00008067          	ret
    1c08:	fff98993          	addi	s3,s3,-1
    1c0c:	00000d93          	li	s11,0
    1c10:	bd1ff06f          	j	17e0 <__divdf3+0x258>
    1c14:	000a8493          	mv	s1,s5
    1c18:	000c8913          	mv	s2,s9
    1c1c:	00040813          	mv	a6,s0
    1c20:	000c0793          	mv	a5,s8
    1c24:	00200713          	li	a4,2
    1c28:	10e78063          	beq	a5,a4,1d28 <__divdf3+0x7a0>
    1c2c:	00300713          	li	a4,3
    1c30:	0ee78263          	beq	a5,a4,1d14 <__divdf3+0x78c>
    1c34:	00100713          	li	a4,1
    1c38:	f0e79ae3          	bne	a5,a4,1b4c <__divdf3+0x5c4>
    1c3c:	00000513          	li	a0,0
    1c40:	00000793          	li	a5,0
    1c44:	0940006f          	j	1cd8 <__divdf3+0x750>
    1c48:	000b0493          	mv	s1,s6
    1c4c:	fd9ff06f          	j	1c24 <__divdf3+0x69c>
    1c50:	00080937          	lui	s2,0x80
    1c54:	00000813          	li	a6,0
    1c58:	00000493          	li	s1,0
    1c5c:	00300793          	li	a5,3
    1c60:	fc5ff06f          	j	1c24 <__divdf3+0x69c>
    1c64:	00100513          	li	a0,1
    1c68:	40e50533          	sub	a0,a0,a4
    1c6c:	03800793          	li	a5,56
    1c70:	fca7c6e3          	blt	a5,a0,1c3c <__divdf3+0x6b4>
    1c74:	01f00793          	li	a5,31
    1c78:	06a7c463          	blt	a5,a0,1ce0 <__divdf3+0x758>
    1c7c:	41e98993          	addi	s3,s3,1054
    1c80:	013917b3          	sll	a5,s2,s3
    1c84:	00a85733          	srl	a4,a6,a0
    1c88:	013819b3          	sll	s3,a6,s3
    1c8c:	00e7e7b3          	or	a5,a5,a4
    1c90:	013039b3          	snez	s3,s3
    1c94:	0137e7b3          	or	a5,a5,s3
    1c98:	00a95533          	srl	a0,s2,a0
    1c9c:	0077f713          	andi	a4,a5,7
    1ca0:	02070063          	beqz	a4,1cc0 <__divdf3+0x738>
    1ca4:	00f7f713          	andi	a4,a5,15
    1ca8:	00400693          	li	a3,4
    1cac:	00d70a63          	beq	a4,a3,1cc0 <__divdf3+0x738>
    1cb0:	00478713          	addi	a4,a5,4
    1cb4:	00f737b3          	sltu	a5,a4,a5
    1cb8:	00f50533          	add	a0,a0,a5
    1cbc:	00070793          	mv	a5,a4
    1cc0:	00851713          	slli	a4,a0,0x8
    1cc4:	06074a63          	bltz	a4,1d38 <__divdf3+0x7b0>
    1cc8:	01d51713          	slli	a4,a0,0x1d
    1ccc:	0037d793          	srli	a5,a5,0x3
    1cd0:	00f767b3          	or	a5,a4,a5
    1cd4:	00355513          	srli	a0,a0,0x3
    1cd8:	00000713          	li	a4,0
    1cdc:	ecdff06f          	j	1ba8 <__divdf3+0x620>
    1ce0:	fe100793          	li	a5,-31
    1ce4:	40e787b3          	sub	a5,a5,a4
    1ce8:	02000693          	li	a3,32
    1cec:	00f957b3          	srl	a5,s2,a5
    1cf0:	00000713          	li	a4,0
    1cf4:	00d50663          	beq	a0,a3,1d00 <__divdf3+0x778>
    1cf8:	43e98993          	addi	s3,s3,1086
    1cfc:	01391733          	sll	a4,s2,s3
    1d00:	01076833          	or	a6,a4,a6
    1d04:	01003833          	snez	a6,a6
    1d08:	0107e7b3          	or	a5,a5,a6
    1d0c:	00000513          	li	a0,0
    1d10:	f8dff06f          	j	1c9c <__divdf3+0x714>
    1d14:	00080537          	lui	a0,0x80
    1d18:	00000793          	li	a5,0
    1d1c:	7ff00713          	li	a4,2047
    1d20:	00000493          	li	s1,0
    1d24:	e85ff06f          	j	1ba8 <__divdf3+0x620>
    1d28:	00000513          	li	a0,0
    1d2c:	00000793          	li	a5,0
    1d30:	7ff00713          	li	a4,2047
    1d34:	e75ff06f          	j	1ba8 <__divdf3+0x620>
    1d38:	00000513          	li	a0,0
    1d3c:	00000793          	li	a5,0
    1d40:	00100713          	li	a4,1
    1d44:	e65ff06f          	j	1ba8 <__divdf3+0x620>
    1d48:	00080893          	mv	a7,a6
    1d4c:	00088813          	mv	a6,a7
    1d50:	df9ff06f          	j	1b48 <__divdf3+0x5c0>

00001d54 <__ledf2>:
    1d54:	0145d813          	srli	a6,a1,0x14
    1d58:	001007b7          	lui	a5,0x100
    1d5c:	fff78793          	addi	a5,a5,-1 # fffff <_impure_ptr+0xfc857>
    1d60:	0146d713          	srli	a4,a3,0x14
    1d64:	7ff87813          	andi	a6,a6,2047
    1d68:	7ff00e93          	li	t4,2047
    1d6c:	00b7f8b3          	and	a7,a5,a1
    1d70:	00050313          	mv	t1,a0
    1d74:	00d7f7b3          	and	a5,a5,a3
    1d78:	01f5d593          	srli	a1,a1,0x1f
    1d7c:	00060e13          	mv	t3,a2
    1d80:	7ff77713          	andi	a4,a4,2047
    1d84:	01f6d693          	srli	a3,a3,0x1f
    1d88:	01d81a63          	bne	a6,t4,1d9c <__ledf2+0x48>
    1d8c:	00a8eeb3          	or	t4,a7,a0
    1d90:	080e8c63          	beqz	t4,1e28 <__ledf2+0xd4>
    1d94:	00200593          	li	a1,2
    1d98:	0480006f          	j	1de0 <__ledf2+0x8c>
    1d9c:	01d71663          	bne	a4,t4,1da8 <__ledf2+0x54>
    1da0:	00c7eeb3          	or	t4,a5,a2
    1da4:	fe0e98e3          	bnez	t4,1d94 <__ledf2+0x40>
    1da8:	08081263          	bnez	a6,1e2c <__ledf2+0xd8>
    1dac:	00a8e533          	or	a0,a7,a0
    1db0:	00153513          	seqz	a0,a0
    1db4:	00071663          	bnez	a4,1dc0 <__ledf2+0x6c>
    1db8:	00c7e633          	or	a2,a5,a2
    1dbc:	04060e63          	beqz	a2,1e18 <__ledf2+0xc4>
    1dc0:	00051a63          	bnez	a0,1dd4 <__ledf2+0x80>
    1dc4:	02d58263          	beq	a1,a3,1de8 <__ledf2+0x94>
    1dc8:	04058463          	beqz	a1,1e10 <__ledf2+0xbc>
    1dcc:	fff00593          	li	a1,-1
    1dd0:	0100006f          	j	1de0 <__ledf2+0x8c>
    1dd4:	fff00593          	li	a1,-1
    1dd8:	00068463          	beqz	a3,1de0 <__ledf2+0x8c>
    1ddc:	00068593          	mv	a1,a3
    1de0:	00058513          	mv	a0,a1
    1de4:	00008067          	ret
    1de8:	ff0740e3          	blt	a4,a6,1dc8 <__ledf2+0x74>
    1dec:	00e85663          	bge	a6,a4,1df8 <__ledf2+0xa4>
    1df0:	fe0598e3          	bnez	a1,1de0 <__ledf2+0x8c>
    1df4:	fd9ff06f          	j	1dcc <__ledf2+0x78>
    1df8:	fd17e8e3          	bltu	a5,a7,1dc8 <__ledf2+0x74>
    1dfc:	02f89263          	bne	a7,a5,1e20 <__ledf2+0xcc>
    1e00:	fc6e64e3          	bltu	t3,t1,1dc8 <__ledf2+0x74>
    1e04:	ffc366e3          	bltu	t1,t3,1df0 <__ledf2+0x9c>
    1e08:	00000593          	li	a1,0
    1e0c:	fd5ff06f          	j	1de0 <__ledf2+0x8c>
    1e10:	00100593          	li	a1,1
    1e14:	fcdff06f          	j	1de0 <__ledf2+0x8c>
    1e18:	fe0518e3          	bnez	a0,1e08 <__ledf2+0xb4>
    1e1c:	fadff06f          	j	1dc8 <__ledf2+0x74>
    1e20:	fcf8e8e3          	bltu	a7,a5,1df0 <__ledf2+0x9c>
    1e24:	fe5ff06f          	j	1e08 <__ledf2+0xb4>
    1e28:	f7070ce3          	beq	a4,a6,1da0 <__ledf2+0x4c>
    1e2c:	f8071ce3          	bnez	a4,1dc4 <__ledf2+0x70>
    1e30:	00000513          	li	a0,0
    1e34:	f85ff06f          	j	1db8 <__ledf2+0x64>

00001e38 <__muldf3>:
    1e38:	fd010113          	addi	sp,sp,-48
    1e3c:	01312e23          	sw	s3,28(sp)
    1e40:	0145d993          	srli	s3,a1,0x14
    1e44:	02812423          	sw	s0,40(sp)
    1e48:	02912223          	sw	s1,36(sp)
    1e4c:	01412c23          	sw	s4,24(sp)
    1e50:	01512a23          	sw	s5,20(sp)
    1e54:	01612823          	sw	s6,16(sp)
    1e58:	00c59493          	slli	s1,a1,0xc
    1e5c:	02112623          	sw	ra,44(sp)
    1e60:	03212023          	sw	s2,32(sp)
    1e64:	01712623          	sw	s7,12(sp)
    1e68:	7ff9f993          	andi	s3,s3,2047
    1e6c:	00050413          	mv	s0,a0
    1e70:	00060b13          	mv	s6,a2
    1e74:	00068a93          	mv	s5,a3
    1e78:	00c4d493          	srli	s1,s1,0xc
    1e7c:	01f5da13          	srli	s4,a1,0x1f
    1e80:	0a098263          	beqz	s3,1f24 <__muldf3+0xec>
    1e84:	7ff00793          	li	a5,2047
    1e88:	10f98063          	beq	s3,a5,1f88 <__muldf3+0x150>
    1e8c:	01d55793          	srli	a5,a0,0x1d
    1e90:	00349493          	slli	s1,s1,0x3
    1e94:	0097e4b3          	or	s1,a5,s1
    1e98:	008007b7          	lui	a5,0x800
    1e9c:	00f4e4b3          	or	s1,s1,a5
    1ea0:	00351913          	slli	s2,a0,0x3
    1ea4:	c0198993          	addi	s3,s3,-1023
    1ea8:	00000b93          	li	s7,0
    1eac:	014ad513          	srli	a0,s5,0x14
    1eb0:	00ca9413          	slli	s0,s5,0xc
    1eb4:	7ff57513          	andi	a0,a0,2047
    1eb8:	00c45413          	srli	s0,s0,0xc
    1ebc:	01fada93          	srli	s5,s5,0x1f
    1ec0:	10050063          	beqz	a0,1fc0 <__muldf3+0x188>
    1ec4:	7ff00793          	li	a5,2047
    1ec8:	16f50063          	beq	a0,a5,2028 <__muldf3+0x1f0>
    1ecc:	01db5793          	srli	a5,s6,0x1d
    1ed0:	00341413          	slli	s0,s0,0x3
    1ed4:	0087e433          	or	s0,a5,s0
    1ed8:	008007b7          	lui	a5,0x800
    1edc:	00f46433          	or	s0,s0,a5
    1ee0:	c0150513          	addi	a0,a0,-1023 # 7fc01 <_impure_ptr+0x7c459>
    1ee4:	003b1793          	slli	a5,s6,0x3
    1ee8:	00000713          	li	a4,0
    1eec:	002b9693          	slli	a3,s7,0x2
    1ef0:	00e6e6b3          	or	a3,a3,a4
    1ef4:	00a989b3          	add	s3,s3,a0
    1ef8:	fff68693          	addi	a3,a3,-1
    1efc:	00e00613          	li	a2,14
    1f00:	015a4833          	xor	a6,s4,s5
    1f04:	00198893          	addi	a7,s3,1
    1f08:	14d66c63          	bltu	a2,a3,2060 <__muldf3+0x228>
    1f0c:	00003637          	lui	a2,0x3
    1f10:	00269693          	slli	a3,a3,0x2
    1f14:	0ac60613          	addi	a2,a2,172 # 30ac <expected.2594+0x17c>
    1f18:	00c686b3          	add	a3,a3,a2
    1f1c:	0006a683          	lw	a3,0(a3)
    1f20:	00068067          	jr	a3
    1f24:	00a4e933          	or	s2,s1,a0
    1f28:	06090c63          	beqz	s2,1fa0 <__muldf3+0x168>
    1f2c:	04048063          	beqz	s1,1f6c <__muldf3+0x134>
    1f30:	00048513          	mv	a0,s1
    1f34:	659000ef          	jal	ra,2d8c <__clzsi2>
    1f38:	ff550713          	addi	a4,a0,-11
    1f3c:	01c00793          	li	a5,28
    1f40:	02e7cc63          	blt	a5,a4,1f78 <__muldf3+0x140>
    1f44:	01d00793          	li	a5,29
    1f48:	ff850913          	addi	s2,a0,-8
    1f4c:	40e787b3          	sub	a5,a5,a4
    1f50:	012494b3          	sll	s1,s1,s2
    1f54:	00f457b3          	srl	a5,s0,a5
    1f58:	0097e4b3          	or	s1,a5,s1
    1f5c:	01241933          	sll	s2,s0,s2
    1f60:	c0d00993          	li	s3,-1011
    1f64:	40a989b3          	sub	s3,s3,a0
    1f68:	f41ff06f          	j	1ea8 <__muldf3+0x70>
    1f6c:	621000ef          	jal	ra,2d8c <__clzsi2>
    1f70:	02050513          	addi	a0,a0,32
    1f74:	fc5ff06f          	j	1f38 <__muldf3+0x100>
    1f78:	fd850493          	addi	s1,a0,-40
    1f7c:	009414b3          	sll	s1,s0,s1
    1f80:	00000913          	li	s2,0
    1f84:	fddff06f          	j	1f60 <__muldf3+0x128>
    1f88:	00a4e933          	or	s2,s1,a0
    1f8c:	02090263          	beqz	s2,1fb0 <__muldf3+0x178>
    1f90:	00050913          	mv	s2,a0
    1f94:	7ff00993          	li	s3,2047
    1f98:	00300b93          	li	s7,3
    1f9c:	f11ff06f          	j	1eac <__muldf3+0x74>
    1fa0:	00000493          	li	s1,0
    1fa4:	00000993          	li	s3,0
    1fa8:	00100b93          	li	s7,1
    1fac:	f01ff06f          	j	1eac <__muldf3+0x74>
    1fb0:	00000493          	li	s1,0
    1fb4:	7ff00993          	li	s3,2047
    1fb8:	00200b93          	li	s7,2
    1fbc:	ef1ff06f          	j	1eac <__muldf3+0x74>
    1fc0:	016467b3          	or	a5,s0,s6
    1fc4:	06078e63          	beqz	a5,2040 <__muldf3+0x208>
    1fc8:	04040063          	beqz	s0,2008 <__muldf3+0x1d0>
    1fcc:	00040513          	mv	a0,s0
    1fd0:	5bd000ef          	jal	ra,2d8c <__clzsi2>
    1fd4:	ff550693          	addi	a3,a0,-11
    1fd8:	01c00793          	li	a5,28
    1fdc:	02d7ce63          	blt	a5,a3,2018 <__muldf3+0x1e0>
    1fe0:	01d00713          	li	a4,29
    1fe4:	ff850793          	addi	a5,a0,-8
    1fe8:	40d70733          	sub	a4,a4,a3
    1fec:	00f41433          	sll	s0,s0,a5
    1ff0:	00eb5733          	srl	a4,s6,a4
    1ff4:	00876433          	or	s0,a4,s0
    1ff8:	00fb17b3          	sll	a5,s6,a5
    1ffc:	c0d00713          	li	a4,-1011
    2000:	40a70533          	sub	a0,a4,a0
    2004:	ee5ff06f          	j	1ee8 <__muldf3+0xb0>
    2008:	000b0513          	mv	a0,s6
    200c:	581000ef          	jal	ra,2d8c <__clzsi2>
    2010:	02050513          	addi	a0,a0,32
    2014:	fc1ff06f          	j	1fd4 <__muldf3+0x19c>
    2018:	fd850413          	addi	s0,a0,-40
    201c:	008b1433          	sll	s0,s6,s0
    2020:	00000793          	li	a5,0
    2024:	fd9ff06f          	j	1ffc <__muldf3+0x1c4>
    2028:	016467b3          	or	a5,s0,s6
    202c:	02078263          	beqz	a5,2050 <__muldf3+0x218>
    2030:	000b0793          	mv	a5,s6
    2034:	7ff00513          	li	a0,2047
    2038:	00300713          	li	a4,3
    203c:	eb1ff06f          	j	1eec <__muldf3+0xb4>
    2040:	00000413          	li	s0,0
    2044:	00000513          	li	a0,0
    2048:	00100713          	li	a4,1
    204c:	ea1ff06f          	j	1eec <__muldf3+0xb4>
    2050:	00000413          	li	s0,0
    2054:	7ff00513          	li	a0,2047
    2058:	00200713          	li	a4,2
    205c:	e91ff06f          	j	1eec <__muldf3+0xb4>
    2060:	000102b7          	lui	t0,0x10
    2064:	fff28313          	addi	t1,t0,-1 # ffff <_impure_ptr+0xc857>
    2068:	01095f13          	srli	t5,s2,0x10
    206c:	0107df93          	srli	t6,a5,0x10
    2070:	00697933          	and	s2,s2,t1
    2074:	0067f7b3          	and	a5,a5,t1
    2078:	00090513          	mv	a0,s2
    207c:	00078593          	mv	a1,a5
    2080:	435000ef          	jal	ra,2cb4 <__mulsi3>
    2084:	00050e93          	mv	t4,a0
    2088:	000f8593          	mv	a1,t6
    208c:	00090513          	mv	a0,s2
    2090:	425000ef          	jal	ra,2cb4 <__mulsi3>
    2094:	00050e13          	mv	t3,a0
    2098:	00078593          	mv	a1,a5
    209c:	000f0513          	mv	a0,t5
    20a0:	415000ef          	jal	ra,2cb4 <__mulsi3>
    20a4:	00050a13          	mv	s4,a0
    20a8:	000f8593          	mv	a1,t6
    20ac:	000f0513          	mv	a0,t5
    20b0:	405000ef          	jal	ra,2cb4 <__mulsi3>
    20b4:	010ed713          	srli	a4,t4,0x10
    20b8:	014e0e33          	add	t3,t3,s4
    20bc:	01c70733          	add	a4,a4,t3
    20c0:	00050393          	mv	t2,a0
    20c4:	01477463          	bgeu	a4,s4,20cc <__muldf3+0x294>
    20c8:	005503b3          	add	t2,a0,t0
    20cc:	00677e33          	and	t3,a4,t1
    20d0:	006efeb3          	and	t4,t4,t1
    20d4:	01045a13          	srli	s4,s0,0x10
    20d8:	010e1e13          	slli	t3,t3,0x10
    20dc:	00647433          	and	s0,s0,t1
    20e0:	01075293          	srli	t0,a4,0x10
    20e4:	01de0e33          	add	t3,t3,t4
    20e8:	00090513          	mv	a0,s2
    20ec:	00040593          	mv	a1,s0
    20f0:	3c5000ef          	jal	ra,2cb4 <__mulsi3>
    20f4:	00050e93          	mv	t4,a0
    20f8:	000a0593          	mv	a1,s4
    20fc:	00090513          	mv	a0,s2
    2100:	3b5000ef          	jal	ra,2cb4 <__mulsi3>
    2104:	00050713          	mv	a4,a0
    2108:	00040593          	mv	a1,s0
    210c:	000f0513          	mv	a0,t5
    2110:	3a5000ef          	jal	ra,2cb4 <__mulsi3>
    2114:	00050313          	mv	t1,a0
    2118:	000a0593          	mv	a1,s4
    211c:	000f0513          	mv	a0,t5
    2120:	395000ef          	jal	ra,2cb4 <__mulsi3>
    2124:	010ed693          	srli	a3,t4,0x10
    2128:	00670733          	add	a4,a4,t1
    212c:	00e686b3          	add	a3,a3,a4
    2130:	0066f663          	bgeu	a3,t1,213c <__muldf3+0x304>
    2134:	00010737          	lui	a4,0x10
    2138:	00e50533          	add	a0,a0,a4
    213c:	00010ab7          	lui	s5,0x10
    2140:	fffa8613          	addi	a2,s5,-1 # ffff <_impure_ptr+0xc857>
    2144:	0106d713          	srli	a4,a3,0x10
    2148:	00c6f6b3          	and	a3,a3,a2
    214c:	01069693          	slli	a3,a3,0x10
    2150:	00cefeb3          	and	t4,t4,a2
    2154:	00a70f33          	add	t5,a4,a0
    2158:	01d68eb3          	add	t4,a3,t4
    215c:	0104d713          	srli	a4,s1,0x10
    2160:	00c4f4b3          	and	s1,s1,a2
    2164:	01d282b3          	add	t0,t0,t4
    2168:	00048513          	mv	a0,s1
    216c:	00078593          	mv	a1,a5
    2170:	345000ef          	jal	ra,2cb4 <__mulsi3>
    2174:	00050913          	mv	s2,a0
    2178:	000f8593          	mv	a1,t6
    217c:	00048513          	mv	a0,s1
    2180:	335000ef          	jal	ra,2cb4 <__mulsi3>
    2184:	00050313          	mv	t1,a0
    2188:	00078593          	mv	a1,a5
    218c:	00070513          	mv	a0,a4
    2190:	325000ef          	jal	ra,2cb4 <__mulsi3>
    2194:	00050b13          	mv	s6,a0
    2198:	000f8593          	mv	a1,t6
    219c:	00070513          	mv	a0,a4
    21a0:	315000ef          	jal	ra,2cb4 <__mulsi3>
    21a4:	01095793          	srli	a5,s2,0x10
    21a8:	01630333          	add	t1,t1,s6
    21ac:	006787b3          	add	a5,a5,t1
    21b0:	0167f463          	bgeu	a5,s6,21b8 <__muldf3+0x380>
    21b4:	01550533          	add	a0,a0,s5
    21b8:	00010ab7          	lui	s5,0x10
    21bc:	fffa8693          	addi	a3,s5,-1 # ffff <_impure_ptr+0xc857>
    21c0:	00d7f333          	and	t1,a5,a3
    21c4:	0107d613          	srli	a2,a5,0x10
    21c8:	00d97933          	and	s2,s2,a3
    21cc:	01031313          	slli	t1,t1,0x10
    21d0:	00a60fb3          	add	t6,a2,a0
    21d4:	01230333          	add	t1,t1,s2
    21d8:	00048513          	mv	a0,s1
    21dc:	00040593          	mv	a1,s0
    21e0:	2d5000ef          	jal	ra,2cb4 <__mulsi3>
    21e4:	00050793          	mv	a5,a0
    21e8:	000a0593          	mv	a1,s4
    21ec:	00048513          	mv	a0,s1
    21f0:	2c5000ef          	jal	ra,2cb4 <__mulsi3>
    21f4:	00050493          	mv	s1,a0
    21f8:	00040593          	mv	a1,s0
    21fc:	00070513          	mv	a0,a4
    2200:	2b5000ef          	jal	ra,2cb4 <__mulsi3>
    2204:	00050913          	mv	s2,a0
    2208:	000a0593          	mv	a1,s4
    220c:	00070513          	mv	a0,a4
    2210:	2a5000ef          	jal	ra,2cb4 <__mulsi3>
    2214:	0107d693          	srli	a3,a5,0x10
    2218:	012484b3          	add	s1,s1,s2
    221c:	009686b3          	add	a3,a3,s1
    2220:	0126f463          	bgeu	a3,s2,2228 <__muldf3+0x3f0>
    2224:	01550533          	add	a0,a0,s5
    2228:	00010637          	lui	a2,0x10
    222c:	fff60613          	addi	a2,a2,-1 # ffff <_impure_ptr+0xc857>
    2230:	00c6f733          	and	a4,a3,a2
    2234:	00c7f7b3          	and	a5,a5,a2
    2238:	01071713          	slli	a4,a4,0x10
    223c:	007282b3          	add	t0,t0,t2
    2240:	00f70733          	add	a4,a4,a5
    2244:	01d2beb3          	sltu	t4,t0,t4
    2248:	01e70733          	add	a4,a4,t5
    224c:	01d70433          	add	s0,a4,t4
    2250:	006282b3          	add	t0,t0,t1
    2254:	01f40633          	add	a2,s0,t6
    2258:	0062b333          	sltu	t1,t0,t1
    225c:	006605b3          	add	a1,a2,t1
    2260:	01e73733          	sltu	a4,a4,t5
    2264:	01d43433          	sltu	s0,s0,t4
    2268:	00876433          	or	s0,a4,s0
    226c:	0106d693          	srli	a3,a3,0x10
    2270:	01f63633          	sltu	a2,a2,t6
    2274:	0065b333          	sltu	t1,a1,t1
    2278:	00d40433          	add	s0,s0,a3
    227c:	00666333          	or	t1,a2,t1
    2280:	00640433          	add	s0,s0,t1
    2284:	00929793          	slli	a5,t0,0x9
    2288:	00a40433          	add	s0,s0,a0
    228c:	01c7e7b3          	or	a5,a5,t3
    2290:	00941413          	slli	s0,s0,0x9
    2294:	0175d513          	srli	a0,a1,0x17
    2298:	00f037b3          	snez	a5,a5
    229c:	0172de13          	srli	t3,t0,0x17
    22a0:	00959713          	slli	a4,a1,0x9
    22a4:	00a46433          	or	s0,s0,a0
    22a8:	01c7e7b3          	or	a5,a5,t3
    22ac:	00e7e7b3          	or	a5,a5,a4
    22b0:	00741713          	slli	a4,s0,0x7
    22b4:	10075263          	bgez	a4,23b8 <__muldf3+0x580>
    22b8:	0017d713          	srli	a4,a5,0x1
    22bc:	0017f793          	andi	a5,a5,1
    22c0:	00f767b3          	or	a5,a4,a5
    22c4:	01f41713          	slli	a4,s0,0x1f
    22c8:	00e7e7b3          	or	a5,a5,a4
    22cc:	00145413          	srli	s0,s0,0x1
    22d0:	3ff88693          	addi	a3,a7,1023
    22d4:	0ed05663          	blez	a3,23c0 <__muldf3+0x588>
    22d8:	0077f713          	andi	a4,a5,7
    22dc:	02070063          	beqz	a4,22fc <__muldf3+0x4c4>
    22e0:	00f7f713          	andi	a4,a5,15
    22e4:	00400613          	li	a2,4
    22e8:	00c70a63          	beq	a4,a2,22fc <__muldf3+0x4c4>
    22ec:	00478713          	addi	a4,a5,4 # 800004 <_impure_ptr+0x7fc85c>
    22f0:	00f737b3          	sltu	a5,a4,a5
    22f4:	00f40433          	add	s0,s0,a5
    22f8:	00070793          	mv	a5,a4
    22fc:	00741713          	slli	a4,s0,0x7
    2300:	00075a63          	bgez	a4,2314 <__muldf3+0x4dc>
    2304:	ff000737          	lui	a4,0xff000
    2308:	fff70713          	addi	a4,a4,-1 # feffffff <_impure_ptr+0xfeffc857>
    230c:	00e47433          	and	s0,s0,a4
    2310:	40088693          	addi	a3,a7,1024
    2314:	7fe00713          	li	a4,2046
    2318:	16d74663          	blt	a4,a3,2484 <__muldf3+0x64c>
    231c:	0037d713          	srli	a4,a5,0x3
    2320:	01d41793          	slli	a5,s0,0x1d
    2324:	00e7e7b3          	or	a5,a5,a4
    2328:	00345413          	srli	s0,s0,0x3
    232c:	00c41413          	slli	s0,s0,0xc
    2330:	7ff6f713          	andi	a4,a3,2047
    2334:	01471713          	slli	a4,a4,0x14
    2338:	00c45413          	srli	s0,s0,0xc
    233c:	00e46433          	or	s0,s0,a4
    2340:	01f81813          	slli	a6,a6,0x1f
    2344:	01046733          	or	a4,s0,a6
    2348:	02c12083          	lw	ra,44(sp)
    234c:	02812403          	lw	s0,40(sp)
    2350:	02412483          	lw	s1,36(sp)
    2354:	02012903          	lw	s2,32(sp)
    2358:	01c12983          	lw	s3,28(sp)
    235c:	01812a03          	lw	s4,24(sp)
    2360:	01412a83          	lw	s5,20(sp)
    2364:	01012b03          	lw	s6,16(sp)
    2368:	00c12b83          	lw	s7,12(sp)
    236c:	00078513          	mv	a0,a5
    2370:	00070593          	mv	a1,a4
    2374:	03010113          	addi	sp,sp,48
    2378:	00008067          	ret
    237c:	000a0813          	mv	a6,s4
    2380:	00048413          	mv	s0,s1
    2384:	00090793          	mv	a5,s2
    2388:	000b8713          	mv	a4,s7
    238c:	00200693          	li	a3,2
    2390:	0ed70a63          	beq	a4,a3,2484 <__muldf3+0x64c>
    2394:	00300693          	li	a3,3
    2398:	0cd70c63          	beq	a4,a3,2470 <__muldf3+0x638>
    239c:	00100693          	li	a3,1
    23a0:	f2d718e3          	bne	a4,a3,22d0 <__muldf3+0x498>
    23a4:	00000413          	li	s0,0
    23a8:	00000793          	li	a5,0
    23ac:	0880006f          	j	2434 <__muldf3+0x5fc>
    23b0:	000a8813          	mv	a6,s5
    23b4:	fd9ff06f          	j	238c <__muldf3+0x554>
    23b8:	00098893          	mv	a7,s3
    23bc:	f15ff06f          	j	22d0 <__muldf3+0x498>
    23c0:	00100613          	li	a2,1
    23c4:	40d60633          	sub	a2,a2,a3
    23c8:	03800713          	li	a4,56
    23cc:	fcc74ce3          	blt	a4,a2,23a4 <__muldf3+0x56c>
    23d0:	01f00713          	li	a4,31
    23d4:	06c74463          	blt	a4,a2,243c <__muldf3+0x604>
    23d8:	41e88893          	addi	a7,a7,1054
    23dc:	01141733          	sll	a4,s0,a7
    23e0:	00c7d6b3          	srl	a3,a5,a2
    23e4:	011797b3          	sll	a5,a5,a7
    23e8:	00d76733          	or	a4,a4,a3
    23ec:	00f037b3          	snez	a5,a5
    23f0:	00f767b3          	or	a5,a4,a5
    23f4:	00c45433          	srl	s0,s0,a2
    23f8:	0077f713          	andi	a4,a5,7
    23fc:	02070063          	beqz	a4,241c <__muldf3+0x5e4>
    2400:	00f7f713          	andi	a4,a5,15
    2404:	00400693          	li	a3,4
    2408:	00d70a63          	beq	a4,a3,241c <__muldf3+0x5e4>
    240c:	00478713          	addi	a4,a5,4
    2410:	00f737b3          	sltu	a5,a4,a5
    2414:	00f40433          	add	s0,s0,a5
    2418:	00070793          	mv	a5,a4
    241c:	00841713          	slli	a4,s0,0x8
    2420:	06074a63          	bltz	a4,2494 <__muldf3+0x65c>
    2424:	01d41713          	slli	a4,s0,0x1d
    2428:	0037d793          	srli	a5,a5,0x3
    242c:	00f767b3          	or	a5,a4,a5
    2430:	00345413          	srli	s0,s0,0x3
    2434:	00000693          	li	a3,0
    2438:	ef5ff06f          	j	232c <__muldf3+0x4f4>
    243c:	fe100713          	li	a4,-31
    2440:	40d70733          	sub	a4,a4,a3
    2444:	02000593          	li	a1,32
    2448:	00e45733          	srl	a4,s0,a4
    244c:	00000693          	li	a3,0
    2450:	00b60663          	beq	a2,a1,245c <__muldf3+0x624>
    2454:	43e88893          	addi	a7,a7,1086
    2458:	011416b3          	sll	a3,s0,a7
    245c:	00f6e7b3          	or	a5,a3,a5
    2460:	00f037b3          	snez	a5,a5
    2464:	00f767b3          	or	a5,a4,a5
    2468:	00000413          	li	s0,0
    246c:	f8dff06f          	j	23f8 <__muldf3+0x5c0>
    2470:	00080437          	lui	s0,0x80
    2474:	00000793          	li	a5,0
    2478:	7ff00693          	li	a3,2047
    247c:	00000813          	li	a6,0
    2480:	eadff06f          	j	232c <__muldf3+0x4f4>
    2484:	00000413          	li	s0,0
    2488:	00000793          	li	a5,0
    248c:	7ff00693          	li	a3,2047
    2490:	e9dff06f          	j	232c <__muldf3+0x4f4>
    2494:	00000413          	li	s0,0
    2498:	00000793          	li	a5,0
    249c:	00100693          	li	a3,1
    24a0:	e8dff06f          	j	232c <__muldf3+0x4f4>

000024a4 <__subdf3>:
    24a4:	00100837          	lui	a6,0x100
    24a8:	fff80813          	addi	a6,a6,-1 # fffff <_impure_ptr+0xfc857>
    24ac:	00b878b3          	and	a7,a6,a1
    24b0:	00389893          	slli	a7,a7,0x3
    24b4:	01d55793          	srli	a5,a0,0x1d
    24b8:	fe010113          	addi	sp,sp,-32
    24bc:	0145d713          	srli	a4,a1,0x14
    24c0:	00d87833          	and	a6,a6,a3
    24c4:	0117e7b3          	or	a5,a5,a7
    24c8:	0146d893          	srli	a7,a3,0x14
    24cc:	00912a23          	sw	s1,20(sp)
    24d0:	01212823          	sw	s2,16(sp)
    24d4:	7ff77493          	andi	s1,a4,2047
    24d8:	01f5d913          	srli	s2,a1,0x1f
    24dc:	01d65713          	srli	a4,a2,0x1d
    24e0:	00381813          	slli	a6,a6,0x3
    24e4:	00112e23          	sw	ra,28(sp)
    24e8:	00812c23          	sw	s0,24(sp)
    24ec:	01312623          	sw	s3,12(sp)
    24f0:	7ff8f893          	andi	a7,a7,2047
    24f4:	7ff00593          	li	a1,2047
    24f8:	00351513          	slli	a0,a0,0x3
    24fc:	01f6d693          	srli	a3,a3,0x1f
    2500:	01076733          	or	a4,a4,a6
    2504:	00361613          	slli	a2,a2,0x3
    2508:	00b89663          	bne	a7,a1,2514 <__subdf3+0x70>
    250c:	00c765b3          	or	a1,a4,a2
    2510:	00059463          	bnez	a1,2518 <__subdf3+0x74>
    2514:	0016c693          	xori	a3,a3,1
    2518:	41148833          	sub	a6,s1,a7
    251c:	2d269063          	bne	a3,s2,27dc <__subdf3+0x338>
    2520:	13005c63          	blez	a6,2658 <__subdf3+0x1b4>
    2524:	06089063          	bnez	a7,2584 <__subdf3+0xe0>
    2528:	00c766b3          	or	a3,a4,a2
    252c:	02068863          	beqz	a3,255c <__subdf3+0xb8>
    2530:	fff48813          	addi	a6,s1,-1
    2534:	02081063          	bnez	a6,2554 <__subdf3+0xb0>
    2538:	00c50633          	add	a2,a0,a2
    253c:	00a63533          	sltu	a0,a2,a0
    2540:	00e787b3          	add	a5,a5,a4
    2544:	00a787b3          	add	a5,a5,a0
    2548:	00060513          	mv	a0,a2
    254c:	00100493          	li	s1,1
    2550:	08c0006f          	j	25dc <__subdf3+0x138>
    2554:	7ff00693          	li	a3,2047
    2558:	02d49e63          	bne	s1,a3,2594 <__subdf3+0xf0>
    255c:	00757713          	andi	a4,a0,7
    2560:	62070c63          	beqz	a4,2b98 <__subdf3+0x6f4>
    2564:	00f57713          	andi	a4,a0,15
    2568:	00400693          	li	a3,4
    256c:	62d70663          	beq	a4,a3,2b98 <__subdf3+0x6f4>
    2570:	00450693          	addi	a3,a0,4
    2574:	00a6b533          	sltu	a0,a3,a0
    2578:	00a787b3          	add	a5,a5,a0
    257c:	00068513          	mv	a0,a3
    2580:	6180006f          	j	2b98 <__subdf3+0x6f4>
    2584:	7ff00693          	li	a3,2047
    2588:	fcd48ae3          	beq	s1,a3,255c <__subdf3+0xb8>
    258c:	008006b7          	lui	a3,0x800
    2590:	00d76733          	or	a4,a4,a3
    2594:	03800693          	li	a3,56
    2598:	0b06ca63          	blt	a3,a6,264c <__subdf3+0x1a8>
    259c:	01f00693          	li	a3,31
    25a0:	0706cc63          	blt	a3,a6,2618 <__subdf3+0x174>
    25a4:	02000593          	li	a1,32
    25a8:	410585b3          	sub	a1,a1,a6
    25ac:	00b716b3          	sll	a3,a4,a1
    25b0:	010658b3          	srl	a7,a2,a6
    25b4:	00b61633          	sll	a2,a2,a1
    25b8:	0116e6b3          	or	a3,a3,a7
    25bc:	00c03633          	snez	a2,a2
    25c0:	00c6e633          	or	a2,a3,a2
    25c4:	01075733          	srl	a4,a4,a6
    25c8:	00a60633          	add	a2,a2,a0
    25cc:	00f70733          	add	a4,a4,a5
    25d0:	00a637b3          	sltu	a5,a2,a0
    25d4:	00f707b3          	add	a5,a4,a5
    25d8:	00060513          	mv	a0,a2
    25dc:	00879713          	slli	a4,a5,0x8
    25e0:	f6075ee3          	bgez	a4,255c <__subdf3+0xb8>
    25e4:	00148493          	addi	s1,s1,1
    25e8:	7ff00713          	li	a4,2047
    25ec:	5ae48263          	beq	s1,a4,2b90 <__subdf3+0x6ec>
    25f0:	ff8006b7          	lui	a3,0xff800
    25f4:	fff68693          	addi	a3,a3,-1 # ff7fffff <_impure_ptr+0xff7fc857>
    25f8:	00d7f6b3          	and	a3,a5,a3
    25fc:	00155593          	srli	a1,a0,0x1
    2600:	00157513          	andi	a0,a0,1
    2604:	01f69793          	slli	a5,a3,0x1f
    2608:	00a5e533          	or	a0,a1,a0
    260c:	00a7e533          	or	a0,a5,a0
    2610:	0016d793          	srli	a5,a3,0x1
    2614:	f49ff06f          	j	255c <__subdf3+0xb8>
    2618:	fe080693          	addi	a3,a6,-32
    261c:	02000893          	li	a7,32
    2620:	00d756b3          	srl	a3,a4,a3
    2624:	00000593          	li	a1,0
    2628:	01180863          	beq	a6,a7,2638 <__subdf3+0x194>
    262c:	04000593          	li	a1,64
    2630:	41058833          	sub	a6,a1,a6
    2634:	010715b3          	sll	a1,a4,a6
    2638:	00c5e633          	or	a2,a1,a2
    263c:	00c03633          	snez	a2,a2
    2640:	00c6e633          	or	a2,a3,a2
    2644:	00000713          	li	a4,0
    2648:	f81ff06f          	j	25c8 <__subdf3+0x124>
    264c:	00c76633          	or	a2,a4,a2
    2650:	00c03633          	snez	a2,a2
    2654:	ff1ff06f          	j	2644 <__subdf3+0x1a0>
    2658:	0e080263          	beqz	a6,273c <__subdf3+0x298>
    265c:	409885b3          	sub	a1,a7,s1
    2660:	02049e63          	bnez	s1,269c <__subdf3+0x1f8>
    2664:	00a7e6b3          	or	a3,a5,a0
    2668:	50068463          	beqz	a3,2b70 <__subdf3+0x6cc>
    266c:	fff58693          	addi	a3,a1,-1
    2670:	00069c63          	bnez	a3,2688 <__subdf3+0x1e4>
    2674:	00c50533          	add	a0,a0,a2
    2678:	00e787b3          	add	a5,a5,a4
    267c:	00c53633          	sltu	a2,a0,a2
    2680:	00c787b3          	add	a5,a5,a2
    2684:	ec9ff06f          	j	254c <__subdf3+0xa8>
    2688:	7ff00813          	li	a6,2047
    268c:	03059263          	bne	a1,a6,26b0 <__subdf3+0x20c>
    2690:	00070793          	mv	a5,a4
    2694:	00060513          	mv	a0,a2
    2698:	3b00006f          	j	2a48 <__subdf3+0x5a4>
    269c:	7ff00693          	li	a3,2047
    26a0:	fed888e3          	beq	a7,a3,2690 <__subdf3+0x1ec>
    26a4:	008006b7          	lui	a3,0x800
    26a8:	00d7e7b3          	or	a5,a5,a3
    26ac:	00058693          	mv	a3,a1
    26b0:	03800593          	li	a1,56
    26b4:	06d5ce63          	blt	a1,a3,2730 <__subdf3+0x28c>
    26b8:	01f00593          	li	a1,31
    26bc:	04d5c063          	blt	a1,a3,26fc <__subdf3+0x258>
    26c0:	02000813          	li	a6,32
    26c4:	40d80833          	sub	a6,a6,a3
    26c8:	00d55333          	srl	t1,a0,a3
    26cc:	010795b3          	sll	a1,a5,a6
    26d0:	01051533          	sll	a0,a0,a6
    26d4:	0065e5b3          	or	a1,a1,t1
    26d8:	00a03533          	snez	a0,a0
    26dc:	00a5e533          	or	a0,a1,a0
    26e0:	00d7d6b3          	srl	a3,a5,a3
    26e4:	00c50533          	add	a0,a0,a2
    26e8:	00e687b3          	add	a5,a3,a4
    26ec:	00c53633          	sltu	a2,a0,a2
    26f0:	00c787b3          	add	a5,a5,a2
    26f4:	00088493          	mv	s1,a7
    26f8:	ee5ff06f          	j	25dc <__subdf3+0x138>
    26fc:	fe068593          	addi	a1,a3,-32 # 7fffe0 <_impure_ptr+0x7fc838>
    2700:	02000313          	li	t1,32
    2704:	00b7d5b3          	srl	a1,a5,a1
    2708:	00000813          	li	a6,0
    270c:	00668863          	beq	a3,t1,271c <__subdf3+0x278>
    2710:	04000813          	li	a6,64
    2714:	40d806b3          	sub	a3,a6,a3
    2718:	00d79833          	sll	a6,a5,a3
    271c:	00a86533          	or	a0,a6,a0
    2720:	00a03533          	snez	a0,a0
    2724:	00a5e533          	or	a0,a1,a0
    2728:	00000693          	li	a3,0
    272c:	fb9ff06f          	j	26e4 <__subdf3+0x240>
    2730:	00a7e533          	or	a0,a5,a0
    2734:	00a03533          	snez	a0,a0
    2738:	ff1ff06f          	j	2728 <__subdf3+0x284>
    273c:	00148693          	addi	a3,s1,1
    2740:	7fe6f593          	andi	a1,a3,2046
    2744:	06059463          	bnez	a1,27ac <__subdf3+0x308>
    2748:	00a7e6b3          	or	a3,a5,a0
    274c:	04049063          	bnez	s1,278c <__subdf3+0x2e8>
    2750:	42068863          	beqz	a3,2b80 <__subdf3+0x6dc>
    2754:	00c766b3          	or	a3,a4,a2
    2758:	e00682e3          	beqz	a3,255c <__subdf3+0xb8>
    275c:	00c50633          	add	a2,a0,a2
    2760:	00e787b3          	add	a5,a5,a4
    2764:	00a63533          	sltu	a0,a2,a0
    2768:	00a787b3          	add	a5,a5,a0
    276c:	00879713          	slli	a4,a5,0x8
    2770:	00060513          	mv	a0,a2
    2774:	de0754e3          	bgez	a4,255c <__subdf3+0xb8>
    2778:	ff800737          	lui	a4,0xff800
    277c:	fff70713          	addi	a4,a4,-1 # ff7fffff <_impure_ptr+0xff7fc857>
    2780:	00e7f7b3          	and	a5,a5,a4
    2784:	00100493          	li	s1,1
    2788:	dd5ff06f          	j	255c <__subdf3+0xb8>
    278c:	f00682e3          	beqz	a3,2690 <__subdf3+0x1ec>
    2790:	00c76633          	or	a2,a4,a2
    2794:	2a060a63          	beqz	a2,2a48 <__subdf3+0x5a4>
    2798:	00000913          	li	s2,0
    279c:	004007b7          	lui	a5,0x400
    27a0:	00000513          	li	a0,0
    27a4:	7ff00493          	li	s1,2047
    27a8:	3f00006f          	j	2b98 <__subdf3+0x6f4>
    27ac:	7ff00593          	li	a1,2047
    27b0:	3cb68e63          	beq	a3,a1,2b8c <__subdf3+0x6e8>
    27b4:	00c50633          	add	a2,a0,a2
    27b8:	00e78733          	add	a4,a5,a4
    27bc:	00a637b3          	sltu	a5,a2,a0
    27c0:	00f70733          	add	a4,a4,a5
    27c4:	01f71513          	slli	a0,a4,0x1f
    27c8:	00165613          	srli	a2,a2,0x1
    27cc:	00c56533          	or	a0,a0,a2
    27d0:	00175793          	srli	a5,a4,0x1
    27d4:	00068493          	mv	s1,a3
    27d8:	d85ff06f          	j	255c <__subdf3+0xb8>
    27dc:	0f005a63          	blez	a6,28d0 <__subdf3+0x42c>
    27e0:	08089e63          	bnez	a7,287c <__subdf3+0x3d8>
    27e4:	00c766b3          	or	a3,a4,a2
    27e8:	d6068ae3          	beqz	a3,255c <__subdf3+0xb8>
    27ec:	fff48813          	addi	a6,s1,-1
    27f0:	02081063          	bnez	a6,2810 <__subdf3+0x36c>
    27f4:	40c50633          	sub	a2,a0,a2
    27f8:	00c53533          	sltu	a0,a0,a2
    27fc:	40e787b3          	sub	a5,a5,a4
    2800:	40a787b3          	sub	a5,a5,a0
    2804:	00060513          	mv	a0,a2
    2808:	00100493          	li	s1,1
    280c:	0540006f          	j	2860 <__subdf3+0x3bc>
    2810:	7ff00693          	li	a3,2047
    2814:	d4d484e3          	beq	s1,a3,255c <__subdf3+0xb8>
    2818:	03800693          	li	a3,56
    281c:	0b06c463          	blt	a3,a6,28c4 <__subdf3+0x420>
    2820:	01f00693          	li	a3,31
    2824:	0706c663          	blt	a3,a6,2890 <__subdf3+0x3ec>
    2828:	02000593          	li	a1,32
    282c:	410585b3          	sub	a1,a1,a6
    2830:	00b716b3          	sll	a3,a4,a1
    2834:	010658b3          	srl	a7,a2,a6
    2838:	00b61633          	sll	a2,a2,a1
    283c:	0116e6b3          	or	a3,a3,a7
    2840:	00c03633          	snez	a2,a2
    2844:	00c6e633          	or	a2,a3,a2
    2848:	01075733          	srl	a4,a4,a6
    284c:	40c50633          	sub	a2,a0,a2
    2850:	40e78733          	sub	a4,a5,a4
    2854:	00c537b3          	sltu	a5,a0,a2
    2858:	40f707b3          	sub	a5,a4,a5
    285c:	00060513          	mv	a0,a2
    2860:	00879713          	slli	a4,a5,0x8
    2864:	ce075ce3          	bgez	a4,255c <__subdf3+0xb8>
    2868:	00800437          	lui	s0,0x800
    286c:	fff40413          	addi	s0,s0,-1 # 7fffff <_impure_ptr+0x7fc857>
    2870:	0087f433          	and	s0,a5,s0
    2874:	00050993          	mv	s3,a0
    2878:	20c0006f          	j	2a84 <__subdf3+0x5e0>
    287c:	7ff00693          	li	a3,2047
    2880:	ccd48ee3          	beq	s1,a3,255c <__subdf3+0xb8>
    2884:	008006b7          	lui	a3,0x800
    2888:	00d76733          	or	a4,a4,a3
    288c:	f8dff06f          	j	2818 <__subdf3+0x374>
    2890:	fe080693          	addi	a3,a6,-32
    2894:	02000893          	li	a7,32
    2898:	00d756b3          	srl	a3,a4,a3
    289c:	00000593          	li	a1,0
    28a0:	01180863          	beq	a6,a7,28b0 <__subdf3+0x40c>
    28a4:	04000593          	li	a1,64
    28a8:	41058833          	sub	a6,a1,a6
    28ac:	010715b3          	sll	a1,a4,a6
    28b0:	00c5e633          	or	a2,a1,a2
    28b4:	00c03633          	snez	a2,a2
    28b8:	00c6e633          	or	a2,a3,a2
    28bc:	00000713          	li	a4,0
    28c0:	f8dff06f          	j	284c <__subdf3+0x3a8>
    28c4:	00c76633          	or	a2,a4,a2
    28c8:	00c03633          	snez	a2,a2
    28cc:	ff1ff06f          	j	28bc <__subdf3+0x418>
    28d0:	0e080863          	beqz	a6,29c0 <__subdf3+0x51c>
    28d4:	40988833          	sub	a6,a7,s1
    28d8:	04049263          	bnez	s1,291c <__subdf3+0x478>
    28dc:	00a7e5b3          	or	a1,a5,a0
    28e0:	34058263          	beqz	a1,2c24 <__subdf3+0x780>
    28e4:	fff80593          	addi	a1,a6,-1
    28e8:	00059e63          	bnez	a1,2904 <__subdf3+0x460>
    28ec:	40a60533          	sub	a0,a2,a0
    28f0:	40f707b3          	sub	a5,a4,a5
    28f4:	00a63633          	sltu	a2,a2,a0
    28f8:	40c787b3          	sub	a5,a5,a2
    28fc:	00068913          	mv	s2,a3
    2900:	f09ff06f          	j	2808 <__subdf3+0x364>
    2904:	7ff00313          	li	t1,2047
    2908:	02681463          	bne	a6,t1,2930 <__subdf3+0x48c>
    290c:	00070793          	mv	a5,a4
    2910:	00060513          	mv	a0,a2
    2914:	7ff00493          	li	s1,2047
    2918:	0d00006f          	j	29e8 <__subdf3+0x544>
    291c:	7ff00593          	li	a1,2047
    2920:	feb886e3          	beq	a7,a1,290c <__subdf3+0x468>
    2924:	008005b7          	lui	a1,0x800
    2928:	00b7e7b3          	or	a5,a5,a1
    292c:	00080593          	mv	a1,a6
    2930:	03800813          	li	a6,56
    2934:	08b84063          	blt	a6,a1,29b4 <__subdf3+0x510>
    2938:	01f00813          	li	a6,31
    293c:	04b84263          	blt	a6,a1,2980 <__subdf3+0x4dc>
    2940:	02000313          	li	t1,32
    2944:	40b30333          	sub	t1,t1,a1
    2948:	00b55e33          	srl	t3,a0,a1
    294c:	00679833          	sll	a6,a5,t1
    2950:	00651533          	sll	a0,a0,t1
    2954:	01c86833          	or	a6,a6,t3
    2958:	00a03533          	snez	a0,a0
    295c:	00a86533          	or	a0,a6,a0
    2960:	00b7d5b3          	srl	a1,a5,a1
    2964:	40a60533          	sub	a0,a2,a0
    2968:	40b707b3          	sub	a5,a4,a1
    296c:	00a63633          	sltu	a2,a2,a0
    2970:	40c787b3          	sub	a5,a5,a2
    2974:	00088493          	mv	s1,a7
    2978:	00068913          	mv	s2,a3
    297c:	ee5ff06f          	j	2860 <__subdf3+0x3bc>
    2980:	fe058813          	addi	a6,a1,-32 # 7fffe0 <_impure_ptr+0x7fc838>
    2984:	02000e13          	li	t3,32
    2988:	0107d833          	srl	a6,a5,a6
    298c:	00000313          	li	t1,0
    2990:	01c58863          	beq	a1,t3,29a0 <__subdf3+0x4fc>
    2994:	04000313          	li	t1,64
    2998:	40b305b3          	sub	a1,t1,a1
    299c:	00b79333          	sll	t1,a5,a1
    29a0:	00a36533          	or	a0,t1,a0
    29a4:	00a03533          	snez	a0,a0
    29a8:	00a86533          	or	a0,a6,a0
    29ac:	00000593          	li	a1,0
    29b0:	fb5ff06f          	j	2964 <__subdf3+0x4c0>
    29b4:	00a7e533          	or	a0,a5,a0
    29b8:	00a03533          	snez	a0,a0
    29bc:	ff1ff06f          	j	29ac <__subdf3+0x508>
    29c0:	00148593          	addi	a1,s1,1
    29c4:	7fe5f593          	andi	a1,a1,2046
    29c8:	08059863          	bnez	a1,2a58 <__subdf3+0x5b4>
    29cc:	00a7e833          	or	a6,a5,a0
    29d0:	00c765b3          	or	a1,a4,a2
    29d4:	06049063          	bnez	s1,2a34 <__subdf3+0x590>
    29d8:	00081c63          	bnez	a6,29f0 <__subdf3+0x54c>
    29dc:	24058c63          	beqz	a1,2c34 <__subdf3+0x790>
    29e0:	00070793          	mv	a5,a4
    29e4:	00060513          	mv	a0,a2
    29e8:	00068913          	mv	s2,a3
    29ec:	b71ff06f          	j	255c <__subdf3+0xb8>
    29f0:	b60586e3          	beqz	a1,255c <__subdf3+0xb8>
    29f4:	40c50833          	sub	a6,a0,a2
    29f8:	010538b3          	sltu	a7,a0,a6
    29fc:	40e785b3          	sub	a1,a5,a4
    2a00:	411585b3          	sub	a1,a1,a7
    2a04:	00859893          	slli	a7,a1,0x8
    2a08:	0008dc63          	bgez	a7,2a20 <__subdf3+0x57c>
    2a0c:	40a60533          	sub	a0,a2,a0
    2a10:	40f707b3          	sub	a5,a4,a5
    2a14:	00a63633          	sltu	a2,a2,a0
    2a18:	40c787b3          	sub	a5,a5,a2
    2a1c:	fcdff06f          	j	29e8 <__subdf3+0x544>
    2a20:	00b86533          	or	a0,a6,a1
    2a24:	22050063          	beqz	a0,2c44 <__subdf3+0x7a0>
    2a28:	00058793          	mv	a5,a1
    2a2c:	00080513          	mv	a0,a6
    2a30:	b2dff06f          	j	255c <__subdf3+0xb8>
    2a34:	00081e63          	bnez	a6,2a50 <__subdf3+0x5ac>
    2a38:	20058a63          	beqz	a1,2c4c <__subdf3+0x7a8>
    2a3c:	00070793          	mv	a5,a4
    2a40:	00060513          	mv	a0,a2
    2a44:	00068913          	mv	s2,a3
    2a48:	7ff00493          	li	s1,2047
    2a4c:	b11ff06f          	j	255c <__subdf3+0xb8>
    2a50:	fe058ce3          	beqz	a1,2a48 <__subdf3+0x5a4>
    2a54:	d45ff06f          	j	2798 <__subdf3+0x2f4>
    2a58:	40c509b3          	sub	s3,a0,a2
    2a5c:	013535b3          	sltu	a1,a0,s3
    2a60:	40e78433          	sub	s0,a5,a4
    2a64:	40b40433          	sub	s0,s0,a1
    2a68:	00841593          	slli	a1,s0,0x8
    2a6c:	0805d463          	bgez	a1,2af4 <__subdf3+0x650>
    2a70:	40a609b3          	sub	s3,a2,a0
    2a74:	40f707b3          	sub	a5,a4,a5
    2a78:	01363633          	sltu	a2,a2,s3
    2a7c:	40c78433          	sub	s0,a5,a2
    2a80:	00068913          	mv	s2,a3
    2a84:	08040263          	beqz	s0,2b08 <__subdf3+0x664>
    2a88:	00040513          	mv	a0,s0
    2a8c:	300000ef          	jal	ra,2d8c <__clzsi2>
    2a90:	ff850713          	addi	a4,a0,-8
    2a94:	01f00793          	li	a5,31
    2a98:	08e7c063          	blt	a5,a4,2b18 <__subdf3+0x674>
    2a9c:	02000793          	li	a5,32
    2aa0:	40e787b3          	sub	a5,a5,a4
    2aa4:	00e41433          	sll	s0,s0,a4
    2aa8:	00f9d7b3          	srl	a5,s3,a5
    2aac:	0087e433          	or	s0,a5,s0
    2ab0:	00e99533          	sll	a0,s3,a4
    2ab4:	0a974463          	blt	a4,s1,2b5c <__subdf3+0x6b8>
    2ab8:	40970733          	sub	a4,a4,s1
    2abc:	00170793          	addi	a5,a4,1
    2ac0:	01f00693          	li	a3,31
    2ac4:	06f6c263          	blt	a3,a5,2b28 <__subdf3+0x684>
    2ac8:	02000713          	li	a4,32
    2acc:	40f70733          	sub	a4,a4,a5
    2ad0:	00f55633          	srl	a2,a0,a5
    2ad4:	00e416b3          	sll	a3,s0,a4
    2ad8:	00e51533          	sll	a0,a0,a4
    2adc:	00c6e6b3          	or	a3,a3,a2
    2ae0:	00a03533          	snez	a0,a0
    2ae4:	00a6e533          	or	a0,a3,a0
    2ae8:	00f457b3          	srl	a5,s0,a5
    2aec:	00000493          	li	s1,0
    2af0:	a6dff06f          	j	255c <__subdf3+0xb8>
    2af4:	0089e533          	or	a0,s3,s0
    2af8:	f80516e3          	bnez	a0,2a84 <__subdf3+0x5e0>
    2afc:	00000793          	li	a5,0
    2b00:	00000493          	li	s1,0
    2b04:	1380006f          	j	2c3c <__subdf3+0x798>
    2b08:	00098513          	mv	a0,s3
    2b0c:	280000ef          	jal	ra,2d8c <__clzsi2>
    2b10:	02050513          	addi	a0,a0,32
    2b14:	f7dff06f          	j	2a90 <__subdf3+0x5ec>
    2b18:	fd850413          	addi	s0,a0,-40
    2b1c:	00899433          	sll	s0,s3,s0
    2b20:	00000513          	li	a0,0
    2b24:	f91ff06f          	j	2ab4 <__subdf3+0x610>
    2b28:	fe170713          	addi	a4,a4,-31
    2b2c:	02000613          	li	a2,32
    2b30:	00e45733          	srl	a4,s0,a4
    2b34:	00000693          	li	a3,0
    2b38:	00c78863          	beq	a5,a2,2b48 <__subdf3+0x6a4>
    2b3c:	04000693          	li	a3,64
    2b40:	40f686b3          	sub	a3,a3,a5
    2b44:	00d416b3          	sll	a3,s0,a3
    2b48:	00d56533          	or	a0,a0,a3
    2b4c:	00a03533          	snez	a0,a0
    2b50:	00a76533          	or	a0,a4,a0
    2b54:	00000793          	li	a5,0
    2b58:	f95ff06f          	j	2aec <__subdf3+0x648>
    2b5c:	ff8007b7          	lui	a5,0xff800
    2b60:	fff78793          	addi	a5,a5,-1 # ff7fffff <_impure_ptr+0xff7fc857>
    2b64:	40e484b3          	sub	s1,s1,a4
    2b68:	00f477b3          	and	a5,s0,a5
    2b6c:	9f1ff06f          	j	255c <__subdf3+0xb8>
    2b70:	00070793          	mv	a5,a4
    2b74:	00060513          	mv	a0,a2
    2b78:	00058493          	mv	s1,a1
    2b7c:	9e1ff06f          	j	255c <__subdf3+0xb8>
    2b80:	00070793          	mv	a5,a4
    2b84:	00060513          	mv	a0,a2
    2b88:	9d5ff06f          	j	255c <__subdf3+0xb8>
    2b8c:	7ff00493          	li	s1,2047
    2b90:	00000793          	li	a5,0
    2b94:	00000513          	li	a0,0
    2b98:	00879713          	slli	a4,a5,0x8
    2b9c:	00075e63          	bgez	a4,2bb8 <__subdf3+0x714>
    2ba0:	00148493          	addi	s1,s1,1
    2ba4:	7ff00713          	li	a4,2047
    2ba8:	0ae48a63          	beq	s1,a4,2c5c <__subdf3+0x7b8>
    2bac:	ff800737          	lui	a4,0xff800
    2bb0:	fff70713          	addi	a4,a4,-1 # ff7fffff <_impure_ptr+0xff7fc857>
    2bb4:	00e7f7b3          	and	a5,a5,a4
    2bb8:	01d79713          	slli	a4,a5,0x1d
    2bbc:	00355513          	srli	a0,a0,0x3
    2bc0:	00a76533          	or	a0,a4,a0
    2bc4:	7ff00713          	li	a4,2047
    2bc8:	0037d793          	srli	a5,a5,0x3
    2bcc:	00e49e63          	bne	s1,a4,2be8 <__subdf3+0x744>
    2bd0:	00f56533          	or	a0,a0,a5
    2bd4:	00000793          	li	a5,0
    2bd8:	00050863          	beqz	a0,2be8 <__subdf3+0x744>
    2bdc:	000807b7          	lui	a5,0x80
    2be0:	00000513          	li	a0,0
    2be4:	00000913          	li	s2,0
    2be8:	7ff4f713          	andi	a4,s1,2047
    2bec:	00c79793          	slli	a5,a5,0xc
    2bf0:	01471713          	slli	a4,a4,0x14
    2bf4:	01c12083          	lw	ra,28(sp)
    2bf8:	01812403          	lw	s0,24(sp)
    2bfc:	00c7d793          	srli	a5,a5,0xc
    2c00:	01f91593          	slli	a1,s2,0x1f
    2c04:	00e7e7b3          	or	a5,a5,a4
    2c08:	00b7e733          	or	a4,a5,a1
    2c0c:	01412483          	lw	s1,20(sp)
    2c10:	01012903          	lw	s2,16(sp)
    2c14:	00c12983          	lw	s3,12(sp)
    2c18:	00070593          	mv	a1,a4
    2c1c:	02010113          	addi	sp,sp,32
    2c20:	00008067          	ret
    2c24:	00070793          	mv	a5,a4
    2c28:	00060513          	mv	a0,a2
    2c2c:	00080493          	mv	s1,a6
    2c30:	db9ff06f          	j	29e8 <__subdf3+0x544>
    2c34:	00000793          	li	a5,0
    2c38:	00000513          	li	a0,0
    2c3c:	00000913          	li	s2,0
    2c40:	f59ff06f          	j	2b98 <__subdf3+0x6f4>
    2c44:	00000793          	li	a5,0
    2c48:	ff5ff06f          	j	2c3c <__subdf3+0x798>
    2c4c:	00000513          	li	a0,0
    2c50:	00000913          	li	s2,0
    2c54:	004007b7          	lui	a5,0x400
    2c58:	b4dff06f          	j	27a4 <__subdf3+0x300>
    2c5c:	00000793          	li	a5,0
    2c60:	00000513          	li	a0,0
    2c64:	f55ff06f          	j	2bb8 <__subdf3+0x714>

00002c68 <__unorddf2>:
    2c68:	001007b7          	lui	a5,0x100
    2c6c:	fff78793          	addi	a5,a5,-1 # fffff <_impure_ptr+0xfc857>
    2c70:	00b7f733          	and	a4,a5,a1
    2c74:	0145d593          	srli	a1,a1,0x14
    2c78:	fff5c593          	not	a1,a1
    2c7c:	00d7f7b3          	and	a5,a5,a3
    2c80:	01559813          	slli	a6,a1,0x15
    2c84:	0146d693          	srli	a3,a3,0x14
    2c88:	7ff6f693          	andi	a3,a3,2047
    2c8c:	00081863          	bnez	a6,2c9c <__unorddf2+0x34>
    2c90:	00a76733          	or	a4,a4,a0
    2c94:	00100513          	li	a0,1
    2c98:	00071c63          	bnez	a4,2cb0 <__unorddf2+0x48>
    2c9c:	7ff00713          	li	a4,2047
    2ca0:	00000513          	li	a0,0
    2ca4:	00e69663          	bne	a3,a4,2cb0 <__unorddf2+0x48>
    2ca8:	00c7e7b3          	or	a5,a5,a2
    2cac:	00f03533          	snez	a0,a5
    2cb0:	00008067          	ret

00002cb4 <__mulsi3>:
    2cb4:	00050613          	mv	a2,a0
    2cb8:	00000513          	li	a0,0
    2cbc:	0015f693          	andi	a3,a1,1
    2cc0:	00068463          	beqz	a3,2cc8 <__mulsi3+0x14>
    2cc4:	00c50533          	add	a0,a0,a2
    2cc8:	0015d593          	srli	a1,a1,0x1
    2ccc:	00161613          	slli	a2,a2,0x1
    2cd0:	fe0596e3          	bnez	a1,2cbc <__mulsi3+0x8>
    2cd4:	00008067          	ret

00002cd8 <__divsi3>:
    2cd8:	06054063          	bltz	a0,2d38 <__umodsi3+0x10>
    2cdc:	0605c663          	bltz	a1,2d48 <__umodsi3+0x20>

00002ce0 <__udivsi3>:
    2ce0:	00058613          	mv	a2,a1
    2ce4:	00050593          	mv	a1,a0
    2ce8:	fff00513          	li	a0,-1
    2cec:	02060c63          	beqz	a2,2d24 <__udivsi3+0x44>
    2cf0:	00100693          	li	a3,1
    2cf4:	00b67a63          	bgeu	a2,a1,2d08 <__udivsi3+0x28>
    2cf8:	00c05863          	blez	a2,2d08 <__udivsi3+0x28>
    2cfc:	00161613          	slli	a2,a2,0x1
    2d00:	00169693          	slli	a3,a3,0x1
    2d04:	feb66ae3          	bltu	a2,a1,2cf8 <__udivsi3+0x18>
    2d08:	00000513          	li	a0,0
    2d0c:	00c5e663          	bltu	a1,a2,2d18 <__udivsi3+0x38>
    2d10:	40c585b3          	sub	a1,a1,a2
    2d14:	00d56533          	or	a0,a0,a3
    2d18:	0016d693          	srli	a3,a3,0x1
    2d1c:	00165613          	srli	a2,a2,0x1
    2d20:	fe0696e3          	bnez	a3,2d0c <__udivsi3+0x2c>
    2d24:	00008067          	ret

00002d28 <__umodsi3>:
    2d28:	00008293          	mv	t0,ra
    2d2c:	fb5ff0ef          	jal	ra,2ce0 <__udivsi3>
    2d30:	00058513          	mv	a0,a1
    2d34:	00028067          	jr	t0
    2d38:	40a00533          	neg	a0,a0
    2d3c:	0005d863          	bgez	a1,2d4c <__umodsi3+0x24>
    2d40:	40b005b3          	neg	a1,a1
    2d44:	f9dff06f          	j	2ce0 <__udivsi3>
    2d48:	40b005b3          	neg	a1,a1
    2d4c:	00008293          	mv	t0,ra
    2d50:	f91ff0ef          	jal	ra,2ce0 <__udivsi3>
    2d54:	40a00533          	neg	a0,a0
    2d58:	00028067          	jr	t0

00002d5c <__modsi3>:
    2d5c:	00008293          	mv	t0,ra
    2d60:	0005ca63          	bltz	a1,2d74 <__modsi3+0x18>
    2d64:	00054c63          	bltz	a0,2d7c <__modsi3+0x20>
    2d68:	f79ff0ef          	jal	ra,2ce0 <__udivsi3>
    2d6c:	00058513          	mv	a0,a1
    2d70:	00028067          	jr	t0
    2d74:	40b005b3          	neg	a1,a1
    2d78:	fe0558e3          	bgez	a0,2d68 <__modsi3+0xc>
    2d7c:	40a00533          	neg	a0,a0
    2d80:	f61ff0ef          	jal	ra,2ce0 <__udivsi3>
    2d84:	40b00533          	neg	a0,a1
    2d88:	00028067          	jr	t0

00002d8c <__clzsi2>:
    2d8c:	000107b7          	lui	a5,0x10
    2d90:	02f57a63          	bgeu	a0,a5,2dc4 <__clzsi2+0x38>
    2d94:	0ff00793          	li	a5,255
    2d98:	00a7b7b3          	sltu	a5,a5,a0
    2d9c:	00379793          	slli	a5,a5,0x3
    2da0:	02000713          	li	a4,32
    2da4:	40f70733          	sub	a4,a4,a5
    2da8:	00f557b3          	srl	a5,a0,a5
    2dac:	00003537          	lui	a0,0x3
    2db0:	0e850513          	addi	a0,a0,232 # 30e8 <__clz_tab>
    2db4:	00a787b3          	add	a5,a5,a0
    2db8:	0007c503          	lbu	a0,0(a5) # 10000 <_impure_ptr+0xc858>
    2dbc:	40a70533          	sub	a0,a4,a0
    2dc0:	00008067          	ret
    2dc4:	01000737          	lui	a4,0x1000
    2dc8:	01000793          	li	a5,16
    2dcc:	fce56ae3          	bltu	a0,a4,2da0 <__clzsi2+0x14>
    2dd0:	01800793          	li	a5,24
    2dd4:	fcdff06f          	j	2da0 <__clzsi2+0x14>

00002dd8 <__errno>:
    2dd8:	000037b7          	lui	a5,0x3
    2ddc:	7a87a503          	lw	a0,1960(a5) # 37a8 <_impure_ptr>
    2de0:	00008067          	ret

00002de4 <memset>:
    2de4:	00f00313          	li	t1,15
    2de8:	00050713          	mv	a4,a0
    2dec:	02c37e63          	bgeu	t1,a2,2e28 <memset+0x44>
    2df0:	00f77793          	andi	a5,a4,15
    2df4:	0a079063          	bnez	a5,2e94 <memset+0xb0>
    2df8:	08059263          	bnez	a1,2e7c <memset+0x98>
    2dfc:	ff067693          	andi	a3,a2,-16
    2e00:	00f67613          	andi	a2,a2,15
    2e04:	00e686b3          	add	a3,a3,a4
    2e08:	00b72023          	sw	a1,0(a4) # 1000000 <_impure_ptr+0xffc858>
    2e0c:	00b72223          	sw	a1,4(a4)
    2e10:	00b72423          	sw	a1,8(a4)
    2e14:	00b72623          	sw	a1,12(a4)
    2e18:	01070713          	addi	a4,a4,16
    2e1c:	fed766e3          	bltu	a4,a3,2e08 <memset+0x24>
    2e20:	00061463          	bnez	a2,2e28 <memset+0x44>
    2e24:	00008067          	ret
    2e28:	40c306b3          	sub	a3,t1,a2
    2e2c:	00269693          	slli	a3,a3,0x2
    2e30:	00000297          	auipc	t0,0x0
    2e34:	005686b3          	add	a3,a3,t0
    2e38:	00c68067          	jr	12(a3) # 80000c <_impure_ptr+0x7fc864>
    2e3c:	00b70723          	sb	a1,14(a4)
    2e40:	00b706a3          	sb	a1,13(a4)
    2e44:	00b70623          	sb	a1,12(a4)
    2e48:	00b705a3          	sb	a1,11(a4)
    2e4c:	00b70523          	sb	a1,10(a4)
    2e50:	00b704a3          	sb	a1,9(a4)
    2e54:	00b70423          	sb	a1,8(a4)
    2e58:	00b703a3          	sb	a1,7(a4)
    2e5c:	00b70323          	sb	a1,6(a4)
    2e60:	00b702a3          	sb	a1,5(a4)
    2e64:	00b70223          	sb	a1,4(a4)
    2e68:	00b701a3          	sb	a1,3(a4)
    2e6c:	00b70123          	sb	a1,2(a4)
    2e70:	00b700a3          	sb	a1,1(a4)
    2e74:	00b70023          	sb	a1,0(a4)
    2e78:	00008067          	ret
    2e7c:	0ff5f593          	andi	a1,a1,255
    2e80:	00859693          	slli	a3,a1,0x8
    2e84:	00d5e5b3          	or	a1,a1,a3
    2e88:	01059693          	slli	a3,a1,0x10
    2e8c:	00d5e5b3          	or	a1,a1,a3
    2e90:	f6dff06f          	j	2dfc <memset+0x18>
    2e94:	00279693          	slli	a3,a5,0x2
    2e98:	00000297          	auipc	t0,0x0
    2e9c:	005686b3          	add	a3,a3,t0
    2ea0:	00008293          	mv	t0,ra
    2ea4:	fa0680e7          	jalr	-96(a3)
    2ea8:	00028093          	mv	ra,t0
    2eac:	ff078793          	addi	a5,a5,-16
    2eb0:	40f70733          	sub	a4,a4,a5
    2eb4:	00f60633          	add	a2,a2,a5
    2eb8:	f6c378e3          	bgeu	t1,a2,2e28 <memset+0x44>
    2ebc:	f3dff06f          	j	2df8 <memset+0x14>

Disassembly of section .text.startup:

00002ec0 <main>:
    2ec0:	fe010113          	addi	sp,sp,-32
    2ec4:	00112e23          	sw	ra,28(sp)
    2ec8:	00812c23          	sw	s0,24(sp)
    2ecc:	819fd0ef          	jal	ra,6e4 <initialise_board>
    2ed0:	ebcfd0ef          	jal	ra,58c <initialise_benchmark>
    2ed4:	00100513          	li	a0,1
    2ed8:	eb8fd0ef          	jal	ra,590 <warm_caches>
    2edc:	811fd0ef          	jal	ra,6ec <start_trigger>
    2ee0:	eb4fd0ef          	jal	ra,594 <benchmark>
    2ee4:	00a12623          	sw	a0,12(sp)
    2ee8:	80dfd0ef          	jal	ra,6f4 <stop_trigger>
    2eec:	00c12503          	lw	a0,12(sp)
    2ef0:	eacfd0ef          	jal	ra,59c <verify_benchmark>
    2ef4:	00050413          	mv	s0,a0
    2ef8:	02050463          	beqz	a0,2f20 <main+0x60>
    2efc:	00003537          	lui	a0,0x3
    2f00:	20850513          	addi	a0,a0,520 # 3208 <__clz_tab+0x120>
    2f04:	9f5fd0ef          	jal	ra,8f8 <simrv_puts>
    2f08:	9c5fd0ef          	jal	ra,8cc <simrv_exit>
    2f0c:	00143513          	seqz	a0,s0
    2f10:	01c12083          	lw	ra,28(sp)
    2f14:	01812403          	lw	s0,24(sp)
    2f18:	02010113          	addi	sp,sp,32
    2f1c:	00008067          	ret
    2f20:	00003537          	lui	a0,0x3
    2f24:	21450513          	addi	a0,a0,532 # 3214 <__clz_tab+0x12c>
    2f28:	9d1fd0ef          	jal	ra,8f8 <simrv_puts>
    2f2c:	fddff06f          	j	2f08 <main+0x48>

Disassembly of section .srodata.cst8:

000031e8 <.srodata.cst8>:
    31e8:	45de                	lw	a1,212(sp)
    31ea:	c9be                	sw	a5,208(sp)
    31ec:	bd3c                	fsd	fa5,120(a0)
    31ee:	00004043          	fmadd.s	ft0,ft0,ft0,ft0,rmm
    31f2:	0000                	unimp
    31f4:	0000                	unimp
    31f6:	3fe0                	fld	fs0,248(a5)
    31f8:	ef84                	fsw	fs1,24(a5)
    31fa:	fe60                	fsw	fs0,124(a2)
    31fc:	e852                	fsw	fs4,16(sp)
    31fe:	4030                	lw	a2,64(s0)
    3200:	7682                	flw	fa3,32(sp)
    3202:	6849                	lui	a6,0x12
    3204:	25c2                	fld	fa1,16(sp)
    3206:	3d3c                	fld	fa5,120(a0)

Disassembly of section .srodata:

00003220 <_global_impure_ptr>:
    3220:	3378                	fld	fa4,224(a4)
	...
