
bd/src/nsichneu/nsichneu:     file format elf32-littleriscv


Disassembly of section .init:

00000000 <_start>:
   0:	00000013          	nop
   4:	00000033          	add	zero,zero,zero
   8:	000000b3          	add	ra,zero,zero
   c:	00000133          	add	sp,zero,zero
  10:	000001b3          	add	gp,zero,zero
  14:	00000233          	add	tp,zero,zero
  18:	000002b3          	add	t0,zero,zero
  1c:	00000333          	add	t1,zero,zero
  20:	000003b3          	add	t2,zero,zero
  24:	00000433          	add	s0,zero,zero
  28:	000004b3          	add	s1,zero,zero
  2c:	00000533          	add	a0,zero,zero
  30:	000005b3          	add	a1,zero,zero
  34:	00000633          	add	a2,zero,zero
  38:	000006b3          	add	a3,zero,zero
  3c:	00000733          	add	a4,zero,zero
  40:	000007b3          	add	a5,zero,zero
  44:	00000833          	add	a6,zero,zero
  48:	000008b3          	add	a7,zero,zero
  4c:	00000933          	add	s2,zero,zero
  50:	000009b3          	add	s3,zero,zero
  54:	00000a33          	add	s4,zero,zero
  58:	00000ab3          	add	s5,zero,zero
  5c:	00000b33          	add	s6,zero,zero
  60:	00000bb3          	add	s7,zero,zero
  64:	00000c33          	add	s8,zero,zero
  68:	00000cb3          	add	s9,zero,zero
  6c:	00000d33          	add	s10,zero,zero
  70:	00000db3          	add	s11,zero,zero
  74:	00000e33          	add	t3,zero,zero
  78:	00000eb3          	add	t4,zero,zero
  7c:	00000f33          	add	t5,zero,zero
  80:	00000fb3          	add	t6,zero,zero
  84:	00010137          	lui	sp,0x10
  88:	23c0506f          	j	52c4 <main>
  8c:	00000013          	nop

Disassembly of section .text:

00000090 <benchmark_body>:
      90:	00a04463          	bgtz	a0,98 <benchmark_body+0x8>
      94:	3c10406f          	j	4c54 <benchmark_body+0x4bc4>
      98:	ff010113          	addi	sp,sp,-16 # fff0 <TOHOST_ADDR+0xac50>
      9c:	000052b7          	lui	t0,0x5
      a0:	00005837          	lui	a6,0x5
      a4:	00005e37          	lui	t3,0x5
      a8:	00812623          	sw	s0,12(sp)
      ac:	00912423          	sw	s1,8(sp)
      b0:	01212223          	sw	s2,4(sp)
      b4:	00000e93          	li	t4,0
      b8:	000058b7          	lui	a7,0x5
      bc:	000057b7          	lui	a5,0x5
      c0:	00005637          	lui	a2,0x5
      c4:	00300693          	li	a3,3
      c8:	00500393          	li	t2,5
      cc:	00200313          	li	t1,2
      d0:	36428f13          	addi	t5,t0,868 # 5364 <P1_marking_member_0>
      d4:	34ce0e13          	addi	t3,t3,844 # 534c <P3_marking_member_0>
      d8:	37080593          	addi	a1,a6,880 # 5370 <P2_marking_member_0>
      dc:	00400713          	li	a4,4
      e0:	38d8ae23          	sw	a3,924(a7) # 539c <P1_is_marked>
      e4:	3877ac23          	sw	t2,920(a5) # 5398 <P2_is_marked>
      e8:	38062223          	sw	zero,900(a2) # 5384 <P3_is_marked>
      ec:	39c8af83          	lw	t6,924(a7)
      f0:	01f35e63          	bge	t1,t6,10c <benchmark_body+0x7c>
      f4:	38462f83          	lw	t6,900(a2)
      f8:	01f6ca63          	blt	a3,t6,10c <benchmark_body+0x7c>
      fc:	004f2403          	lw	s0,4(t5)
     100:	008f2f83          	lw	t6,8(t5)
     104:	01f41463          	bne	s0,t6,10c <benchmark_body+0x7c>
     108:	4c50206f          	j	2dcc <benchmark_body+0x2d3c>
     10c:	39c8af83          	lw	t6,924(a7)
     110:	01f35e63          	bge	t1,t6,12c <benchmark_body+0x9c>
     114:	38462f83          	lw	t6,900(a2)
     118:	01f6ca63          	blt	a3,t6,12c <benchmark_body+0x9c>
     11c:	008f2403          	lw	s0,8(t5)
     120:	004f2f83          	lw	t6,4(t5)
     124:	01f41463          	bne	s0,t6,12c <benchmark_body+0x9c>
     128:	50d0206f          	j	2e34 <benchmark_body+0x2da4>
     12c:	39c8af83          	lw	t6,924(a7)
     130:	01f35e63          	bge	t1,t6,14c <benchmark_body+0xbc>
     134:	38462f83          	lw	t6,900(a2)
     138:	01f6ca63          	blt	a3,t6,14c <benchmark_body+0xbc>
     13c:	3642a403          	lw	s0,868(t0)
     140:	008f2f83          	lw	t6,8(t5)
     144:	01f41463          	bne	s0,t6,14c <benchmark_body+0xbc>
     148:	5550206f          	j	2e9c <benchmark_body+0x2e0c>
     14c:	39c8af83          	lw	t6,924(a7)
     150:	01f35e63          	bge	t1,t6,16c <benchmark_body+0xdc>
     154:	38462f83          	lw	t6,900(a2)
     158:	01f6ca63          	blt	a3,t6,16c <benchmark_body+0xdc>
     15c:	008f2403          	lw	s0,8(t5)
     160:	3642af83          	lw	t6,868(t0)
     164:	01f41463          	bne	s0,t6,16c <benchmark_body+0xdc>
     168:	59d0206f          	j	2f04 <benchmark_body+0x2e74>
     16c:	39c8af83          	lw	t6,924(a7)
     170:	01f35e63          	bge	t1,t6,18c <benchmark_body+0xfc>
     174:	38462f83          	lw	t6,900(a2)
     178:	01f6ca63          	blt	a3,t6,18c <benchmark_body+0xfc>
     17c:	3642a403          	lw	s0,868(t0)
     180:	004f2f83          	lw	t6,4(t5)
     184:	01f41463          	bne	s0,t6,18c <benchmark_body+0xfc>
     188:	5e50206f          	j	2f6c <benchmark_body+0x2edc>
     18c:	39c8af83          	lw	t6,924(a7)
     190:	01f35e63          	bge	t1,t6,1ac <benchmark_body+0x11c>
     194:	38462f83          	lw	t6,900(a2)
     198:	01f6ca63          	blt	a3,t6,1ac <benchmark_body+0x11c>
     19c:	004f2403          	lw	s0,4(t5)
     1a0:	3642af83          	lw	t6,868(t0)
     1a4:	01f41463          	bne	s0,t6,1ac <benchmark_body+0x11c>
     1a8:	62d0206f          	j	2fd4 <benchmark_body+0x2f44>
     1ac:	3987af83          	lw	t6,920(a5)
     1b0:	01f6de63          	bge	a3,t6,1cc <benchmark_body+0x13c>
     1b4:	38462f83          	lw	t6,900(a2)
     1b8:	01f6ca63          	blt	a3,t6,1cc <benchmark_body+0x13c>
     1bc:	0045a403          	lw	s0,4(a1)
     1c0:	0085af83          	lw	t6,8(a1)
     1c4:	01f41463          	bne	s0,t6,1cc <benchmark_body+0x13c>
     1c8:	6750206f          	j	303c <benchmark_body+0x2fac>
     1cc:	3987af83          	lw	t6,920(a5)
     1d0:	01f6de63          	bge	a3,t6,1ec <benchmark_body+0x15c>
     1d4:	38462f83          	lw	t6,900(a2)
     1d8:	01f6ca63          	blt	a3,t6,1ec <benchmark_body+0x15c>
     1dc:	0045a403          	lw	s0,4(a1)
     1e0:	00c5af83          	lw	t6,12(a1)
     1e4:	01f41463          	bne	s0,t6,1ec <benchmark_body+0x15c>
     1e8:	6cd0206f          	j	30b4 <benchmark_body+0x3024>
     1ec:	3987af83          	lw	t6,920(a5)
     1f0:	01f6de63          	bge	a3,t6,20c <benchmark_body+0x17c>
     1f4:	38462f83          	lw	t6,900(a2)
     1f8:	01f6ca63          	blt	a3,t6,20c <benchmark_body+0x17c>
     1fc:	0085a403          	lw	s0,8(a1)
     200:	0045af83          	lw	t6,4(a1)
     204:	01f41463          	bne	s0,t6,20c <benchmark_body+0x17c>
     208:	7250206f          	j	312c <benchmark_body+0x309c>
     20c:	3987af83          	lw	t6,920(a5)
     210:	01f6de63          	bge	a3,t6,22c <benchmark_body+0x19c>
     214:	38462f83          	lw	t6,900(a2)
     218:	01f6ca63          	blt	a3,t6,22c <benchmark_body+0x19c>
     21c:	0085a403          	lw	s0,8(a1)
     220:	00c5af83          	lw	t6,12(a1)
     224:	01f41463          	bne	s0,t6,22c <benchmark_body+0x19c>
     228:	77d0206f          	j	31a4 <benchmark_body+0x3114>
     22c:	3987af83          	lw	t6,920(a5)
     230:	01f6de63          	bge	a3,t6,24c <benchmark_body+0x1bc>
     234:	38462f83          	lw	t6,900(a2)
     238:	01f6ca63          	blt	a3,t6,24c <benchmark_body+0x1bc>
     23c:	00c5a403          	lw	s0,12(a1)
     240:	0045af83          	lw	t6,4(a1)
     244:	01f41463          	bne	s0,t6,24c <benchmark_body+0x1bc>
     248:	7d50206f          	j	321c <benchmark_body+0x318c>
     24c:	3987af83          	lw	t6,920(a5)
     250:	01f6de63          	bge	a3,t6,26c <benchmark_body+0x1dc>
     254:	38462f83          	lw	t6,900(a2)
     258:	01f6ca63          	blt	a3,t6,26c <benchmark_body+0x1dc>
     25c:	00c5a403          	lw	s0,12(a1)
     260:	0085af83          	lw	t6,8(a1)
     264:	01f41463          	bne	s0,t6,26c <benchmark_body+0x1dc>
     268:	02c0306f          	j	3294 <benchmark_body+0x3204>
     26c:	3987af83          	lw	t6,920(a5)
     270:	01f6de63          	bge	a3,t6,28c <benchmark_body+0x1fc>
     274:	38462f83          	lw	t6,900(a2)
     278:	01f6ca63          	blt	a3,t6,28c <benchmark_body+0x1fc>
     27c:	37082403          	lw	s0,880(a6)
     280:	0085af83          	lw	t6,8(a1)
     284:	01f41463          	bne	s0,t6,28c <benchmark_body+0x1fc>
     288:	0840306f          	j	330c <benchmark_body+0x327c>
     28c:	3987af83          	lw	t6,920(a5)
     290:	01f6de63          	bge	a3,t6,2ac <benchmark_body+0x21c>
     294:	38462f83          	lw	t6,900(a2)
     298:	01f6ca63          	blt	a3,t6,2ac <benchmark_body+0x21c>
     29c:	37082403          	lw	s0,880(a6)
     2a0:	00c5af83          	lw	t6,12(a1)
     2a4:	01f41463          	bne	s0,t6,2ac <benchmark_body+0x21c>
     2a8:	0dc0306f          	j	3384 <benchmark_body+0x32f4>
     2ac:	3987af83          	lw	t6,920(a5)
     2b0:	01f6de63          	bge	a3,t6,2cc <benchmark_body+0x23c>
     2b4:	38462f83          	lw	t6,900(a2)
     2b8:	01f6ca63          	blt	a3,t6,2cc <benchmark_body+0x23c>
     2bc:	0085a403          	lw	s0,8(a1)
     2c0:	37082f83          	lw	t6,880(a6)
     2c4:	01f41463          	bne	s0,t6,2cc <benchmark_body+0x23c>
     2c8:	1340306f          	j	33fc <benchmark_body+0x336c>
     2cc:	3987af83          	lw	t6,920(a5)
     2d0:	01f6de63          	bge	a3,t6,2ec <benchmark_body+0x25c>
     2d4:	38462f83          	lw	t6,900(a2)
     2d8:	01f6ca63          	blt	a3,t6,2ec <benchmark_body+0x25c>
     2dc:	0085a403          	lw	s0,8(a1)
     2e0:	00c5af83          	lw	t6,12(a1)
     2e4:	01f41463          	bne	s0,t6,2ec <benchmark_body+0x25c>
     2e8:	18c0306f          	j	3474 <benchmark_body+0x33e4>
     2ec:	3987af83          	lw	t6,920(a5)
     2f0:	01f6de63          	bge	a3,t6,30c <benchmark_body+0x27c>
     2f4:	38462f83          	lw	t6,900(a2)
     2f8:	01f6ca63          	blt	a3,t6,30c <benchmark_body+0x27c>
     2fc:	00c5a403          	lw	s0,12(a1)
     300:	37082f83          	lw	t6,880(a6)
     304:	01f41463          	bne	s0,t6,30c <benchmark_body+0x27c>
     308:	1e40306f          	j	34ec <benchmark_body+0x345c>
     30c:	3987af83          	lw	t6,920(a5)
     310:	01f6de63          	bge	a3,t6,32c <benchmark_body+0x29c>
     314:	38462f83          	lw	t6,900(a2)
     318:	01f6ca63          	blt	a3,t6,32c <benchmark_body+0x29c>
     31c:	00c5a403          	lw	s0,12(a1)
     320:	0085af83          	lw	t6,8(a1)
     324:	01f41463          	bne	s0,t6,32c <benchmark_body+0x29c>
     328:	23c0306f          	j	3564 <benchmark_body+0x34d4>
     32c:	3987af83          	lw	t6,920(a5)
     330:	01f6de63          	bge	a3,t6,34c <benchmark_body+0x2bc>
     334:	38462f83          	lw	t6,900(a2)
     338:	01f6ca63          	blt	a3,t6,34c <benchmark_body+0x2bc>
     33c:	37082403          	lw	s0,880(a6)
     340:	0045af83          	lw	t6,4(a1)
     344:	01f41463          	bne	s0,t6,34c <benchmark_body+0x2bc>
     348:	2940306f          	j	35dc <benchmark_body+0x354c>
     34c:	3987af83          	lw	t6,920(a5)
     350:	01f6de63          	bge	a3,t6,36c <benchmark_body+0x2dc>
     354:	38462f83          	lw	t6,900(a2)
     358:	01f6ca63          	blt	a3,t6,36c <benchmark_body+0x2dc>
     35c:	37082403          	lw	s0,880(a6)
     360:	00c5af83          	lw	t6,12(a1)
     364:	01f41463          	bne	s0,t6,36c <benchmark_body+0x2dc>
     368:	2ec0306f          	j	3654 <benchmark_body+0x35c4>
     36c:	3987af83          	lw	t6,920(a5)
     370:	01f6de63          	bge	a3,t6,38c <benchmark_body+0x2fc>
     374:	38462f83          	lw	t6,900(a2)
     378:	01f6ca63          	blt	a3,t6,38c <benchmark_body+0x2fc>
     37c:	0045a403          	lw	s0,4(a1)
     380:	37082f83          	lw	t6,880(a6)
     384:	01f41463          	bne	s0,t6,38c <benchmark_body+0x2fc>
     388:	3440306f          	j	36cc <benchmark_body+0x363c>
     38c:	3987af83          	lw	t6,920(a5)
     390:	01f6de63          	bge	a3,t6,3ac <benchmark_body+0x31c>
     394:	38462f83          	lw	t6,900(a2)
     398:	01f6ca63          	blt	a3,t6,3ac <benchmark_body+0x31c>
     39c:	0045a403          	lw	s0,4(a1)
     3a0:	00c5af83          	lw	t6,12(a1)
     3a4:	01f41463          	bne	s0,t6,3ac <benchmark_body+0x31c>
     3a8:	39c0306f          	j	3744 <benchmark_body+0x36b4>
     3ac:	3987af83          	lw	t6,920(a5)
     3b0:	01f6de63          	bge	a3,t6,3cc <benchmark_body+0x33c>
     3b4:	38462f83          	lw	t6,900(a2)
     3b8:	01f6ca63          	blt	a3,t6,3cc <benchmark_body+0x33c>
     3bc:	00c5a403          	lw	s0,12(a1)
     3c0:	37082f83          	lw	t6,880(a6)
     3c4:	01f41463          	bne	s0,t6,3cc <benchmark_body+0x33c>
     3c8:	3f40306f          	j	37bc <benchmark_body+0x372c>
     3cc:	3987af83          	lw	t6,920(a5)
     3d0:	01f6de63          	bge	a3,t6,3ec <benchmark_body+0x35c>
     3d4:	38462f83          	lw	t6,900(a2)
     3d8:	01f6ca63          	blt	a3,t6,3ec <benchmark_body+0x35c>
     3dc:	00c5a403          	lw	s0,12(a1)
     3e0:	0045af83          	lw	t6,4(a1)
     3e4:	01f41463          	bne	s0,t6,3ec <benchmark_body+0x35c>
     3e8:	44c0306f          	j	3834 <benchmark_body+0x37a4>
     3ec:	3987af83          	lw	t6,920(a5)
     3f0:	01f6de63          	bge	a3,t6,40c <benchmark_body+0x37c>
     3f4:	38462f83          	lw	t6,900(a2)
     3f8:	01f6ca63          	blt	a3,t6,40c <benchmark_body+0x37c>
     3fc:	37082403          	lw	s0,880(a6)
     400:	0045af83          	lw	t6,4(a1)
     404:	01f41463          	bne	s0,t6,40c <benchmark_body+0x37c>
     408:	4a40306f          	j	38ac <benchmark_body+0x381c>
     40c:	3987af83          	lw	t6,920(a5)
     410:	01f6de63          	bge	a3,t6,42c <benchmark_body+0x39c>
     414:	38462f83          	lw	t6,900(a2)
     418:	01f6ca63          	blt	a3,t6,42c <benchmark_body+0x39c>
     41c:	37082403          	lw	s0,880(a6)
     420:	0085af83          	lw	t6,8(a1)
     424:	01f41463          	bne	s0,t6,42c <benchmark_body+0x39c>
     428:	4fc0306f          	j	3924 <benchmark_body+0x3894>
     42c:	3987af83          	lw	t6,920(a5)
     430:	01f6de63          	bge	a3,t6,44c <benchmark_body+0x3bc>
     434:	38462f83          	lw	t6,900(a2)
     438:	01f6ca63          	blt	a3,t6,44c <benchmark_body+0x3bc>
     43c:	0045a403          	lw	s0,4(a1)
     440:	37082f83          	lw	t6,880(a6)
     444:	01f41463          	bne	s0,t6,44c <benchmark_body+0x3bc>
     448:	5540306f          	j	399c <benchmark_body+0x390c>
     44c:	3987af83          	lw	t6,920(a5)
     450:	01f6de63          	bge	a3,t6,46c <benchmark_body+0x3dc>
     454:	38462f83          	lw	t6,900(a2)
     458:	01f6ca63          	blt	a3,t6,46c <benchmark_body+0x3dc>
     45c:	0045a403          	lw	s0,4(a1)
     460:	0085af83          	lw	t6,8(a1)
     464:	01f41463          	bne	s0,t6,46c <benchmark_body+0x3dc>
     468:	5ac0306f          	j	3a14 <benchmark_body+0x3984>
     46c:	3987af83          	lw	t6,920(a5)
     470:	01f6de63          	bge	a3,t6,48c <benchmark_body+0x3fc>
     474:	38462f83          	lw	t6,900(a2)
     478:	01f6ca63          	blt	a3,t6,48c <benchmark_body+0x3fc>
     47c:	0085a403          	lw	s0,8(a1)
     480:	37082f83          	lw	t6,880(a6)
     484:	01f41463          	bne	s0,t6,48c <benchmark_body+0x3fc>
     488:	6040306f          	j	3a8c <benchmark_body+0x39fc>
     48c:	3987af83          	lw	t6,920(a5)
     490:	01f6de63          	bge	a3,t6,4ac <benchmark_body+0x41c>
     494:	38462f83          	lw	t6,900(a2)
     498:	01f6ca63          	blt	a3,t6,4ac <benchmark_body+0x41c>
     49c:	0085a403          	lw	s0,8(a1)
     4a0:	0045af83          	lw	t6,4(a1)
     4a4:	01f41463          	bne	s0,t6,4ac <benchmark_body+0x41c>
     4a8:	65c0306f          	j	3b04 <benchmark_body+0x3a74>
     4ac:	3987af83          	lw	t6,920(a5)
     4b0:	01f75e63          	bge	a4,t6,4cc <benchmark_body+0x43c>
     4b4:	38462f83          	lw	t6,900(a2)
     4b8:	01f6ca63          	blt	a3,t6,4cc <benchmark_body+0x43c>
     4bc:	0045a403          	lw	s0,4(a1)
     4c0:	0085af83          	lw	t6,8(a1)
     4c4:	01f41463          	bne	s0,t6,4cc <benchmark_body+0x43c>
     4c8:	6b40306f          	j	3b7c <benchmark_body+0x3aec>
     4cc:	3987af83          	lw	t6,920(a5)
     4d0:	01f75e63          	bge	a4,t6,4ec <benchmark_body+0x45c>
     4d4:	38462f83          	lw	t6,900(a2)
     4d8:	01f6ca63          	blt	a3,t6,4ec <benchmark_body+0x45c>
     4dc:	0045a403          	lw	s0,4(a1)
     4e0:	00c5af83          	lw	t6,12(a1)
     4e4:	01f41463          	bne	s0,t6,4ec <benchmark_body+0x45c>
     4e8:	7140306f          	j	3bfc <benchmark_body+0x3b6c>
     4ec:	3987af83          	lw	t6,920(a5)
     4f0:	01f75e63          	bge	a4,t6,50c <benchmark_body+0x47c>
     4f4:	38462f83          	lw	t6,900(a2)
     4f8:	01f6ca63          	blt	a3,t6,50c <benchmark_body+0x47c>
     4fc:	0045a403          	lw	s0,4(a1)
     500:	0105af83          	lw	t6,16(a1)
     504:	01f41463          	bne	s0,t6,50c <benchmark_body+0x47c>
     508:	7740306f          	j	3c7c <benchmark_body+0x3bec>
     50c:	3987af83          	lw	t6,920(a5)
     510:	01f75e63          	bge	a4,t6,52c <benchmark_body+0x49c>
     514:	38462f83          	lw	t6,900(a2)
     518:	01f6ca63          	blt	a3,t6,52c <benchmark_body+0x49c>
     51c:	0045a403          	lw	s0,4(a1)
     520:	0105af83          	lw	t6,16(a1)
     524:	01f41463          	bne	s0,t6,52c <benchmark_body+0x49c>
     528:	7d40306f          	j	3cfc <benchmark_body+0x3c6c>
     52c:	3987af83          	lw	t6,920(a5)
     530:	01f75e63          	bge	a4,t6,54c <benchmark_body+0x4bc>
     534:	38462f83          	lw	t6,900(a2)
     538:	01f6ca63          	blt	a3,t6,54c <benchmark_body+0x4bc>
     53c:	0085a403          	lw	s0,8(a1)
     540:	0045af83          	lw	t6,4(a1)
     544:	01f41463          	bne	s0,t6,54c <benchmark_body+0x4bc>
     548:	0350306f          	j	3d7c <benchmark_body+0x3cec>
     54c:	3987af83          	lw	t6,920(a5)
     550:	01f75e63          	bge	a4,t6,56c <benchmark_body+0x4dc>
     554:	38462f83          	lw	t6,900(a2)
     558:	01f6ca63          	blt	a3,t6,56c <benchmark_body+0x4dc>
     55c:	0085a403          	lw	s0,8(a1)
     560:	00c5af83          	lw	t6,12(a1)
     564:	01f41463          	bne	s0,t6,56c <benchmark_body+0x4dc>
     568:	0950306f          	j	3dfc <benchmark_body+0x3d6c>
     56c:	3987af83          	lw	t6,920(a5)
     570:	01f75e63          	bge	a4,t6,58c <benchmark_body+0x4fc>
     574:	38462f83          	lw	t6,900(a2)
     578:	01f6ca63          	blt	a3,t6,58c <benchmark_body+0x4fc>
     57c:	0085a403          	lw	s0,8(a1)
     580:	0105af83          	lw	t6,16(a1)
     584:	01f41463          	bne	s0,t6,58c <benchmark_body+0x4fc>
     588:	0f50306f          	j	3e7c <benchmark_body+0x3dec>
     58c:	3987af83          	lw	t6,920(a5)
     590:	01f75e63          	bge	a4,t6,5ac <benchmark_body+0x51c>
     594:	38462f83          	lw	t6,900(a2)
     598:	01f6ca63          	blt	a3,t6,5ac <benchmark_body+0x51c>
     59c:	0085a403          	lw	s0,8(a1)
     5a0:	0105af83          	lw	t6,16(a1)
     5a4:	01f41463          	bne	s0,t6,5ac <benchmark_body+0x51c>
     5a8:	1550306f          	j	3efc <benchmark_body+0x3e6c>
     5ac:	3987af83          	lw	t6,920(a5)
     5b0:	01f75e63          	bge	a4,t6,5cc <benchmark_body+0x53c>
     5b4:	38462f83          	lw	t6,900(a2)
     5b8:	01f6ca63          	blt	a3,t6,5cc <benchmark_body+0x53c>
     5bc:	00c5a403          	lw	s0,12(a1)
     5c0:	0045af83          	lw	t6,4(a1)
     5c4:	01f41463          	bne	s0,t6,5cc <benchmark_body+0x53c>
     5c8:	1b50306f          	j	3f7c <benchmark_body+0x3eec>
     5cc:	3987af83          	lw	t6,920(a5)
     5d0:	01f75e63          	bge	a4,t6,5ec <benchmark_body+0x55c>
     5d4:	38462f83          	lw	t6,900(a2)
     5d8:	01f6ca63          	blt	a3,t6,5ec <benchmark_body+0x55c>
     5dc:	00c5a403          	lw	s0,12(a1)
     5e0:	0085af83          	lw	t6,8(a1)
     5e4:	01f41463          	bne	s0,t6,5ec <benchmark_body+0x55c>
     5e8:	2150306f          	j	3ffc <benchmark_body+0x3f6c>
     5ec:	3987af83          	lw	t6,920(a5)
     5f0:	01f75e63          	bge	a4,t6,60c <benchmark_body+0x57c>
     5f4:	38462f83          	lw	t6,900(a2)
     5f8:	01f6ca63          	blt	a3,t6,60c <benchmark_body+0x57c>
     5fc:	00c5a403          	lw	s0,12(a1)
     600:	0105af83          	lw	t6,16(a1)
     604:	01f41463          	bne	s0,t6,60c <benchmark_body+0x57c>
     608:	2750306f          	j	407c <benchmark_body+0x3fec>
     60c:	3987af83          	lw	t6,920(a5)
     610:	01f75e63          	bge	a4,t6,62c <benchmark_body+0x59c>
     614:	38462f83          	lw	t6,900(a2)
     618:	01f6ca63          	blt	a3,t6,62c <benchmark_body+0x59c>
     61c:	00c5a403          	lw	s0,12(a1)
     620:	0105af83          	lw	t6,16(a1)
     624:	01f41463          	bne	s0,t6,62c <benchmark_body+0x59c>
     628:	2d50306f          	j	40fc <benchmark_body+0x406c>
     62c:	3987af83          	lw	t6,920(a5)
     630:	01f75e63          	bge	a4,t6,64c <benchmark_body+0x5bc>
     634:	38462f83          	lw	t6,900(a2)
     638:	01f6ca63          	blt	a3,t6,64c <benchmark_body+0x5bc>
     63c:	0105a403          	lw	s0,16(a1)
     640:	0045af83          	lw	t6,4(a1)
     644:	01f41463          	bne	s0,t6,64c <benchmark_body+0x5bc>
     648:	3350306f          	j	417c <benchmark_body+0x40ec>
     64c:	3987af83          	lw	t6,920(a5)
     650:	01f75e63          	bge	a4,t6,66c <benchmark_body+0x5dc>
     654:	38462f83          	lw	t6,900(a2)
     658:	01f6ca63          	blt	a3,t6,66c <benchmark_body+0x5dc>
     65c:	0105a403          	lw	s0,16(a1)
     660:	0045af83          	lw	t6,4(a1)
     664:	01f41463          	bne	s0,t6,66c <benchmark_body+0x5dc>
     668:	3950306f          	j	41fc <benchmark_body+0x416c>
     66c:	3987af83          	lw	t6,920(a5)
     670:	01f75e63          	bge	a4,t6,68c <benchmark_body+0x5fc>
     674:	38462f83          	lw	t6,900(a2)
     678:	01f6ca63          	blt	a3,t6,68c <benchmark_body+0x5fc>
     67c:	0105a403          	lw	s0,16(a1)
     680:	0085af83          	lw	t6,8(a1)
     684:	01f41463          	bne	s0,t6,68c <benchmark_body+0x5fc>
     688:	3f50306f          	j	427c <benchmark_body+0x41ec>
     68c:	3987af83          	lw	t6,920(a5)
     690:	01f75e63          	bge	a4,t6,6ac <benchmark_body+0x61c>
     694:	38462f83          	lw	t6,900(a2)
     698:	01f6ca63          	blt	a3,t6,6ac <benchmark_body+0x61c>
     69c:	0105a403          	lw	s0,16(a1)
     6a0:	0085af83          	lw	t6,8(a1)
     6a4:	01f41463          	bne	s0,t6,6ac <benchmark_body+0x61c>
     6a8:	4550306f          	j	42fc <benchmark_body+0x426c>
     6ac:	3987af83          	lw	t6,920(a5)
     6b0:	01f75e63          	bge	a4,t6,6cc <benchmark_body+0x63c>
     6b4:	38462f83          	lw	t6,900(a2)
     6b8:	01f6ca63          	blt	a3,t6,6cc <benchmark_body+0x63c>
     6bc:	0105a403          	lw	s0,16(a1)
     6c0:	00c5af83          	lw	t6,12(a1)
     6c4:	01f41463          	bne	s0,t6,6cc <benchmark_body+0x63c>
     6c8:	4b50306f          	j	437c <benchmark_body+0x42ec>
     6cc:	3987af83          	lw	t6,920(a5)
     6d0:	01f75e63          	bge	a4,t6,6ec <benchmark_body+0x65c>
     6d4:	38462f83          	lw	t6,900(a2)
     6d8:	01f6ca63          	blt	a3,t6,6ec <benchmark_body+0x65c>
     6dc:	0105a403          	lw	s0,16(a1)
     6e0:	00c5af83          	lw	t6,12(a1)
     6e4:	01f41463          	bne	s0,t6,6ec <benchmark_body+0x65c>
     6e8:	5150306f          	j	43fc <benchmark_body+0x436c>
     6ec:	3987af83          	lw	t6,920(a5)
     6f0:	01f75e63          	bge	a4,t6,70c <benchmark_body+0x67c>
     6f4:	38462f83          	lw	t6,900(a2)
     6f8:	01f6ca63          	blt	a3,t6,70c <benchmark_body+0x67c>
     6fc:	37082403          	lw	s0,880(a6)
     700:	0085af83          	lw	t6,8(a1)
     704:	01f41463          	bne	s0,t6,70c <benchmark_body+0x67c>
     708:	5750306f          	j	447c <benchmark_body+0x43ec>
     70c:	3987af83          	lw	t6,920(a5)
     710:	01f75e63          	bge	a4,t6,72c <benchmark_body+0x69c>
     714:	38462f83          	lw	t6,900(a2)
     718:	01f6ca63          	blt	a3,t6,72c <benchmark_body+0x69c>
     71c:	37082403          	lw	s0,880(a6)
     720:	00c5af83          	lw	t6,12(a1)
     724:	01f41463          	bne	s0,t6,72c <benchmark_body+0x69c>
     728:	5d50306f          	j	44fc <benchmark_body+0x446c>
     72c:	3987af83          	lw	t6,920(a5)
     730:	01f75e63          	bge	a4,t6,74c <benchmark_body+0x6bc>
     734:	38462f83          	lw	t6,900(a2)
     738:	01f6ca63          	blt	a3,t6,74c <benchmark_body+0x6bc>
     73c:	37082403          	lw	s0,880(a6)
     740:	0105af83          	lw	t6,16(a1)
     744:	01f41463          	bne	s0,t6,74c <benchmark_body+0x6bc>
     748:	6350306f          	j	457c <benchmark_body+0x44ec>
     74c:	3987af83          	lw	t6,920(a5)
     750:	01f75e63          	bge	a4,t6,76c <benchmark_body+0x6dc>
     754:	38462f83          	lw	t6,900(a2)
     758:	01f6ca63          	blt	a3,t6,76c <benchmark_body+0x6dc>
     75c:	37082403          	lw	s0,880(a6)
     760:	0105af83          	lw	t6,16(a1)
     764:	01f41463          	bne	s0,t6,76c <benchmark_body+0x6dc>
     768:	6950306f          	j	45fc <benchmark_body+0x456c>
     76c:	3987af83          	lw	t6,920(a5)
     770:	01f75e63          	bge	a4,t6,78c <benchmark_body+0x6fc>
     774:	38462f83          	lw	t6,900(a2)
     778:	01f6ca63          	blt	a3,t6,78c <benchmark_body+0x6fc>
     77c:	0085a403          	lw	s0,8(a1)
     780:	37082f83          	lw	t6,880(a6)
     784:	01f41463          	bne	s0,t6,78c <benchmark_body+0x6fc>
     788:	6f50306f          	j	467c <benchmark_body+0x45ec>
     78c:	3987af83          	lw	t6,920(a5)
     790:	01f75e63          	bge	a4,t6,7ac <benchmark_body+0x71c>
     794:	38462f83          	lw	t6,900(a2)
     798:	01f6ca63          	blt	a3,t6,7ac <benchmark_body+0x71c>
     79c:	0085a403          	lw	s0,8(a1)
     7a0:	00c5af83          	lw	t6,12(a1)
     7a4:	01f41463          	bne	s0,t6,7ac <benchmark_body+0x71c>
     7a8:	7550306f          	j	46fc <benchmark_body+0x466c>
     7ac:	3987af83          	lw	t6,920(a5)
     7b0:	01f75e63          	bge	a4,t6,7cc <benchmark_body+0x73c>
     7b4:	38462f83          	lw	t6,900(a2)
     7b8:	01f6ca63          	blt	a3,t6,7cc <benchmark_body+0x73c>
     7bc:	0085a403          	lw	s0,8(a1)
     7c0:	0105af83          	lw	t6,16(a1)
     7c4:	01f41463          	bne	s0,t6,7cc <benchmark_body+0x73c>
     7c8:	7ad0306f          	j	4774 <benchmark_body+0x46e4>
     7cc:	3987af83          	lw	t6,920(a5)
     7d0:	01f75e63          	bge	a4,t6,7ec <benchmark_body+0x75c>
     7d4:	38462f83          	lw	t6,900(a2)
     7d8:	01f6ca63          	blt	a3,t6,7ec <benchmark_body+0x75c>
     7dc:	0085a403          	lw	s0,8(a1)
     7e0:	0105af83          	lw	t6,16(a1)
     7e4:	01f41463          	bne	s0,t6,7ec <benchmark_body+0x75c>
     7e8:	00c0406f          	j	47f4 <benchmark_body+0x4764>
     7ec:	3987af83          	lw	t6,920(a5)
     7f0:	01f75e63          	bge	a4,t6,80c <benchmark_body+0x77c>
     7f4:	38462f83          	lw	t6,900(a2)
     7f8:	01f6ca63          	blt	a3,t6,80c <benchmark_body+0x77c>
     7fc:	00c5a403          	lw	s0,12(a1)
     800:	37082f83          	lw	t6,880(a6)
     804:	01f41463          	bne	s0,t6,80c <benchmark_body+0x77c>
     808:	0640406f          	j	486c <benchmark_body+0x47dc>
     80c:	3987af83          	lw	t6,920(a5)
     810:	01f75e63          	bge	a4,t6,82c <benchmark_body+0x79c>
     814:	38462f83          	lw	t6,900(a2)
     818:	01f6ca63          	blt	a3,t6,82c <benchmark_body+0x79c>
     81c:	00c5a403          	lw	s0,12(a1)
     820:	0085af83          	lw	t6,8(a1)
     824:	01f41463          	bne	s0,t6,82c <benchmark_body+0x79c>
     828:	0c40406f          	j	48ec <benchmark_body+0x485c>
     82c:	3987af83          	lw	t6,920(a5)
     830:	01f75e63          	bge	a4,t6,84c <benchmark_body+0x7bc>
     834:	38462f83          	lw	t6,900(a2)
     838:	01f6ca63          	blt	a3,t6,84c <benchmark_body+0x7bc>
     83c:	00c5a403          	lw	s0,12(a1)
     840:	0105af83          	lw	t6,16(a1)
     844:	01f41463          	bne	s0,t6,84c <benchmark_body+0x7bc>
     848:	11c0406f          	j	4964 <benchmark_body+0x48d4>
     84c:	3987af83          	lw	t6,920(a5)
     850:	01f75e63          	bge	a4,t6,86c <benchmark_body+0x7dc>
     854:	38462f83          	lw	t6,900(a2)
     858:	01f6ca63          	blt	a3,t6,86c <benchmark_body+0x7dc>
     85c:	00c5a403          	lw	s0,12(a1)
     860:	0105af83          	lw	t6,16(a1)
     864:	01f41463          	bne	s0,t6,86c <benchmark_body+0x7dc>
     868:	17c0406f          	j	49e4 <benchmark_body+0x4954>
     86c:	3987af83          	lw	t6,920(a5)
     870:	01f75e63          	bge	a4,t6,88c <benchmark_body+0x7fc>
     874:	38462f83          	lw	t6,900(a2)
     878:	01f6ca63          	blt	a3,t6,88c <benchmark_body+0x7fc>
     87c:	0105a403          	lw	s0,16(a1)
     880:	37082f83          	lw	t6,880(a6)
     884:	01f41463          	bne	s0,t6,88c <benchmark_body+0x7fc>
     888:	1d40406f          	j	4a5c <benchmark_body+0x49cc>
     88c:	3987af83          	lw	t6,920(a5)
     890:	01f75e63          	bge	a4,t6,8ac <benchmark_body+0x81c>
     894:	38462f83          	lw	t6,900(a2)
     898:	01f6ca63          	blt	a3,t6,8ac <benchmark_body+0x81c>
     89c:	0105a403          	lw	s0,16(a1)
     8a0:	37082f83          	lw	t6,880(a6)
     8a4:	01f41463          	bne	s0,t6,8ac <benchmark_body+0x81c>
     8a8:	2340406f          	j	4adc <benchmark_body+0x4a4c>
     8ac:	3987af83          	lw	t6,920(a5)
     8b0:	01f75e63          	bge	a4,t6,8cc <benchmark_body+0x83c>
     8b4:	38462f83          	lw	t6,900(a2)
     8b8:	01f6ca63          	blt	a3,t6,8cc <benchmark_body+0x83c>
     8bc:	0105a403          	lw	s0,16(a1)
     8c0:	0085af83          	lw	t6,8(a1)
     8c4:	01f41463          	bne	s0,t6,8cc <benchmark_body+0x83c>
     8c8:	2940406f          	j	4b5c <benchmark_body+0x4acc>
     8cc:	3987af83          	lw	t6,920(a5)
     8d0:	01f75e63          	bge	a4,t6,8ec <benchmark_body+0x85c>
     8d4:	38462f83          	lw	t6,900(a2)
     8d8:	01f6ca63          	blt	a3,t6,8ec <benchmark_body+0x85c>
     8dc:	0105a403          	lw	s0,16(a1)
     8e0:	0085af83          	lw	t6,8(a1)
     8e4:	01f41463          	bne	s0,t6,8ec <benchmark_body+0x85c>
     8e8:	2f40406f          	j	4bdc <benchmark_body+0x4b4c>
     8ec:	3987af83          	lw	t6,920(a5)
     8f0:	01f75e63          	bge	a4,t6,90c <benchmark_body+0x87c>
     8f4:	38462f83          	lw	t6,900(a2)
     8f8:	01f6ca63          	blt	a3,t6,90c <benchmark_body+0x87c>
     8fc:	0105a403          	lw	s0,16(a1)
     900:	00c5af83          	lw	t6,12(a1)
     904:	01f41463          	bne	s0,t6,90c <benchmark_body+0x87c>
     908:	51c0106f          	j	1e24 <benchmark_body+0x1d94>
     90c:	3987af83          	lw	t6,920(a5)
     910:	01f75e63          	bge	a4,t6,92c <benchmark_body+0x89c>
     914:	38462f83          	lw	t6,900(a2)
     918:	01f6ca63          	blt	a3,t6,92c <benchmark_body+0x89c>
     91c:	0105a403          	lw	s0,16(a1)
     920:	00c5af83          	lw	t6,12(a1)
     924:	01f41463          	bne	s0,t6,92c <benchmark_body+0x89c>
     928:	57c0106f          	j	1ea4 <benchmark_body+0x1e14>
     92c:	3987af83          	lw	t6,920(a5)
     930:	01f75e63          	bge	a4,t6,94c <benchmark_body+0x8bc>
     934:	38462f83          	lw	t6,900(a2)
     938:	01f6ca63          	blt	a3,t6,94c <benchmark_body+0x8bc>
     93c:	37082403          	lw	s0,880(a6)
     940:	0045af83          	lw	t6,4(a1)
     944:	01f41463          	bne	s0,t6,94c <benchmark_body+0x8bc>
     948:	5d40106f          	j	1f1c <benchmark_body+0x1e8c>
     94c:	3987af83          	lw	t6,920(a5)
     950:	01f75e63          	bge	a4,t6,96c <benchmark_body+0x8dc>
     954:	38462f83          	lw	t6,900(a2)
     958:	01f6ca63          	blt	a3,t6,96c <benchmark_body+0x8dc>
     95c:	37082403          	lw	s0,880(a6)
     960:	00c5af83          	lw	t6,12(a1)
     964:	01f41463          	bne	s0,t6,96c <benchmark_body+0x8dc>
     968:	6340106f          	j	1f9c <benchmark_body+0x1f0c>
     96c:	3987af83          	lw	t6,920(a5)
     970:	01f75e63          	bge	a4,t6,98c <benchmark_body+0x8fc>
     974:	38462f83          	lw	t6,900(a2)
     978:	01f6ca63          	blt	a3,t6,98c <benchmark_body+0x8fc>
     97c:	37082403          	lw	s0,880(a6)
     980:	0105af83          	lw	t6,16(a1)
     984:	01f41463          	bne	s0,t6,98c <benchmark_body+0x8fc>
     988:	6940106f          	j	201c <benchmark_body+0x1f8c>
     98c:	3987af83          	lw	t6,920(a5)
     990:	01f75e63          	bge	a4,t6,9ac <benchmark_body+0x91c>
     994:	38462f83          	lw	t6,900(a2)
     998:	01f6ca63          	blt	a3,t6,9ac <benchmark_body+0x91c>
     99c:	37082403          	lw	s0,880(a6)
     9a0:	0105af83          	lw	t6,16(a1)
     9a4:	01f41463          	bne	s0,t6,9ac <benchmark_body+0x91c>
     9a8:	6f40106f          	j	209c <benchmark_body+0x200c>
     9ac:	3987af83          	lw	t6,920(a5)
     9b0:	01f75e63          	bge	a4,t6,9cc <benchmark_body+0x93c>
     9b4:	38462f83          	lw	t6,900(a2)
     9b8:	01f6ca63          	blt	a3,t6,9cc <benchmark_body+0x93c>
     9bc:	0045a403          	lw	s0,4(a1)
     9c0:	37082f83          	lw	t6,880(a6)
     9c4:	01f41463          	bne	s0,t6,9cc <benchmark_body+0x93c>
     9c8:	7540106f          	j	211c <benchmark_body+0x208c>
     9cc:	3987af83          	lw	t6,920(a5)
     9d0:	01f75e63          	bge	a4,t6,9ec <benchmark_body+0x95c>
     9d4:	38462f83          	lw	t6,900(a2)
     9d8:	01f6ca63          	blt	a3,t6,9ec <benchmark_body+0x95c>
     9dc:	0045a403          	lw	s0,4(a1)
     9e0:	00c5af83          	lw	t6,12(a1)
     9e4:	01f41463          	bne	s0,t6,9ec <benchmark_body+0x95c>
     9e8:	7b40106f          	j	219c <benchmark_body+0x210c>
     9ec:	3987af83          	lw	t6,920(a5)
     9f0:	01f75e63          	bge	a4,t6,a0c <benchmark_body+0x97c>
     9f4:	38462f83          	lw	t6,900(a2)
     9f8:	01f6ca63          	blt	a3,t6,a0c <benchmark_body+0x97c>
     9fc:	0045a403          	lw	s0,4(a1)
     a00:	0105af83          	lw	t6,16(a1)
     a04:	01f41463          	bne	s0,t6,a0c <benchmark_body+0x97c>
     a08:	00d0106f          	j	2214 <benchmark_body+0x2184>
     a0c:	3987af83          	lw	t6,920(a5)
     a10:	01f75e63          	bge	a4,t6,a2c <benchmark_body+0x99c>
     a14:	38462f83          	lw	t6,900(a2)
     a18:	01f6ca63          	blt	a3,t6,a2c <benchmark_body+0x99c>
     a1c:	0045a403          	lw	s0,4(a1)
     a20:	0105af83          	lw	t6,16(a1)
     a24:	01f41463          	bne	s0,t6,a2c <benchmark_body+0x99c>
     a28:	06d0106f          	j	2294 <benchmark_body+0x2204>
     a2c:	3987af83          	lw	t6,920(a5)
     a30:	01f75e63          	bge	a4,t6,a4c <benchmark_body+0x9bc>
     a34:	38462f83          	lw	t6,900(a2)
     a38:	01f6ca63          	blt	a3,t6,a4c <benchmark_body+0x9bc>
     a3c:	00c5a403          	lw	s0,12(a1)
     a40:	37082f83          	lw	t6,880(a6)
     a44:	01f41463          	bne	s0,t6,a4c <benchmark_body+0x9bc>
     a48:	0c50106f          	j	230c <benchmark_body+0x227c>
     a4c:	3987af83          	lw	t6,920(a5)
     a50:	01f75e63          	bge	a4,t6,a6c <benchmark_body+0x9dc>
     a54:	38462f83          	lw	t6,900(a2)
     a58:	01f6ca63          	blt	a3,t6,a6c <benchmark_body+0x9dc>
     a5c:	00c5a403          	lw	s0,12(a1)
     a60:	0045af83          	lw	t6,4(a1)
     a64:	01f41463          	bne	s0,t6,a6c <benchmark_body+0x9dc>
     a68:	1250106f          	j	238c <benchmark_body+0x22fc>
     a6c:	3987af83          	lw	t6,920(a5)
     a70:	01f75e63          	bge	a4,t6,a8c <benchmark_body+0x9fc>
     a74:	38462f83          	lw	t6,900(a2)
     a78:	01f6ca63          	blt	a3,t6,a8c <benchmark_body+0x9fc>
     a7c:	00c5a403          	lw	s0,12(a1)
     a80:	0105af83          	lw	t6,16(a1)
     a84:	01f41463          	bne	s0,t6,a8c <benchmark_body+0x9fc>
     a88:	17d0106f          	j	2404 <benchmark_body+0x2374>
     a8c:	3987af83          	lw	t6,920(a5)
     a90:	01f75e63          	bge	a4,t6,aac <benchmark_body+0xa1c>
     a94:	38462f83          	lw	t6,900(a2)
     a98:	01f6ca63          	blt	a3,t6,aac <benchmark_body+0xa1c>
     a9c:	00c5a403          	lw	s0,12(a1)
     aa0:	0105af83          	lw	t6,16(a1)
     aa4:	01f41463          	bne	s0,t6,aac <benchmark_body+0xa1c>
     aa8:	1dd0106f          	j	2484 <benchmark_body+0x23f4>
     aac:	3987af83          	lw	t6,920(a5)
     ab0:	01f75e63          	bge	a4,t6,acc <benchmark_body+0xa3c>
     ab4:	38462f83          	lw	t6,900(a2)
     ab8:	01f6ca63          	blt	a3,t6,acc <benchmark_body+0xa3c>
     abc:	0105a403          	lw	s0,16(a1)
     ac0:	37082f83          	lw	t6,880(a6)
     ac4:	01f41463          	bne	s0,t6,acc <benchmark_body+0xa3c>
     ac8:	2350106f          	j	24fc <benchmark_body+0x246c>
     acc:	3987af83          	lw	t6,920(a5)
     ad0:	01f75e63          	bge	a4,t6,aec <benchmark_body+0xa5c>
     ad4:	38462f83          	lw	t6,900(a2)
     ad8:	01f6ca63          	blt	a3,t6,aec <benchmark_body+0xa5c>
     adc:	0105a403          	lw	s0,16(a1)
     ae0:	37082f83          	lw	t6,880(a6)
     ae4:	01f41463          	bne	s0,t6,aec <benchmark_body+0xa5c>
     ae8:	2950106f          	j	257c <benchmark_body+0x24ec>
     aec:	3987af83          	lw	t6,920(a5)
     af0:	01f75e63          	bge	a4,t6,b0c <benchmark_body+0xa7c>
     af4:	38462f83          	lw	t6,900(a2)
     af8:	01f6ca63          	blt	a3,t6,b0c <benchmark_body+0xa7c>
     afc:	0105a403          	lw	s0,16(a1)
     b00:	0045af83          	lw	t6,4(a1)
     b04:	01f41463          	bne	s0,t6,b0c <benchmark_body+0xa7c>
     b08:	2f50106f          	j	25fc <benchmark_body+0x256c>
     b0c:	3987af83          	lw	t6,920(a5)
     b10:	01f75e63          	bge	a4,t6,b2c <benchmark_body+0xa9c>
     b14:	38462f83          	lw	t6,900(a2)
     b18:	01f6ca63          	blt	a3,t6,b2c <benchmark_body+0xa9c>
     b1c:	0105a403          	lw	s0,16(a1)
     b20:	0045af83          	lw	t6,4(a1)
     b24:	01f41463          	bne	s0,t6,b2c <benchmark_body+0xa9c>
     b28:	3550106f          	j	267c <benchmark_body+0x25ec>
     b2c:	3987af83          	lw	t6,920(a5)
     b30:	01f75e63          	bge	a4,t6,b4c <benchmark_body+0xabc>
     b34:	38462f83          	lw	t6,900(a2)
     b38:	01f6ca63          	blt	a3,t6,b4c <benchmark_body+0xabc>
     b3c:	0105a403          	lw	s0,16(a1)
     b40:	00c5af83          	lw	t6,12(a1)
     b44:	01f41463          	bne	s0,t6,b4c <benchmark_body+0xabc>
     b48:	3ad0106f          	j	26f4 <benchmark_body+0x2664>
     b4c:	3987af83          	lw	t6,920(a5)
     b50:	01f75e63          	bge	a4,t6,b6c <benchmark_body+0xadc>
     b54:	38462f83          	lw	t6,900(a2)
     b58:	01f6ca63          	blt	a3,t6,b6c <benchmark_body+0xadc>
     b5c:	0105a403          	lw	s0,16(a1)
     b60:	00c5af83          	lw	t6,12(a1)
     b64:	01f41463          	bne	s0,t6,b6c <benchmark_body+0xadc>
     b68:	40d0106f          	j	2774 <benchmark_body+0x26e4>
     b6c:	3987af83          	lw	t6,920(a5)
     b70:	01f75e63          	bge	a4,t6,b8c <benchmark_body+0xafc>
     b74:	38462f83          	lw	t6,900(a2)
     b78:	01f6ca63          	blt	a3,t6,b8c <benchmark_body+0xafc>
     b7c:	37082403          	lw	s0,880(a6)
     b80:	0045af83          	lw	t6,4(a1)
     b84:	01f41463          	bne	s0,t6,b8c <benchmark_body+0xafc>
     b88:	4650106f          	j	27ec <benchmark_body+0x275c>
     b8c:	3987af83          	lw	t6,920(a5)
     b90:	01f75e63          	bge	a4,t6,bac <benchmark_body+0xb1c>
     b94:	38462f83          	lw	t6,900(a2)
     b98:	01f6ca63          	blt	a3,t6,bac <benchmark_body+0xb1c>
     b9c:	37082403          	lw	s0,880(a6)
     ba0:	0085af83          	lw	t6,8(a1)
     ba4:	01f41463          	bne	s0,t6,bac <benchmark_body+0xb1c>
     ba8:	4c50106f          	j	286c <benchmark_body+0x27dc>
     bac:	3987af83          	lw	t6,920(a5)
     bb0:	01f75e63          	bge	a4,t6,bcc <benchmark_body+0xb3c>
     bb4:	38462f83          	lw	t6,900(a2)
     bb8:	01f6ca63          	blt	a3,t6,bcc <benchmark_body+0xb3c>
     bbc:	37082403          	lw	s0,880(a6)
     bc0:	0105af83          	lw	t6,16(a1)
     bc4:	01f41463          	bne	s0,t6,bcc <benchmark_body+0xb3c>
     bc8:	5250106f          	j	28ec <benchmark_body+0x285c>
     bcc:	3987af83          	lw	t6,920(a5)
     bd0:	01f75e63          	bge	a4,t6,bec <benchmark_body+0xb5c>
     bd4:	38462f83          	lw	t6,900(a2)
     bd8:	01f6ca63          	blt	a3,t6,bec <benchmark_body+0xb5c>
     bdc:	37082403          	lw	s0,880(a6)
     be0:	0105af83          	lw	t6,16(a1)
     be4:	01f41463          	bne	s0,t6,bec <benchmark_body+0xb5c>
     be8:	5850106f          	j	296c <benchmark_body+0x28dc>
     bec:	3987af83          	lw	t6,920(a5)
     bf0:	01f75e63          	bge	a4,t6,c0c <benchmark_body+0xb7c>
     bf4:	38462f83          	lw	t6,900(a2)
     bf8:	01f6ca63          	blt	a3,t6,c0c <benchmark_body+0xb7c>
     bfc:	0045a403          	lw	s0,4(a1)
     c00:	37082f83          	lw	t6,880(a6)
     c04:	01f41463          	bne	s0,t6,c0c <benchmark_body+0xb7c>
     c08:	5e50106f          	j	29ec <benchmark_body+0x295c>
     c0c:	3987af83          	lw	t6,920(a5)
     c10:	01f75e63          	bge	a4,t6,c2c <benchmark_body+0xb9c>
     c14:	38462f83          	lw	t6,900(a2)
     c18:	01f6ca63          	blt	a3,t6,c2c <benchmark_body+0xb9c>
     c1c:	0045a403          	lw	s0,4(a1)
     c20:	0085af83          	lw	t6,8(a1)
     c24:	01f41463          	bne	s0,t6,c2c <benchmark_body+0xb9c>
     c28:	6450106f          	j	2a6c <benchmark_body+0x29dc>
     c2c:	3987af83          	lw	t6,920(a5)
     c30:	01f75e63          	bge	a4,t6,c4c <benchmark_body+0xbbc>
     c34:	38462f83          	lw	t6,900(a2)
     c38:	01f6ca63          	blt	a3,t6,c4c <benchmark_body+0xbbc>
     c3c:	0045a403          	lw	s0,4(a1)
     c40:	0105af83          	lw	t6,16(a1)
     c44:	01f41463          	bne	s0,t6,c4c <benchmark_body+0xbbc>
     c48:	69d0106f          	j	2ae4 <benchmark_body+0x2a54>
     c4c:	3987af83          	lw	t6,920(a5)
     c50:	01f75e63          	bge	a4,t6,c6c <benchmark_body+0xbdc>
     c54:	38462f83          	lw	t6,900(a2)
     c58:	01f6ca63          	blt	a3,t6,c6c <benchmark_body+0xbdc>
     c5c:	0045a403          	lw	s0,4(a1)
     c60:	0105af83          	lw	t6,16(a1)
     c64:	01f41463          	bne	s0,t6,c6c <benchmark_body+0xbdc>
     c68:	6fd0106f          	j	2b64 <benchmark_body+0x2ad4>
     c6c:	3987af83          	lw	t6,920(a5)
     c70:	01f75e63          	bge	a4,t6,c8c <benchmark_body+0xbfc>
     c74:	38462f83          	lw	t6,900(a2)
     c78:	01f6ca63          	blt	a3,t6,c8c <benchmark_body+0xbfc>
     c7c:	0085a403          	lw	s0,8(a1)
     c80:	37082f83          	lw	t6,880(a6)
     c84:	01f41463          	bne	s0,t6,c8c <benchmark_body+0xbfc>
     c88:	7550106f          	j	2bdc <benchmark_body+0x2b4c>
     c8c:	3987af83          	lw	t6,920(a5)
     c90:	01f75e63          	bge	a4,t6,cac <benchmark_body+0xc1c>
     c94:	38462f83          	lw	t6,900(a2)
     c98:	01f6ca63          	blt	a3,t6,cac <benchmark_body+0xc1c>
     c9c:	0085a403          	lw	s0,8(a1)
     ca0:	0045af83          	lw	t6,4(a1)
     ca4:	01f41463          	bne	s0,t6,cac <benchmark_body+0xc1c>
     ca8:	7b50106f          	j	2c5c <benchmark_body+0x2bcc>
     cac:	3987af83          	lw	t6,920(a5)
     cb0:	01f75e63          	bge	a4,t6,ccc <benchmark_body+0xc3c>
     cb4:	38462f83          	lw	t6,900(a2)
     cb8:	01f6ca63          	blt	a3,t6,ccc <benchmark_body+0xc3c>
     cbc:	0085a403          	lw	s0,8(a1)
     cc0:	0105af83          	lw	t6,16(a1)
     cc4:	01f41463          	bne	s0,t6,ccc <benchmark_body+0xc3c>
     cc8:	00c0206f          	j	2cd4 <benchmark_body+0x2c44>
     ccc:	3987af83          	lw	t6,920(a5)
     cd0:	01f75e63          	bge	a4,t6,cec <benchmark_body+0xc5c>
     cd4:	38462f83          	lw	t6,900(a2)
     cd8:	01f6ca63          	blt	a3,t6,cec <benchmark_body+0xc5c>
     cdc:	0085a403          	lw	s0,8(a1)
     ce0:	0105af83          	lw	t6,16(a1)
     ce4:	01f41463          	bne	s0,t6,cec <benchmark_body+0xc5c>
     ce8:	06c0206f          	j	2d54 <benchmark_body+0x2cc4>
     cec:	3987af83          	lw	t6,920(a5)
     cf0:	01f75c63          	bge	a4,t6,d08 <benchmark_body+0xc78>
     cf4:	38462f83          	lw	t6,900(a2)
     cf8:	01f6c863          	blt	a3,t6,d08 <benchmark_body+0xc78>
     cfc:	0105a403          	lw	s0,16(a1)
     d00:	37082f83          	lw	t6,880(a6)
     d04:	1bf40ce3          	beq	s0,t6,16bc <benchmark_body+0x162c>
     d08:	3987af83          	lw	t6,920(a5)
     d0c:	01f75c63          	bge	a4,t6,d24 <benchmark_body+0xc94>
     d10:	38462f83          	lw	t6,900(a2)
     d14:	01f6c863          	blt	a3,t6,d24 <benchmark_body+0xc94>
     d18:	0105a403          	lw	s0,16(a1)
     d1c:	37082f83          	lw	t6,880(a6)
     d20:	21f40ae3          	beq	s0,t6,1734 <benchmark_body+0x16a4>
     d24:	3987af83          	lw	t6,920(a5)
     d28:	01f75c63          	bge	a4,t6,d40 <benchmark_body+0xcb0>
     d2c:	38462f83          	lw	t6,900(a2)
     d30:	01f6c863          	blt	a3,t6,d40 <benchmark_body+0xcb0>
     d34:	0105a403          	lw	s0,16(a1)
     d38:	0045af83          	lw	t6,4(a1)
     d3c:	27f408e3          	beq	s0,t6,17ac <benchmark_body+0x171c>
     d40:	3987af83          	lw	t6,920(a5)
     d44:	01f75c63          	bge	a4,t6,d5c <benchmark_body+0xccc>
     d48:	38462f83          	lw	t6,900(a2)
     d4c:	01f6c863          	blt	a3,t6,d5c <benchmark_body+0xccc>
     d50:	0105a403          	lw	s0,16(a1)
     d54:	0045af83          	lw	t6,4(a1)
     d58:	2df406e3          	beq	s0,t6,1824 <benchmark_body+0x1794>
     d5c:	3987af83          	lw	t6,920(a5)
     d60:	01f75c63          	bge	a4,t6,d78 <benchmark_body+0xce8>
     d64:	38462f83          	lw	t6,900(a2)
     d68:	01f6c863          	blt	a3,t6,d78 <benchmark_body+0xce8>
     d6c:	0105a403          	lw	s0,16(a1)
     d70:	0085af83          	lw	t6,8(a1)
     d74:	33f400e3          	beq	s0,t6,1894 <benchmark_body+0x1804>
     d78:	3987af83          	lw	t6,920(a5)
     d7c:	01f75c63          	bge	a4,t6,d94 <benchmark_body+0xd04>
     d80:	38462f83          	lw	t6,900(a2)
     d84:	01f6c863          	blt	a3,t6,d94 <benchmark_body+0xd04>
     d88:	0105a403          	lw	s0,16(a1)
     d8c:	0085af83          	lw	t6,8(a1)
     d90:	37f40ee3          	beq	s0,t6,190c <benchmark_body+0x187c>
     d94:	3987af83          	lw	t6,920(a5)
     d98:	01f75c63          	bge	a4,t6,db0 <benchmark_body+0xd20>
     d9c:	38462f83          	lw	t6,900(a2)
     da0:	01f6c863          	blt	a3,t6,db0 <benchmark_body+0xd20>
     da4:	37082403          	lw	s0,880(a6)
     da8:	0045af83          	lw	t6,4(a1)
     dac:	3df408e3          	beq	s0,t6,197c <benchmark_body+0x18ec>
     db0:	3987af83          	lw	t6,920(a5)
     db4:	01f75c63          	bge	a4,t6,dcc <benchmark_body+0xd3c>
     db8:	38462f83          	lw	t6,900(a2)
     dbc:	01f6c863          	blt	a3,t6,dcc <benchmark_body+0xd3c>
     dc0:	37082403          	lw	s0,880(a6)
     dc4:	0045af83          	lw	t6,4(a1)
     dc8:	43f406e3          	beq	s0,t6,19f4 <benchmark_body+0x1964>
     dcc:	3987af83          	lw	t6,920(a5)
     dd0:	01f75c63          	bge	a4,t6,de8 <benchmark_body+0xd58>
     dd4:	38462f83          	lw	t6,900(a2)
     dd8:	01f6c863          	blt	a3,t6,de8 <benchmark_body+0xd58>
     ddc:	37082403          	lw	s0,880(a6)
     de0:	0085af83          	lw	t6,8(a1)
     de4:	49f404e3          	beq	s0,t6,1a6c <benchmark_body+0x19dc>
     de8:	3987af83          	lw	t6,920(a5)
     dec:	01f75c63          	bge	a4,t6,e04 <benchmark_body+0xd74>
     df0:	38462f83          	lw	t6,900(a2)
     df4:	01f6c863          	blt	a3,t6,e04 <benchmark_body+0xd74>
     df8:	37082403          	lw	s0,880(a6)
     dfc:	0085af83          	lw	t6,8(a1)
     e00:	4ff402e3          	beq	s0,t6,1ae4 <benchmark_body+0x1a54>
     e04:	3987af83          	lw	t6,920(a5)
     e08:	01f75c63          	bge	a4,t6,e20 <benchmark_body+0xd90>
     e0c:	38462f83          	lw	t6,900(a2)
     e10:	01f6c863          	blt	a3,t6,e20 <benchmark_body+0xd90>
     e14:	37082403          	lw	s0,880(a6)
     e18:	00c5af83          	lw	t6,12(a1)
     e1c:	55f400e3          	beq	s0,t6,1b5c <benchmark_body+0x1acc>
     e20:	3987af83          	lw	t6,920(a5)
     e24:	01f75c63          	bge	a4,t6,e3c <benchmark_body+0xdac>
     e28:	38462f83          	lw	t6,900(a2)
     e2c:	01f6c863          	blt	a3,t6,e3c <benchmark_body+0xdac>
     e30:	37082403          	lw	s0,880(a6)
     e34:	00c5af83          	lw	t6,12(a1)
     e38:	59f40ee3          	beq	s0,t6,1bd4 <benchmark_body+0x1b44>
     e3c:	3987af83          	lw	t6,920(a5)
     e40:	01f75c63          	bge	a4,t6,e58 <benchmark_body+0xdc8>
     e44:	38462f83          	lw	t6,900(a2)
     e48:	01f6c863          	blt	a3,t6,e58 <benchmark_body+0xdc8>
     e4c:	0045a403          	lw	s0,4(a1)
     e50:	37082f83          	lw	t6,880(a6)
     e54:	5ff40ce3          	beq	s0,t6,1c4c <benchmark_body+0x1bbc>
     e58:	3987af83          	lw	t6,920(a5)
     e5c:	01f75c63          	bge	a4,t6,e74 <benchmark_body+0xde4>
     e60:	38462f83          	lw	t6,900(a2)
     e64:	01f6c863          	blt	a3,t6,e74 <benchmark_body+0xde4>
     e68:	0045a403          	lw	s0,4(a1)
     e6c:	37082f83          	lw	t6,880(a6)
     e70:	65f40ae3          	beq	s0,t6,1cc4 <benchmark_body+0x1c34>
     e74:	3987af83          	lw	t6,920(a5)
     e78:	01f75c63          	bge	a4,t6,e90 <benchmark_body+0xe00>
     e7c:	38462f83          	lw	t6,900(a2)
     e80:	01f6c863          	blt	a3,t6,e90 <benchmark_body+0xe00>
     e84:	0045a403          	lw	s0,4(a1)
     e88:	0085af83          	lw	t6,8(a1)
     e8c:	6bf408e3          	beq	s0,t6,1d3c <benchmark_body+0x1cac>
     e90:	3987af83          	lw	t6,920(a5)
     e94:	01f75c63          	bge	a4,t6,eac <benchmark_body+0xe1c>
     e98:	38462f83          	lw	t6,900(a2)
     e9c:	01f6c863          	blt	a3,t6,eac <benchmark_body+0xe1c>
     ea0:	0045a403          	lw	s0,4(a1)
     ea4:	0085af83          	lw	t6,8(a1)
     ea8:	71f406e3          	beq	s0,t6,1db4 <benchmark_body+0x1d24>
     eac:	3987af83          	lw	t6,920(a5)
     eb0:	01f75c63          	bge	a4,t6,ec8 <benchmark_body+0xe38>
     eb4:	38462f83          	lw	t6,900(a2)
     eb8:	01f6c863          	blt	a3,t6,ec8 <benchmark_body+0xe38>
     ebc:	0045a403          	lw	s0,4(a1)
     ec0:	00c5af83          	lw	t6,12(a1)
     ec4:	45f40863          	beq	s0,t6,1314 <benchmark_body+0x1284>
     ec8:	3987af83          	lw	t6,920(a5)
     ecc:	01f75c63          	bge	a4,t6,ee4 <benchmark_body+0xe54>
     ed0:	38462f83          	lw	t6,900(a2)
     ed4:	01f6c863          	blt	a3,t6,ee4 <benchmark_body+0xe54>
     ed8:	0045a403          	lw	s0,4(a1)
     edc:	00c5af83          	lw	t6,12(a1)
     ee0:	4bf40663          	beq	s0,t6,138c <benchmark_body+0x12fc>
     ee4:	3987af83          	lw	t6,920(a5)
     ee8:	01f75c63          	bge	a4,t6,f00 <benchmark_body+0xe70>
     eec:	38462f83          	lw	t6,900(a2)
     ef0:	01f6c863          	blt	a3,t6,f00 <benchmark_body+0xe70>
     ef4:	0085a403          	lw	s0,8(a1)
     ef8:	37082f83          	lw	t6,880(a6)
     efc:	51f40063          	beq	s0,t6,13fc <benchmark_body+0x136c>
     f00:	3987af83          	lw	t6,920(a5)
     f04:	01f75c63          	bge	a4,t6,f1c <benchmark_body+0xe8c>
     f08:	38462f83          	lw	t6,900(a2)
     f0c:	01f6c863          	blt	a3,t6,f1c <benchmark_body+0xe8c>
     f10:	0085a403          	lw	s0,8(a1)
     f14:	37082f83          	lw	t6,880(a6)
     f18:	55f40e63          	beq	s0,t6,1474 <benchmark_body+0x13e4>
     f1c:	3987af83          	lw	t6,920(a5)
     f20:	01f75c63          	bge	a4,t6,f38 <benchmark_body+0xea8>
     f24:	38462f83          	lw	t6,900(a2)
     f28:	01f6c863          	blt	a3,t6,f38 <benchmark_body+0xea8>
     f2c:	0085a403          	lw	s0,8(a1)
     f30:	0045af83          	lw	t6,4(a1)
     f34:	5bf40c63          	beq	s0,t6,14ec <benchmark_body+0x145c>
     f38:	3987af83          	lw	t6,920(a5)
     f3c:	01f75c63          	bge	a4,t6,f54 <benchmark_body+0xec4>
     f40:	38462f83          	lw	t6,900(a2)
     f44:	01f6c863          	blt	a3,t6,f54 <benchmark_body+0xec4>
     f48:	0085a403          	lw	s0,8(a1)
     f4c:	0045af83          	lw	t6,4(a1)
     f50:	61f40a63          	beq	s0,t6,1564 <benchmark_body+0x14d4>
     f54:	3987af83          	lw	t6,920(a5)
     f58:	01f75c63          	bge	a4,t6,f70 <benchmark_body+0xee0>
     f5c:	38462f83          	lw	t6,900(a2)
     f60:	01f6c863          	blt	a3,t6,f70 <benchmark_body+0xee0>
     f64:	0085a403          	lw	s0,8(a1)
     f68:	00c5af83          	lw	t6,12(a1)
     f6c:	67f40463          	beq	s0,t6,15d4 <benchmark_body+0x1544>
     f70:	3987af83          	lw	t6,920(a5)
     f74:	01f75c63          	bge	a4,t6,f8c <benchmark_body+0xefc>
     f78:	38462f83          	lw	t6,900(a2)
     f7c:	01f6c863          	blt	a3,t6,f8c <benchmark_body+0xefc>
     f80:	0085a403          	lw	s0,8(a1)
     f84:	00c5af83          	lw	t6,12(a1)
     f88:	6df40263          	beq	s0,t6,164c <benchmark_body+0x15bc>
     f8c:	3987af83          	lw	t6,920(a5)
     f90:	01f75c63          	bge	a4,t6,fa8 <benchmark_body+0xf18>
     f94:	38462f83          	lw	t6,900(a2)
     f98:	01f6c863          	blt	a3,t6,fa8 <benchmark_body+0xf18>
     f9c:	00c5a403          	lw	s0,12(a1)
     fa0:	37082f83          	lw	t6,880(a6)
     fa4:	19f40c63          	beq	s0,t6,113c <benchmark_body+0x10ac>
     fa8:	3987af83          	lw	t6,920(a5)
     fac:	01f75c63          	bge	a4,t6,fc4 <benchmark_body+0xf34>
     fb0:	38462f83          	lw	t6,900(a2)
     fb4:	01f6c863          	blt	a3,t6,fc4 <benchmark_body+0xf34>
     fb8:	00c5a403          	lw	s0,12(a1)
     fbc:	37082f83          	lw	t6,880(a6)
     fc0:	1ff40a63          	beq	s0,t6,11b4 <benchmark_body+0x1124>
     fc4:	3987af83          	lw	t6,920(a5)
     fc8:	01f75c63          	bge	a4,t6,fe0 <benchmark_body+0xf50>
     fcc:	38462f83          	lw	t6,900(a2)
     fd0:	01f6c863          	blt	a3,t6,fe0 <benchmark_body+0xf50>
     fd4:	00c5a403          	lw	s0,12(a1)
     fd8:	0045af83          	lw	t6,4(a1)
     fdc:	25f40863          	beq	s0,t6,122c <benchmark_body+0x119c>
     fe0:	3987af83          	lw	t6,920(a5)
     fe4:	01f75c63          	bge	a4,t6,ffc <benchmark_body+0xf6c>
     fe8:	38462f83          	lw	t6,900(a2)
     fec:	01f6c863          	blt	a3,t6,ffc <benchmark_body+0xf6c>
     ff0:	00c5a403          	lw	s0,12(a1)
     ff4:	0045af83          	lw	t6,4(a1)
     ff8:	2bf40663          	beq	s0,t6,12a4 <benchmark_body+0x1214>
     ffc:	3987af83          	lw	t6,920(a5)
    1000:	01f75c63          	bge	a4,t6,1018 <benchmark_body+0xf88>
    1004:	38462f83          	lw	t6,900(a2)
    1008:	01f6c863          	blt	a3,t6,1018 <benchmark_body+0xf88>
    100c:	00c5a403          	lw	s0,12(a1)
    1010:	0085af83          	lw	t6,8(a1)
    1014:	05f40063          	beq	s0,t6,1054 <benchmark_body+0xfc4>
    1018:	3987af83          	lw	t6,920(a5)
    101c:	01f75c63          	bge	a4,t6,1034 <benchmark_body+0xfa4>
    1020:	38462f83          	lw	t6,900(a2)
    1024:	01f6c863          	blt	a3,t6,1034 <benchmark_body+0xfa4>
    1028:	00c5a403          	lw	s0,12(a1)
    102c:	0085af83          	lw	t6,8(a1)
    1030:	09f40e63          	beq	s0,t6,10cc <benchmark_body+0x103c>
    1034:	001e8e93          	addi	t4,t4,1
    1038:	8bd51463          	bne	a0,t4,e0 <benchmark_body+0x50>
    103c:	00c12403          	lw	s0,12(sp)
    1040:	00812483          	lw	s1,8(sp)
    1044:	00412903          	lw	s2,4(sp)
    1048:	00000513          	li	a0,0
    104c:	01010113          	addi	sp,sp,16
    1050:	00008067          	ret
    1054:	00c5a403          	lw	s0,12(a1)
    1058:	37082f83          	lw	t6,880(a6)
    105c:	fbf41ee3          	bne	s0,t6,1018 <benchmark_body+0xf88>
    1060:	0105af83          	lw	t6,16(a1)
    1064:	00c5a403          	lw	s0,12(a1)
    1068:	fa8fd8e3          	bge	t6,s0,1018 <benchmark_body+0xf88>
    106c:	0045a483          	lw	s1,4(a1)
    1070:	008f8933          	add	s2,t6,s0
    1074:	36982823          	sw	s1,880(a6)
    1078:	3987a483          	lw	s1,920(a5)
    107c:	ffc48493          	addi	s1,s1,-4
    1080:	3897ac23          	sw	s1,920(a5)
    1084:	38462483          	lw	s1,900(a2)
    1088:	00249493          	slli	s1,s1,0x2
    108c:	01c484b3          	add	s1,s1,t3
    1090:	01f4a023          	sw	t6,0(s1)
    1094:	38462f83          	lw	t6,900(a2)
    1098:	001f8f93          	addi	t6,t6,1
    109c:	002f9f93          	slli	t6,t6,0x2
    10a0:	01cf8fb3          	add	t6,t6,t3
    10a4:	008fa023          	sw	s0,0(t6)
    10a8:	38462f83          	lw	t6,900(a2)
    10ac:	002f8f93          	addi	t6,t6,2
    10b0:	002f9f93          	slli	t6,t6,0x2
    10b4:	01cf8fb3          	add	t6,t6,t3
    10b8:	012fa023          	sw	s2,0(t6)
    10bc:	38462f83          	lw	t6,900(a2)
    10c0:	003f8f93          	addi	t6,t6,3
    10c4:	39f62223          	sw	t6,900(a2)
    10c8:	f51ff06f          	j	1018 <benchmark_body+0xf88>
    10cc:	00c5a403          	lw	s0,12(a1)
    10d0:	0045af83          	lw	t6,4(a1)
    10d4:	f7f410e3          	bne	s0,t6,1034 <benchmark_body+0xfa4>
    10d8:	0105af83          	lw	t6,16(a1)
    10dc:	00c5a403          	lw	s0,12(a1)
    10e0:	f48fdae3          	bge	t6,s0,1034 <benchmark_body+0xfa4>
    10e4:	3987a483          	lw	s1,920(a5)
    10e8:	008f8933          	add	s2,t6,s0
    10ec:	ffc48493          	addi	s1,s1,-4
    10f0:	3897ac23          	sw	s1,920(a5)
    10f4:	38462483          	lw	s1,900(a2)
    10f8:	00249493          	slli	s1,s1,0x2
    10fc:	01c484b3          	add	s1,s1,t3
    1100:	01f4a023          	sw	t6,0(s1)
    1104:	38462f83          	lw	t6,900(a2)
    1108:	001f8f93          	addi	t6,t6,1
    110c:	002f9f93          	slli	t6,t6,0x2
    1110:	01cf8fb3          	add	t6,t6,t3
    1114:	008fa023          	sw	s0,0(t6)
    1118:	38462f83          	lw	t6,900(a2)
    111c:	002f8f93          	addi	t6,t6,2
    1120:	002f9f93          	slli	t6,t6,0x2
    1124:	01cf8fb3          	add	t6,t6,t3
    1128:	012fa023          	sw	s2,0(t6)
    112c:	38462f83          	lw	t6,900(a2)
    1130:	003f8f93          	addi	t6,t6,3
    1134:	39f62223          	sw	t6,900(a2)
    1138:	efdff06f          	j	1034 <benchmark_body+0xfa4>
    113c:	00c5a403          	lw	s0,12(a1)
    1140:	0045af83          	lw	t6,4(a1)
    1144:	e7f412e3          	bne	s0,t6,fa8 <benchmark_body+0xf18>
    1148:	0105af83          	lw	t6,16(a1)
    114c:	00c5a403          	lw	s0,12(a1)
    1150:	e48fdce3          	bge	t6,s0,fa8 <benchmark_body+0xf18>
    1154:	0085a483          	lw	s1,8(a1)
    1158:	008f8933          	add	s2,t6,s0
    115c:	36982823          	sw	s1,880(a6)
    1160:	3987a483          	lw	s1,920(a5)
    1164:	ffc48493          	addi	s1,s1,-4
    1168:	3897ac23          	sw	s1,920(a5)
    116c:	38462483          	lw	s1,900(a2)
    1170:	00249493          	slli	s1,s1,0x2
    1174:	01c484b3          	add	s1,s1,t3
    1178:	01f4a023          	sw	t6,0(s1)
    117c:	38462f83          	lw	t6,900(a2)
    1180:	001f8f93          	addi	t6,t6,1
    1184:	002f9f93          	slli	t6,t6,0x2
    1188:	01cf8fb3          	add	t6,t6,t3
    118c:	008fa023          	sw	s0,0(t6)
    1190:	38462f83          	lw	t6,900(a2)
    1194:	002f8f93          	addi	t6,t6,2
    1198:	002f9f93          	slli	t6,t6,0x2
    119c:	01cf8fb3          	add	t6,t6,t3
    11a0:	012fa023          	sw	s2,0(t6)
    11a4:	38462f83          	lw	t6,900(a2)
    11a8:	003f8f93          	addi	t6,t6,3
    11ac:	39f62223          	sw	t6,900(a2)
    11b0:	df9ff06f          	j	fa8 <benchmark_body+0xf18>
    11b4:	00c5a403          	lw	s0,12(a1)
    11b8:	0085af83          	lw	t6,8(a1)
    11bc:	e1f414e3          	bne	s0,t6,fc4 <benchmark_body+0xf34>
    11c0:	0105af83          	lw	t6,16(a1)
    11c4:	00c5a403          	lw	s0,12(a1)
    11c8:	de8fdee3          	bge	t6,s0,fc4 <benchmark_body+0xf34>
    11cc:	0045a483          	lw	s1,4(a1)
    11d0:	008f8933          	add	s2,t6,s0
    11d4:	36982823          	sw	s1,880(a6)
    11d8:	3987a483          	lw	s1,920(a5)
    11dc:	ffc48493          	addi	s1,s1,-4
    11e0:	3897ac23          	sw	s1,920(a5)
    11e4:	38462483          	lw	s1,900(a2)
    11e8:	00249493          	slli	s1,s1,0x2
    11ec:	01c484b3          	add	s1,s1,t3
    11f0:	01f4a023          	sw	t6,0(s1)
    11f4:	38462f83          	lw	t6,900(a2)
    11f8:	001f8f93          	addi	t6,t6,1
    11fc:	002f9f93          	slli	t6,t6,0x2
    1200:	01cf8fb3          	add	t6,t6,t3
    1204:	008fa023          	sw	s0,0(t6)
    1208:	38462f83          	lw	t6,900(a2)
    120c:	002f8f93          	addi	t6,t6,2
    1210:	002f9f93          	slli	t6,t6,0x2
    1214:	01cf8fb3          	add	t6,t6,t3
    1218:	012fa023          	sw	s2,0(t6)
    121c:	38462f83          	lw	t6,900(a2)
    1220:	003f8f93          	addi	t6,t6,3
    1224:	39f62223          	sw	t6,900(a2)
    1228:	d9dff06f          	j	fc4 <benchmark_body+0xf34>
    122c:	00c5a403          	lw	s0,12(a1)
    1230:	37082f83          	lw	t6,880(a6)
    1234:	dbf416e3          	bne	s0,t6,fe0 <benchmark_body+0xf50>
    1238:	0105af83          	lw	t6,16(a1)
    123c:	00c5a403          	lw	s0,12(a1)
    1240:	da8fd0e3          	bge	t6,s0,fe0 <benchmark_body+0xf50>
    1244:	0085a483          	lw	s1,8(a1)
    1248:	008f8933          	add	s2,t6,s0
    124c:	36982823          	sw	s1,880(a6)
    1250:	3987a483          	lw	s1,920(a5)
    1254:	ffc48493          	addi	s1,s1,-4
    1258:	3897ac23          	sw	s1,920(a5)
    125c:	38462483          	lw	s1,900(a2)
    1260:	00249493          	slli	s1,s1,0x2
    1264:	01c484b3          	add	s1,s1,t3
    1268:	01f4a023          	sw	t6,0(s1)
    126c:	38462f83          	lw	t6,900(a2)
    1270:	001f8f93          	addi	t6,t6,1
    1274:	002f9f93          	slli	t6,t6,0x2
    1278:	01cf8fb3          	add	t6,t6,t3
    127c:	008fa023          	sw	s0,0(t6)
    1280:	38462f83          	lw	t6,900(a2)
    1284:	002f8f93          	addi	t6,t6,2
    1288:	002f9f93          	slli	t6,t6,0x2
    128c:	01cf8fb3          	add	t6,t6,t3
    1290:	012fa023          	sw	s2,0(t6)
    1294:	38462f83          	lw	t6,900(a2)
    1298:	003f8f93          	addi	t6,t6,3
    129c:	39f62223          	sw	t6,900(a2)
    12a0:	d41ff06f          	j	fe0 <benchmark_body+0xf50>
    12a4:	00c5a403          	lw	s0,12(a1)
    12a8:	0085af83          	lw	t6,8(a1)
    12ac:	d5f418e3          	bne	s0,t6,ffc <benchmark_body+0xf6c>
    12b0:	0105af83          	lw	t6,16(a1)
    12b4:	00c5a403          	lw	s0,12(a1)
    12b8:	d48fd2e3          	bge	t6,s0,ffc <benchmark_body+0xf6c>
    12bc:	3987a483          	lw	s1,920(a5)
    12c0:	008f8933          	add	s2,t6,s0
    12c4:	ffc48493          	addi	s1,s1,-4
    12c8:	3897ac23          	sw	s1,920(a5)
    12cc:	38462483          	lw	s1,900(a2)
    12d0:	00249493          	slli	s1,s1,0x2
    12d4:	01c484b3          	add	s1,s1,t3
    12d8:	01f4a023          	sw	t6,0(s1)
    12dc:	38462f83          	lw	t6,900(a2)
    12e0:	001f8f93          	addi	t6,t6,1
    12e4:	002f9f93          	slli	t6,t6,0x2
    12e8:	01cf8fb3          	add	t6,t6,t3
    12ec:	008fa023          	sw	s0,0(t6)
    12f0:	38462f83          	lw	t6,900(a2)
    12f4:	002f8f93          	addi	t6,t6,2
    12f8:	002f9f93          	slli	t6,t6,0x2
    12fc:	01cf8fb3          	add	t6,t6,t3
    1300:	012fa023          	sw	s2,0(t6)
    1304:	38462f83          	lw	t6,900(a2)
    1308:	003f8f93          	addi	t6,t6,3
    130c:	39f62223          	sw	t6,900(a2)
    1310:	cedff06f          	j	ffc <benchmark_body+0xf6c>
    1314:	0045a403          	lw	s0,4(a1)
    1318:	37082f83          	lw	t6,880(a6)
    131c:	bbf416e3          	bne	s0,t6,ec8 <benchmark_body+0xe38>
    1320:	0105af83          	lw	t6,16(a1)
    1324:	0045a403          	lw	s0,4(a1)
    1328:	ba8fd0e3          	bge	t6,s0,ec8 <benchmark_body+0xe38>
    132c:	0085a483          	lw	s1,8(a1)
    1330:	008f8933          	add	s2,t6,s0
    1334:	36982823          	sw	s1,880(a6)
    1338:	3987a483          	lw	s1,920(a5)
    133c:	ffc48493          	addi	s1,s1,-4
    1340:	3897ac23          	sw	s1,920(a5)
    1344:	38462483          	lw	s1,900(a2)
    1348:	00249493          	slli	s1,s1,0x2
    134c:	01c484b3          	add	s1,s1,t3
    1350:	01f4a023          	sw	t6,0(s1)
    1354:	38462f83          	lw	t6,900(a2)
    1358:	001f8f93          	addi	t6,t6,1
    135c:	002f9f93          	slli	t6,t6,0x2
    1360:	01cf8fb3          	add	t6,t6,t3
    1364:	008fa023          	sw	s0,0(t6)
    1368:	38462f83          	lw	t6,900(a2)
    136c:	002f8f93          	addi	t6,t6,2
    1370:	002f9f93          	slli	t6,t6,0x2
    1374:	01cf8fb3          	add	t6,t6,t3
    1378:	012fa023          	sw	s2,0(t6)
    137c:	38462f83          	lw	t6,900(a2)
    1380:	003f8f93          	addi	t6,t6,3
    1384:	39f62223          	sw	t6,900(a2)
    1388:	b41ff06f          	j	ec8 <benchmark_body+0xe38>
    138c:	0045a403          	lw	s0,4(a1)
    1390:	0085af83          	lw	t6,8(a1)
    1394:	b5f418e3          	bne	s0,t6,ee4 <benchmark_body+0xe54>
    1398:	0105af83          	lw	t6,16(a1)
    139c:	0045a403          	lw	s0,4(a1)
    13a0:	b48fd2e3          	bge	t6,s0,ee4 <benchmark_body+0xe54>
    13a4:	3987a483          	lw	s1,920(a5)
    13a8:	008f8933          	add	s2,t6,s0
    13ac:	ffc48493          	addi	s1,s1,-4
    13b0:	3897ac23          	sw	s1,920(a5)
    13b4:	38462483          	lw	s1,900(a2)
    13b8:	00249493          	slli	s1,s1,0x2
    13bc:	01c484b3          	add	s1,s1,t3
    13c0:	01f4a023          	sw	t6,0(s1)
    13c4:	38462f83          	lw	t6,900(a2)
    13c8:	001f8f93          	addi	t6,t6,1
    13cc:	002f9f93          	slli	t6,t6,0x2
    13d0:	01cf8fb3          	add	t6,t6,t3
    13d4:	008fa023          	sw	s0,0(t6)
    13d8:	38462f83          	lw	t6,900(a2)
    13dc:	002f8f93          	addi	t6,t6,2
    13e0:	002f9f93          	slli	t6,t6,0x2
    13e4:	01cf8fb3          	add	t6,t6,t3
    13e8:	012fa023          	sw	s2,0(t6)
    13ec:	38462f83          	lw	t6,900(a2)
    13f0:	003f8f93          	addi	t6,t6,3
    13f4:	39f62223          	sw	t6,900(a2)
    13f8:	aedff06f          	j	ee4 <benchmark_body+0xe54>
    13fc:	0085a403          	lw	s0,8(a1)
    1400:	0045af83          	lw	t6,4(a1)
    1404:	aff41ee3          	bne	s0,t6,f00 <benchmark_body+0xe70>
    1408:	0105af83          	lw	t6,16(a1)
    140c:	0085a403          	lw	s0,8(a1)
    1410:	ae8fd8e3          	bge	t6,s0,f00 <benchmark_body+0xe70>
    1414:	00c5a483          	lw	s1,12(a1)
    1418:	008f8933          	add	s2,t6,s0
    141c:	36982823          	sw	s1,880(a6)
    1420:	3987a483          	lw	s1,920(a5)
    1424:	ffc48493          	addi	s1,s1,-4
    1428:	3897ac23          	sw	s1,920(a5)
    142c:	38462483          	lw	s1,900(a2)
    1430:	00249493          	slli	s1,s1,0x2
    1434:	01c484b3          	add	s1,s1,t3
    1438:	01f4a023          	sw	t6,0(s1)
    143c:	38462f83          	lw	t6,900(a2)
    1440:	001f8f93          	addi	t6,t6,1
    1444:	002f9f93          	slli	t6,t6,0x2
    1448:	01cf8fb3          	add	t6,t6,t3
    144c:	008fa023          	sw	s0,0(t6)
    1450:	38462f83          	lw	t6,900(a2)
    1454:	002f8f93          	addi	t6,t6,2
    1458:	002f9f93          	slli	t6,t6,0x2
    145c:	01cf8fb3          	add	t6,t6,t3
    1460:	012fa023          	sw	s2,0(t6)
    1464:	38462f83          	lw	t6,900(a2)
    1468:	003f8f93          	addi	t6,t6,3
    146c:	39f62223          	sw	t6,900(a2)
    1470:	a91ff06f          	j	f00 <benchmark_body+0xe70>
    1474:	0085a403          	lw	s0,8(a1)
    1478:	00c5af83          	lw	t6,12(a1)
    147c:	abf410e3          	bne	s0,t6,f1c <benchmark_body+0xe8c>
    1480:	0105af83          	lw	t6,16(a1)
    1484:	0085a403          	lw	s0,8(a1)
    1488:	a88fdae3          	bge	t6,s0,f1c <benchmark_body+0xe8c>
    148c:	0045a483          	lw	s1,4(a1)
    1490:	008f8933          	add	s2,t6,s0
    1494:	36982823          	sw	s1,880(a6)
    1498:	3987a483          	lw	s1,920(a5)
    149c:	ffc48493          	addi	s1,s1,-4
    14a0:	3897ac23          	sw	s1,920(a5)
    14a4:	38462483          	lw	s1,900(a2)
    14a8:	00249493          	slli	s1,s1,0x2
    14ac:	01c484b3          	add	s1,s1,t3
    14b0:	01f4a023          	sw	t6,0(s1)
    14b4:	38462f83          	lw	t6,900(a2)
    14b8:	001f8f93          	addi	t6,t6,1
    14bc:	002f9f93          	slli	t6,t6,0x2
    14c0:	01cf8fb3          	add	t6,t6,t3
    14c4:	008fa023          	sw	s0,0(t6)
    14c8:	38462f83          	lw	t6,900(a2)
    14cc:	002f8f93          	addi	t6,t6,2
    14d0:	002f9f93          	slli	t6,t6,0x2
    14d4:	01cf8fb3          	add	t6,t6,t3
    14d8:	012fa023          	sw	s2,0(t6)
    14dc:	38462f83          	lw	t6,900(a2)
    14e0:	003f8f93          	addi	t6,t6,3
    14e4:	39f62223          	sw	t6,900(a2)
    14e8:	a35ff06f          	j	f1c <benchmark_body+0xe8c>
    14ec:	0085a403          	lw	s0,8(a1)
    14f0:	37082f83          	lw	t6,880(a6)
    14f4:	a5f412e3          	bne	s0,t6,f38 <benchmark_body+0xea8>
    14f8:	0105af83          	lw	t6,16(a1)
    14fc:	0085a403          	lw	s0,8(a1)
    1500:	a28fdce3          	bge	t6,s0,f38 <benchmark_body+0xea8>
    1504:	00c5a483          	lw	s1,12(a1)
    1508:	008f8933          	add	s2,t6,s0
    150c:	36982823          	sw	s1,880(a6)
    1510:	3987a483          	lw	s1,920(a5)
    1514:	ffc48493          	addi	s1,s1,-4
    1518:	3897ac23          	sw	s1,920(a5)
    151c:	38462483          	lw	s1,900(a2)
    1520:	00249493          	slli	s1,s1,0x2
    1524:	01c484b3          	add	s1,s1,t3
    1528:	01f4a023          	sw	t6,0(s1)
    152c:	38462f83          	lw	t6,900(a2)
    1530:	001f8f93          	addi	t6,t6,1
    1534:	002f9f93          	slli	t6,t6,0x2
    1538:	01cf8fb3          	add	t6,t6,t3
    153c:	008fa023          	sw	s0,0(t6)
    1540:	38462f83          	lw	t6,900(a2)
    1544:	002f8f93          	addi	t6,t6,2
    1548:	002f9f93          	slli	t6,t6,0x2
    154c:	01cf8fb3          	add	t6,t6,t3
    1550:	012fa023          	sw	s2,0(t6)
    1554:	38462f83          	lw	t6,900(a2)
    1558:	003f8f93          	addi	t6,t6,3
    155c:	39f62223          	sw	t6,900(a2)
    1560:	9d9ff06f          	j	f38 <benchmark_body+0xea8>
    1564:	0085a403          	lw	s0,8(a1)
    1568:	00c5af83          	lw	t6,12(a1)
    156c:	9ff414e3          	bne	s0,t6,f54 <benchmark_body+0xec4>
    1570:	0105af83          	lw	t6,16(a1)
    1574:	0085a403          	lw	s0,8(a1)
    1578:	9c8fdee3          	bge	t6,s0,f54 <benchmark_body+0xec4>
    157c:	3987a483          	lw	s1,920(a5)
    1580:	008f8933          	add	s2,t6,s0
    1584:	ffc48493          	addi	s1,s1,-4
    1588:	3897ac23          	sw	s1,920(a5)
    158c:	38462483          	lw	s1,900(a2)
    1590:	00249493          	slli	s1,s1,0x2
    1594:	01c484b3          	add	s1,s1,t3
    1598:	01f4a023          	sw	t6,0(s1)
    159c:	38462f83          	lw	t6,900(a2)
    15a0:	001f8f93          	addi	t6,t6,1
    15a4:	002f9f93          	slli	t6,t6,0x2
    15a8:	01cf8fb3          	add	t6,t6,t3
    15ac:	008fa023          	sw	s0,0(t6)
    15b0:	38462f83          	lw	t6,900(a2)
    15b4:	002f8f93          	addi	t6,t6,2
    15b8:	002f9f93          	slli	t6,t6,0x2
    15bc:	01cf8fb3          	add	t6,t6,t3
    15c0:	012fa023          	sw	s2,0(t6)
    15c4:	38462f83          	lw	t6,900(a2)
    15c8:	003f8f93          	addi	t6,t6,3
    15cc:	39f62223          	sw	t6,900(a2)
    15d0:	985ff06f          	j	f54 <benchmark_body+0xec4>
    15d4:	0085a403          	lw	s0,8(a1)
    15d8:	37082f83          	lw	t6,880(a6)
    15dc:	99f41ae3          	bne	s0,t6,f70 <benchmark_body+0xee0>
    15e0:	0105af83          	lw	t6,16(a1)
    15e4:	0085a403          	lw	s0,8(a1)
    15e8:	988fd4e3          	bge	t6,s0,f70 <benchmark_body+0xee0>
    15ec:	0045a483          	lw	s1,4(a1)
    15f0:	008f8933          	add	s2,t6,s0
    15f4:	36982823          	sw	s1,880(a6)
    15f8:	3987a483          	lw	s1,920(a5)
    15fc:	ffc48493          	addi	s1,s1,-4
    1600:	3897ac23          	sw	s1,920(a5)
    1604:	38462483          	lw	s1,900(a2)
    1608:	00249493          	slli	s1,s1,0x2
    160c:	01c484b3          	add	s1,s1,t3
    1610:	01f4a023          	sw	t6,0(s1)
    1614:	38462f83          	lw	t6,900(a2)
    1618:	001f8f93          	addi	t6,t6,1
    161c:	002f9f93          	slli	t6,t6,0x2
    1620:	01cf8fb3          	add	t6,t6,t3
    1624:	008fa023          	sw	s0,0(t6)
    1628:	38462f83          	lw	t6,900(a2)
    162c:	002f8f93          	addi	t6,t6,2
    1630:	002f9f93          	slli	t6,t6,0x2
    1634:	01cf8fb3          	add	t6,t6,t3
    1638:	012fa023          	sw	s2,0(t6)
    163c:	38462f83          	lw	t6,900(a2)
    1640:	003f8f93          	addi	t6,t6,3
    1644:	39f62223          	sw	t6,900(a2)
    1648:	929ff06f          	j	f70 <benchmark_body+0xee0>
    164c:	0085a403          	lw	s0,8(a1)
    1650:	0045af83          	lw	t6,4(a1)
    1654:	93f41ce3          	bne	s0,t6,f8c <benchmark_body+0xefc>
    1658:	0105af83          	lw	t6,16(a1)
    165c:	0085a403          	lw	s0,8(a1)
    1660:	928fd6e3          	bge	t6,s0,f8c <benchmark_body+0xefc>
    1664:	3987a483          	lw	s1,920(a5)
    1668:	008f8933          	add	s2,t6,s0
    166c:	ffc48493          	addi	s1,s1,-4
    1670:	3897ac23          	sw	s1,920(a5)
    1674:	38462483          	lw	s1,900(a2)
    1678:	00249493          	slli	s1,s1,0x2
    167c:	01c484b3          	add	s1,s1,t3
    1680:	01f4a023          	sw	t6,0(s1)
    1684:	38462f83          	lw	t6,900(a2)
    1688:	001f8f93          	addi	t6,t6,1
    168c:	002f9f93          	slli	t6,t6,0x2
    1690:	01cf8fb3          	add	t6,t6,t3
    1694:	008fa023          	sw	s0,0(t6)
    1698:	38462f83          	lw	t6,900(a2)
    169c:	002f8f93          	addi	t6,t6,2
    16a0:	002f9f93          	slli	t6,t6,0x2
    16a4:	01cf8fb3          	add	t6,t6,t3
    16a8:	012fa023          	sw	s2,0(t6)
    16ac:	38462f83          	lw	t6,900(a2)
    16b0:	003f8f93          	addi	t6,t6,3
    16b4:	39f62223          	sw	t6,900(a2)
    16b8:	8d5ff06f          	j	f8c <benchmark_body+0xefc>
    16bc:	0105a403          	lw	s0,16(a1)
    16c0:	0045af83          	lw	t6,4(a1)
    16c4:	e5f41263          	bne	s0,t6,d08 <benchmark_body+0xc78>
    16c8:	00c5af83          	lw	t6,12(a1)
    16cc:	0105a403          	lw	s0,16(a1)
    16d0:	e28fdc63          	bge	t6,s0,d08 <benchmark_body+0xc78>
    16d4:	0085a483          	lw	s1,8(a1)
    16d8:	008f8933          	add	s2,t6,s0
    16dc:	36982823          	sw	s1,880(a6)
    16e0:	3987a483          	lw	s1,920(a5)
    16e4:	ffc48493          	addi	s1,s1,-4
    16e8:	3897ac23          	sw	s1,920(a5)
    16ec:	38462483          	lw	s1,900(a2)
    16f0:	00249493          	slli	s1,s1,0x2
    16f4:	01c484b3          	add	s1,s1,t3
    16f8:	01f4a023          	sw	t6,0(s1)
    16fc:	38462f83          	lw	t6,900(a2)
    1700:	001f8f93          	addi	t6,t6,1
    1704:	002f9f93          	slli	t6,t6,0x2
    1708:	01cf8fb3          	add	t6,t6,t3
    170c:	008fa023          	sw	s0,0(t6)
    1710:	38462f83          	lw	t6,900(a2)
    1714:	002f8f93          	addi	t6,t6,2
    1718:	002f9f93          	slli	t6,t6,0x2
    171c:	01cf8fb3          	add	t6,t6,t3
    1720:	012fa023          	sw	s2,0(t6)
    1724:	38462f83          	lw	t6,900(a2)
    1728:	003f8f93          	addi	t6,t6,3
    172c:	39f62223          	sw	t6,900(a2)
    1730:	dd8ff06f          	j	d08 <benchmark_body+0xc78>
    1734:	0105a403          	lw	s0,16(a1)
    1738:	0085af83          	lw	t6,8(a1)
    173c:	dff41463          	bne	s0,t6,d24 <benchmark_body+0xc94>
    1740:	00c5af83          	lw	t6,12(a1)
    1744:	0105a403          	lw	s0,16(a1)
    1748:	dc8fde63          	bge	t6,s0,d24 <benchmark_body+0xc94>
    174c:	0045a483          	lw	s1,4(a1)
    1750:	008f8933          	add	s2,t6,s0
    1754:	36982823          	sw	s1,880(a6)
    1758:	3987a483          	lw	s1,920(a5)
    175c:	ffc48493          	addi	s1,s1,-4
    1760:	3897ac23          	sw	s1,920(a5)
    1764:	38462483          	lw	s1,900(a2)
    1768:	00249493          	slli	s1,s1,0x2
    176c:	01c484b3          	add	s1,s1,t3
    1770:	01f4a023          	sw	t6,0(s1)
    1774:	38462f83          	lw	t6,900(a2)
    1778:	001f8f93          	addi	t6,t6,1
    177c:	002f9f93          	slli	t6,t6,0x2
    1780:	01cf8fb3          	add	t6,t6,t3
    1784:	008fa023          	sw	s0,0(t6)
    1788:	38462f83          	lw	t6,900(a2)
    178c:	002f8f93          	addi	t6,t6,2
    1790:	002f9f93          	slli	t6,t6,0x2
    1794:	01cf8fb3          	add	t6,t6,t3
    1798:	012fa023          	sw	s2,0(t6)
    179c:	38462f83          	lw	t6,900(a2)
    17a0:	003f8f93          	addi	t6,t6,3
    17a4:	39f62223          	sw	t6,900(a2)
    17a8:	d7cff06f          	j	d24 <benchmark_body+0xc94>
    17ac:	0105a403          	lw	s0,16(a1)
    17b0:	37082f83          	lw	t6,880(a6)
    17b4:	d9f41663          	bne	s0,t6,d40 <benchmark_body+0xcb0>
    17b8:	00c5af83          	lw	t6,12(a1)
    17bc:	0105a403          	lw	s0,16(a1)
    17c0:	d88fd063          	bge	t6,s0,d40 <benchmark_body+0xcb0>
    17c4:	0085a483          	lw	s1,8(a1)
    17c8:	008f8933          	add	s2,t6,s0
    17cc:	36982823          	sw	s1,880(a6)
    17d0:	3987a483          	lw	s1,920(a5)
    17d4:	ffc48493          	addi	s1,s1,-4
    17d8:	3897ac23          	sw	s1,920(a5)
    17dc:	38462483          	lw	s1,900(a2)
    17e0:	00249493          	slli	s1,s1,0x2
    17e4:	01c484b3          	add	s1,s1,t3
    17e8:	01f4a023          	sw	t6,0(s1)
    17ec:	38462f83          	lw	t6,900(a2)
    17f0:	001f8f93          	addi	t6,t6,1
    17f4:	002f9f93          	slli	t6,t6,0x2
    17f8:	01cf8fb3          	add	t6,t6,t3
    17fc:	008fa023          	sw	s0,0(t6)
    1800:	38462f83          	lw	t6,900(a2)
    1804:	002f8f93          	addi	t6,t6,2
    1808:	002f9f93          	slli	t6,t6,0x2
    180c:	01cf8fb3          	add	t6,t6,t3
    1810:	012fa023          	sw	s2,0(t6)
    1814:	38462f83          	lw	t6,900(a2)
    1818:	003f8f93          	addi	t6,t6,3
    181c:	39f62223          	sw	t6,900(a2)
    1820:	d20ff06f          	j	d40 <benchmark_body+0xcb0>
    1824:	0105a403          	lw	s0,16(a1)
    1828:	0085af83          	lw	t6,8(a1)
    182c:	d3f41863          	bne	s0,t6,d5c <benchmark_body+0xccc>
    1830:	00c5af83          	lw	t6,12(a1)
    1834:	0105a403          	lw	s0,16(a1)
    1838:	d28fd263          	bge	t6,s0,d5c <benchmark_body+0xccc>
    183c:	3987a483          	lw	s1,920(a5)
    1840:	008f8933          	add	s2,t6,s0
    1844:	ffc48493          	addi	s1,s1,-4
    1848:	3897ac23          	sw	s1,920(a5)
    184c:	38462483          	lw	s1,900(a2)
    1850:	00249493          	slli	s1,s1,0x2
    1854:	01c484b3          	add	s1,s1,t3
    1858:	01f4a023          	sw	t6,0(s1)
    185c:	38462f83          	lw	t6,900(a2)
    1860:	001f8f93          	addi	t6,t6,1
    1864:	002f9f93          	slli	t6,t6,0x2
    1868:	01cf8fb3          	add	t6,t6,t3
    186c:	008fa023          	sw	s0,0(t6)
    1870:	38462f83          	lw	t6,900(a2)
    1874:	002f8f93          	addi	t6,t6,2
    1878:	002f9f93          	slli	t6,t6,0x2
    187c:	01cf8fb3          	add	t6,t6,t3
    1880:	012fa023          	sw	s2,0(t6)
    1884:	38462f83          	lw	t6,900(a2)
    1888:	003f8f93          	addi	t6,t6,3
    188c:	39f62223          	sw	t6,900(a2)
    1890:	cccff06f          	j	d5c <benchmark_body+0xccc>
    1894:	0105a403          	lw	s0,16(a1)
    1898:	37082f83          	lw	t6,880(a6)
    189c:	cdf41e63          	bne	s0,t6,d78 <benchmark_body+0xce8>
    18a0:	00c5af83          	lw	t6,12(a1)
    18a4:	0105a403          	lw	s0,16(a1)
    18a8:	cc8fd863          	bge	t6,s0,d78 <benchmark_body+0xce8>
    18ac:	0045a483          	lw	s1,4(a1)
    18b0:	008f8933          	add	s2,t6,s0
    18b4:	36982823          	sw	s1,880(a6)
    18b8:	3987a483          	lw	s1,920(a5)
    18bc:	ffc48493          	addi	s1,s1,-4
    18c0:	3897ac23          	sw	s1,920(a5)
    18c4:	38462483          	lw	s1,900(a2)
    18c8:	00249493          	slli	s1,s1,0x2
    18cc:	01c484b3          	add	s1,s1,t3
    18d0:	01f4a023          	sw	t6,0(s1)
    18d4:	38462f83          	lw	t6,900(a2)
    18d8:	001f8f93          	addi	t6,t6,1
    18dc:	002f9f93          	slli	t6,t6,0x2
    18e0:	01cf8fb3          	add	t6,t6,t3
    18e4:	008fa023          	sw	s0,0(t6)
    18e8:	38462f83          	lw	t6,900(a2)
    18ec:	002f8f93          	addi	t6,t6,2
    18f0:	002f9f93          	slli	t6,t6,0x2
    18f4:	01cf8fb3          	add	t6,t6,t3
    18f8:	012fa023          	sw	s2,0(t6)
    18fc:	38462f83          	lw	t6,900(a2)
    1900:	003f8f93          	addi	t6,t6,3
    1904:	39f62223          	sw	t6,900(a2)
    1908:	c70ff06f          	j	d78 <benchmark_body+0xce8>
    190c:	0105a403          	lw	s0,16(a1)
    1910:	0045af83          	lw	t6,4(a1)
    1914:	c9f41063          	bne	s0,t6,d94 <benchmark_body+0xd04>
    1918:	00c5af83          	lw	t6,12(a1)
    191c:	0105a403          	lw	s0,16(a1)
    1920:	c68fda63          	bge	t6,s0,d94 <benchmark_body+0xd04>
    1924:	3987a483          	lw	s1,920(a5)
    1928:	008f8933          	add	s2,t6,s0
    192c:	ffc48493          	addi	s1,s1,-4
    1930:	3897ac23          	sw	s1,920(a5)
    1934:	38462483          	lw	s1,900(a2)
    1938:	00249493          	slli	s1,s1,0x2
    193c:	01c484b3          	add	s1,s1,t3
    1940:	01f4a023          	sw	t6,0(s1)
    1944:	38462f83          	lw	t6,900(a2)
    1948:	001f8f93          	addi	t6,t6,1
    194c:	002f9f93          	slli	t6,t6,0x2
    1950:	01cf8fb3          	add	t6,t6,t3
    1954:	008fa023          	sw	s0,0(t6)
    1958:	38462f83          	lw	t6,900(a2)
    195c:	002f8f93          	addi	t6,t6,2
    1960:	002f9f93          	slli	t6,t6,0x2
    1964:	01cf8fb3          	add	t6,t6,t3
    1968:	012fa023          	sw	s2,0(t6)
    196c:	38462f83          	lw	t6,900(a2)
    1970:	003f8f93          	addi	t6,t6,3
    1974:	39f62223          	sw	t6,900(a2)
    1978:	c1cff06f          	j	d94 <benchmark_body+0xd04>
    197c:	37082403          	lw	s0,880(a6)
    1980:	0085af83          	lw	t6,8(a1)
    1984:	c3f41663          	bne	s0,t6,db0 <benchmark_body+0xd20>
    1988:	0105af83          	lw	t6,16(a1)
    198c:	37082403          	lw	s0,880(a6)
    1990:	c28fd063          	bge	t6,s0,db0 <benchmark_body+0xd20>
    1994:	00c5a483          	lw	s1,12(a1)
    1998:	008f8933          	add	s2,t6,s0
    199c:	36982823          	sw	s1,880(a6)
    19a0:	3987a483          	lw	s1,920(a5)
    19a4:	ffc48493          	addi	s1,s1,-4
    19a8:	3897ac23          	sw	s1,920(a5)
    19ac:	38462483          	lw	s1,900(a2)
    19b0:	00249493          	slli	s1,s1,0x2
    19b4:	01c484b3          	add	s1,s1,t3
    19b8:	01f4a023          	sw	t6,0(s1)
    19bc:	38462f83          	lw	t6,900(a2)
    19c0:	001f8f93          	addi	t6,t6,1
    19c4:	002f9f93          	slli	t6,t6,0x2
    19c8:	01cf8fb3          	add	t6,t6,t3
    19cc:	008fa023          	sw	s0,0(t6)
    19d0:	38462f83          	lw	t6,900(a2)
    19d4:	002f8f93          	addi	t6,t6,2
    19d8:	002f9f93          	slli	t6,t6,0x2
    19dc:	01cf8fb3          	add	t6,t6,t3
    19e0:	012fa023          	sw	s2,0(t6)
    19e4:	38462f83          	lw	t6,900(a2)
    19e8:	003f8f93          	addi	t6,t6,3
    19ec:	39f62223          	sw	t6,900(a2)
    19f0:	bc0ff06f          	j	db0 <benchmark_body+0xd20>
    19f4:	37082403          	lw	s0,880(a6)
    19f8:	00c5af83          	lw	t6,12(a1)
    19fc:	bdf41863          	bne	s0,t6,dcc <benchmark_body+0xd3c>
    1a00:	0105af83          	lw	t6,16(a1)
    1a04:	37082403          	lw	s0,880(a6)
    1a08:	bc8fd263          	bge	t6,s0,dcc <benchmark_body+0xd3c>
    1a0c:	0085a483          	lw	s1,8(a1)
    1a10:	008f8933          	add	s2,t6,s0
    1a14:	36982823          	sw	s1,880(a6)
    1a18:	3987a483          	lw	s1,920(a5)
    1a1c:	ffc48493          	addi	s1,s1,-4
    1a20:	3897ac23          	sw	s1,920(a5)
    1a24:	38462483          	lw	s1,900(a2)
    1a28:	00249493          	slli	s1,s1,0x2
    1a2c:	01c484b3          	add	s1,s1,t3
    1a30:	01f4a023          	sw	t6,0(s1)
    1a34:	38462f83          	lw	t6,900(a2)
    1a38:	001f8f93          	addi	t6,t6,1
    1a3c:	002f9f93          	slli	t6,t6,0x2
    1a40:	01cf8fb3          	add	t6,t6,t3
    1a44:	008fa023          	sw	s0,0(t6)
    1a48:	38462f83          	lw	t6,900(a2)
    1a4c:	002f8f93          	addi	t6,t6,2
    1a50:	002f9f93          	slli	t6,t6,0x2
    1a54:	01cf8fb3          	add	t6,t6,t3
    1a58:	012fa023          	sw	s2,0(t6)
    1a5c:	38462f83          	lw	t6,900(a2)
    1a60:	003f8f93          	addi	t6,t6,3
    1a64:	39f62223          	sw	t6,900(a2)
    1a68:	b64ff06f          	j	dcc <benchmark_body+0xd3c>
    1a6c:	37082403          	lw	s0,880(a6)
    1a70:	0045af83          	lw	t6,4(a1)
    1a74:	b7f41a63          	bne	s0,t6,de8 <benchmark_body+0xd58>
    1a78:	0105af83          	lw	t6,16(a1)
    1a7c:	37082403          	lw	s0,880(a6)
    1a80:	b68fd463          	bge	t6,s0,de8 <benchmark_body+0xd58>
    1a84:	00c5a483          	lw	s1,12(a1)
    1a88:	008f8933          	add	s2,t6,s0
    1a8c:	36982823          	sw	s1,880(a6)
    1a90:	3987a483          	lw	s1,920(a5)
    1a94:	ffc48493          	addi	s1,s1,-4
    1a98:	3897ac23          	sw	s1,920(a5)
    1a9c:	38462483          	lw	s1,900(a2)
    1aa0:	00249493          	slli	s1,s1,0x2
    1aa4:	01c484b3          	add	s1,s1,t3
    1aa8:	01f4a023          	sw	t6,0(s1)
    1aac:	38462f83          	lw	t6,900(a2)
    1ab0:	001f8f93          	addi	t6,t6,1
    1ab4:	002f9f93          	slli	t6,t6,0x2
    1ab8:	01cf8fb3          	add	t6,t6,t3
    1abc:	008fa023          	sw	s0,0(t6)
    1ac0:	38462f83          	lw	t6,900(a2)
    1ac4:	002f8f93          	addi	t6,t6,2
    1ac8:	002f9f93          	slli	t6,t6,0x2
    1acc:	01cf8fb3          	add	t6,t6,t3
    1ad0:	012fa023          	sw	s2,0(t6)
    1ad4:	38462f83          	lw	t6,900(a2)
    1ad8:	003f8f93          	addi	t6,t6,3
    1adc:	39f62223          	sw	t6,900(a2)
    1ae0:	b08ff06f          	j	de8 <benchmark_body+0xd58>
    1ae4:	37082403          	lw	s0,880(a6)
    1ae8:	00c5af83          	lw	t6,12(a1)
    1aec:	b1f41c63          	bne	s0,t6,e04 <benchmark_body+0xd74>
    1af0:	0105af83          	lw	t6,16(a1)
    1af4:	37082403          	lw	s0,880(a6)
    1af8:	b08fd663          	bge	t6,s0,e04 <benchmark_body+0xd74>
    1afc:	0045a483          	lw	s1,4(a1)
    1b00:	008f8933          	add	s2,t6,s0
    1b04:	36982823          	sw	s1,880(a6)
    1b08:	3987a483          	lw	s1,920(a5)
    1b0c:	ffc48493          	addi	s1,s1,-4
    1b10:	3897ac23          	sw	s1,920(a5)
    1b14:	38462483          	lw	s1,900(a2)
    1b18:	00249493          	slli	s1,s1,0x2
    1b1c:	01c484b3          	add	s1,s1,t3
    1b20:	01f4a023          	sw	t6,0(s1)
    1b24:	38462f83          	lw	t6,900(a2)
    1b28:	001f8f93          	addi	t6,t6,1
    1b2c:	002f9f93          	slli	t6,t6,0x2
    1b30:	01cf8fb3          	add	t6,t6,t3
    1b34:	008fa023          	sw	s0,0(t6)
    1b38:	38462f83          	lw	t6,900(a2)
    1b3c:	002f8f93          	addi	t6,t6,2
    1b40:	002f9f93          	slli	t6,t6,0x2
    1b44:	01cf8fb3          	add	t6,t6,t3
    1b48:	012fa023          	sw	s2,0(t6)
    1b4c:	38462f83          	lw	t6,900(a2)
    1b50:	003f8f93          	addi	t6,t6,3
    1b54:	39f62223          	sw	t6,900(a2)
    1b58:	aacff06f          	j	e04 <benchmark_body+0xd74>
    1b5c:	37082403          	lw	s0,880(a6)
    1b60:	0045af83          	lw	t6,4(a1)
    1b64:	abf41e63          	bne	s0,t6,e20 <benchmark_body+0xd90>
    1b68:	0105af83          	lw	t6,16(a1)
    1b6c:	37082403          	lw	s0,880(a6)
    1b70:	aa8fd863          	bge	t6,s0,e20 <benchmark_body+0xd90>
    1b74:	0085a483          	lw	s1,8(a1)
    1b78:	008f8933          	add	s2,t6,s0
    1b7c:	36982823          	sw	s1,880(a6)
    1b80:	3987a483          	lw	s1,920(a5)
    1b84:	ffc48493          	addi	s1,s1,-4
    1b88:	3897ac23          	sw	s1,920(a5)
    1b8c:	38462483          	lw	s1,900(a2)
    1b90:	00249493          	slli	s1,s1,0x2
    1b94:	01c484b3          	add	s1,s1,t3
    1b98:	01f4a023          	sw	t6,0(s1)
    1b9c:	38462f83          	lw	t6,900(a2)
    1ba0:	001f8f93          	addi	t6,t6,1
    1ba4:	002f9f93          	slli	t6,t6,0x2
    1ba8:	01cf8fb3          	add	t6,t6,t3
    1bac:	008fa023          	sw	s0,0(t6)
    1bb0:	38462f83          	lw	t6,900(a2)
    1bb4:	002f8f93          	addi	t6,t6,2
    1bb8:	002f9f93          	slli	t6,t6,0x2
    1bbc:	01cf8fb3          	add	t6,t6,t3
    1bc0:	012fa023          	sw	s2,0(t6)
    1bc4:	38462f83          	lw	t6,900(a2)
    1bc8:	003f8f93          	addi	t6,t6,3
    1bcc:	39f62223          	sw	t6,900(a2)
    1bd0:	a50ff06f          	j	e20 <benchmark_body+0xd90>
    1bd4:	37082403          	lw	s0,880(a6)
    1bd8:	0085af83          	lw	t6,8(a1)
    1bdc:	a7f41063          	bne	s0,t6,e3c <benchmark_body+0xdac>
    1be0:	0105af83          	lw	t6,16(a1)
    1be4:	37082403          	lw	s0,880(a6)
    1be8:	a48fda63          	bge	t6,s0,e3c <benchmark_body+0xdac>
    1bec:	0045a483          	lw	s1,4(a1)
    1bf0:	008f8933          	add	s2,t6,s0
    1bf4:	36982823          	sw	s1,880(a6)
    1bf8:	3987a483          	lw	s1,920(a5)
    1bfc:	ffc48493          	addi	s1,s1,-4
    1c00:	3897ac23          	sw	s1,920(a5)
    1c04:	38462483          	lw	s1,900(a2)
    1c08:	00249493          	slli	s1,s1,0x2
    1c0c:	01c484b3          	add	s1,s1,t3
    1c10:	01f4a023          	sw	t6,0(s1)
    1c14:	38462f83          	lw	t6,900(a2)
    1c18:	001f8f93          	addi	t6,t6,1
    1c1c:	002f9f93          	slli	t6,t6,0x2
    1c20:	01cf8fb3          	add	t6,t6,t3
    1c24:	008fa023          	sw	s0,0(t6)
    1c28:	38462f83          	lw	t6,900(a2)
    1c2c:	002f8f93          	addi	t6,t6,2
    1c30:	002f9f93          	slli	t6,t6,0x2
    1c34:	01cf8fb3          	add	t6,t6,t3
    1c38:	012fa023          	sw	s2,0(t6)
    1c3c:	38462f83          	lw	t6,900(a2)
    1c40:	003f8f93          	addi	t6,t6,3
    1c44:	39f62223          	sw	t6,900(a2)
    1c48:	9f4ff06f          	j	e3c <benchmark_body+0xdac>
    1c4c:	0045a403          	lw	s0,4(a1)
    1c50:	0085af83          	lw	t6,8(a1)
    1c54:	a1f41263          	bne	s0,t6,e58 <benchmark_body+0xdc8>
    1c58:	0105af83          	lw	t6,16(a1)
    1c5c:	0045a403          	lw	s0,4(a1)
    1c60:	9e8fdc63          	bge	t6,s0,e58 <benchmark_body+0xdc8>
    1c64:	00c5a483          	lw	s1,12(a1)
    1c68:	008f8933          	add	s2,t6,s0
    1c6c:	36982823          	sw	s1,880(a6)
    1c70:	3987a483          	lw	s1,920(a5)
    1c74:	ffc48493          	addi	s1,s1,-4
    1c78:	3897ac23          	sw	s1,920(a5)
    1c7c:	38462483          	lw	s1,900(a2)
    1c80:	00249493          	slli	s1,s1,0x2
    1c84:	01c484b3          	add	s1,s1,t3
    1c88:	01f4a023          	sw	t6,0(s1)
    1c8c:	38462f83          	lw	t6,900(a2)
    1c90:	001f8f93          	addi	t6,t6,1
    1c94:	002f9f93          	slli	t6,t6,0x2
    1c98:	01cf8fb3          	add	t6,t6,t3
    1c9c:	008fa023          	sw	s0,0(t6)
    1ca0:	38462f83          	lw	t6,900(a2)
    1ca4:	002f8f93          	addi	t6,t6,2
    1ca8:	002f9f93          	slli	t6,t6,0x2
    1cac:	01cf8fb3          	add	t6,t6,t3
    1cb0:	012fa023          	sw	s2,0(t6)
    1cb4:	38462f83          	lw	t6,900(a2)
    1cb8:	003f8f93          	addi	t6,t6,3
    1cbc:	39f62223          	sw	t6,900(a2)
    1cc0:	998ff06f          	j	e58 <benchmark_body+0xdc8>
    1cc4:	0045a403          	lw	s0,4(a1)
    1cc8:	00c5af83          	lw	t6,12(a1)
    1ccc:	9bf41463          	bne	s0,t6,e74 <benchmark_body+0xde4>
    1cd0:	0105af83          	lw	t6,16(a1)
    1cd4:	0045a403          	lw	s0,4(a1)
    1cd8:	988fde63          	bge	t6,s0,e74 <benchmark_body+0xde4>
    1cdc:	0085a483          	lw	s1,8(a1)
    1ce0:	008f8933          	add	s2,t6,s0
    1ce4:	36982823          	sw	s1,880(a6)
    1ce8:	3987a483          	lw	s1,920(a5)
    1cec:	ffc48493          	addi	s1,s1,-4
    1cf0:	3897ac23          	sw	s1,920(a5)
    1cf4:	38462483          	lw	s1,900(a2)
    1cf8:	00249493          	slli	s1,s1,0x2
    1cfc:	01c484b3          	add	s1,s1,t3
    1d00:	01f4a023          	sw	t6,0(s1)
    1d04:	38462f83          	lw	t6,900(a2)
    1d08:	001f8f93          	addi	t6,t6,1
    1d0c:	002f9f93          	slli	t6,t6,0x2
    1d10:	01cf8fb3          	add	t6,t6,t3
    1d14:	008fa023          	sw	s0,0(t6)
    1d18:	38462f83          	lw	t6,900(a2)
    1d1c:	002f8f93          	addi	t6,t6,2
    1d20:	002f9f93          	slli	t6,t6,0x2
    1d24:	01cf8fb3          	add	t6,t6,t3
    1d28:	012fa023          	sw	s2,0(t6)
    1d2c:	38462f83          	lw	t6,900(a2)
    1d30:	003f8f93          	addi	t6,t6,3
    1d34:	39f62223          	sw	t6,900(a2)
    1d38:	93cff06f          	j	e74 <benchmark_body+0xde4>
    1d3c:	0045a403          	lw	s0,4(a1)
    1d40:	37082f83          	lw	t6,880(a6)
    1d44:	95f41663          	bne	s0,t6,e90 <benchmark_body+0xe00>
    1d48:	0105af83          	lw	t6,16(a1)
    1d4c:	0045a403          	lw	s0,4(a1)
    1d50:	948fd063          	bge	t6,s0,e90 <benchmark_body+0xe00>
    1d54:	00c5a483          	lw	s1,12(a1)
    1d58:	008f8933          	add	s2,t6,s0
    1d5c:	36982823          	sw	s1,880(a6)
    1d60:	3987a483          	lw	s1,920(a5)
    1d64:	ffc48493          	addi	s1,s1,-4
    1d68:	3897ac23          	sw	s1,920(a5)
    1d6c:	38462483          	lw	s1,900(a2)
    1d70:	00249493          	slli	s1,s1,0x2
    1d74:	01c484b3          	add	s1,s1,t3
    1d78:	01f4a023          	sw	t6,0(s1)
    1d7c:	38462f83          	lw	t6,900(a2)
    1d80:	001f8f93          	addi	t6,t6,1
    1d84:	002f9f93          	slli	t6,t6,0x2
    1d88:	01cf8fb3          	add	t6,t6,t3
    1d8c:	008fa023          	sw	s0,0(t6)
    1d90:	38462f83          	lw	t6,900(a2)
    1d94:	002f8f93          	addi	t6,t6,2
    1d98:	002f9f93          	slli	t6,t6,0x2
    1d9c:	01cf8fb3          	add	t6,t6,t3
    1da0:	012fa023          	sw	s2,0(t6)
    1da4:	38462f83          	lw	t6,900(a2)
    1da8:	003f8f93          	addi	t6,t6,3
    1dac:	39f62223          	sw	t6,900(a2)
    1db0:	8e0ff06f          	j	e90 <benchmark_body+0xe00>
    1db4:	0045a403          	lw	s0,4(a1)
    1db8:	00c5af83          	lw	t6,12(a1)
    1dbc:	8ff41863          	bne	s0,t6,eac <benchmark_body+0xe1c>
    1dc0:	0105af83          	lw	t6,16(a1)
    1dc4:	0045a403          	lw	s0,4(a1)
    1dc8:	8e8fd263          	bge	t6,s0,eac <benchmark_body+0xe1c>
    1dcc:	3987a483          	lw	s1,920(a5)
    1dd0:	008f8933          	add	s2,t6,s0
    1dd4:	ffc48493          	addi	s1,s1,-4
    1dd8:	3897ac23          	sw	s1,920(a5)
    1ddc:	38462483          	lw	s1,900(a2)
    1de0:	00249493          	slli	s1,s1,0x2
    1de4:	01c484b3          	add	s1,s1,t3
    1de8:	01f4a023          	sw	t6,0(s1)
    1dec:	38462f83          	lw	t6,900(a2)
    1df0:	001f8f93          	addi	t6,t6,1
    1df4:	002f9f93          	slli	t6,t6,0x2
    1df8:	01cf8fb3          	add	t6,t6,t3
    1dfc:	008fa023          	sw	s0,0(t6)
    1e00:	38462f83          	lw	t6,900(a2)
    1e04:	002f8f93          	addi	t6,t6,2
    1e08:	002f9f93          	slli	t6,t6,0x2
    1e0c:	01cf8fb3          	add	t6,t6,t3
    1e10:	012fa023          	sw	s2,0(t6)
    1e14:	38462f83          	lw	t6,900(a2)
    1e18:	003f8f93          	addi	t6,t6,3
    1e1c:	39f62223          	sw	t6,900(a2)
    1e20:	88cff06f          	j	eac <benchmark_body+0xe1c>
    1e24:	0105a403          	lw	s0,16(a1)
    1e28:	37082f83          	lw	t6,880(a6)
    1e2c:	01f40463          	beq	s0,t6,1e34 <benchmark_body+0x1da4>
    1e30:	addfe06f          	j	90c <benchmark_body+0x87c>
    1e34:	0045af83          	lw	t6,4(a1)
    1e38:	0105a403          	lw	s0,16(a1)
    1e3c:	008fc463          	blt	t6,s0,1e44 <benchmark_body+0x1db4>
    1e40:	acdfe06f          	j	90c <benchmark_body+0x87c>
    1e44:	0085a483          	lw	s1,8(a1)
    1e48:	008f8933          	add	s2,t6,s0
    1e4c:	36982823          	sw	s1,880(a6)
    1e50:	3987a483          	lw	s1,920(a5)
    1e54:	ffc48493          	addi	s1,s1,-4
    1e58:	3897ac23          	sw	s1,920(a5)
    1e5c:	38462483          	lw	s1,900(a2)
    1e60:	00249493          	slli	s1,s1,0x2
    1e64:	01c484b3          	add	s1,s1,t3
    1e68:	01f4a023          	sw	t6,0(s1)
    1e6c:	38462f83          	lw	t6,900(a2)
    1e70:	001f8f93          	addi	t6,t6,1
    1e74:	002f9f93          	slli	t6,t6,0x2
    1e78:	01cf8fb3          	add	t6,t6,t3
    1e7c:	008fa023          	sw	s0,0(t6)
    1e80:	38462f83          	lw	t6,900(a2)
    1e84:	002f8f93          	addi	t6,t6,2
    1e88:	002f9f93          	slli	t6,t6,0x2
    1e8c:	01cf8fb3          	add	t6,t6,t3
    1e90:	012fa023          	sw	s2,0(t6)
    1e94:	38462f83          	lw	t6,900(a2)
    1e98:	003f8f93          	addi	t6,t6,3
    1e9c:	39f62223          	sw	t6,900(a2)
    1ea0:	a6dfe06f          	j	90c <benchmark_body+0x87c>
    1ea4:	0105a403          	lw	s0,16(a1)
    1ea8:	0085af83          	lw	t6,8(a1)
    1eac:	01f40463          	beq	s0,t6,1eb4 <benchmark_body+0x1e24>
    1eb0:	a7dfe06f          	j	92c <benchmark_body+0x89c>
    1eb4:	0045af83          	lw	t6,4(a1)
    1eb8:	0105a403          	lw	s0,16(a1)
    1ebc:	008fc463          	blt	t6,s0,1ec4 <benchmark_body+0x1e34>
    1ec0:	a6dfe06f          	j	92c <benchmark_body+0x89c>
    1ec4:	3987a483          	lw	s1,920(a5)
    1ec8:	008f8933          	add	s2,t6,s0
    1ecc:	ffc48493          	addi	s1,s1,-4
    1ed0:	3897ac23          	sw	s1,920(a5)
    1ed4:	38462483          	lw	s1,900(a2)
    1ed8:	00249493          	slli	s1,s1,0x2
    1edc:	01c484b3          	add	s1,s1,t3
    1ee0:	01f4a023          	sw	t6,0(s1)
    1ee4:	38462f83          	lw	t6,900(a2)
    1ee8:	001f8f93          	addi	t6,t6,1
    1eec:	002f9f93          	slli	t6,t6,0x2
    1ef0:	01cf8fb3          	add	t6,t6,t3
    1ef4:	008fa023          	sw	s0,0(t6)
    1ef8:	38462f83          	lw	t6,900(a2)
    1efc:	002f8f93          	addi	t6,t6,2
    1f00:	002f9f93          	slli	t6,t6,0x2
    1f04:	01cf8fb3          	add	t6,t6,t3
    1f08:	012fa023          	sw	s2,0(t6)
    1f0c:	38462f83          	lw	t6,900(a2)
    1f10:	003f8f93          	addi	t6,t6,3
    1f14:	39f62223          	sw	t6,900(a2)
    1f18:	a15fe06f          	j	92c <benchmark_body+0x89c>
    1f1c:	37082403          	lw	s0,880(a6)
    1f20:	0105af83          	lw	t6,16(a1)
    1f24:	01f40463          	beq	s0,t6,1f2c <benchmark_body+0x1e9c>
    1f28:	a25fe06f          	j	94c <benchmark_body+0x8bc>
    1f2c:	0085af83          	lw	t6,8(a1)
    1f30:	37082403          	lw	s0,880(a6)
    1f34:	008fc463          	blt	t6,s0,1f3c <benchmark_body+0x1eac>
    1f38:	a15fe06f          	j	94c <benchmark_body+0x8bc>
    1f3c:	00c5a483          	lw	s1,12(a1)
    1f40:	008f8933          	add	s2,t6,s0
    1f44:	36982823          	sw	s1,880(a6)
    1f48:	3987a483          	lw	s1,920(a5)
    1f4c:	ffc48493          	addi	s1,s1,-4
    1f50:	3897ac23          	sw	s1,920(a5)
    1f54:	38462483          	lw	s1,900(a2)
    1f58:	00249493          	slli	s1,s1,0x2
    1f5c:	01c484b3          	add	s1,s1,t3
    1f60:	01f4a023          	sw	t6,0(s1)
    1f64:	38462f83          	lw	t6,900(a2)
    1f68:	001f8f93          	addi	t6,t6,1
    1f6c:	002f9f93          	slli	t6,t6,0x2
    1f70:	01cf8fb3          	add	t6,t6,t3
    1f74:	008fa023          	sw	s0,0(t6)
    1f78:	38462f83          	lw	t6,900(a2)
    1f7c:	002f8f93          	addi	t6,t6,2
    1f80:	002f9f93          	slli	t6,t6,0x2
    1f84:	01cf8fb3          	add	t6,t6,t3
    1f88:	012fa023          	sw	s2,0(t6)
    1f8c:	38462f83          	lw	t6,900(a2)
    1f90:	003f8f93          	addi	t6,t6,3
    1f94:	39f62223          	sw	t6,900(a2)
    1f98:	9b5fe06f          	j	94c <benchmark_body+0x8bc>
    1f9c:	37082403          	lw	s0,880(a6)
    1fa0:	0105af83          	lw	t6,16(a1)
    1fa4:	01f40463          	beq	s0,t6,1fac <benchmark_body+0x1f1c>
    1fa8:	9c5fe06f          	j	96c <benchmark_body+0x8dc>
    1fac:	0085af83          	lw	t6,8(a1)
    1fb0:	37082403          	lw	s0,880(a6)
    1fb4:	008fc463          	blt	t6,s0,1fbc <benchmark_body+0x1f2c>
    1fb8:	9b5fe06f          	j	96c <benchmark_body+0x8dc>
    1fbc:	0045a483          	lw	s1,4(a1)
    1fc0:	008f8933          	add	s2,t6,s0
    1fc4:	36982823          	sw	s1,880(a6)
    1fc8:	3987a483          	lw	s1,920(a5)
    1fcc:	ffc48493          	addi	s1,s1,-4
    1fd0:	3897ac23          	sw	s1,920(a5)
    1fd4:	38462483          	lw	s1,900(a2)
    1fd8:	00249493          	slli	s1,s1,0x2
    1fdc:	01c484b3          	add	s1,s1,t3
    1fe0:	01f4a023          	sw	t6,0(s1)
    1fe4:	38462f83          	lw	t6,900(a2)
    1fe8:	001f8f93          	addi	t6,t6,1
    1fec:	002f9f93          	slli	t6,t6,0x2
    1ff0:	01cf8fb3          	add	t6,t6,t3
    1ff4:	008fa023          	sw	s0,0(t6)
    1ff8:	38462f83          	lw	t6,900(a2)
    1ffc:	002f8f93          	addi	t6,t6,2
    2000:	002f9f93          	slli	t6,t6,0x2
    2004:	01cf8fb3          	add	t6,t6,t3
    2008:	012fa023          	sw	s2,0(t6)
    200c:	38462f83          	lw	t6,900(a2)
    2010:	003f8f93          	addi	t6,t6,3
    2014:	39f62223          	sw	t6,900(a2)
    2018:	955fe06f          	j	96c <benchmark_body+0x8dc>
    201c:	37082403          	lw	s0,880(a6)
    2020:	0045af83          	lw	t6,4(a1)
    2024:	01f40463          	beq	s0,t6,202c <benchmark_body+0x1f9c>
    2028:	965fe06f          	j	98c <benchmark_body+0x8fc>
    202c:	0085af83          	lw	t6,8(a1)
    2030:	37082403          	lw	s0,880(a6)
    2034:	008fc463          	blt	t6,s0,203c <benchmark_body+0x1fac>
    2038:	955fe06f          	j	98c <benchmark_body+0x8fc>
    203c:	00c5a483          	lw	s1,12(a1)
    2040:	008f8933          	add	s2,t6,s0
    2044:	36982823          	sw	s1,880(a6)
    2048:	3987a483          	lw	s1,920(a5)
    204c:	ffc48493          	addi	s1,s1,-4
    2050:	3897ac23          	sw	s1,920(a5)
    2054:	38462483          	lw	s1,900(a2)
    2058:	00249493          	slli	s1,s1,0x2
    205c:	01c484b3          	add	s1,s1,t3
    2060:	01f4a023          	sw	t6,0(s1)
    2064:	38462f83          	lw	t6,900(a2)
    2068:	001f8f93          	addi	t6,t6,1
    206c:	002f9f93          	slli	t6,t6,0x2
    2070:	01cf8fb3          	add	t6,t6,t3
    2074:	008fa023          	sw	s0,0(t6)
    2078:	38462f83          	lw	t6,900(a2)
    207c:	002f8f93          	addi	t6,t6,2
    2080:	002f9f93          	slli	t6,t6,0x2
    2084:	01cf8fb3          	add	t6,t6,t3
    2088:	012fa023          	sw	s2,0(t6)
    208c:	38462f83          	lw	t6,900(a2)
    2090:	003f8f93          	addi	t6,t6,3
    2094:	39f62223          	sw	t6,900(a2)
    2098:	8f5fe06f          	j	98c <benchmark_body+0x8fc>
    209c:	37082403          	lw	s0,880(a6)
    20a0:	00c5af83          	lw	t6,12(a1)
    20a4:	01f40463          	beq	s0,t6,20ac <benchmark_body+0x201c>
    20a8:	905fe06f          	j	9ac <benchmark_body+0x91c>
    20ac:	0085af83          	lw	t6,8(a1)
    20b0:	37082403          	lw	s0,880(a6)
    20b4:	008fc463          	blt	t6,s0,20bc <benchmark_body+0x202c>
    20b8:	8f5fe06f          	j	9ac <benchmark_body+0x91c>
    20bc:	0045a483          	lw	s1,4(a1)
    20c0:	008f8933          	add	s2,t6,s0
    20c4:	36982823          	sw	s1,880(a6)
    20c8:	3987a483          	lw	s1,920(a5)
    20cc:	ffc48493          	addi	s1,s1,-4
    20d0:	3897ac23          	sw	s1,920(a5)
    20d4:	38462483          	lw	s1,900(a2)
    20d8:	00249493          	slli	s1,s1,0x2
    20dc:	01c484b3          	add	s1,s1,t3
    20e0:	01f4a023          	sw	t6,0(s1)
    20e4:	38462f83          	lw	t6,900(a2)
    20e8:	001f8f93          	addi	t6,t6,1
    20ec:	002f9f93          	slli	t6,t6,0x2
    20f0:	01cf8fb3          	add	t6,t6,t3
    20f4:	008fa023          	sw	s0,0(t6)
    20f8:	38462f83          	lw	t6,900(a2)
    20fc:	002f8f93          	addi	t6,t6,2
    2100:	002f9f93          	slli	t6,t6,0x2
    2104:	01cf8fb3          	add	t6,t6,t3
    2108:	012fa023          	sw	s2,0(t6)
    210c:	38462f83          	lw	t6,900(a2)
    2110:	003f8f93          	addi	t6,t6,3
    2114:	39f62223          	sw	t6,900(a2)
    2118:	895fe06f          	j	9ac <benchmark_body+0x91c>
    211c:	0045a403          	lw	s0,4(a1)
    2120:	0105af83          	lw	t6,16(a1)
    2124:	01f40463          	beq	s0,t6,212c <benchmark_body+0x209c>
    2128:	8a5fe06f          	j	9cc <benchmark_body+0x93c>
    212c:	0085af83          	lw	t6,8(a1)
    2130:	0045a403          	lw	s0,4(a1)
    2134:	008fc463          	blt	t6,s0,213c <benchmark_body+0x20ac>
    2138:	895fe06f          	j	9cc <benchmark_body+0x93c>
    213c:	00c5a483          	lw	s1,12(a1)
    2140:	008f8933          	add	s2,t6,s0
    2144:	36982823          	sw	s1,880(a6)
    2148:	3987a483          	lw	s1,920(a5)
    214c:	ffc48493          	addi	s1,s1,-4
    2150:	3897ac23          	sw	s1,920(a5)
    2154:	38462483          	lw	s1,900(a2)
    2158:	00249493          	slli	s1,s1,0x2
    215c:	01c484b3          	add	s1,s1,t3
    2160:	01f4a023          	sw	t6,0(s1)
    2164:	38462f83          	lw	t6,900(a2)
    2168:	001f8f93          	addi	t6,t6,1
    216c:	002f9f93          	slli	t6,t6,0x2
    2170:	01cf8fb3          	add	t6,t6,t3
    2174:	008fa023          	sw	s0,0(t6)
    2178:	38462f83          	lw	t6,900(a2)
    217c:	002f8f93          	addi	t6,t6,2
    2180:	002f9f93          	slli	t6,t6,0x2
    2184:	01cf8fb3          	add	t6,t6,t3
    2188:	012fa023          	sw	s2,0(t6)
    218c:	38462f83          	lw	t6,900(a2)
    2190:	003f8f93          	addi	t6,t6,3
    2194:	39f62223          	sw	t6,900(a2)
    2198:	835fe06f          	j	9cc <benchmark_body+0x93c>
    219c:	0045a403          	lw	s0,4(a1)
    21a0:	0105af83          	lw	t6,16(a1)
    21a4:	01f40463          	beq	s0,t6,21ac <benchmark_body+0x211c>
    21a8:	845fe06f          	j	9ec <benchmark_body+0x95c>
    21ac:	0085af83          	lw	t6,8(a1)
    21b0:	0045a403          	lw	s0,4(a1)
    21b4:	008fc463          	blt	t6,s0,21bc <benchmark_body+0x212c>
    21b8:	835fe06f          	j	9ec <benchmark_body+0x95c>
    21bc:	3987a483          	lw	s1,920(a5)
    21c0:	008f8933          	add	s2,t6,s0
    21c4:	ffc48493          	addi	s1,s1,-4
    21c8:	3897ac23          	sw	s1,920(a5)
    21cc:	38462483          	lw	s1,900(a2)
    21d0:	00249493          	slli	s1,s1,0x2
    21d4:	01c484b3          	add	s1,s1,t3
    21d8:	01f4a023          	sw	t6,0(s1)
    21dc:	38462f83          	lw	t6,900(a2)
    21e0:	001f8f93          	addi	t6,t6,1
    21e4:	002f9f93          	slli	t6,t6,0x2
    21e8:	01cf8fb3          	add	t6,t6,t3
    21ec:	008fa023          	sw	s0,0(t6)
    21f0:	38462f83          	lw	t6,900(a2)
    21f4:	002f8f93          	addi	t6,t6,2
    21f8:	002f9f93          	slli	t6,t6,0x2
    21fc:	01cf8fb3          	add	t6,t6,t3
    2200:	012fa023          	sw	s2,0(t6)
    2204:	38462f83          	lw	t6,900(a2)
    2208:	003f8f93          	addi	t6,t6,3
    220c:	39f62223          	sw	t6,900(a2)
    2210:	fdcfe06f          	j	9ec <benchmark_body+0x95c>
    2214:	0045a403          	lw	s0,4(a1)
    2218:	37082f83          	lw	t6,880(a6)
    221c:	01f40463          	beq	s0,t6,2224 <benchmark_body+0x2194>
    2220:	fecfe06f          	j	a0c <benchmark_body+0x97c>
    2224:	0085af83          	lw	t6,8(a1)
    2228:	0045a403          	lw	s0,4(a1)
    222c:	008fc463          	blt	t6,s0,2234 <benchmark_body+0x21a4>
    2230:	fdcfe06f          	j	a0c <benchmark_body+0x97c>
    2234:	00c5a483          	lw	s1,12(a1)
    2238:	008f8933          	add	s2,t6,s0
    223c:	36982823          	sw	s1,880(a6)
    2240:	3987a483          	lw	s1,920(a5)
    2244:	ffc48493          	addi	s1,s1,-4
    2248:	3897ac23          	sw	s1,920(a5)
    224c:	38462483          	lw	s1,900(a2)
    2250:	00249493          	slli	s1,s1,0x2
    2254:	01c484b3          	add	s1,s1,t3
    2258:	01f4a023          	sw	t6,0(s1)
    225c:	38462f83          	lw	t6,900(a2)
    2260:	001f8f93          	addi	t6,t6,1
    2264:	002f9f93          	slli	t6,t6,0x2
    2268:	01cf8fb3          	add	t6,t6,t3
    226c:	008fa023          	sw	s0,0(t6)
    2270:	38462f83          	lw	t6,900(a2)
    2274:	002f8f93          	addi	t6,t6,2
    2278:	002f9f93          	slli	t6,t6,0x2
    227c:	01cf8fb3          	add	t6,t6,t3
    2280:	012fa023          	sw	s2,0(t6)
    2284:	38462f83          	lw	t6,900(a2)
    2288:	003f8f93          	addi	t6,t6,3
    228c:	39f62223          	sw	t6,900(a2)
    2290:	f7cfe06f          	j	a0c <benchmark_body+0x97c>
    2294:	0045a403          	lw	s0,4(a1)
    2298:	00c5af83          	lw	t6,12(a1)
    229c:	01f40463          	beq	s0,t6,22a4 <benchmark_body+0x2214>
    22a0:	f8cfe06f          	j	a2c <benchmark_body+0x99c>
    22a4:	0085af83          	lw	t6,8(a1)
    22a8:	0045a403          	lw	s0,4(a1)
    22ac:	008fc463          	blt	t6,s0,22b4 <benchmark_body+0x2224>
    22b0:	f7cfe06f          	j	a2c <benchmark_body+0x99c>
    22b4:	3987a483          	lw	s1,920(a5)
    22b8:	008f8933          	add	s2,t6,s0
    22bc:	ffc48493          	addi	s1,s1,-4
    22c0:	3897ac23          	sw	s1,920(a5)
    22c4:	38462483          	lw	s1,900(a2)
    22c8:	00249493          	slli	s1,s1,0x2
    22cc:	01c484b3          	add	s1,s1,t3
    22d0:	01f4a023          	sw	t6,0(s1)
    22d4:	38462f83          	lw	t6,900(a2)
    22d8:	001f8f93          	addi	t6,t6,1
    22dc:	002f9f93          	slli	t6,t6,0x2
    22e0:	01cf8fb3          	add	t6,t6,t3
    22e4:	008fa023          	sw	s0,0(t6)
    22e8:	38462f83          	lw	t6,900(a2)
    22ec:	002f8f93          	addi	t6,t6,2
    22f0:	002f9f93          	slli	t6,t6,0x2
    22f4:	01cf8fb3          	add	t6,t6,t3
    22f8:	012fa023          	sw	s2,0(t6)
    22fc:	38462f83          	lw	t6,900(a2)
    2300:	003f8f93          	addi	t6,t6,3
    2304:	39f62223          	sw	t6,900(a2)
    2308:	f24fe06f          	j	a2c <benchmark_body+0x99c>
    230c:	00c5a403          	lw	s0,12(a1)
    2310:	0105af83          	lw	t6,16(a1)
    2314:	01f40463          	beq	s0,t6,231c <benchmark_body+0x228c>
    2318:	f34fe06f          	j	a4c <benchmark_body+0x9bc>
    231c:	0085af83          	lw	t6,8(a1)
    2320:	00c5a403          	lw	s0,12(a1)
    2324:	008fc463          	blt	t6,s0,232c <benchmark_body+0x229c>
    2328:	f24fe06f          	j	a4c <benchmark_body+0x9bc>
    232c:	0045a483          	lw	s1,4(a1)
    2330:	008f8933          	add	s2,t6,s0
    2334:	36982823          	sw	s1,880(a6)
    2338:	3987a483          	lw	s1,920(a5)
    233c:	ffc48493          	addi	s1,s1,-4
    2340:	3897ac23          	sw	s1,920(a5)
    2344:	38462483          	lw	s1,900(a2)
    2348:	00249493          	slli	s1,s1,0x2
    234c:	01c484b3          	add	s1,s1,t3
    2350:	01f4a023          	sw	t6,0(s1)
    2354:	38462f83          	lw	t6,900(a2)
    2358:	001f8f93          	addi	t6,t6,1
    235c:	002f9f93          	slli	t6,t6,0x2
    2360:	01cf8fb3          	add	t6,t6,t3
    2364:	008fa023          	sw	s0,0(t6)
    2368:	38462f83          	lw	t6,900(a2)
    236c:	002f8f93          	addi	t6,t6,2
    2370:	002f9f93          	slli	t6,t6,0x2
    2374:	01cf8fb3          	add	t6,t6,t3
    2378:	012fa023          	sw	s2,0(t6)
    237c:	38462f83          	lw	t6,900(a2)
    2380:	003f8f93          	addi	t6,t6,3
    2384:	39f62223          	sw	t6,900(a2)
    2388:	ec4fe06f          	j	a4c <benchmark_body+0x9bc>
    238c:	00c5a403          	lw	s0,12(a1)
    2390:	0105af83          	lw	t6,16(a1)
    2394:	01f40463          	beq	s0,t6,239c <benchmark_body+0x230c>
    2398:	ed4fe06f          	j	a6c <benchmark_body+0x9dc>
    239c:	0085af83          	lw	t6,8(a1)
    23a0:	00c5a403          	lw	s0,12(a1)
    23a4:	008fc463          	blt	t6,s0,23ac <benchmark_body+0x231c>
    23a8:	ec4fe06f          	j	a6c <benchmark_body+0x9dc>
    23ac:	3987a483          	lw	s1,920(a5)
    23b0:	008f8933          	add	s2,t6,s0
    23b4:	ffc48493          	addi	s1,s1,-4
    23b8:	3897ac23          	sw	s1,920(a5)
    23bc:	38462483          	lw	s1,900(a2)
    23c0:	00249493          	slli	s1,s1,0x2
    23c4:	01c484b3          	add	s1,s1,t3
    23c8:	01f4a023          	sw	t6,0(s1)
    23cc:	38462f83          	lw	t6,900(a2)
    23d0:	001f8f93          	addi	t6,t6,1
    23d4:	002f9f93          	slli	t6,t6,0x2
    23d8:	01cf8fb3          	add	t6,t6,t3
    23dc:	008fa023          	sw	s0,0(t6)
    23e0:	38462f83          	lw	t6,900(a2)
    23e4:	002f8f93          	addi	t6,t6,2
    23e8:	002f9f93          	slli	t6,t6,0x2
    23ec:	01cf8fb3          	add	t6,t6,t3
    23f0:	012fa023          	sw	s2,0(t6)
    23f4:	38462f83          	lw	t6,900(a2)
    23f8:	003f8f93          	addi	t6,t6,3
    23fc:	39f62223          	sw	t6,900(a2)
    2400:	e6cfe06f          	j	a6c <benchmark_body+0x9dc>
    2404:	00c5a403          	lw	s0,12(a1)
    2408:	37082f83          	lw	t6,880(a6)
    240c:	01f40463          	beq	s0,t6,2414 <benchmark_body+0x2384>
    2410:	e7cfe06f          	j	a8c <benchmark_body+0x9fc>
    2414:	0085af83          	lw	t6,8(a1)
    2418:	00c5a403          	lw	s0,12(a1)
    241c:	008fc463          	blt	t6,s0,2424 <benchmark_body+0x2394>
    2420:	e6cfe06f          	j	a8c <benchmark_body+0x9fc>
    2424:	0045a483          	lw	s1,4(a1)
    2428:	008f8933          	add	s2,t6,s0
    242c:	36982823          	sw	s1,880(a6)
    2430:	3987a483          	lw	s1,920(a5)
    2434:	ffc48493          	addi	s1,s1,-4
    2438:	3897ac23          	sw	s1,920(a5)
    243c:	38462483          	lw	s1,900(a2)
    2440:	00249493          	slli	s1,s1,0x2
    2444:	01c484b3          	add	s1,s1,t3
    2448:	01f4a023          	sw	t6,0(s1)
    244c:	38462f83          	lw	t6,900(a2)
    2450:	001f8f93          	addi	t6,t6,1
    2454:	002f9f93          	slli	t6,t6,0x2
    2458:	01cf8fb3          	add	t6,t6,t3
    245c:	008fa023          	sw	s0,0(t6)
    2460:	38462f83          	lw	t6,900(a2)
    2464:	002f8f93          	addi	t6,t6,2
    2468:	002f9f93          	slli	t6,t6,0x2
    246c:	01cf8fb3          	add	t6,t6,t3
    2470:	012fa023          	sw	s2,0(t6)
    2474:	38462f83          	lw	t6,900(a2)
    2478:	003f8f93          	addi	t6,t6,3
    247c:	39f62223          	sw	t6,900(a2)
    2480:	e0cfe06f          	j	a8c <benchmark_body+0x9fc>
    2484:	00c5a403          	lw	s0,12(a1)
    2488:	0045af83          	lw	t6,4(a1)
    248c:	01f40463          	beq	s0,t6,2494 <benchmark_body+0x2404>
    2490:	e1cfe06f          	j	aac <benchmark_body+0xa1c>
    2494:	0085af83          	lw	t6,8(a1)
    2498:	00c5a403          	lw	s0,12(a1)
    249c:	008fc463          	blt	t6,s0,24a4 <benchmark_body+0x2414>
    24a0:	e0cfe06f          	j	aac <benchmark_body+0xa1c>
    24a4:	3987a483          	lw	s1,920(a5)
    24a8:	008f8933          	add	s2,t6,s0
    24ac:	ffc48493          	addi	s1,s1,-4
    24b0:	3897ac23          	sw	s1,920(a5)
    24b4:	38462483          	lw	s1,900(a2)
    24b8:	00249493          	slli	s1,s1,0x2
    24bc:	01c484b3          	add	s1,s1,t3
    24c0:	01f4a023          	sw	t6,0(s1)
    24c4:	38462f83          	lw	t6,900(a2)
    24c8:	001f8f93          	addi	t6,t6,1
    24cc:	002f9f93          	slli	t6,t6,0x2
    24d0:	01cf8fb3          	add	t6,t6,t3
    24d4:	008fa023          	sw	s0,0(t6)
    24d8:	38462f83          	lw	t6,900(a2)
    24dc:	002f8f93          	addi	t6,t6,2
    24e0:	002f9f93          	slli	t6,t6,0x2
    24e4:	01cf8fb3          	add	t6,t6,t3
    24e8:	012fa023          	sw	s2,0(t6)
    24ec:	38462f83          	lw	t6,900(a2)
    24f0:	003f8f93          	addi	t6,t6,3
    24f4:	39f62223          	sw	t6,900(a2)
    24f8:	db4fe06f          	j	aac <benchmark_body+0xa1c>
    24fc:	0105a403          	lw	s0,16(a1)
    2500:	0045af83          	lw	t6,4(a1)
    2504:	01f40463          	beq	s0,t6,250c <benchmark_body+0x247c>
    2508:	dc4fe06f          	j	acc <benchmark_body+0xa3c>
    250c:	0085af83          	lw	t6,8(a1)
    2510:	0105a403          	lw	s0,16(a1)
    2514:	008fc463          	blt	t6,s0,251c <benchmark_body+0x248c>
    2518:	db4fe06f          	j	acc <benchmark_body+0xa3c>
    251c:	00c5a483          	lw	s1,12(a1)
    2520:	008f8933          	add	s2,t6,s0
    2524:	36982823          	sw	s1,880(a6)
    2528:	3987a483          	lw	s1,920(a5)
    252c:	ffc48493          	addi	s1,s1,-4
    2530:	3897ac23          	sw	s1,920(a5)
    2534:	38462483          	lw	s1,900(a2)
    2538:	00249493          	slli	s1,s1,0x2
    253c:	01c484b3          	add	s1,s1,t3
    2540:	01f4a023          	sw	t6,0(s1)
    2544:	38462f83          	lw	t6,900(a2)
    2548:	001f8f93          	addi	t6,t6,1
    254c:	002f9f93          	slli	t6,t6,0x2
    2550:	01cf8fb3          	add	t6,t6,t3
    2554:	008fa023          	sw	s0,0(t6)
    2558:	38462f83          	lw	t6,900(a2)
    255c:	002f8f93          	addi	t6,t6,2
    2560:	002f9f93          	slli	t6,t6,0x2
    2564:	01cf8fb3          	add	t6,t6,t3
    2568:	012fa023          	sw	s2,0(t6)
    256c:	38462f83          	lw	t6,900(a2)
    2570:	003f8f93          	addi	t6,t6,3
    2574:	39f62223          	sw	t6,900(a2)
    2578:	d54fe06f          	j	acc <benchmark_body+0xa3c>
    257c:	0105a403          	lw	s0,16(a1)
    2580:	00c5af83          	lw	t6,12(a1)
    2584:	01f40463          	beq	s0,t6,258c <benchmark_body+0x24fc>
    2588:	d64fe06f          	j	aec <benchmark_body+0xa5c>
    258c:	0085af83          	lw	t6,8(a1)
    2590:	0105a403          	lw	s0,16(a1)
    2594:	008fc463          	blt	t6,s0,259c <benchmark_body+0x250c>
    2598:	d54fe06f          	j	aec <benchmark_body+0xa5c>
    259c:	0045a483          	lw	s1,4(a1)
    25a0:	008f8933          	add	s2,t6,s0
    25a4:	36982823          	sw	s1,880(a6)
    25a8:	3987a483          	lw	s1,920(a5)
    25ac:	ffc48493          	addi	s1,s1,-4
    25b0:	3897ac23          	sw	s1,920(a5)
    25b4:	38462483          	lw	s1,900(a2)
    25b8:	00249493          	slli	s1,s1,0x2
    25bc:	01c484b3          	add	s1,s1,t3
    25c0:	01f4a023          	sw	t6,0(s1)
    25c4:	38462f83          	lw	t6,900(a2)
    25c8:	001f8f93          	addi	t6,t6,1
    25cc:	002f9f93          	slli	t6,t6,0x2
    25d0:	01cf8fb3          	add	t6,t6,t3
    25d4:	008fa023          	sw	s0,0(t6)
    25d8:	38462f83          	lw	t6,900(a2)
    25dc:	002f8f93          	addi	t6,t6,2
    25e0:	002f9f93          	slli	t6,t6,0x2
    25e4:	01cf8fb3          	add	t6,t6,t3
    25e8:	012fa023          	sw	s2,0(t6)
    25ec:	38462f83          	lw	t6,900(a2)
    25f0:	003f8f93          	addi	t6,t6,3
    25f4:	39f62223          	sw	t6,900(a2)
    25f8:	cf4fe06f          	j	aec <benchmark_body+0xa5c>
    25fc:	0105a403          	lw	s0,16(a1)
    2600:	37082f83          	lw	t6,880(a6)
    2604:	01f40463          	beq	s0,t6,260c <benchmark_body+0x257c>
    2608:	d04fe06f          	j	b0c <benchmark_body+0xa7c>
    260c:	0085af83          	lw	t6,8(a1)
    2610:	0105a403          	lw	s0,16(a1)
    2614:	008fc463          	blt	t6,s0,261c <benchmark_body+0x258c>
    2618:	cf4fe06f          	j	b0c <benchmark_body+0xa7c>
    261c:	00c5a483          	lw	s1,12(a1)
    2620:	008f8933          	add	s2,t6,s0
    2624:	36982823          	sw	s1,880(a6)
    2628:	3987a483          	lw	s1,920(a5)
    262c:	ffc48493          	addi	s1,s1,-4
    2630:	3897ac23          	sw	s1,920(a5)
    2634:	38462483          	lw	s1,900(a2)
    2638:	00249493          	slli	s1,s1,0x2
    263c:	01c484b3          	add	s1,s1,t3
    2640:	01f4a023          	sw	t6,0(s1)
    2644:	38462f83          	lw	t6,900(a2)
    2648:	001f8f93          	addi	t6,t6,1
    264c:	002f9f93          	slli	t6,t6,0x2
    2650:	01cf8fb3          	add	t6,t6,t3
    2654:	008fa023          	sw	s0,0(t6)
    2658:	38462f83          	lw	t6,900(a2)
    265c:	002f8f93          	addi	t6,t6,2
    2660:	002f9f93          	slli	t6,t6,0x2
    2664:	01cf8fb3          	add	t6,t6,t3
    2668:	012fa023          	sw	s2,0(t6)
    266c:	38462f83          	lw	t6,900(a2)
    2670:	003f8f93          	addi	t6,t6,3
    2674:	39f62223          	sw	t6,900(a2)
    2678:	c94fe06f          	j	b0c <benchmark_body+0xa7c>
    267c:	0105a403          	lw	s0,16(a1)
    2680:	00c5af83          	lw	t6,12(a1)
    2684:	01f40463          	beq	s0,t6,268c <benchmark_body+0x25fc>
    2688:	ca4fe06f          	j	b2c <benchmark_body+0xa9c>
    268c:	0085af83          	lw	t6,8(a1)
    2690:	0105a403          	lw	s0,16(a1)
    2694:	008fc463          	blt	t6,s0,269c <benchmark_body+0x260c>
    2698:	c94fe06f          	j	b2c <benchmark_body+0xa9c>
    269c:	3987a483          	lw	s1,920(a5)
    26a0:	008f8933          	add	s2,t6,s0
    26a4:	ffc48493          	addi	s1,s1,-4
    26a8:	3897ac23          	sw	s1,920(a5)
    26ac:	38462483          	lw	s1,900(a2)
    26b0:	00249493          	slli	s1,s1,0x2
    26b4:	01c484b3          	add	s1,s1,t3
    26b8:	01f4a023          	sw	t6,0(s1)
    26bc:	38462f83          	lw	t6,900(a2)
    26c0:	001f8f93          	addi	t6,t6,1
    26c4:	002f9f93          	slli	t6,t6,0x2
    26c8:	01cf8fb3          	add	t6,t6,t3
    26cc:	008fa023          	sw	s0,0(t6)
    26d0:	38462f83          	lw	t6,900(a2)
    26d4:	002f8f93          	addi	t6,t6,2
    26d8:	002f9f93          	slli	t6,t6,0x2
    26dc:	01cf8fb3          	add	t6,t6,t3
    26e0:	012fa023          	sw	s2,0(t6)
    26e4:	38462f83          	lw	t6,900(a2)
    26e8:	003f8f93          	addi	t6,t6,3
    26ec:	39f62223          	sw	t6,900(a2)
    26f0:	c3cfe06f          	j	b2c <benchmark_body+0xa9c>
    26f4:	0105a403          	lw	s0,16(a1)
    26f8:	37082f83          	lw	t6,880(a6)
    26fc:	01f40463          	beq	s0,t6,2704 <benchmark_body+0x2674>
    2700:	c4cfe06f          	j	b4c <benchmark_body+0xabc>
    2704:	0085af83          	lw	t6,8(a1)
    2708:	0105a403          	lw	s0,16(a1)
    270c:	008fc463          	blt	t6,s0,2714 <benchmark_body+0x2684>
    2710:	c3cfe06f          	j	b4c <benchmark_body+0xabc>
    2714:	0045a483          	lw	s1,4(a1)
    2718:	008f8933          	add	s2,t6,s0
    271c:	36982823          	sw	s1,880(a6)
    2720:	3987a483          	lw	s1,920(a5)
    2724:	ffc48493          	addi	s1,s1,-4
    2728:	3897ac23          	sw	s1,920(a5)
    272c:	38462483          	lw	s1,900(a2)
    2730:	00249493          	slli	s1,s1,0x2
    2734:	01c484b3          	add	s1,s1,t3
    2738:	01f4a023          	sw	t6,0(s1)
    273c:	38462f83          	lw	t6,900(a2)
    2740:	001f8f93          	addi	t6,t6,1
    2744:	002f9f93          	slli	t6,t6,0x2
    2748:	01cf8fb3          	add	t6,t6,t3
    274c:	008fa023          	sw	s0,0(t6)
    2750:	38462f83          	lw	t6,900(a2)
    2754:	002f8f93          	addi	t6,t6,2
    2758:	002f9f93          	slli	t6,t6,0x2
    275c:	01cf8fb3          	add	t6,t6,t3
    2760:	012fa023          	sw	s2,0(t6)
    2764:	38462f83          	lw	t6,900(a2)
    2768:	003f8f93          	addi	t6,t6,3
    276c:	39f62223          	sw	t6,900(a2)
    2770:	bdcfe06f          	j	b4c <benchmark_body+0xabc>
    2774:	0105a403          	lw	s0,16(a1)
    2778:	0045af83          	lw	t6,4(a1)
    277c:	01f40463          	beq	s0,t6,2784 <benchmark_body+0x26f4>
    2780:	becfe06f          	j	b6c <benchmark_body+0xadc>
    2784:	0085af83          	lw	t6,8(a1)
    2788:	0105a403          	lw	s0,16(a1)
    278c:	008fc463          	blt	t6,s0,2794 <benchmark_body+0x2704>
    2790:	bdcfe06f          	j	b6c <benchmark_body+0xadc>
    2794:	3987a483          	lw	s1,920(a5)
    2798:	008f8933          	add	s2,t6,s0
    279c:	ffc48493          	addi	s1,s1,-4
    27a0:	3897ac23          	sw	s1,920(a5)
    27a4:	38462483          	lw	s1,900(a2)
    27a8:	00249493          	slli	s1,s1,0x2
    27ac:	01c484b3          	add	s1,s1,t3
    27b0:	01f4a023          	sw	t6,0(s1)
    27b4:	38462f83          	lw	t6,900(a2)
    27b8:	001f8f93          	addi	t6,t6,1
    27bc:	002f9f93          	slli	t6,t6,0x2
    27c0:	01cf8fb3          	add	t6,t6,t3
    27c4:	008fa023          	sw	s0,0(t6)
    27c8:	38462f83          	lw	t6,900(a2)
    27cc:	002f8f93          	addi	t6,t6,2
    27d0:	002f9f93          	slli	t6,t6,0x2
    27d4:	01cf8fb3          	add	t6,t6,t3
    27d8:	012fa023          	sw	s2,0(t6)
    27dc:	38462f83          	lw	t6,900(a2)
    27e0:	003f8f93          	addi	t6,t6,3
    27e4:	39f62223          	sw	t6,900(a2)
    27e8:	b84fe06f          	j	b6c <benchmark_body+0xadc>
    27ec:	37082403          	lw	s0,880(a6)
    27f0:	0105af83          	lw	t6,16(a1)
    27f4:	01f40463          	beq	s0,t6,27fc <benchmark_body+0x276c>
    27f8:	b94fe06f          	j	b8c <benchmark_body+0xafc>
    27fc:	00c5af83          	lw	t6,12(a1)
    2800:	37082403          	lw	s0,880(a6)
    2804:	008fc463          	blt	t6,s0,280c <benchmark_body+0x277c>
    2808:	b84fe06f          	j	b8c <benchmark_body+0xafc>
    280c:	0085a483          	lw	s1,8(a1)
    2810:	008f8933          	add	s2,t6,s0
    2814:	36982823          	sw	s1,880(a6)
    2818:	3987a483          	lw	s1,920(a5)
    281c:	ffc48493          	addi	s1,s1,-4
    2820:	3897ac23          	sw	s1,920(a5)
    2824:	38462483          	lw	s1,900(a2)
    2828:	00249493          	slli	s1,s1,0x2
    282c:	01c484b3          	add	s1,s1,t3
    2830:	01f4a023          	sw	t6,0(s1)
    2834:	38462f83          	lw	t6,900(a2)
    2838:	001f8f93          	addi	t6,t6,1
    283c:	002f9f93          	slli	t6,t6,0x2
    2840:	01cf8fb3          	add	t6,t6,t3
    2844:	008fa023          	sw	s0,0(t6)
    2848:	38462f83          	lw	t6,900(a2)
    284c:	002f8f93          	addi	t6,t6,2
    2850:	002f9f93          	slli	t6,t6,0x2
    2854:	01cf8fb3          	add	t6,t6,t3
    2858:	012fa023          	sw	s2,0(t6)
    285c:	38462f83          	lw	t6,900(a2)
    2860:	003f8f93          	addi	t6,t6,3
    2864:	39f62223          	sw	t6,900(a2)
    2868:	b24fe06f          	j	b8c <benchmark_body+0xafc>
    286c:	37082403          	lw	s0,880(a6)
    2870:	0105af83          	lw	t6,16(a1)
    2874:	01f40463          	beq	s0,t6,287c <benchmark_body+0x27ec>
    2878:	b34fe06f          	j	bac <benchmark_body+0xb1c>
    287c:	00c5af83          	lw	t6,12(a1)
    2880:	37082403          	lw	s0,880(a6)
    2884:	008fc463          	blt	t6,s0,288c <benchmark_body+0x27fc>
    2888:	b24fe06f          	j	bac <benchmark_body+0xb1c>
    288c:	0045a483          	lw	s1,4(a1)
    2890:	008f8933          	add	s2,t6,s0
    2894:	36982823          	sw	s1,880(a6)
    2898:	3987a483          	lw	s1,920(a5)
    289c:	ffc48493          	addi	s1,s1,-4
    28a0:	3897ac23          	sw	s1,920(a5)
    28a4:	38462483          	lw	s1,900(a2)
    28a8:	00249493          	slli	s1,s1,0x2
    28ac:	01c484b3          	add	s1,s1,t3
    28b0:	01f4a023          	sw	t6,0(s1)
    28b4:	38462f83          	lw	t6,900(a2)
    28b8:	001f8f93          	addi	t6,t6,1
    28bc:	002f9f93          	slli	t6,t6,0x2
    28c0:	01cf8fb3          	add	t6,t6,t3
    28c4:	008fa023          	sw	s0,0(t6)
    28c8:	38462f83          	lw	t6,900(a2)
    28cc:	002f8f93          	addi	t6,t6,2
    28d0:	002f9f93          	slli	t6,t6,0x2
    28d4:	01cf8fb3          	add	t6,t6,t3
    28d8:	012fa023          	sw	s2,0(t6)
    28dc:	38462f83          	lw	t6,900(a2)
    28e0:	003f8f93          	addi	t6,t6,3
    28e4:	39f62223          	sw	t6,900(a2)
    28e8:	ac4fe06f          	j	bac <benchmark_body+0xb1c>
    28ec:	37082403          	lw	s0,880(a6)
    28f0:	0045af83          	lw	t6,4(a1)
    28f4:	01f40463          	beq	s0,t6,28fc <benchmark_body+0x286c>
    28f8:	ad4fe06f          	j	bcc <benchmark_body+0xb3c>
    28fc:	00c5af83          	lw	t6,12(a1)
    2900:	37082403          	lw	s0,880(a6)
    2904:	008fc463          	blt	t6,s0,290c <benchmark_body+0x287c>
    2908:	ac4fe06f          	j	bcc <benchmark_body+0xb3c>
    290c:	0085a483          	lw	s1,8(a1)
    2910:	008f8933          	add	s2,t6,s0
    2914:	36982823          	sw	s1,880(a6)
    2918:	3987a483          	lw	s1,920(a5)
    291c:	ffc48493          	addi	s1,s1,-4
    2920:	3897ac23          	sw	s1,920(a5)
    2924:	38462483          	lw	s1,900(a2)
    2928:	00249493          	slli	s1,s1,0x2
    292c:	01c484b3          	add	s1,s1,t3
    2930:	01f4a023          	sw	t6,0(s1)
    2934:	38462f83          	lw	t6,900(a2)
    2938:	001f8f93          	addi	t6,t6,1
    293c:	002f9f93          	slli	t6,t6,0x2
    2940:	01cf8fb3          	add	t6,t6,t3
    2944:	008fa023          	sw	s0,0(t6)
    2948:	38462f83          	lw	t6,900(a2)
    294c:	002f8f93          	addi	t6,t6,2
    2950:	002f9f93          	slli	t6,t6,0x2
    2954:	01cf8fb3          	add	t6,t6,t3
    2958:	012fa023          	sw	s2,0(t6)
    295c:	38462f83          	lw	t6,900(a2)
    2960:	003f8f93          	addi	t6,t6,3
    2964:	39f62223          	sw	t6,900(a2)
    2968:	a64fe06f          	j	bcc <benchmark_body+0xb3c>
    296c:	37082403          	lw	s0,880(a6)
    2970:	0085af83          	lw	t6,8(a1)
    2974:	01f40463          	beq	s0,t6,297c <benchmark_body+0x28ec>
    2978:	a74fe06f          	j	bec <benchmark_body+0xb5c>
    297c:	00c5af83          	lw	t6,12(a1)
    2980:	37082403          	lw	s0,880(a6)
    2984:	008fc463          	blt	t6,s0,298c <benchmark_body+0x28fc>
    2988:	a64fe06f          	j	bec <benchmark_body+0xb5c>
    298c:	0045a483          	lw	s1,4(a1)
    2990:	008f8933          	add	s2,t6,s0
    2994:	36982823          	sw	s1,880(a6)
    2998:	3987a483          	lw	s1,920(a5)
    299c:	ffc48493          	addi	s1,s1,-4
    29a0:	3897ac23          	sw	s1,920(a5)
    29a4:	38462483          	lw	s1,900(a2)
    29a8:	00249493          	slli	s1,s1,0x2
    29ac:	01c484b3          	add	s1,s1,t3
    29b0:	01f4a023          	sw	t6,0(s1)
    29b4:	38462f83          	lw	t6,900(a2)
    29b8:	001f8f93          	addi	t6,t6,1
    29bc:	002f9f93          	slli	t6,t6,0x2
    29c0:	01cf8fb3          	add	t6,t6,t3
    29c4:	008fa023          	sw	s0,0(t6)
    29c8:	38462f83          	lw	t6,900(a2)
    29cc:	002f8f93          	addi	t6,t6,2
    29d0:	002f9f93          	slli	t6,t6,0x2
    29d4:	01cf8fb3          	add	t6,t6,t3
    29d8:	012fa023          	sw	s2,0(t6)
    29dc:	38462f83          	lw	t6,900(a2)
    29e0:	003f8f93          	addi	t6,t6,3
    29e4:	39f62223          	sw	t6,900(a2)
    29e8:	a04fe06f          	j	bec <benchmark_body+0xb5c>
    29ec:	0045a403          	lw	s0,4(a1)
    29f0:	0105af83          	lw	t6,16(a1)
    29f4:	01f40463          	beq	s0,t6,29fc <benchmark_body+0x296c>
    29f8:	a14fe06f          	j	c0c <benchmark_body+0xb7c>
    29fc:	00c5af83          	lw	t6,12(a1)
    2a00:	0045a403          	lw	s0,4(a1)
    2a04:	008fc463          	blt	t6,s0,2a0c <benchmark_body+0x297c>
    2a08:	a04fe06f          	j	c0c <benchmark_body+0xb7c>
    2a0c:	0085a483          	lw	s1,8(a1)
    2a10:	008f8933          	add	s2,t6,s0
    2a14:	36982823          	sw	s1,880(a6)
    2a18:	3987a483          	lw	s1,920(a5)
    2a1c:	ffc48493          	addi	s1,s1,-4
    2a20:	3897ac23          	sw	s1,920(a5)
    2a24:	38462483          	lw	s1,900(a2)
    2a28:	00249493          	slli	s1,s1,0x2
    2a2c:	01c484b3          	add	s1,s1,t3
    2a30:	01f4a023          	sw	t6,0(s1)
    2a34:	38462f83          	lw	t6,900(a2)
    2a38:	001f8f93          	addi	t6,t6,1
    2a3c:	002f9f93          	slli	t6,t6,0x2
    2a40:	01cf8fb3          	add	t6,t6,t3
    2a44:	008fa023          	sw	s0,0(t6)
    2a48:	38462f83          	lw	t6,900(a2)
    2a4c:	002f8f93          	addi	t6,t6,2
    2a50:	002f9f93          	slli	t6,t6,0x2
    2a54:	01cf8fb3          	add	t6,t6,t3
    2a58:	012fa023          	sw	s2,0(t6)
    2a5c:	38462f83          	lw	t6,900(a2)
    2a60:	003f8f93          	addi	t6,t6,3
    2a64:	39f62223          	sw	t6,900(a2)
    2a68:	9a4fe06f          	j	c0c <benchmark_body+0xb7c>
    2a6c:	0045a403          	lw	s0,4(a1)
    2a70:	0105af83          	lw	t6,16(a1)
    2a74:	01f40463          	beq	s0,t6,2a7c <benchmark_body+0x29ec>
    2a78:	9b4fe06f          	j	c2c <benchmark_body+0xb9c>
    2a7c:	00c5af83          	lw	t6,12(a1)
    2a80:	0045a403          	lw	s0,4(a1)
    2a84:	008fc463          	blt	t6,s0,2a8c <benchmark_body+0x29fc>
    2a88:	9a4fe06f          	j	c2c <benchmark_body+0xb9c>
    2a8c:	3987a483          	lw	s1,920(a5)
    2a90:	008f8933          	add	s2,t6,s0
    2a94:	ffc48493          	addi	s1,s1,-4
    2a98:	3897ac23          	sw	s1,920(a5)
    2a9c:	38462483          	lw	s1,900(a2)
    2aa0:	00249493          	slli	s1,s1,0x2
    2aa4:	01c484b3          	add	s1,s1,t3
    2aa8:	01f4a023          	sw	t6,0(s1)
    2aac:	38462f83          	lw	t6,900(a2)
    2ab0:	001f8f93          	addi	t6,t6,1
    2ab4:	002f9f93          	slli	t6,t6,0x2
    2ab8:	01cf8fb3          	add	t6,t6,t3
    2abc:	008fa023          	sw	s0,0(t6)
    2ac0:	38462f83          	lw	t6,900(a2)
    2ac4:	002f8f93          	addi	t6,t6,2
    2ac8:	002f9f93          	slli	t6,t6,0x2
    2acc:	01cf8fb3          	add	t6,t6,t3
    2ad0:	012fa023          	sw	s2,0(t6)
    2ad4:	38462f83          	lw	t6,900(a2)
    2ad8:	003f8f93          	addi	t6,t6,3
    2adc:	39f62223          	sw	t6,900(a2)
    2ae0:	94cfe06f          	j	c2c <benchmark_body+0xb9c>
    2ae4:	0045a403          	lw	s0,4(a1)
    2ae8:	37082f83          	lw	t6,880(a6)
    2aec:	01f40463          	beq	s0,t6,2af4 <benchmark_body+0x2a64>
    2af0:	95cfe06f          	j	c4c <benchmark_body+0xbbc>
    2af4:	00c5af83          	lw	t6,12(a1)
    2af8:	0045a403          	lw	s0,4(a1)
    2afc:	008fc463          	blt	t6,s0,2b04 <benchmark_body+0x2a74>
    2b00:	94cfe06f          	j	c4c <benchmark_body+0xbbc>
    2b04:	0085a483          	lw	s1,8(a1)
    2b08:	008f8933          	add	s2,t6,s0
    2b0c:	36982823          	sw	s1,880(a6)
    2b10:	3987a483          	lw	s1,920(a5)
    2b14:	ffc48493          	addi	s1,s1,-4
    2b18:	3897ac23          	sw	s1,920(a5)
    2b1c:	38462483          	lw	s1,900(a2)
    2b20:	00249493          	slli	s1,s1,0x2
    2b24:	01c484b3          	add	s1,s1,t3
    2b28:	01f4a023          	sw	t6,0(s1)
    2b2c:	38462f83          	lw	t6,900(a2)
    2b30:	001f8f93          	addi	t6,t6,1
    2b34:	002f9f93          	slli	t6,t6,0x2
    2b38:	01cf8fb3          	add	t6,t6,t3
    2b3c:	008fa023          	sw	s0,0(t6)
    2b40:	38462f83          	lw	t6,900(a2)
    2b44:	002f8f93          	addi	t6,t6,2
    2b48:	002f9f93          	slli	t6,t6,0x2
    2b4c:	01cf8fb3          	add	t6,t6,t3
    2b50:	012fa023          	sw	s2,0(t6)
    2b54:	38462f83          	lw	t6,900(a2)
    2b58:	003f8f93          	addi	t6,t6,3
    2b5c:	39f62223          	sw	t6,900(a2)
    2b60:	8ecfe06f          	j	c4c <benchmark_body+0xbbc>
    2b64:	0045a403          	lw	s0,4(a1)
    2b68:	0085af83          	lw	t6,8(a1)
    2b6c:	01f40463          	beq	s0,t6,2b74 <benchmark_body+0x2ae4>
    2b70:	8fcfe06f          	j	c6c <benchmark_body+0xbdc>
    2b74:	00c5af83          	lw	t6,12(a1)
    2b78:	0045a403          	lw	s0,4(a1)
    2b7c:	008fc463          	blt	t6,s0,2b84 <benchmark_body+0x2af4>
    2b80:	8ecfe06f          	j	c6c <benchmark_body+0xbdc>
    2b84:	3987a483          	lw	s1,920(a5)
    2b88:	008f8933          	add	s2,t6,s0
    2b8c:	ffc48493          	addi	s1,s1,-4
    2b90:	3897ac23          	sw	s1,920(a5)
    2b94:	38462483          	lw	s1,900(a2)
    2b98:	00249493          	slli	s1,s1,0x2
    2b9c:	01c484b3          	add	s1,s1,t3
    2ba0:	01f4a023          	sw	t6,0(s1)
    2ba4:	38462f83          	lw	t6,900(a2)
    2ba8:	001f8f93          	addi	t6,t6,1
    2bac:	002f9f93          	slli	t6,t6,0x2
    2bb0:	01cf8fb3          	add	t6,t6,t3
    2bb4:	008fa023          	sw	s0,0(t6)
    2bb8:	38462f83          	lw	t6,900(a2)
    2bbc:	002f8f93          	addi	t6,t6,2
    2bc0:	002f9f93          	slli	t6,t6,0x2
    2bc4:	01cf8fb3          	add	t6,t6,t3
    2bc8:	012fa023          	sw	s2,0(t6)
    2bcc:	38462f83          	lw	t6,900(a2)
    2bd0:	003f8f93          	addi	t6,t6,3
    2bd4:	39f62223          	sw	t6,900(a2)
    2bd8:	894fe06f          	j	c6c <benchmark_body+0xbdc>
    2bdc:	0085a403          	lw	s0,8(a1)
    2be0:	0105af83          	lw	t6,16(a1)
    2be4:	01f40463          	beq	s0,t6,2bec <benchmark_body+0x2b5c>
    2be8:	8a4fe06f          	j	c8c <benchmark_body+0xbfc>
    2bec:	00c5af83          	lw	t6,12(a1)
    2bf0:	0085a403          	lw	s0,8(a1)
    2bf4:	008fc463          	blt	t6,s0,2bfc <benchmark_body+0x2b6c>
    2bf8:	894fe06f          	j	c8c <benchmark_body+0xbfc>
    2bfc:	0045a483          	lw	s1,4(a1)
    2c00:	008f8933          	add	s2,t6,s0
    2c04:	36982823          	sw	s1,880(a6)
    2c08:	3987a483          	lw	s1,920(a5)
    2c0c:	ffc48493          	addi	s1,s1,-4
    2c10:	3897ac23          	sw	s1,920(a5)
    2c14:	38462483          	lw	s1,900(a2)
    2c18:	00249493          	slli	s1,s1,0x2
    2c1c:	01c484b3          	add	s1,s1,t3
    2c20:	01f4a023          	sw	t6,0(s1)
    2c24:	38462f83          	lw	t6,900(a2)
    2c28:	001f8f93          	addi	t6,t6,1
    2c2c:	002f9f93          	slli	t6,t6,0x2
    2c30:	01cf8fb3          	add	t6,t6,t3
    2c34:	008fa023          	sw	s0,0(t6)
    2c38:	38462f83          	lw	t6,900(a2)
    2c3c:	002f8f93          	addi	t6,t6,2
    2c40:	002f9f93          	slli	t6,t6,0x2
    2c44:	01cf8fb3          	add	t6,t6,t3
    2c48:	012fa023          	sw	s2,0(t6)
    2c4c:	38462f83          	lw	t6,900(a2)
    2c50:	003f8f93          	addi	t6,t6,3
    2c54:	39f62223          	sw	t6,900(a2)
    2c58:	834fe06f          	j	c8c <benchmark_body+0xbfc>
    2c5c:	0085a403          	lw	s0,8(a1)
    2c60:	0105af83          	lw	t6,16(a1)
    2c64:	01f40463          	beq	s0,t6,2c6c <benchmark_body+0x2bdc>
    2c68:	844fe06f          	j	cac <benchmark_body+0xc1c>
    2c6c:	00c5af83          	lw	t6,12(a1)
    2c70:	0085a403          	lw	s0,8(a1)
    2c74:	008fc463          	blt	t6,s0,2c7c <benchmark_body+0x2bec>
    2c78:	834fe06f          	j	cac <benchmark_body+0xc1c>
    2c7c:	3987a483          	lw	s1,920(a5)
    2c80:	008f8933          	add	s2,t6,s0
    2c84:	ffc48493          	addi	s1,s1,-4
    2c88:	3897ac23          	sw	s1,920(a5)
    2c8c:	38462483          	lw	s1,900(a2)
    2c90:	00249493          	slli	s1,s1,0x2
    2c94:	01c484b3          	add	s1,s1,t3
    2c98:	01f4a023          	sw	t6,0(s1)
    2c9c:	38462f83          	lw	t6,900(a2)
    2ca0:	001f8f93          	addi	t6,t6,1
    2ca4:	002f9f93          	slli	t6,t6,0x2
    2ca8:	01cf8fb3          	add	t6,t6,t3
    2cac:	008fa023          	sw	s0,0(t6)
    2cb0:	38462f83          	lw	t6,900(a2)
    2cb4:	002f8f93          	addi	t6,t6,2
    2cb8:	002f9f93          	slli	t6,t6,0x2
    2cbc:	01cf8fb3          	add	t6,t6,t3
    2cc0:	012fa023          	sw	s2,0(t6)
    2cc4:	38462f83          	lw	t6,900(a2)
    2cc8:	003f8f93          	addi	t6,t6,3
    2ccc:	39f62223          	sw	t6,900(a2)
    2cd0:	fddfd06f          	j	cac <benchmark_body+0xc1c>
    2cd4:	0085a403          	lw	s0,8(a1)
    2cd8:	37082f83          	lw	t6,880(a6)
    2cdc:	01f40463          	beq	s0,t6,2ce4 <benchmark_body+0x2c54>
    2ce0:	fedfd06f          	j	ccc <benchmark_body+0xc3c>
    2ce4:	00c5af83          	lw	t6,12(a1)
    2ce8:	0085a403          	lw	s0,8(a1)
    2cec:	008fc463          	blt	t6,s0,2cf4 <benchmark_body+0x2c64>
    2cf0:	fddfd06f          	j	ccc <benchmark_body+0xc3c>
    2cf4:	0045a483          	lw	s1,4(a1)
    2cf8:	008f8933          	add	s2,t6,s0
    2cfc:	36982823          	sw	s1,880(a6)
    2d00:	3987a483          	lw	s1,920(a5)
    2d04:	ffc48493          	addi	s1,s1,-4
    2d08:	3897ac23          	sw	s1,920(a5)
    2d0c:	38462483          	lw	s1,900(a2)
    2d10:	00249493          	slli	s1,s1,0x2
    2d14:	01c484b3          	add	s1,s1,t3
    2d18:	01f4a023          	sw	t6,0(s1)
    2d1c:	38462f83          	lw	t6,900(a2)
    2d20:	001f8f93          	addi	t6,t6,1
    2d24:	002f9f93          	slli	t6,t6,0x2
    2d28:	01cf8fb3          	add	t6,t6,t3
    2d2c:	008fa023          	sw	s0,0(t6)
    2d30:	38462f83          	lw	t6,900(a2)
    2d34:	002f8f93          	addi	t6,t6,2
    2d38:	002f9f93          	slli	t6,t6,0x2
    2d3c:	01cf8fb3          	add	t6,t6,t3
    2d40:	012fa023          	sw	s2,0(t6)
    2d44:	38462f83          	lw	t6,900(a2)
    2d48:	003f8f93          	addi	t6,t6,3
    2d4c:	39f62223          	sw	t6,900(a2)
    2d50:	f7dfd06f          	j	ccc <benchmark_body+0xc3c>
    2d54:	0085a403          	lw	s0,8(a1)
    2d58:	0045af83          	lw	t6,4(a1)
    2d5c:	01f40463          	beq	s0,t6,2d64 <benchmark_body+0x2cd4>
    2d60:	f8dfd06f          	j	cec <benchmark_body+0xc5c>
    2d64:	00c5af83          	lw	t6,12(a1)
    2d68:	0085a403          	lw	s0,8(a1)
    2d6c:	008fc463          	blt	t6,s0,2d74 <benchmark_body+0x2ce4>
    2d70:	f7dfd06f          	j	cec <benchmark_body+0xc5c>
    2d74:	3987a483          	lw	s1,920(a5)
    2d78:	008f8933          	add	s2,t6,s0
    2d7c:	ffc48493          	addi	s1,s1,-4
    2d80:	3897ac23          	sw	s1,920(a5)
    2d84:	38462483          	lw	s1,900(a2)
    2d88:	00249493          	slli	s1,s1,0x2
    2d8c:	01c484b3          	add	s1,s1,t3
    2d90:	01f4a023          	sw	t6,0(s1)
    2d94:	38462f83          	lw	t6,900(a2)
    2d98:	001f8f93          	addi	t6,t6,1
    2d9c:	002f9f93          	slli	t6,t6,0x2
    2da0:	01cf8fb3          	add	t6,t6,t3
    2da4:	008fa023          	sw	s0,0(t6)
    2da8:	38462f83          	lw	t6,900(a2)
    2dac:	002f8f93          	addi	t6,t6,2
    2db0:	002f9f93          	slli	t6,t6,0x2
    2db4:	01cf8fb3          	add	t6,t6,t3
    2db8:	012fa023          	sw	s2,0(t6)
    2dbc:	38462f83          	lw	t6,900(a2)
    2dc0:	003f8f93          	addi	t6,t6,3
    2dc4:	39f62223          	sw	t6,900(a2)
    2dc8:	f25fd06f          	j	cec <benchmark_body+0xc5c>
    2dcc:	3642af83          	lw	t6,868(t0)
    2dd0:	004f2403          	lw	s0,4(t5)
    2dd4:	008fc463          	blt	t6,s0,2ddc <benchmark_body+0x2d4c>
    2dd8:	b34fd06f          	j	10c <benchmark_body+0x7c>
    2ddc:	39c8a483          	lw	s1,924(a7)
    2de0:	408f8933          	sub	s2,t6,s0
    2de4:	ffd48493          	addi	s1,s1,-3
    2de8:	3898ae23          	sw	s1,924(a7)
    2dec:	38462483          	lw	s1,900(a2)
    2df0:	00249493          	slli	s1,s1,0x2
    2df4:	01c484b3          	add	s1,s1,t3
    2df8:	01f4a023          	sw	t6,0(s1)
    2dfc:	38462f83          	lw	t6,900(a2)
    2e00:	001f8f93          	addi	t6,t6,1
    2e04:	002f9f93          	slli	t6,t6,0x2
    2e08:	01cf8fb3          	add	t6,t6,t3
    2e0c:	008fa023          	sw	s0,0(t6)
    2e10:	38462f83          	lw	t6,900(a2)
    2e14:	002f8f93          	addi	t6,t6,2
    2e18:	002f9f93          	slli	t6,t6,0x2
    2e1c:	01cf8fb3          	add	t6,t6,t3
    2e20:	012fa023          	sw	s2,0(t6)
    2e24:	38462f83          	lw	t6,900(a2)
    2e28:	003f8f93          	addi	t6,t6,3
    2e2c:	39f62223          	sw	t6,900(a2)
    2e30:	adcfd06f          	j	10c <benchmark_body+0x7c>
    2e34:	3642af83          	lw	t6,868(t0)
    2e38:	008f2403          	lw	s0,8(t5)
    2e3c:	008fc463          	blt	t6,s0,2e44 <benchmark_body+0x2db4>
    2e40:	aecfd06f          	j	12c <benchmark_body+0x9c>
    2e44:	39c8a483          	lw	s1,924(a7)
    2e48:	408f8933          	sub	s2,t6,s0
    2e4c:	ffd48493          	addi	s1,s1,-3
    2e50:	3898ae23          	sw	s1,924(a7)
    2e54:	38462483          	lw	s1,900(a2)
    2e58:	00249493          	slli	s1,s1,0x2
    2e5c:	01c484b3          	add	s1,s1,t3
    2e60:	01f4a023          	sw	t6,0(s1)
    2e64:	38462f83          	lw	t6,900(a2)
    2e68:	001f8f93          	addi	t6,t6,1
    2e6c:	002f9f93          	slli	t6,t6,0x2
    2e70:	01cf8fb3          	add	t6,t6,t3
    2e74:	008fa023          	sw	s0,0(t6)
    2e78:	38462f83          	lw	t6,900(a2)
    2e7c:	002f8f93          	addi	t6,t6,2
    2e80:	002f9f93          	slli	t6,t6,0x2
    2e84:	01cf8fb3          	add	t6,t6,t3
    2e88:	012fa023          	sw	s2,0(t6)
    2e8c:	38462f83          	lw	t6,900(a2)
    2e90:	003f8f93          	addi	t6,t6,3
    2e94:	39f62223          	sw	t6,900(a2)
    2e98:	a94fd06f          	j	12c <benchmark_body+0x9c>
    2e9c:	004f2f83          	lw	t6,4(t5)
    2ea0:	3642a403          	lw	s0,868(t0)
    2ea4:	008fc463          	blt	t6,s0,2eac <benchmark_body+0x2e1c>
    2ea8:	aa4fd06f          	j	14c <benchmark_body+0xbc>
    2eac:	39c8a483          	lw	s1,924(a7)
    2eb0:	408f8933          	sub	s2,t6,s0
    2eb4:	ffd48493          	addi	s1,s1,-3
    2eb8:	3898ae23          	sw	s1,924(a7)
    2ebc:	38462483          	lw	s1,900(a2)
    2ec0:	00249493          	slli	s1,s1,0x2
    2ec4:	01c484b3          	add	s1,s1,t3
    2ec8:	01f4a023          	sw	t6,0(s1)
    2ecc:	38462f83          	lw	t6,900(a2)
    2ed0:	001f8f93          	addi	t6,t6,1
    2ed4:	002f9f93          	slli	t6,t6,0x2
    2ed8:	01cf8fb3          	add	t6,t6,t3
    2edc:	008fa023          	sw	s0,0(t6)
    2ee0:	38462f83          	lw	t6,900(a2)
    2ee4:	002f8f93          	addi	t6,t6,2
    2ee8:	002f9f93          	slli	t6,t6,0x2
    2eec:	01cf8fb3          	add	t6,t6,t3
    2ef0:	012fa023          	sw	s2,0(t6)
    2ef4:	38462f83          	lw	t6,900(a2)
    2ef8:	003f8f93          	addi	t6,t6,3
    2efc:	39f62223          	sw	t6,900(a2)
    2f00:	a4cfd06f          	j	14c <benchmark_body+0xbc>
    2f04:	004f2f83          	lw	t6,4(t5)
    2f08:	008f2403          	lw	s0,8(t5)
    2f0c:	008fc463          	blt	t6,s0,2f14 <benchmark_body+0x2e84>
    2f10:	a5cfd06f          	j	16c <benchmark_body+0xdc>
    2f14:	39c8a483          	lw	s1,924(a7)
    2f18:	408f8933          	sub	s2,t6,s0
    2f1c:	ffd48493          	addi	s1,s1,-3
    2f20:	3898ae23          	sw	s1,924(a7)
    2f24:	38462483          	lw	s1,900(a2)
    2f28:	00249493          	slli	s1,s1,0x2
    2f2c:	01c484b3          	add	s1,s1,t3
    2f30:	01f4a023          	sw	t6,0(s1)
    2f34:	38462f83          	lw	t6,900(a2)
    2f38:	001f8f93          	addi	t6,t6,1
    2f3c:	002f9f93          	slli	t6,t6,0x2
    2f40:	01cf8fb3          	add	t6,t6,t3
    2f44:	008fa023          	sw	s0,0(t6)
    2f48:	38462f83          	lw	t6,900(a2)
    2f4c:	002f8f93          	addi	t6,t6,2
    2f50:	002f9f93          	slli	t6,t6,0x2
    2f54:	01cf8fb3          	add	t6,t6,t3
    2f58:	012fa023          	sw	s2,0(t6)
    2f5c:	38462f83          	lw	t6,900(a2)
    2f60:	003f8f93          	addi	t6,t6,3
    2f64:	39f62223          	sw	t6,900(a2)
    2f68:	a04fd06f          	j	16c <benchmark_body+0xdc>
    2f6c:	008f2f83          	lw	t6,8(t5)
    2f70:	3642a403          	lw	s0,868(t0)
    2f74:	008fc463          	blt	t6,s0,2f7c <benchmark_body+0x2eec>
    2f78:	a14fd06f          	j	18c <benchmark_body+0xfc>
    2f7c:	39c8a483          	lw	s1,924(a7)
    2f80:	408f8933          	sub	s2,t6,s0
    2f84:	ffd48493          	addi	s1,s1,-3
    2f88:	3898ae23          	sw	s1,924(a7)
    2f8c:	38462483          	lw	s1,900(a2)
    2f90:	00249493          	slli	s1,s1,0x2
    2f94:	01c484b3          	add	s1,s1,t3
    2f98:	01f4a023          	sw	t6,0(s1)
    2f9c:	38462f83          	lw	t6,900(a2)
    2fa0:	001f8f93          	addi	t6,t6,1
    2fa4:	002f9f93          	slli	t6,t6,0x2
    2fa8:	01cf8fb3          	add	t6,t6,t3
    2fac:	008fa023          	sw	s0,0(t6)
    2fb0:	38462f83          	lw	t6,900(a2)
    2fb4:	002f8f93          	addi	t6,t6,2
    2fb8:	002f9f93          	slli	t6,t6,0x2
    2fbc:	01cf8fb3          	add	t6,t6,t3
    2fc0:	012fa023          	sw	s2,0(t6)
    2fc4:	38462f83          	lw	t6,900(a2)
    2fc8:	003f8f93          	addi	t6,t6,3
    2fcc:	39f62223          	sw	t6,900(a2)
    2fd0:	9bcfd06f          	j	18c <benchmark_body+0xfc>
    2fd4:	008f2f83          	lw	t6,8(t5)
    2fd8:	004f2403          	lw	s0,4(t5)
    2fdc:	008fc463          	blt	t6,s0,2fe4 <benchmark_body+0x2f54>
    2fe0:	9ccfd06f          	j	1ac <benchmark_body+0x11c>
    2fe4:	39c8a483          	lw	s1,924(a7)
    2fe8:	408f8933          	sub	s2,t6,s0
    2fec:	ffd48493          	addi	s1,s1,-3
    2ff0:	3898ae23          	sw	s1,924(a7)
    2ff4:	38462483          	lw	s1,900(a2)
    2ff8:	00249493          	slli	s1,s1,0x2
    2ffc:	01c484b3          	add	s1,s1,t3
    3000:	01f4a023          	sw	t6,0(s1)
    3004:	38462f83          	lw	t6,900(a2)
    3008:	001f8f93          	addi	t6,t6,1
    300c:	002f9f93          	slli	t6,t6,0x2
    3010:	01cf8fb3          	add	t6,t6,t3
    3014:	008fa023          	sw	s0,0(t6)
    3018:	38462f83          	lw	t6,900(a2)
    301c:	002f8f93          	addi	t6,t6,2
    3020:	002f9f93          	slli	t6,t6,0x2
    3024:	01cf8fb3          	add	t6,t6,t3
    3028:	012fa023          	sw	s2,0(t6)
    302c:	38462f83          	lw	t6,900(a2)
    3030:	003f8f93          	addi	t6,t6,3
    3034:	39f62223          	sw	t6,900(a2)
    3038:	974fd06f          	j	1ac <benchmark_body+0x11c>
    303c:	0045a403          	lw	s0,4(a1)
    3040:	00c5af83          	lw	t6,12(a1)
    3044:	01f40463          	beq	s0,t6,304c <benchmark_body+0x2fbc>
    3048:	984fd06f          	j	1cc <benchmark_body+0x13c>
    304c:	37082f83          	lw	t6,880(a6)
    3050:	0045a403          	lw	s0,4(a1)
    3054:	008fc463          	blt	t6,s0,305c <benchmark_body+0x2fcc>
    3058:	974fd06f          	j	1cc <benchmark_body+0x13c>
    305c:	3987a483          	lw	s1,920(a5)
    3060:	008f8933          	add	s2,t6,s0
    3064:	ffc48493          	addi	s1,s1,-4
    3068:	3897ac23          	sw	s1,920(a5)
    306c:	38462483          	lw	s1,900(a2)
    3070:	00249493          	slli	s1,s1,0x2
    3074:	01c484b3          	add	s1,s1,t3
    3078:	01f4a023          	sw	t6,0(s1)
    307c:	38462f83          	lw	t6,900(a2)
    3080:	001f8f93          	addi	t6,t6,1
    3084:	002f9f93          	slli	t6,t6,0x2
    3088:	01cf8fb3          	add	t6,t6,t3
    308c:	008fa023          	sw	s0,0(t6)
    3090:	38462f83          	lw	t6,900(a2)
    3094:	002f8f93          	addi	t6,t6,2
    3098:	002f9f93          	slli	t6,t6,0x2
    309c:	01cf8fb3          	add	t6,t6,t3
    30a0:	012fa023          	sw	s2,0(t6)
    30a4:	38462f83          	lw	t6,900(a2)
    30a8:	003f8f93          	addi	t6,t6,3
    30ac:	39f62223          	sw	t6,900(a2)
    30b0:	91cfd06f          	j	1cc <benchmark_body+0x13c>
    30b4:	0045a403          	lw	s0,4(a1)
    30b8:	0085af83          	lw	t6,8(a1)
    30bc:	01f40463          	beq	s0,t6,30c4 <benchmark_body+0x3034>
    30c0:	92cfd06f          	j	1ec <benchmark_body+0x15c>
    30c4:	37082f83          	lw	t6,880(a6)
    30c8:	0045a403          	lw	s0,4(a1)
    30cc:	008fc463          	blt	t6,s0,30d4 <benchmark_body+0x3044>
    30d0:	91cfd06f          	j	1ec <benchmark_body+0x15c>
    30d4:	3987a483          	lw	s1,920(a5)
    30d8:	008f8933          	add	s2,t6,s0
    30dc:	ffc48493          	addi	s1,s1,-4
    30e0:	3897ac23          	sw	s1,920(a5)
    30e4:	38462483          	lw	s1,900(a2)
    30e8:	00249493          	slli	s1,s1,0x2
    30ec:	01c484b3          	add	s1,s1,t3
    30f0:	01f4a023          	sw	t6,0(s1)
    30f4:	38462f83          	lw	t6,900(a2)
    30f8:	001f8f93          	addi	t6,t6,1
    30fc:	002f9f93          	slli	t6,t6,0x2
    3100:	01cf8fb3          	add	t6,t6,t3
    3104:	008fa023          	sw	s0,0(t6)
    3108:	38462f83          	lw	t6,900(a2)
    310c:	002f8f93          	addi	t6,t6,2
    3110:	002f9f93          	slli	t6,t6,0x2
    3114:	01cf8fb3          	add	t6,t6,t3
    3118:	012fa023          	sw	s2,0(t6)
    311c:	38462f83          	lw	t6,900(a2)
    3120:	003f8f93          	addi	t6,t6,3
    3124:	39f62223          	sw	t6,900(a2)
    3128:	8c4fd06f          	j	1ec <benchmark_body+0x15c>
    312c:	0085a403          	lw	s0,8(a1)
    3130:	00c5af83          	lw	t6,12(a1)
    3134:	01f40463          	beq	s0,t6,313c <benchmark_body+0x30ac>
    3138:	8d4fd06f          	j	20c <benchmark_body+0x17c>
    313c:	37082f83          	lw	t6,880(a6)
    3140:	0085a403          	lw	s0,8(a1)
    3144:	008fc463          	blt	t6,s0,314c <benchmark_body+0x30bc>
    3148:	8c4fd06f          	j	20c <benchmark_body+0x17c>
    314c:	3987a483          	lw	s1,920(a5)
    3150:	008f8933          	add	s2,t6,s0
    3154:	ffc48493          	addi	s1,s1,-4
    3158:	3897ac23          	sw	s1,920(a5)
    315c:	38462483          	lw	s1,900(a2)
    3160:	00249493          	slli	s1,s1,0x2
    3164:	01c484b3          	add	s1,s1,t3
    3168:	01f4a023          	sw	t6,0(s1)
    316c:	38462f83          	lw	t6,900(a2)
    3170:	001f8f93          	addi	t6,t6,1
    3174:	002f9f93          	slli	t6,t6,0x2
    3178:	01cf8fb3          	add	t6,t6,t3
    317c:	008fa023          	sw	s0,0(t6)
    3180:	38462f83          	lw	t6,900(a2)
    3184:	002f8f93          	addi	t6,t6,2
    3188:	002f9f93          	slli	t6,t6,0x2
    318c:	01cf8fb3          	add	t6,t6,t3
    3190:	012fa023          	sw	s2,0(t6)
    3194:	38462f83          	lw	t6,900(a2)
    3198:	003f8f93          	addi	t6,t6,3
    319c:	39f62223          	sw	t6,900(a2)
    31a0:	86cfd06f          	j	20c <benchmark_body+0x17c>
    31a4:	0085a403          	lw	s0,8(a1)
    31a8:	0045af83          	lw	t6,4(a1)
    31ac:	01f40463          	beq	s0,t6,31b4 <benchmark_body+0x3124>
    31b0:	87cfd06f          	j	22c <benchmark_body+0x19c>
    31b4:	37082f83          	lw	t6,880(a6)
    31b8:	0085a403          	lw	s0,8(a1)
    31bc:	008fc463          	blt	t6,s0,31c4 <benchmark_body+0x3134>
    31c0:	86cfd06f          	j	22c <benchmark_body+0x19c>
    31c4:	3987a483          	lw	s1,920(a5)
    31c8:	008f8933          	add	s2,t6,s0
    31cc:	ffc48493          	addi	s1,s1,-4
    31d0:	3897ac23          	sw	s1,920(a5)
    31d4:	38462483          	lw	s1,900(a2)
    31d8:	00249493          	slli	s1,s1,0x2
    31dc:	01c484b3          	add	s1,s1,t3
    31e0:	01f4a023          	sw	t6,0(s1)
    31e4:	38462f83          	lw	t6,900(a2)
    31e8:	001f8f93          	addi	t6,t6,1
    31ec:	002f9f93          	slli	t6,t6,0x2
    31f0:	01cf8fb3          	add	t6,t6,t3
    31f4:	008fa023          	sw	s0,0(t6)
    31f8:	38462f83          	lw	t6,900(a2)
    31fc:	002f8f93          	addi	t6,t6,2
    3200:	002f9f93          	slli	t6,t6,0x2
    3204:	01cf8fb3          	add	t6,t6,t3
    3208:	012fa023          	sw	s2,0(t6)
    320c:	38462f83          	lw	t6,900(a2)
    3210:	003f8f93          	addi	t6,t6,3
    3214:	39f62223          	sw	t6,900(a2)
    3218:	814fd06f          	j	22c <benchmark_body+0x19c>
    321c:	00c5a403          	lw	s0,12(a1)
    3220:	0085af83          	lw	t6,8(a1)
    3224:	01f40463          	beq	s0,t6,322c <benchmark_body+0x319c>
    3228:	824fd06f          	j	24c <benchmark_body+0x1bc>
    322c:	37082f83          	lw	t6,880(a6)
    3230:	00c5a403          	lw	s0,12(a1)
    3234:	008fc463          	blt	t6,s0,323c <benchmark_body+0x31ac>
    3238:	814fd06f          	j	24c <benchmark_body+0x1bc>
    323c:	3987a483          	lw	s1,920(a5)
    3240:	008f8933          	add	s2,t6,s0
    3244:	ffc48493          	addi	s1,s1,-4
    3248:	3897ac23          	sw	s1,920(a5)
    324c:	38462483          	lw	s1,900(a2)
    3250:	00249493          	slli	s1,s1,0x2
    3254:	01c484b3          	add	s1,s1,t3
    3258:	01f4a023          	sw	t6,0(s1)
    325c:	38462f83          	lw	t6,900(a2)
    3260:	001f8f93          	addi	t6,t6,1
    3264:	002f9f93          	slli	t6,t6,0x2
    3268:	01cf8fb3          	add	t6,t6,t3
    326c:	008fa023          	sw	s0,0(t6)
    3270:	38462f83          	lw	t6,900(a2)
    3274:	002f8f93          	addi	t6,t6,2
    3278:	002f9f93          	slli	t6,t6,0x2
    327c:	01cf8fb3          	add	t6,t6,t3
    3280:	012fa023          	sw	s2,0(t6)
    3284:	38462f83          	lw	t6,900(a2)
    3288:	003f8f93          	addi	t6,t6,3
    328c:	39f62223          	sw	t6,900(a2)
    3290:	fbdfc06f          	j	24c <benchmark_body+0x1bc>
    3294:	00c5a403          	lw	s0,12(a1)
    3298:	0045af83          	lw	t6,4(a1)
    329c:	01f40463          	beq	s0,t6,32a4 <benchmark_body+0x3214>
    32a0:	fcdfc06f          	j	26c <benchmark_body+0x1dc>
    32a4:	37082f83          	lw	t6,880(a6)
    32a8:	00c5a403          	lw	s0,12(a1)
    32ac:	008fc463          	blt	t6,s0,32b4 <benchmark_body+0x3224>
    32b0:	fbdfc06f          	j	26c <benchmark_body+0x1dc>
    32b4:	3987a483          	lw	s1,920(a5)
    32b8:	008f8933          	add	s2,t6,s0
    32bc:	ffc48493          	addi	s1,s1,-4
    32c0:	3897ac23          	sw	s1,920(a5)
    32c4:	38462483          	lw	s1,900(a2)
    32c8:	00249493          	slli	s1,s1,0x2
    32cc:	01c484b3          	add	s1,s1,t3
    32d0:	01f4a023          	sw	t6,0(s1)
    32d4:	38462f83          	lw	t6,900(a2)
    32d8:	001f8f93          	addi	t6,t6,1
    32dc:	002f9f93          	slli	t6,t6,0x2
    32e0:	01cf8fb3          	add	t6,t6,t3
    32e4:	008fa023          	sw	s0,0(t6)
    32e8:	38462f83          	lw	t6,900(a2)
    32ec:	002f8f93          	addi	t6,t6,2
    32f0:	002f9f93          	slli	t6,t6,0x2
    32f4:	01cf8fb3          	add	t6,t6,t3
    32f8:	012fa023          	sw	s2,0(t6)
    32fc:	38462f83          	lw	t6,900(a2)
    3300:	003f8f93          	addi	t6,t6,3
    3304:	39f62223          	sw	t6,900(a2)
    3308:	f65fc06f          	j	26c <benchmark_body+0x1dc>
    330c:	37082403          	lw	s0,880(a6)
    3310:	00c5af83          	lw	t6,12(a1)
    3314:	01f40463          	beq	s0,t6,331c <benchmark_body+0x328c>
    3318:	f75fc06f          	j	28c <benchmark_body+0x1fc>
    331c:	0045af83          	lw	t6,4(a1)
    3320:	37082403          	lw	s0,880(a6)
    3324:	008fc463          	blt	t6,s0,332c <benchmark_body+0x329c>
    3328:	f65fc06f          	j	28c <benchmark_body+0x1fc>
    332c:	3987a483          	lw	s1,920(a5)
    3330:	008f8933          	add	s2,t6,s0
    3334:	ffc48493          	addi	s1,s1,-4
    3338:	3897ac23          	sw	s1,920(a5)
    333c:	38462483          	lw	s1,900(a2)
    3340:	00249493          	slli	s1,s1,0x2
    3344:	01c484b3          	add	s1,s1,t3
    3348:	01f4a023          	sw	t6,0(s1)
    334c:	38462f83          	lw	t6,900(a2)
    3350:	001f8f93          	addi	t6,t6,1
    3354:	002f9f93          	slli	t6,t6,0x2
    3358:	01cf8fb3          	add	t6,t6,t3
    335c:	008fa023          	sw	s0,0(t6)
    3360:	38462f83          	lw	t6,900(a2)
    3364:	002f8f93          	addi	t6,t6,2
    3368:	002f9f93          	slli	t6,t6,0x2
    336c:	01cf8fb3          	add	t6,t6,t3
    3370:	012fa023          	sw	s2,0(t6)
    3374:	38462f83          	lw	t6,900(a2)
    3378:	003f8f93          	addi	t6,t6,3
    337c:	39f62223          	sw	t6,900(a2)
    3380:	f0dfc06f          	j	28c <benchmark_body+0x1fc>
    3384:	37082403          	lw	s0,880(a6)
    3388:	0085af83          	lw	t6,8(a1)
    338c:	01f40463          	beq	s0,t6,3394 <benchmark_body+0x3304>
    3390:	f1dfc06f          	j	2ac <benchmark_body+0x21c>
    3394:	0045af83          	lw	t6,4(a1)
    3398:	37082403          	lw	s0,880(a6)
    339c:	008fc463          	blt	t6,s0,33a4 <benchmark_body+0x3314>
    33a0:	f0dfc06f          	j	2ac <benchmark_body+0x21c>
    33a4:	3987a483          	lw	s1,920(a5)
    33a8:	008f8933          	add	s2,t6,s0
    33ac:	ffc48493          	addi	s1,s1,-4
    33b0:	3897ac23          	sw	s1,920(a5)
    33b4:	38462483          	lw	s1,900(a2)
    33b8:	00249493          	slli	s1,s1,0x2
    33bc:	01c484b3          	add	s1,s1,t3
    33c0:	01f4a023          	sw	t6,0(s1)
    33c4:	38462f83          	lw	t6,900(a2)
    33c8:	001f8f93          	addi	t6,t6,1
    33cc:	002f9f93          	slli	t6,t6,0x2
    33d0:	01cf8fb3          	add	t6,t6,t3
    33d4:	008fa023          	sw	s0,0(t6)
    33d8:	38462f83          	lw	t6,900(a2)
    33dc:	002f8f93          	addi	t6,t6,2
    33e0:	002f9f93          	slli	t6,t6,0x2
    33e4:	01cf8fb3          	add	t6,t6,t3
    33e8:	012fa023          	sw	s2,0(t6)
    33ec:	38462f83          	lw	t6,900(a2)
    33f0:	003f8f93          	addi	t6,t6,3
    33f4:	39f62223          	sw	t6,900(a2)
    33f8:	eb5fc06f          	j	2ac <benchmark_body+0x21c>
    33fc:	0085a403          	lw	s0,8(a1)
    3400:	00c5af83          	lw	t6,12(a1)
    3404:	01f40463          	beq	s0,t6,340c <benchmark_body+0x337c>
    3408:	ec5fc06f          	j	2cc <benchmark_body+0x23c>
    340c:	0045af83          	lw	t6,4(a1)
    3410:	0085a403          	lw	s0,8(a1)
    3414:	008fc463          	blt	t6,s0,341c <benchmark_body+0x338c>
    3418:	eb5fc06f          	j	2cc <benchmark_body+0x23c>
    341c:	3987a483          	lw	s1,920(a5)
    3420:	008f8933          	add	s2,t6,s0
    3424:	ffc48493          	addi	s1,s1,-4
    3428:	3897ac23          	sw	s1,920(a5)
    342c:	38462483          	lw	s1,900(a2)
    3430:	00249493          	slli	s1,s1,0x2
    3434:	01c484b3          	add	s1,s1,t3
    3438:	01f4a023          	sw	t6,0(s1)
    343c:	38462f83          	lw	t6,900(a2)
    3440:	001f8f93          	addi	t6,t6,1
    3444:	002f9f93          	slli	t6,t6,0x2
    3448:	01cf8fb3          	add	t6,t6,t3
    344c:	008fa023          	sw	s0,0(t6)
    3450:	38462f83          	lw	t6,900(a2)
    3454:	002f8f93          	addi	t6,t6,2
    3458:	002f9f93          	slli	t6,t6,0x2
    345c:	01cf8fb3          	add	t6,t6,t3
    3460:	012fa023          	sw	s2,0(t6)
    3464:	38462f83          	lw	t6,900(a2)
    3468:	003f8f93          	addi	t6,t6,3
    346c:	39f62223          	sw	t6,900(a2)
    3470:	e5dfc06f          	j	2cc <benchmark_body+0x23c>
    3474:	0085a403          	lw	s0,8(a1)
    3478:	37082f83          	lw	t6,880(a6)
    347c:	01f40463          	beq	s0,t6,3484 <benchmark_body+0x33f4>
    3480:	e6dfc06f          	j	2ec <benchmark_body+0x25c>
    3484:	0045af83          	lw	t6,4(a1)
    3488:	0085a403          	lw	s0,8(a1)
    348c:	008fc463          	blt	t6,s0,3494 <benchmark_body+0x3404>
    3490:	e5dfc06f          	j	2ec <benchmark_body+0x25c>
    3494:	3987a483          	lw	s1,920(a5)
    3498:	008f8933          	add	s2,t6,s0
    349c:	ffc48493          	addi	s1,s1,-4
    34a0:	3897ac23          	sw	s1,920(a5)
    34a4:	38462483          	lw	s1,900(a2)
    34a8:	00249493          	slli	s1,s1,0x2
    34ac:	01c484b3          	add	s1,s1,t3
    34b0:	01f4a023          	sw	t6,0(s1)
    34b4:	38462f83          	lw	t6,900(a2)
    34b8:	001f8f93          	addi	t6,t6,1
    34bc:	002f9f93          	slli	t6,t6,0x2
    34c0:	01cf8fb3          	add	t6,t6,t3
    34c4:	008fa023          	sw	s0,0(t6)
    34c8:	38462f83          	lw	t6,900(a2)
    34cc:	002f8f93          	addi	t6,t6,2
    34d0:	002f9f93          	slli	t6,t6,0x2
    34d4:	01cf8fb3          	add	t6,t6,t3
    34d8:	012fa023          	sw	s2,0(t6)
    34dc:	38462f83          	lw	t6,900(a2)
    34e0:	003f8f93          	addi	t6,t6,3
    34e4:	39f62223          	sw	t6,900(a2)
    34e8:	e05fc06f          	j	2ec <benchmark_body+0x25c>
    34ec:	00c5a403          	lw	s0,12(a1)
    34f0:	0085af83          	lw	t6,8(a1)
    34f4:	01f40463          	beq	s0,t6,34fc <benchmark_body+0x346c>
    34f8:	e15fc06f          	j	30c <benchmark_body+0x27c>
    34fc:	0045af83          	lw	t6,4(a1)
    3500:	00c5a403          	lw	s0,12(a1)
    3504:	008fc463          	blt	t6,s0,350c <benchmark_body+0x347c>
    3508:	e05fc06f          	j	30c <benchmark_body+0x27c>
    350c:	3987a483          	lw	s1,920(a5)
    3510:	008f8933          	add	s2,t6,s0
    3514:	ffc48493          	addi	s1,s1,-4
    3518:	3897ac23          	sw	s1,920(a5)
    351c:	38462483          	lw	s1,900(a2)
    3520:	00249493          	slli	s1,s1,0x2
    3524:	01c484b3          	add	s1,s1,t3
    3528:	01f4a023          	sw	t6,0(s1)
    352c:	38462f83          	lw	t6,900(a2)
    3530:	001f8f93          	addi	t6,t6,1
    3534:	002f9f93          	slli	t6,t6,0x2
    3538:	01cf8fb3          	add	t6,t6,t3
    353c:	008fa023          	sw	s0,0(t6)
    3540:	38462f83          	lw	t6,900(a2)
    3544:	002f8f93          	addi	t6,t6,2
    3548:	002f9f93          	slli	t6,t6,0x2
    354c:	01cf8fb3          	add	t6,t6,t3
    3550:	012fa023          	sw	s2,0(t6)
    3554:	38462f83          	lw	t6,900(a2)
    3558:	003f8f93          	addi	t6,t6,3
    355c:	39f62223          	sw	t6,900(a2)
    3560:	dadfc06f          	j	30c <benchmark_body+0x27c>
    3564:	00c5a403          	lw	s0,12(a1)
    3568:	37082f83          	lw	t6,880(a6)
    356c:	01f40463          	beq	s0,t6,3574 <benchmark_body+0x34e4>
    3570:	dbdfc06f          	j	32c <benchmark_body+0x29c>
    3574:	0045af83          	lw	t6,4(a1)
    3578:	00c5a403          	lw	s0,12(a1)
    357c:	008fc463          	blt	t6,s0,3584 <benchmark_body+0x34f4>
    3580:	dadfc06f          	j	32c <benchmark_body+0x29c>
    3584:	3987a483          	lw	s1,920(a5)
    3588:	008f8933          	add	s2,t6,s0
    358c:	ffc48493          	addi	s1,s1,-4
    3590:	3897ac23          	sw	s1,920(a5)
    3594:	38462483          	lw	s1,900(a2)
    3598:	00249493          	slli	s1,s1,0x2
    359c:	01c484b3          	add	s1,s1,t3
    35a0:	01f4a023          	sw	t6,0(s1)
    35a4:	38462f83          	lw	t6,900(a2)
    35a8:	001f8f93          	addi	t6,t6,1
    35ac:	002f9f93          	slli	t6,t6,0x2
    35b0:	01cf8fb3          	add	t6,t6,t3
    35b4:	008fa023          	sw	s0,0(t6)
    35b8:	38462f83          	lw	t6,900(a2)
    35bc:	002f8f93          	addi	t6,t6,2
    35c0:	002f9f93          	slli	t6,t6,0x2
    35c4:	01cf8fb3          	add	t6,t6,t3
    35c8:	012fa023          	sw	s2,0(t6)
    35cc:	38462f83          	lw	t6,900(a2)
    35d0:	003f8f93          	addi	t6,t6,3
    35d4:	39f62223          	sw	t6,900(a2)
    35d8:	d55fc06f          	j	32c <benchmark_body+0x29c>
    35dc:	37082403          	lw	s0,880(a6)
    35e0:	00c5af83          	lw	t6,12(a1)
    35e4:	01f40463          	beq	s0,t6,35ec <benchmark_body+0x355c>
    35e8:	d65fc06f          	j	34c <benchmark_body+0x2bc>
    35ec:	0085af83          	lw	t6,8(a1)
    35f0:	37082403          	lw	s0,880(a6)
    35f4:	008fc463          	blt	t6,s0,35fc <benchmark_body+0x356c>
    35f8:	d55fc06f          	j	34c <benchmark_body+0x2bc>
    35fc:	3987a483          	lw	s1,920(a5)
    3600:	008f8933          	add	s2,t6,s0
    3604:	ffc48493          	addi	s1,s1,-4
    3608:	3897ac23          	sw	s1,920(a5)
    360c:	38462483          	lw	s1,900(a2)
    3610:	00249493          	slli	s1,s1,0x2
    3614:	01c484b3          	add	s1,s1,t3
    3618:	01f4a023          	sw	t6,0(s1)
    361c:	38462f83          	lw	t6,900(a2)
    3620:	001f8f93          	addi	t6,t6,1
    3624:	002f9f93          	slli	t6,t6,0x2
    3628:	01cf8fb3          	add	t6,t6,t3
    362c:	008fa023          	sw	s0,0(t6)
    3630:	38462f83          	lw	t6,900(a2)
    3634:	002f8f93          	addi	t6,t6,2
    3638:	002f9f93          	slli	t6,t6,0x2
    363c:	01cf8fb3          	add	t6,t6,t3
    3640:	012fa023          	sw	s2,0(t6)
    3644:	38462f83          	lw	t6,900(a2)
    3648:	003f8f93          	addi	t6,t6,3
    364c:	39f62223          	sw	t6,900(a2)
    3650:	cfdfc06f          	j	34c <benchmark_body+0x2bc>
    3654:	37082403          	lw	s0,880(a6)
    3658:	0045af83          	lw	t6,4(a1)
    365c:	01f40463          	beq	s0,t6,3664 <benchmark_body+0x35d4>
    3660:	d0dfc06f          	j	36c <benchmark_body+0x2dc>
    3664:	0085af83          	lw	t6,8(a1)
    3668:	37082403          	lw	s0,880(a6)
    366c:	008fc463          	blt	t6,s0,3674 <benchmark_body+0x35e4>
    3670:	cfdfc06f          	j	36c <benchmark_body+0x2dc>
    3674:	3987a483          	lw	s1,920(a5)
    3678:	008f8933          	add	s2,t6,s0
    367c:	ffc48493          	addi	s1,s1,-4
    3680:	3897ac23          	sw	s1,920(a5)
    3684:	38462483          	lw	s1,900(a2)
    3688:	00249493          	slli	s1,s1,0x2
    368c:	01c484b3          	add	s1,s1,t3
    3690:	01f4a023          	sw	t6,0(s1)
    3694:	38462f83          	lw	t6,900(a2)
    3698:	001f8f93          	addi	t6,t6,1
    369c:	002f9f93          	slli	t6,t6,0x2
    36a0:	01cf8fb3          	add	t6,t6,t3
    36a4:	008fa023          	sw	s0,0(t6)
    36a8:	38462f83          	lw	t6,900(a2)
    36ac:	002f8f93          	addi	t6,t6,2
    36b0:	002f9f93          	slli	t6,t6,0x2
    36b4:	01cf8fb3          	add	t6,t6,t3
    36b8:	012fa023          	sw	s2,0(t6)
    36bc:	38462f83          	lw	t6,900(a2)
    36c0:	003f8f93          	addi	t6,t6,3
    36c4:	39f62223          	sw	t6,900(a2)
    36c8:	ca5fc06f          	j	36c <benchmark_body+0x2dc>
    36cc:	0045a403          	lw	s0,4(a1)
    36d0:	00c5af83          	lw	t6,12(a1)
    36d4:	01f40463          	beq	s0,t6,36dc <benchmark_body+0x364c>
    36d8:	cb5fc06f          	j	38c <benchmark_body+0x2fc>
    36dc:	0085af83          	lw	t6,8(a1)
    36e0:	0045a403          	lw	s0,4(a1)
    36e4:	008fc463          	blt	t6,s0,36ec <benchmark_body+0x365c>
    36e8:	ca5fc06f          	j	38c <benchmark_body+0x2fc>
    36ec:	3987a483          	lw	s1,920(a5)
    36f0:	008f8933          	add	s2,t6,s0
    36f4:	ffc48493          	addi	s1,s1,-4
    36f8:	3897ac23          	sw	s1,920(a5)
    36fc:	38462483          	lw	s1,900(a2)
    3700:	00249493          	slli	s1,s1,0x2
    3704:	01c484b3          	add	s1,s1,t3
    3708:	01f4a023          	sw	t6,0(s1)
    370c:	38462f83          	lw	t6,900(a2)
    3710:	001f8f93          	addi	t6,t6,1
    3714:	002f9f93          	slli	t6,t6,0x2
    3718:	01cf8fb3          	add	t6,t6,t3
    371c:	008fa023          	sw	s0,0(t6)
    3720:	38462f83          	lw	t6,900(a2)
    3724:	002f8f93          	addi	t6,t6,2
    3728:	002f9f93          	slli	t6,t6,0x2
    372c:	01cf8fb3          	add	t6,t6,t3
    3730:	012fa023          	sw	s2,0(t6)
    3734:	38462f83          	lw	t6,900(a2)
    3738:	003f8f93          	addi	t6,t6,3
    373c:	39f62223          	sw	t6,900(a2)
    3740:	c4dfc06f          	j	38c <benchmark_body+0x2fc>
    3744:	0045a403          	lw	s0,4(a1)
    3748:	37082f83          	lw	t6,880(a6)
    374c:	01f40463          	beq	s0,t6,3754 <benchmark_body+0x36c4>
    3750:	c5dfc06f          	j	3ac <benchmark_body+0x31c>
    3754:	0085af83          	lw	t6,8(a1)
    3758:	0045a403          	lw	s0,4(a1)
    375c:	008fc463          	blt	t6,s0,3764 <benchmark_body+0x36d4>
    3760:	c4dfc06f          	j	3ac <benchmark_body+0x31c>
    3764:	3987a483          	lw	s1,920(a5)
    3768:	008f8933          	add	s2,t6,s0
    376c:	ffc48493          	addi	s1,s1,-4
    3770:	3897ac23          	sw	s1,920(a5)
    3774:	38462483          	lw	s1,900(a2)
    3778:	00249493          	slli	s1,s1,0x2
    377c:	01c484b3          	add	s1,s1,t3
    3780:	01f4a023          	sw	t6,0(s1)
    3784:	38462f83          	lw	t6,900(a2)
    3788:	001f8f93          	addi	t6,t6,1
    378c:	002f9f93          	slli	t6,t6,0x2
    3790:	01cf8fb3          	add	t6,t6,t3
    3794:	008fa023          	sw	s0,0(t6)
    3798:	38462f83          	lw	t6,900(a2)
    379c:	002f8f93          	addi	t6,t6,2
    37a0:	002f9f93          	slli	t6,t6,0x2
    37a4:	01cf8fb3          	add	t6,t6,t3
    37a8:	012fa023          	sw	s2,0(t6)
    37ac:	38462f83          	lw	t6,900(a2)
    37b0:	003f8f93          	addi	t6,t6,3
    37b4:	39f62223          	sw	t6,900(a2)
    37b8:	bf5fc06f          	j	3ac <benchmark_body+0x31c>
    37bc:	00c5a403          	lw	s0,12(a1)
    37c0:	0045af83          	lw	t6,4(a1)
    37c4:	01f40463          	beq	s0,t6,37cc <benchmark_body+0x373c>
    37c8:	c05fc06f          	j	3cc <benchmark_body+0x33c>
    37cc:	0085af83          	lw	t6,8(a1)
    37d0:	00c5a403          	lw	s0,12(a1)
    37d4:	008fc463          	blt	t6,s0,37dc <benchmark_body+0x374c>
    37d8:	bf5fc06f          	j	3cc <benchmark_body+0x33c>
    37dc:	3987a483          	lw	s1,920(a5)
    37e0:	008f8933          	add	s2,t6,s0
    37e4:	ffc48493          	addi	s1,s1,-4
    37e8:	3897ac23          	sw	s1,920(a5)
    37ec:	38462483          	lw	s1,900(a2)
    37f0:	00249493          	slli	s1,s1,0x2
    37f4:	01c484b3          	add	s1,s1,t3
    37f8:	01f4a023          	sw	t6,0(s1)
    37fc:	38462f83          	lw	t6,900(a2)
    3800:	001f8f93          	addi	t6,t6,1
    3804:	002f9f93          	slli	t6,t6,0x2
    3808:	01cf8fb3          	add	t6,t6,t3
    380c:	008fa023          	sw	s0,0(t6)
    3810:	38462f83          	lw	t6,900(a2)
    3814:	002f8f93          	addi	t6,t6,2
    3818:	002f9f93          	slli	t6,t6,0x2
    381c:	01cf8fb3          	add	t6,t6,t3
    3820:	012fa023          	sw	s2,0(t6)
    3824:	38462f83          	lw	t6,900(a2)
    3828:	003f8f93          	addi	t6,t6,3
    382c:	39f62223          	sw	t6,900(a2)
    3830:	b9dfc06f          	j	3cc <benchmark_body+0x33c>
    3834:	00c5a403          	lw	s0,12(a1)
    3838:	37082f83          	lw	t6,880(a6)
    383c:	01f40463          	beq	s0,t6,3844 <benchmark_body+0x37b4>
    3840:	badfc06f          	j	3ec <benchmark_body+0x35c>
    3844:	0085af83          	lw	t6,8(a1)
    3848:	00c5a403          	lw	s0,12(a1)
    384c:	008fc463          	blt	t6,s0,3854 <benchmark_body+0x37c4>
    3850:	b9dfc06f          	j	3ec <benchmark_body+0x35c>
    3854:	3987a483          	lw	s1,920(a5)
    3858:	008f8933          	add	s2,t6,s0
    385c:	ffc48493          	addi	s1,s1,-4
    3860:	3897ac23          	sw	s1,920(a5)
    3864:	38462483          	lw	s1,900(a2)
    3868:	00249493          	slli	s1,s1,0x2
    386c:	01c484b3          	add	s1,s1,t3
    3870:	01f4a023          	sw	t6,0(s1)
    3874:	38462f83          	lw	t6,900(a2)
    3878:	001f8f93          	addi	t6,t6,1
    387c:	002f9f93          	slli	t6,t6,0x2
    3880:	01cf8fb3          	add	t6,t6,t3
    3884:	008fa023          	sw	s0,0(t6)
    3888:	38462f83          	lw	t6,900(a2)
    388c:	002f8f93          	addi	t6,t6,2
    3890:	002f9f93          	slli	t6,t6,0x2
    3894:	01cf8fb3          	add	t6,t6,t3
    3898:	012fa023          	sw	s2,0(t6)
    389c:	38462f83          	lw	t6,900(a2)
    38a0:	003f8f93          	addi	t6,t6,3
    38a4:	39f62223          	sw	t6,900(a2)
    38a8:	b45fc06f          	j	3ec <benchmark_body+0x35c>
    38ac:	37082403          	lw	s0,880(a6)
    38b0:	0085af83          	lw	t6,8(a1)
    38b4:	01f40463          	beq	s0,t6,38bc <benchmark_body+0x382c>
    38b8:	b55fc06f          	j	40c <benchmark_body+0x37c>
    38bc:	00c5af83          	lw	t6,12(a1)
    38c0:	37082403          	lw	s0,880(a6)
    38c4:	008fc463          	blt	t6,s0,38cc <benchmark_body+0x383c>
    38c8:	b45fc06f          	j	40c <benchmark_body+0x37c>
    38cc:	3987a483          	lw	s1,920(a5)
    38d0:	008f8933          	add	s2,t6,s0
    38d4:	ffc48493          	addi	s1,s1,-4
    38d8:	3897ac23          	sw	s1,920(a5)
    38dc:	38462483          	lw	s1,900(a2)
    38e0:	00249493          	slli	s1,s1,0x2
    38e4:	01c484b3          	add	s1,s1,t3
    38e8:	01f4a023          	sw	t6,0(s1)
    38ec:	38462f83          	lw	t6,900(a2)
    38f0:	001f8f93          	addi	t6,t6,1
    38f4:	002f9f93          	slli	t6,t6,0x2
    38f8:	01cf8fb3          	add	t6,t6,t3
    38fc:	008fa023          	sw	s0,0(t6)
    3900:	38462f83          	lw	t6,900(a2)
    3904:	002f8f93          	addi	t6,t6,2
    3908:	002f9f93          	slli	t6,t6,0x2
    390c:	01cf8fb3          	add	t6,t6,t3
    3910:	012fa023          	sw	s2,0(t6)
    3914:	38462f83          	lw	t6,900(a2)
    3918:	003f8f93          	addi	t6,t6,3
    391c:	39f62223          	sw	t6,900(a2)
    3920:	aedfc06f          	j	40c <benchmark_body+0x37c>
    3924:	37082403          	lw	s0,880(a6)
    3928:	0045af83          	lw	t6,4(a1)
    392c:	01f40463          	beq	s0,t6,3934 <benchmark_body+0x38a4>
    3930:	afdfc06f          	j	42c <benchmark_body+0x39c>
    3934:	00c5af83          	lw	t6,12(a1)
    3938:	37082403          	lw	s0,880(a6)
    393c:	008fc463          	blt	t6,s0,3944 <benchmark_body+0x38b4>
    3940:	aedfc06f          	j	42c <benchmark_body+0x39c>
    3944:	3987a483          	lw	s1,920(a5)
    3948:	008f8933          	add	s2,t6,s0
    394c:	ffc48493          	addi	s1,s1,-4
    3950:	3897ac23          	sw	s1,920(a5)
    3954:	38462483          	lw	s1,900(a2)
    3958:	00249493          	slli	s1,s1,0x2
    395c:	01c484b3          	add	s1,s1,t3
    3960:	01f4a023          	sw	t6,0(s1)
    3964:	38462f83          	lw	t6,900(a2)
    3968:	001f8f93          	addi	t6,t6,1
    396c:	002f9f93          	slli	t6,t6,0x2
    3970:	01cf8fb3          	add	t6,t6,t3
    3974:	008fa023          	sw	s0,0(t6)
    3978:	38462f83          	lw	t6,900(a2)
    397c:	002f8f93          	addi	t6,t6,2
    3980:	002f9f93          	slli	t6,t6,0x2
    3984:	01cf8fb3          	add	t6,t6,t3
    3988:	012fa023          	sw	s2,0(t6)
    398c:	38462f83          	lw	t6,900(a2)
    3990:	003f8f93          	addi	t6,t6,3
    3994:	39f62223          	sw	t6,900(a2)
    3998:	a95fc06f          	j	42c <benchmark_body+0x39c>
    399c:	0045a403          	lw	s0,4(a1)
    39a0:	0085af83          	lw	t6,8(a1)
    39a4:	01f40463          	beq	s0,t6,39ac <benchmark_body+0x391c>
    39a8:	aa5fc06f          	j	44c <benchmark_body+0x3bc>
    39ac:	00c5af83          	lw	t6,12(a1)
    39b0:	0045a403          	lw	s0,4(a1)
    39b4:	008fc463          	blt	t6,s0,39bc <benchmark_body+0x392c>
    39b8:	a95fc06f          	j	44c <benchmark_body+0x3bc>
    39bc:	3987a483          	lw	s1,920(a5)
    39c0:	008f8933          	add	s2,t6,s0
    39c4:	ffc48493          	addi	s1,s1,-4
    39c8:	3897ac23          	sw	s1,920(a5)
    39cc:	38462483          	lw	s1,900(a2)
    39d0:	00249493          	slli	s1,s1,0x2
    39d4:	01c484b3          	add	s1,s1,t3
    39d8:	01f4a023          	sw	t6,0(s1)
    39dc:	38462f83          	lw	t6,900(a2)
    39e0:	001f8f93          	addi	t6,t6,1
    39e4:	002f9f93          	slli	t6,t6,0x2
    39e8:	01cf8fb3          	add	t6,t6,t3
    39ec:	008fa023          	sw	s0,0(t6)
    39f0:	38462f83          	lw	t6,900(a2)
    39f4:	002f8f93          	addi	t6,t6,2
    39f8:	002f9f93          	slli	t6,t6,0x2
    39fc:	01cf8fb3          	add	t6,t6,t3
    3a00:	012fa023          	sw	s2,0(t6)
    3a04:	38462f83          	lw	t6,900(a2)
    3a08:	003f8f93          	addi	t6,t6,3
    3a0c:	39f62223          	sw	t6,900(a2)
    3a10:	a3dfc06f          	j	44c <benchmark_body+0x3bc>
    3a14:	0045a403          	lw	s0,4(a1)
    3a18:	37082f83          	lw	t6,880(a6)
    3a1c:	01f40463          	beq	s0,t6,3a24 <benchmark_body+0x3994>
    3a20:	a4dfc06f          	j	46c <benchmark_body+0x3dc>
    3a24:	00c5af83          	lw	t6,12(a1)
    3a28:	0045a403          	lw	s0,4(a1)
    3a2c:	008fc463          	blt	t6,s0,3a34 <benchmark_body+0x39a4>
    3a30:	a3dfc06f          	j	46c <benchmark_body+0x3dc>
    3a34:	3987a483          	lw	s1,920(a5)
    3a38:	008f8933          	add	s2,t6,s0
    3a3c:	ffc48493          	addi	s1,s1,-4
    3a40:	3897ac23          	sw	s1,920(a5)
    3a44:	38462483          	lw	s1,900(a2)
    3a48:	00249493          	slli	s1,s1,0x2
    3a4c:	01c484b3          	add	s1,s1,t3
    3a50:	01f4a023          	sw	t6,0(s1)
    3a54:	38462f83          	lw	t6,900(a2)
    3a58:	001f8f93          	addi	t6,t6,1
    3a5c:	002f9f93          	slli	t6,t6,0x2
    3a60:	01cf8fb3          	add	t6,t6,t3
    3a64:	008fa023          	sw	s0,0(t6)
    3a68:	38462f83          	lw	t6,900(a2)
    3a6c:	002f8f93          	addi	t6,t6,2
    3a70:	002f9f93          	slli	t6,t6,0x2
    3a74:	01cf8fb3          	add	t6,t6,t3
    3a78:	012fa023          	sw	s2,0(t6)
    3a7c:	38462f83          	lw	t6,900(a2)
    3a80:	003f8f93          	addi	t6,t6,3
    3a84:	39f62223          	sw	t6,900(a2)
    3a88:	9e5fc06f          	j	46c <benchmark_body+0x3dc>
    3a8c:	0085a403          	lw	s0,8(a1)
    3a90:	0045af83          	lw	t6,4(a1)
    3a94:	01f40463          	beq	s0,t6,3a9c <benchmark_body+0x3a0c>
    3a98:	9f5fc06f          	j	48c <benchmark_body+0x3fc>
    3a9c:	00c5af83          	lw	t6,12(a1)
    3aa0:	0085a403          	lw	s0,8(a1)
    3aa4:	008fc463          	blt	t6,s0,3aac <benchmark_body+0x3a1c>
    3aa8:	9e5fc06f          	j	48c <benchmark_body+0x3fc>
    3aac:	3987a483          	lw	s1,920(a5)
    3ab0:	008f8933          	add	s2,t6,s0
    3ab4:	ffc48493          	addi	s1,s1,-4
    3ab8:	3897ac23          	sw	s1,920(a5)
    3abc:	38462483          	lw	s1,900(a2)
    3ac0:	00249493          	slli	s1,s1,0x2
    3ac4:	01c484b3          	add	s1,s1,t3
    3ac8:	01f4a023          	sw	t6,0(s1)
    3acc:	38462f83          	lw	t6,900(a2)
    3ad0:	001f8f93          	addi	t6,t6,1
    3ad4:	002f9f93          	slli	t6,t6,0x2
    3ad8:	01cf8fb3          	add	t6,t6,t3
    3adc:	008fa023          	sw	s0,0(t6)
    3ae0:	38462f83          	lw	t6,900(a2)
    3ae4:	002f8f93          	addi	t6,t6,2
    3ae8:	002f9f93          	slli	t6,t6,0x2
    3aec:	01cf8fb3          	add	t6,t6,t3
    3af0:	012fa023          	sw	s2,0(t6)
    3af4:	38462f83          	lw	t6,900(a2)
    3af8:	003f8f93          	addi	t6,t6,3
    3afc:	39f62223          	sw	t6,900(a2)
    3b00:	98dfc06f          	j	48c <benchmark_body+0x3fc>
    3b04:	0085a403          	lw	s0,8(a1)
    3b08:	37082f83          	lw	t6,880(a6)
    3b0c:	01f40463          	beq	s0,t6,3b14 <benchmark_body+0x3a84>
    3b10:	99dfc06f          	j	4ac <benchmark_body+0x41c>
    3b14:	00c5af83          	lw	t6,12(a1)
    3b18:	0085a403          	lw	s0,8(a1)
    3b1c:	008fc463          	blt	t6,s0,3b24 <benchmark_body+0x3a94>
    3b20:	98dfc06f          	j	4ac <benchmark_body+0x41c>
    3b24:	3987a483          	lw	s1,920(a5)
    3b28:	008f8933          	add	s2,t6,s0
    3b2c:	ffc48493          	addi	s1,s1,-4
    3b30:	3897ac23          	sw	s1,920(a5)
    3b34:	38462483          	lw	s1,900(a2)
    3b38:	00249493          	slli	s1,s1,0x2
    3b3c:	01c484b3          	add	s1,s1,t3
    3b40:	01f4a023          	sw	t6,0(s1)
    3b44:	38462f83          	lw	t6,900(a2)
    3b48:	001f8f93          	addi	t6,t6,1
    3b4c:	002f9f93          	slli	t6,t6,0x2
    3b50:	01cf8fb3          	add	t6,t6,t3
    3b54:	008fa023          	sw	s0,0(t6)
    3b58:	38462f83          	lw	t6,900(a2)
    3b5c:	002f8f93          	addi	t6,t6,2
    3b60:	002f9f93          	slli	t6,t6,0x2
    3b64:	01cf8fb3          	add	t6,t6,t3
    3b68:	012fa023          	sw	s2,0(t6)
    3b6c:	38462f83          	lw	t6,900(a2)
    3b70:	003f8f93          	addi	t6,t6,3
    3b74:	39f62223          	sw	t6,900(a2)
    3b78:	935fc06f          	j	4ac <benchmark_body+0x41c>
    3b7c:	0045a403          	lw	s0,4(a1)
    3b80:	0105af83          	lw	t6,16(a1)
    3b84:	01f40463          	beq	s0,t6,3b8c <benchmark_body+0x3afc>
    3b88:	945fc06f          	j	4cc <benchmark_body+0x43c>
    3b8c:	37082f83          	lw	t6,880(a6)
    3b90:	0045a403          	lw	s0,4(a1)
    3b94:	008fc463          	blt	t6,s0,3b9c <benchmark_body+0x3b0c>
    3b98:	935fc06f          	j	4cc <benchmark_body+0x43c>
    3b9c:	00c5a483          	lw	s1,12(a1)
    3ba0:	008f8933          	add	s2,t6,s0
    3ba4:	36982823          	sw	s1,880(a6)
    3ba8:	3987a483          	lw	s1,920(a5)
    3bac:	ffc48493          	addi	s1,s1,-4
    3bb0:	3897ac23          	sw	s1,920(a5)
    3bb4:	38462483          	lw	s1,900(a2)
    3bb8:	00249493          	slli	s1,s1,0x2
    3bbc:	01c484b3          	add	s1,s1,t3
    3bc0:	01f4a023          	sw	t6,0(s1)
    3bc4:	38462f83          	lw	t6,900(a2)
    3bc8:	001f8f93          	addi	t6,t6,1
    3bcc:	002f9f93          	slli	t6,t6,0x2
    3bd0:	01cf8fb3          	add	t6,t6,t3
    3bd4:	008fa023          	sw	s0,0(t6)
    3bd8:	38462f83          	lw	t6,900(a2)
    3bdc:	002f8f93          	addi	t6,t6,2
    3be0:	002f9f93          	slli	t6,t6,0x2
    3be4:	01cf8fb3          	add	t6,t6,t3
    3be8:	012fa023          	sw	s2,0(t6)
    3bec:	38462f83          	lw	t6,900(a2)
    3bf0:	003f8f93          	addi	t6,t6,3
    3bf4:	39f62223          	sw	t6,900(a2)
    3bf8:	8d5fc06f          	j	4cc <benchmark_body+0x43c>
    3bfc:	0045a403          	lw	s0,4(a1)
    3c00:	0105af83          	lw	t6,16(a1)
    3c04:	01f40463          	beq	s0,t6,3c0c <benchmark_body+0x3b7c>
    3c08:	8e5fc06f          	j	4ec <benchmark_body+0x45c>
    3c0c:	37082f83          	lw	t6,880(a6)
    3c10:	0045a403          	lw	s0,4(a1)
    3c14:	008fc463          	blt	t6,s0,3c1c <benchmark_body+0x3b8c>
    3c18:	8d5fc06f          	j	4ec <benchmark_body+0x45c>
    3c1c:	0085a483          	lw	s1,8(a1)
    3c20:	008f8933          	add	s2,t6,s0
    3c24:	36982823          	sw	s1,880(a6)
    3c28:	3987a483          	lw	s1,920(a5)
    3c2c:	ffc48493          	addi	s1,s1,-4
    3c30:	3897ac23          	sw	s1,920(a5)
    3c34:	38462483          	lw	s1,900(a2)
    3c38:	00249493          	slli	s1,s1,0x2
    3c3c:	01c484b3          	add	s1,s1,t3
    3c40:	01f4a023          	sw	t6,0(s1)
    3c44:	38462f83          	lw	t6,900(a2)
    3c48:	001f8f93          	addi	t6,t6,1
    3c4c:	002f9f93          	slli	t6,t6,0x2
    3c50:	01cf8fb3          	add	t6,t6,t3
    3c54:	008fa023          	sw	s0,0(t6)
    3c58:	38462f83          	lw	t6,900(a2)
    3c5c:	002f8f93          	addi	t6,t6,2
    3c60:	002f9f93          	slli	t6,t6,0x2
    3c64:	01cf8fb3          	add	t6,t6,t3
    3c68:	012fa023          	sw	s2,0(t6)
    3c6c:	38462f83          	lw	t6,900(a2)
    3c70:	003f8f93          	addi	t6,t6,3
    3c74:	39f62223          	sw	t6,900(a2)
    3c78:	875fc06f          	j	4ec <benchmark_body+0x45c>
    3c7c:	0045a403          	lw	s0,4(a1)
    3c80:	0085af83          	lw	t6,8(a1)
    3c84:	01f40463          	beq	s0,t6,3c8c <benchmark_body+0x3bfc>
    3c88:	885fc06f          	j	50c <benchmark_body+0x47c>
    3c8c:	37082f83          	lw	t6,880(a6)
    3c90:	0045a403          	lw	s0,4(a1)
    3c94:	008fc463          	blt	t6,s0,3c9c <benchmark_body+0x3c0c>
    3c98:	875fc06f          	j	50c <benchmark_body+0x47c>
    3c9c:	00c5a483          	lw	s1,12(a1)
    3ca0:	008f8933          	add	s2,t6,s0
    3ca4:	36982823          	sw	s1,880(a6)
    3ca8:	3987a483          	lw	s1,920(a5)
    3cac:	ffc48493          	addi	s1,s1,-4
    3cb0:	3897ac23          	sw	s1,920(a5)
    3cb4:	38462483          	lw	s1,900(a2)
    3cb8:	00249493          	slli	s1,s1,0x2
    3cbc:	01c484b3          	add	s1,s1,t3
    3cc0:	01f4a023          	sw	t6,0(s1)
    3cc4:	38462f83          	lw	t6,900(a2)
    3cc8:	001f8f93          	addi	t6,t6,1
    3ccc:	002f9f93          	slli	t6,t6,0x2
    3cd0:	01cf8fb3          	add	t6,t6,t3
    3cd4:	008fa023          	sw	s0,0(t6)
    3cd8:	38462f83          	lw	t6,900(a2)
    3cdc:	002f8f93          	addi	t6,t6,2
    3ce0:	002f9f93          	slli	t6,t6,0x2
    3ce4:	01cf8fb3          	add	t6,t6,t3
    3ce8:	012fa023          	sw	s2,0(t6)
    3cec:	38462f83          	lw	t6,900(a2)
    3cf0:	003f8f93          	addi	t6,t6,3
    3cf4:	39f62223          	sw	t6,900(a2)
    3cf8:	815fc06f          	j	50c <benchmark_body+0x47c>
    3cfc:	0045a403          	lw	s0,4(a1)
    3d00:	00c5af83          	lw	t6,12(a1)
    3d04:	01f40463          	beq	s0,t6,3d0c <benchmark_body+0x3c7c>
    3d08:	825fc06f          	j	52c <benchmark_body+0x49c>
    3d0c:	37082f83          	lw	t6,880(a6)
    3d10:	0045a403          	lw	s0,4(a1)
    3d14:	008fc463          	blt	t6,s0,3d1c <benchmark_body+0x3c8c>
    3d18:	815fc06f          	j	52c <benchmark_body+0x49c>
    3d1c:	0085a483          	lw	s1,8(a1)
    3d20:	008f8933          	add	s2,t6,s0
    3d24:	36982823          	sw	s1,880(a6)
    3d28:	3987a483          	lw	s1,920(a5)
    3d2c:	ffc48493          	addi	s1,s1,-4
    3d30:	3897ac23          	sw	s1,920(a5)
    3d34:	38462483          	lw	s1,900(a2)
    3d38:	00249493          	slli	s1,s1,0x2
    3d3c:	01c484b3          	add	s1,s1,t3
    3d40:	01f4a023          	sw	t6,0(s1)
    3d44:	38462f83          	lw	t6,900(a2)
    3d48:	001f8f93          	addi	t6,t6,1
    3d4c:	002f9f93          	slli	t6,t6,0x2
    3d50:	01cf8fb3          	add	t6,t6,t3
    3d54:	008fa023          	sw	s0,0(t6)
    3d58:	38462f83          	lw	t6,900(a2)
    3d5c:	002f8f93          	addi	t6,t6,2
    3d60:	002f9f93          	slli	t6,t6,0x2
    3d64:	01cf8fb3          	add	t6,t6,t3
    3d68:	012fa023          	sw	s2,0(t6)
    3d6c:	38462f83          	lw	t6,900(a2)
    3d70:	003f8f93          	addi	t6,t6,3
    3d74:	39f62223          	sw	t6,900(a2)
    3d78:	fb4fc06f          	j	52c <benchmark_body+0x49c>
    3d7c:	0085a403          	lw	s0,8(a1)
    3d80:	0105af83          	lw	t6,16(a1)
    3d84:	01f40463          	beq	s0,t6,3d8c <benchmark_body+0x3cfc>
    3d88:	fc4fc06f          	j	54c <benchmark_body+0x4bc>
    3d8c:	37082f83          	lw	t6,880(a6)
    3d90:	0085a403          	lw	s0,8(a1)
    3d94:	008fc463          	blt	t6,s0,3d9c <benchmark_body+0x3d0c>
    3d98:	fb4fc06f          	j	54c <benchmark_body+0x4bc>
    3d9c:	00c5a483          	lw	s1,12(a1)
    3da0:	008f8933          	add	s2,t6,s0
    3da4:	36982823          	sw	s1,880(a6)
    3da8:	3987a483          	lw	s1,920(a5)
    3dac:	ffc48493          	addi	s1,s1,-4
    3db0:	3897ac23          	sw	s1,920(a5)
    3db4:	38462483          	lw	s1,900(a2)
    3db8:	00249493          	slli	s1,s1,0x2
    3dbc:	01c484b3          	add	s1,s1,t3
    3dc0:	01f4a023          	sw	t6,0(s1)
    3dc4:	38462f83          	lw	t6,900(a2)
    3dc8:	001f8f93          	addi	t6,t6,1
    3dcc:	002f9f93          	slli	t6,t6,0x2
    3dd0:	01cf8fb3          	add	t6,t6,t3
    3dd4:	008fa023          	sw	s0,0(t6)
    3dd8:	38462f83          	lw	t6,900(a2)
    3ddc:	002f8f93          	addi	t6,t6,2
    3de0:	002f9f93          	slli	t6,t6,0x2
    3de4:	01cf8fb3          	add	t6,t6,t3
    3de8:	012fa023          	sw	s2,0(t6)
    3dec:	38462f83          	lw	t6,900(a2)
    3df0:	003f8f93          	addi	t6,t6,3
    3df4:	39f62223          	sw	t6,900(a2)
    3df8:	f54fc06f          	j	54c <benchmark_body+0x4bc>
    3dfc:	0085a403          	lw	s0,8(a1)
    3e00:	0105af83          	lw	t6,16(a1)
    3e04:	01f40463          	beq	s0,t6,3e0c <benchmark_body+0x3d7c>
    3e08:	f64fc06f          	j	56c <benchmark_body+0x4dc>
    3e0c:	37082f83          	lw	t6,880(a6)
    3e10:	0085a403          	lw	s0,8(a1)
    3e14:	008fc463          	blt	t6,s0,3e1c <benchmark_body+0x3d8c>
    3e18:	f54fc06f          	j	56c <benchmark_body+0x4dc>
    3e1c:	0045a483          	lw	s1,4(a1)
    3e20:	008f8933          	add	s2,t6,s0
    3e24:	36982823          	sw	s1,880(a6)
    3e28:	3987a483          	lw	s1,920(a5)
    3e2c:	ffc48493          	addi	s1,s1,-4
    3e30:	3897ac23          	sw	s1,920(a5)
    3e34:	38462483          	lw	s1,900(a2)
    3e38:	00249493          	slli	s1,s1,0x2
    3e3c:	01c484b3          	add	s1,s1,t3
    3e40:	01f4a023          	sw	t6,0(s1)
    3e44:	38462f83          	lw	t6,900(a2)
    3e48:	001f8f93          	addi	t6,t6,1
    3e4c:	002f9f93          	slli	t6,t6,0x2
    3e50:	01cf8fb3          	add	t6,t6,t3
    3e54:	008fa023          	sw	s0,0(t6)
    3e58:	38462f83          	lw	t6,900(a2)
    3e5c:	002f8f93          	addi	t6,t6,2
    3e60:	002f9f93          	slli	t6,t6,0x2
    3e64:	01cf8fb3          	add	t6,t6,t3
    3e68:	012fa023          	sw	s2,0(t6)
    3e6c:	38462f83          	lw	t6,900(a2)
    3e70:	003f8f93          	addi	t6,t6,3
    3e74:	39f62223          	sw	t6,900(a2)
    3e78:	ef4fc06f          	j	56c <benchmark_body+0x4dc>
    3e7c:	0085a403          	lw	s0,8(a1)
    3e80:	0045af83          	lw	t6,4(a1)
    3e84:	01f40463          	beq	s0,t6,3e8c <benchmark_body+0x3dfc>
    3e88:	f04fc06f          	j	58c <benchmark_body+0x4fc>
    3e8c:	37082f83          	lw	t6,880(a6)
    3e90:	0085a403          	lw	s0,8(a1)
    3e94:	008fc463          	blt	t6,s0,3e9c <benchmark_body+0x3e0c>
    3e98:	ef4fc06f          	j	58c <benchmark_body+0x4fc>
    3e9c:	00c5a483          	lw	s1,12(a1)
    3ea0:	008f8933          	add	s2,t6,s0
    3ea4:	36982823          	sw	s1,880(a6)
    3ea8:	3987a483          	lw	s1,920(a5)
    3eac:	ffc48493          	addi	s1,s1,-4
    3eb0:	3897ac23          	sw	s1,920(a5)
    3eb4:	38462483          	lw	s1,900(a2)
    3eb8:	00249493          	slli	s1,s1,0x2
    3ebc:	01c484b3          	add	s1,s1,t3
    3ec0:	01f4a023          	sw	t6,0(s1)
    3ec4:	38462f83          	lw	t6,900(a2)
    3ec8:	001f8f93          	addi	t6,t6,1
    3ecc:	002f9f93          	slli	t6,t6,0x2
    3ed0:	01cf8fb3          	add	t6,t6,t3
    3ed4:	008fa023          	sw	s0,0(t6)
    3ed8:	38462f83          	lw	t6,900(a2)
    3edc:	002f8f93          	addi	t6,t6,2
    3ee0:	002f9f93          	slli	t6,t6,0x2
    3ee4:	01cf8fb3          	add	t6,t6,t3
    3ee8:	012fa023          	sw	s2,0(t6)
    3eec:	38462f83          	lw	t6,900(a2)
    3ef0:	003f8f93          	addi	t6,t6,3
    3ef4:	39f62223          	sw	t6,900(a2)
    3ef8:	e94fc06f          	j	58c <benchmark_body+0x4fc>
    3efc:	0085a403          	lw	s0,8(a1)
    3f00:	00c5af83          	lw	t6,12(a1)
    3f04:	01f40463          	beq	s0,t6,3f0c <benchmark_body+0x3e7c>
    3f08:	ea4fc06f          	j	5ac <benchmark_body+0x51c>
    3f0c:	37082f83          	lw	t6,880(a6)
    3f10:	0085a403          	lw	s0,8(a1)
    3f14:	008fc463          	blt	t6,s0,3f1c <benchmark_body+0x3e8c>
    3f18:	e94fc06f          	j	5ac <benchmark_body+0x51c>
    3f1c:	0045a483          	lw	s1,4(a1)
    3f20:	008f8933          	add	s2,t6,s0
    3f24:	36982823          	sw	s1,880(a6)
    3f28:	3987a483          	lw	s1,920(a5)
    3f2c:	ffc48493          	addi	s1,s1,-4
    3f30:	3897ac23          	sw	s1,920(a5)
    3f34:	38462483          	lw	s1,900(a2)
    3f38:	00249493          	slli	s1,s1,0x2
    3f3c:	01c484b3          	add	s1,s1,t3
    3f40:	01f4a023          	sw	t6,0(s1)
    3f44:	38462f83          	lw	t6,900(a2)
    3f48:	001f8f93          	addi	t6,t6,1
    3f4c:	002f9f93          	slli	t6,t6,0x2
    3f50:	01cf8fb3          	add	t6,t6,t3
    3f54:	008fa023          	sw	s0,0(t6)
    3f58:	38462f83          	lw	t6,900(a2)
    3f5c:	002f8f93          	addi	t6,t6,2
    3f60:	002f9f93          	slli	t6,t6,0x2
    3f64:	01cf8fb3          	add	t6,t6,t3
    3f68:	012fa023          	sw	s2,0(t6)
    3f6c:	38462f83          	lw	t6,900(a2)
    3f70:	003f8f93          	addi	t6,t6,3
    3f74:	39f62223          	sw	t6,900(a2)
    3f78:	e34fc06f          	j	5ac <benchmark_body+0x51c>
    3f7c:	00c5a403          	lw	s0,12(a1)
    3f80:	0105af83          	lw	t6,16(a1)
    3f84:	01f40463          	beq	s0,t6,3f8c <benchmark_body+0x3efc>
    3f88:	e44fc06f          	j	5cc <benchmark_body+0x53c>
    3f8c:	37082f83          	lw	t6,880(a6)
    3f90:	00c5a403          	lw	s0,12(a1)
    3f94:	008fc463          	blt	t6,s0,3f9c <benchmark_body+0x3f0c>
    3f98:	e34fc06f          	j	5cc <benchmark_body+0x53c>
    3f9c:	0085a483          	lw	s1,8(a1)
    3fa0:	008f8933          	add	s2,t6,s0
    3fa4:	36982823          	sw	s1,880(a6)
    3fa8:	3987a483          	lw	s1,920(a5)
    3fac:	ffc48493          	addi	s1,s1,-4
    3fb0:	3897ac23          	sw	s1,920(a5)
    3fb4:	38462483          	lw	s1,900(a2)
    3fb8:	00249493          	slli	s1,s1,0x2
    3fbc:	01c484b3          	add	s1,s1,t3
    3fc0:	01f4a023          	sw	t6,0(s1)
    3fc4:	38462f83          	lw	t6,900(a2)
    3fc8:	001f8f93          	addi	t6,t6,1
    3fcc:	002f9f93          	slli	t6,t6,0x2
    3fd0:	01cf8fb3          	add	t6,t6,t3
    3fd4:	008fa023          	sw	s0,0(t6)
    3fd8:	38462f83          	lw	t6,900(a2)
    3fdc:	002f8f93          	addi	t6,t6,2
    3fe0:	002f9f93          	slli	t6,t6,0x2
    3fe4:	01cf8fb3          	add	t6,t6,t3
    3fe8:	012fa023          	sw	s2,0(t6)
    3fec:	38462f83          	lw	t6,900(a2)
    3ff0:	003f8f93          	addi	t6,t6,3
    3ff4:	39f62223          	sw	t6,900(a2)
    3ff8:	dd4fc06f          	j	5cc <benchmark_body+0x53c>
    3ffc:	00c5a403          	lw	s0,12(a1)
    4000:	0105af83          	lw	t6,16(a1)
    4004:	01f40463          	beq	s0,t6,400c <benchmark_body+0x3f7c>
    4008:	de4fc06f          	j	5ec <benchmark_body+0x55c>
    400c:	37082f83          	lw	t6,880(a6)
    4010:	00c5a403          	lw	s0,12(a1)
    4014:	008fc463          	blt	t6,s0,401c <benchmark_body+0x3f8c>
    4018:	dd4fc06f          	j	5ec <benchmark_body+0x55c>
    401c:	0045a483          	lw	s1,4(a1)
    4020:	008f8933          	add	s2,t6,s0
    4024:	36982823          	sw	s1,880(a6)
    4028:	3987a483          	lw	s1,920(a5)
    402c:	ffc48493          	addi	s1,s1,-4
    4030:	3897ac23          	sw	s1,920(a5)
    4034:	38462483          	lw	s1,900(a2)
    4038:	00249493          	slli	s1,s1,0x2
    403c:	01c484b3          	add	s1,s1,t3
    4040:	01f4a023          	sw	t6,0(s1)
    4044:	38462f83          	lw	t6,900(a2)
    4048:	001f8f93          	addi	t6,t6,1
    404c:	002f9f93          	slli	t6,t6,0x2
    4050:	01cf8fb3          	add	t6,t6,t3
    4054:	008fa023          	sw	s0,0(t6)
    4058:	38462f83          	lw	t6,900(a2)
    405c:	002f8f93          	addi	t6,t6,2
    4060:	002f9f93          	slli	t6,t6,0x2
    4064:	01cf8fb3          	add	t6,t6,t3
    4068:	012fa023          	sw	s2,0(t6)
    406c:	38462f83          	lw	t6,900(a2)
    4070:	003f8f93          	addi	t6,t6,3
    4074:	39f62223          	sw	t6,900(a2)
    4078:	d74fc06f          	j	5ec <benchmark_body+0x55c>
    407c:	00c5a403          	lw	s0,12(a1)
    4080:	0045af83          	lw	t6,4(a1)
    4084:	01f40463          	beq	s0,t6,408c <benchmark_body+0x3ffc>
    4088:	d84fc06f          	j	60c <benchmark_body+0x57c>
    408c:	37082f83          	lw	t6,880(a6)
    4090:	00c5a403          	lw	s0,12(a1)
    4094:	008fc463          	blt	t6,s0,409c <benchmark_body+0x400c>
    4098:	d74fc06f          	j	60c <benchmark_body+0x57c>
    409c:	0085a483          	lw	s1,8(a1)
    40a0:	008f8933          	add	s2,t6,s0
    40a4:	36982823          	sw	s1,880(a6)
    40a8:	3987a483          	lw	s1,920(a5)
    40ac:	ffc48493          	addi	s1,s1,-4
    40b0:	3897ac23          	sw	s1,920(a5)
    40b4:	38462483          	lw	s1,900(a2)
    40b8:	00249493          	slli	s1,s1,0x2
    40bc:	01c484b3          	add	s1,s1,t3
    40c0:	01f4a023          	sw	t6,0(s1)
    40c4:	38462f83          	lw	t6,900(a2)
    40c8:	001f8f93          	addi	t6,t6,1
    40cc:	002f9f93          	slli	t6,t6,0x2
    40d0:	01cf8fb3          	add	t6,t6,t3
    40d4:	008fa023          	sw	s0,0(t6)
    40d8:	38462f83          	lw	t6,900(a2)
    40dc:	002f8f93          	addi	t6,t6,2
    40e0:	002f9f93          	slli	t6,t6,0x2
    40e4:	01cf8fb3          	add	t6,t6,t3
    40e8:	012fa023          	sw	s2,0(t6)
    40ec:	38462f83          	lw	t6,900(a2)
    40f0:	003f8f93          	addi	t6,t6,3
    40f4:	39f62223          	sw	t6,900(a2)
    40f8:	d14fc06f          	j	60c <benchmark_body+0x57c>
    40fc:	00c5a403          	lw	s0,12(a1)
    4100:	0085af83          	lw	t6,8(a1)
    4104:	01f40463          	beq	s0,t6,410c <benchmark_body+0x407c>
    4108:	d24fc06f          	j	62c <benchmark_body+0x59c>
    410c:	37082f83          	lw	t6,880(a6)
    4110:	00c5a403          	lw	s0,12(a1)
    4114:	008fc463          	blt	t6,s0,411c <benchmark_body+0x408c>
    4118:	d14fc06f          	j	62c <benchmark_body+0x59c>
    411c:	0045a483          	lw	s1,4(a1)
    4120:	008f8933          	add	s2,t6,s0
    4124:	36982823          	sw	s1,880(a6)
    4128:	3987a483          	lw	s1,920(a5)
    412c:	ffc48493          	addi	s1,s1,-4
    4130:	3897ac23          	sw	s1,920(a5)
    4134:	38462483          	lw	s1,900(a2)
    4138:	00249493          	slli	s1,s1,0x2
    413c:	01c484b3          	add	s1,s1,t3
    4140:	01f4a023          	sw	t6,0(s1)
    4144:	38462f83          	lw	t6,900(a2)
    4148:	001f8f93          	addi	t6,t6,1
    414c:	002f9f93          	slli	t6,t6,0x2
    4150:	01cf8fb3          	add	t6,t6,t3
    4154:	008fa023          	sw	s0,0(t6)
    4158:	38462f83          	lw	t6,900(a2)
    415c:	002f8f93          	addi	t6,t6,2
    4160:	002f9f93          	slli	t6,t6,0x2
    4164:	01cf8fb3          	add	t6,t6,t3
    4168:	012fa023          	sw	s2,0(t6)
    416c:	38462f83          	lw	t6,900(a2)
    4170:	003f8f93          	addi	t6,t6,3
    4174:	39f62223          	sw	t6,900(a2)
    4178:	cb4fc06f          	j	62c <benchmark_body+0x59c>
    417c:	0105a403          	lw	s0,16(a1)
    4180:	0085af83          	lw	t6,8(a1)
    4184:	01f40463          	beq	s0,t6,418c <benchmark_body+0x40fc>
    4188:	cc4fc06f          	j	64c <benchmark_body+0x5bc>
    418c:	37082f83          	lw	t6,880(a6)
    4190:	0105a403          	lw	s0,16(a1)
    4194:	008fc463          	blt	t6,s0,419c <benchmark_body+0x410c>
    4198:	cb4fc06f          	j	64c <benchmark_body+0x5bc>
    419c:	00c5a483          	lw	s1,12(a1)
    41a0:	008f8933          	add	s2,t6,s0
    41a4:	36982823          	sw	s1,880(a6)
    41a8:	3987a483          	lw	s1,920(a5)
    41ac:	ffc48493          	addi	s1,s1,-4
    41b0:	3897ac23          	sw	s1,920(a5)
    41b4:	38462483          	lw	s1,900(a2)
    41b8:	00249493          	slli	s1,s1,0x2
    41bc:	01c484b3          	add	s1,s1,t3
    41c0:	01f4a023          	sw	t6,0(s1)
    41c4:	38462f83          	lw	t6,900(a2)
    41c8:	001f8f93          	addi	t6,t6,1
    41cc:	002f9f93          	slli	t6,t6,0x2
    41d0:	01cf8fb3          	add	t6,t6,t3
    41d4:	008fa023          	sw	s0,0(t6)
    41d8:	38462f83          	lw	t6,900(a2)
    41dc:	002f8f93          	addi	t6,t6,2
    41e0:	002f9f93          	slli	t6,t6,0x2
    41e4:	01cf8fb3          	add	t6,t6,t3
    41e8:	012fa023          	sw	s2,0(t6)
    41ec:	38462f83          	lw	t6,900(a2)
    41f0:	003f8f93          	addi	t6,t6,3
    41f4:	39f62223          	sw	t6,900(a2)
    41f8:	c54fc06f          	j	64c <benchmark_body+0x5bc>
    41fc:	0105a403          	lw	s0,16(a1)
    4200:	00c5af83          	lw	t6,12(a1)
    4204:	01f40463          	beq	s0,t6,420c <benchmark_body+0x417c>
    4208:	c64fc06f          	j	66c <benchmark_body+0x5dc>
    420c:	37082f83          	lw	t6,880(a6)
    4210:	0105a403          	lw	s0,16(a1)
    4214:	008fc463          	blt	t6,s0,421c <benchmark_body+0x418c>
    4218:	c54fc06f          	j	66c <benchmark_body+0x5dc>
    421c:	0085a483          	lw	s1,8(a1)
    4220:	008f8933          	add	s2,t6,s0
    4224:	36982823          	sw	s1,880(a6)
    4228:	3987a483          	lw	s1,920(a5)
    422c:	ffc48493          	addi	s1,s1,-4
    4230:	3897ac23          	sw	s1,920(a5)
    4234:	38462483          	lw	s1,900(a2)
    4238:	00249493          	slli	s1,s1,0x2
    423c:	01c484b3          	add	s1,s1,t3
    4240:	01f4a023          	sw	t6,0(s1)
    4244:	38462f83          	lw	t6,900(a2)
    4248:	001f8f93          	addi	t6,t6,1
    424c:	002f9f93          	slli	t6,t6,0x2
    4250:	01cf8fb3          	add	t6,t6,t3
    4254:	008fa023          	sw	s0,0(t6)
    4258:	38462f83          	lw	t6,900(a2)
    425c:	002f8f93          	addi	t6,t6,2
    4260:	002f9f93          	slli	t6,t6,0x2
    4264:	01cf8fb3          	add	t6,t6,t3
    4268:	012fa023          	sw	s2,0(t6)
    426c:	38462f83          	lw	t6,900(a2)
    4270:	003f8f93          	addi	t6,t6,3
    4274:	39f62223          	sw	t6,900(a2)
    4278:	bf4fc06f          	j	66c <benchmark_body+0x5dc>
    427c:	0105a403          	lw	s0,16(a1)
    4280:	0045af83          	lw	t6,4(a1)
    4284:	01f40463          	beq	s0,t6,428c <benchmark_body+0x41fc>
    4288:	c04fc06f          	j	68c <benchmark_body+0x5fc>
    428c:	37082f83          	lw	t6,880(a6)
    4290:	0105a403          	lw	s0,16(a1)
    4294:	008fc463          	blt	t6,s0,429c <benchmark_body+0x420c>
    4298:	bf4fc06f          	j	68c <benchmark_body+0x5fc>
    429c:	00c5a483          	lw	s1,12(a1)
    42a0:	008f8933          	add	s2,t6,s0
    42a4:	36982823          	sw	s1,880(a6)
    42a8:	3987a483          	lw	s1,920(a5)
    42ac:	ffc48493          	addi	s1,s1,-4
    42b0:	3897ac23          	sw	s1,920(a5)
    42b4:	38462483          	lw	s1,900(a2)
    42b8:	00249493          	slli	s1,s1,0x2
    42bc:	01c484b3          	add	s1,s1,t3
    42c0:	01f4a023          	sw	t6,0(s1)
    42c4:	38462f83          	lw	t6,900(a2)
    42c8:	001f8f93          	addi	t6,t6,1
    42cc:	002f9f93          	slli	t6,t6,0x2
    42d0:	01cf8fb3          	add	t6,t6,t3
    42d4:	008fa023          	sw	s0,0(t6)
    42d8:	38462f83          	lw	t6,900(a2)
    42dc:	002f8f93          	addi	t6,t6,2
    42e0:	002f9f93          	slli	t6,t6,0x2
    42e4:	01cf8fb3          	add	t6,t6,t3
    42e8:	012fa023          	sw	s2,0(t6)
    42ec:	38462f83          	lw	t6,900(a2)
    42f0:	003f8f93          	addi	t6,t6,3
    42f4:	39f62223          	sw	t6,900(a2)
    42f8:	b94fc06f          	j	68c <benchmark_body+0x5fc>
    42fc:	0105a403          	lw	s0,16(a1)
    4300:	00c5af83          	lw	t6,12(a1)
    4304:	01f40463          	beq	s0,t6,430c <benchmark_body+0x427c>
    4308:	ba4fc06f          	j	6ac <benchmark_body+0x61c>
    430c:	37082f83          	lw	t6,880(a6)
    4310:	0105a403          	lw	s0,16(a1)
    4314:	008fc463          	blt	t6,s0,431c <benchmark_body+0x428c>
    4318:	b94fc06f          	j	6ac <benchmark_body+0x61c>
    431c:	0045a483          	lw	s1,4(a1)
    4320:	008f8933          	add	s2,t6,s0
    4324:	36982823          	sw	s1,880(a6)
    4328:	3987a483          	lw	s1,920(a5)
    432c:	ffc48493          	addi	s1,s1,-4
    4330:	3897ac23          	sw	s1,920(a5)
    4334:	38462483          	lw	s1,900(a2)
    4338:	00249493          	slli	s1,s1,0x2
    433c:	01c484b3          	add	s1,s1,t3
    4340:	01f4a023          	sw	t6,0(s1)
    4344:	38462f83          	lw	t6,900(a2)
    4348:	001f8f93          	addi	t6,t6,1
    434c:	002f9f93          	slli	t6,t6,0x2
    4350:	01cf8fb3          	add	t6,t6,t3
    4354:	008fa023          	sw	s0,0(t6)
    4358:	38462f83          	lw	t6,900(a2)
    435c:	002f8f93          	addi	t6,t6,2
    4360:	002f9f93          	slli	t6,t6,0x2
    4364:	01cf8fb3          	add	t6,t6,t3
    4368:	012fa023          	sw	s2,0(t6)
    436c:	38462f83          	lw	t6,900(a2)
    4370:	003f8f93          	addi	t6,t6,3
    4374:	39f62223          	sw	t6,900(a2)
    4378:	b34fc06f          	j	6ac <benchmark_body+0x61c>
    437c:	0105a403          	lw	s0,16(a1)
    4380:	0045af83          	lw	t6,4(a1)
    4384:	01f40463          	beq	s0,t6,438c <benchmark_body+0x42fc>
    4388:	b44fc06f          	j	6cc <benchmark_body+0x63c>
    438c:	37082f83          	lw	t6,880(a6)
    4390:	0105a403          	lw	s0,16(a1)
    4394:	008fc463          	blt	t6,s0,439c <benchmark_body+0x430c>
    4398:	b34fc06f          	j	6cc <benchmark_body+0x63c>
    439c:	0085a483          	lw	s1,8(a1)
    43a0:	008f8933          	add	s2,t6,s0
    43a4:	36982823          	sw	s1,880(a6)
    43a8:	3987a483          	lw	s1,920(a5)
    43ac:	ffc48493          	addi	s1,s1,-4
    43b0:	3897ac23          	sw	s1,920(a5)
    43b4:	38462483          	lw	s1,900(a2)
    43b8:	00249493          	slli	s1,s1,0x2
    43bc:	01c484b3          	add	s1,s1,t3
    43c0:	01f4a023          	sw	t6,0(s1)
    43c4:	38462f83          	lw	t6,900(a2)
    43c8:	001f8f93          	addi	t6,t6,1
    43cc:	002f9f93          	slli	t6,t6,0x2
    43d0:	01cf8fb3          	add	t6,t6,t3
    43d4:	008fa023          	sw	s0,0(t6)
    43d8:	38462f83          	lw	t6,900(a2)
    43dc:	002f8f93          	addi	t6,t6,2
    43e0:	002f9f93          	slli	t6,t6,0x2
    43e4:	01cf8fb3          	add	t6,t6,t3
    43e8:	012fa023          	sw	s2,0(t6)
    43ec:	38462f83          	lw	t6,900(a2)
    43f0:	003f8f93          	addi	t6,t6,3
    43f4:	39f62223          	sw	t6,900(a2)
    43f8:	ad4fc06f          	j	6cc <benchmark_body+0x63c>
    43fc:	0105a403          	lw	s0,16(a1)
    4400:	0085af83          	lw	t6,8(a1)
    4404:	01f40463          	beq	s0,t6,440c <benchmark_body+0x437c>
    4408:	ae4fc06f          	j	6ec <benchmark_body+0x65c>
    440c:	37082f83          	lw	t6,880(a6)
    4410:	0105a403          	lw	s0,16(a1)
    4414:	008fc463          	blt	t6,s0,441c <benchmark_body+0x438c>
    4418:	ad4fc06f          	j	6ec <benchmark_body+0x65c>
    441c:	0045a483          	lw	s1,4(a1)
    4420:	008f8933          	add	s2,t6,s0
    4424:	36982823          	sw	s1,880(a6)
    4428:	3987a483          	lw	s1,920(a5)
    442c:	ffc48493          	addi	s1,s1,-4
    4430:	3897ac23          	sw	s1,920(a5)
    4434:	38462483          	lw	s1,900(a2)
    4438:	00249493          	slli	s1,s1,0x2
    443c:	01c484b3          	add	s1,s1,t3
    4440:	01f4a023          	sw	t6,0(s1)
    4444:	38462f83          	lw	t6,900(a2)
    4448:	001f8f93          	addi	t6,t6,1
    444c:	002f9f93          	slli	t6,t6,0x2
    4450:	01cf8fb3          	add	t6,t6,t3
    4454:	008fa023          	sw	s0,0(t6)
    4458:	38462f83          	lw	t6,900(a2)
    445c:	002f8f93          	addi	t6,t6,2
    4460:	002f9f93          	slli	t6,t6,0x2
    4464:	01cf8fb3          	add	t6,t6,t3
    4468:	012fa023          	sw	s2,0(t6)
    446c:	38462f83          	lw	t6,900(a2)
    4470:	003f8f93          	addi	t6,t6,3
    4474:	39f62223          	sw	t6,900(a2)
    4478:	a74fc06f          	j	6ec <benchmark_body+0x65c>
    447c:	37082403          	lw	s0,880(a6)
    4480:	0105af83          	lw	t6,16(a1)
    4484:	01f40463          	beq	s0,t6,448c <benchmark_body+0x43fc>
    4488:	a84fc06f          	j	70c <benchmark_body+0x67c>
    448c:	0045af83          	lw	t6,4(a1)
    4490:	37082403          	lw	s0,880(a6)
    4494:	008fc463          	blt	t6,s0,449c <benchmark_body+0x440c>
    4498:	a74fc06f          	j	70c <benchmark_body+0x67c>
    449c:	00c5a483          	lw	s1,12(a1)
    44a0:	008f8933          	add	s2,t6,s0
    44a4:	36982823          	sw	s1,880(a6)
    44a8:	3987a483          	lw	s1,920(a5)
    44ac:	ffc48493          	addi	s1,s1,-4
    44b0:	3897ac23          	sw	s1,920(a5)
    44b4:	38462483          	lw	s1,900(a2)
    44b8:	00249493          	slli	s1,s1,0x2
    44bc:	01c484b3          	add	s1,s1,t3
    44c0:	01f4a023          	sw	t6,0(s1)
    44c4:	38462f83          	lw	t6,900(a2)
    44c8:	001f8f93          	addi	t6,t6,1
    44cc:	002f9f93          	slli	t6,t6,0x2
    44d0:	01cf8fb3          	add	t6,t6,t3
    44d4:	008fa023          	sw	s0,0(t6)
    44d8:	38462f83          	lw	t6,900(a2)
    44dc:	002f8f93          	addi	t6,t6,2
    44e0:	002f9f93          	slli	t6,t6,0x2
    44e4:	01cf8fb3          	add	t6,t6,t3
    44e8:	012fa023          	sw	s2,0(t6)
    44ec:	38462f83          	lw	t6,900(a2)
    44f0:	003f8f93          	addi	t6,t6,3
    44f4:	39f62223          	sw	t6,900(a2)
    44f8:	a14fc06f          	j	70c <benchmark_body+0x67c>
    44fc:	37082403          	lw	s0,880(a6)
    4500:	0105af83          	lw	t6,16(a1)
    4504:	01f40463          	beq	s0,t6,450c <benchmark_body+0x447c>
    4508:	a24fc06f          	j	72c <benchmark_body+0x69c>
    450c:	0045af83          	lw	t6,4(a1)
    4510:	37082403          	lw	s0,880(a6)
    4514:	008fc463          	blt	t6,s0,451c <benchmark_body+0x448c>
    4518:	a14fc06f          	j	72c <benchmark_body+0x69c>
    451c:	0085a483          	lw	s1,8(a1)
    4520:	008f8933          	add	s2,t6,s0
    4524:	36982823          	sw	s1,880(a6)
    4528:	3987a483          	lw	s1,920(a5)
    452c:	ffc48493          	addi	s1,s1,-4
    4530:	3897ac23          	sw	s1,920(a5)
    4534:	38462483          	lw	s1,900(a2)
    4538:	00249493          	slli	s1,s1,0x2
    453c:	01c484b3          	add	s1,s1,t3
    4540:	01f4a023          	sw	t6,0(s1)
    4544:	38462f83          	lw	t6,900(a2)
    4548:	001f8f93          	addi	t6,t6,1
    454c:	002f9f93          	slli	t6,t6,0x2
    4550:	01cf8fb3          	add	t6,t6,t3
    4554:	008fa023          	sw	s0,0(t6)
    4558:	38462f83          	lw	t6,900(a2)
    455c:	002f8f93          	addi	t6,t6,2
    4560:	002f9f93          	slli	t6,t6,0x2
    4564:	01cf8fb3          	add	t6,t6,t3
    4568:	012fa023          	sw	s2,0(t6)
    456c:	38462f83          	lw	t6,900(a2)
    4570:	003f8f93          	addi	t6,t6,3
    4574:	39f62223          	sw	t6,900(a2)
    4578:	9b4fc06f          	j	72c <benchmark_body+0x69c>
    457c:	37082403          	lw	s0,880(a6)
    4580:	0085af83          	lw	t6,8(a1)
    4584:	01f40463          	beq	s0,t6,458c <benchmark_body+0x44fc>
    4588:	9c4fc06f          	j	74c <benchmark_body+0x6bc>
    458c:	0045af83          	lw	t6,4(a1)
    4590:	37082403          	lw	s0,880(a6)
    4594:	008fc463          	blt	t6,s0,459c <benchmark_body+0x450c>
    4598:	9b4fc06f          	j	74c <benchmark_body+0x6bc>
    459c:	00c5a483          	lw	s1,12(a1)
    45a0:	008f8933          	add	s2,t6,s0
    45a4:	36982823          	sw	s1,880(a6)
    45a8:	3987a483          	lw	s1,920(a5)
    45ac:	ffc48493          	addi	s1,s1,-4
    45b0:	3897ac23          	sw	s1,920(a5)
    45b4:	38462483          	lw	s1,900(a2)
    45b8:	00249493          	slli	s1,s1,0x2
    45bc:	01c484b3          	add	s1,s1,t3
    45c0:	01f4a023          	sw	t6,0(s1)
    45c4:	38462f83          	lw	t6,900(a2)
    45c8:	001f8f93          	addi	t6,t6,1
    45cc:	002f9f93          	slli	t6,t6,0x2
    45d0:	01cf8fb3          	add	t6,t6,t3
    45d4:	008fa023          	sw	s0,0(t6)
    45d8:	38462f83          	lw	t6,900(a2)
    45dc:	002f8f93          	addi	t6,t6,2
    45e0:	002f9f93          	slli	t6,t6,0x2
    45e4:	01cf8fb3          	add	t6,t6,t3
    45e8:	012fa023          	sw	s2,0(t6)
    45ec:	38462f83          	lw	t6,900(a2)
    45f0:	003f8f93          	addi	t6,t6,3
    45f4:	39f62223          	sw	t6,900(a2)
    45f8:	954fc06f          	j	74c <benchmark_body+0x6bc>
    45fc:	37082403          	lw	s0,880(a6)
    4600:	00c5af83          	lw	t6,12(a1)
    4604:	01f40463          	beq	s0,t6,460c <benchmark_body+0x457c>
    4608:	964fc06f          	j	76c <benchmark_body+0x6dc>
    460c:	0045af83          	lw	t6,4(a1)
    4610:	37082403          	lw	s0,880(a6)
    4614:	008fc463          	blt	t6,s0,461c <benchmark_body+0x458c>
    4618:	954fc06f          	j	76c <benchmark_body+0x6dc>
    461c:	0085a483          	lw	s1,8(a1)
    4620:	008f8933          	add	s2,t6,s0
    4624:	36982823          	sw	s1,880(a6)
    4628:	3987a483          	lw	s1,920(a5)
    462c:	ffc48493          	addi	s1,s1,-4
    4630:	3897ac23          	sw	s1,920(a5)
    4634:	38462483          	lw	s1,900(a2)
    4638:	00249493          	slli	s1,s1,0x2
    463c:	01c484b3          	add	s1,s1,t3
    4640:	01f4a023          	sw	t6,0(s1)
    4644:	38462f83          	lw	t6,900(a2)
    4648:	001f8f93          	addi	t6,t6,1
    464c:	002f9f93          	slli	t6,t6,0x2
    4650:	01cf8fb3          	add	t6,t6,t3
    4654:	008fa023          	sw	s0,0(t6)
    4658:	38462f83          	lw	t6,900(a2)
    465c:	002f8f93          	addi	t6,t6,2
    4660:	002f9f93          	slli	t6,t6,0x2
    4664:	01cf8fb3          	add	t6,t6,t3
    4668:	012fa023          	sw	s2,0(t6)
    466c:	38462f83          	lw	t6,900(a2)
    4670:	003f8f93          	addi	t6,t6,3
    4674:	39f62223          	sw	t6,900(a2)
    4678:	8f4fc06f          	j	76c <benchmark_body+0x6dc>
    467c:	0085a403          	lw	s0,8(a1)
    4680:	0105af83          	lw	t6,16(a1)
    4684:	01f40463          	beq	s0,t6,468c <benchmark_body+0x45fc>
    4688:	904fc06f          	j	78c <benchmark_body+0x6fc>
    468c:	0045af83          	lw	t6,4(a1)
    4690:	0085a403          	lw	s0,8(a1)
    4694:	008fc463          	blt	t6,s0,469c <benchmark_body+0x460c>
    4698:	8f4fc06f          	j	78c <benchmark_body+0x6fc>
    469c:	00c5a483          	lw	s1,12(a1)
    46a0:	008f8933          	add	s2,t6,s0
    46a4:	36982823          	sw	s1,880(a6)
    46a8:	3987a483          	lw	s1,920(a5)
    46ac:	ffc48493          	addi	s1,s1,-4
    46b0:	3897ac23          	sw	s1,920(a5)
    46b4:	38462483          	lw	s1,900(a2)
    46b8:	00249493          	slli	s1,s1,0x2
    46bc:	01c484b3          	add	s1,s1,t3
    46c0:	01f4a023          	sw	t6,0(s1)
    46c4:	38462f83          	lw	t6,900(a2)
    46c8:	001f8f93          	addi	t6,t6,1
    46cc:	002f9f93          	slli	t6,t6,0x2
    46d0:	01cf8fb3          	add	t6,t6,t3
    46d4:	008fa023          	sw	s0,0(t6)
    46d8:	38462f83          	lw	t6,900(a2)
    46dc:	002f8f93          	addi	t6,t6,2
    46e0:	002f9f93          	slli	t6,t6,0x2
    46e4:	01cf8fb3          	add	t6,t6,t3
    46e8:	012fa023          	sw	s2,0(t6)
    46ec:	38462f83          	lw	t6,900(a2)
    46f0:	003f8f93          	addi	t6,t6,3
    46f4:	39f62223          	sw	t6,900(a2)
    46f8:	894fc06f          	j	78c <benchmark_body+0x6fc>
    46fc:	0085a403          	lw	s0,8(a1)
    4700:	0105af83          	lw	t6,16(a1)
    4704:	01f40463          	beq	s0,t6,470c <benchmark_body+0x467c>
    4708:	8a4fc06f          	j	7ac <benchmark_body+0x71c>
    470c:	0045af83          	lw	t6,4(a1)
    4710:	0085a403          	lw	s0,8(a1)
    4714:	008fc463          	blt	t6,s0,471c <benchmark_body+0x468c>
    4718:	894fc06f          	j	7ac <benchmark_body+0x71c>
    471c:	3987a483          	lw	s1,920(a5)
    4720:	008f8933          	add	s2,t6,s0
    4724:	ffc48493          	addi	s1,s1,-4
    4728:	3897ac23          	sw	s1,920(a5)
    472c:	38462483          	lw	s1,900(a2)
    4730:	00249493          	slli	s1,s1,0x2
    4734:	01c484b3          	add	s1,s1,t3
    4738:	01f4a023          	sw	t6,0(s1)
    473c:	38462f83          	lw	t6,900(a2)
    4740:	001f8f93          	addi	t6,t6,1
    4744:	002f9f93          	slli	t6,t6,0x2
    4748:	01cf8fb3          	add	t6,t6,t3
    474c:	008fa023          	sw	s0,0(t6)
    4750:	38462f83          	lw	t6,900(a2)
    4754:	002f8f93          	addi	t6,t6,2
    4758:	002f9f93          	slli	t6,t6,0x2
    475c:	01cf8fb3          	add	t6,t6,t3
    4760:	012fa023          	sw	s2,0(t6)
    4764:	38462f83          	lw	t6,900(a2)
    4768:	003f8f93          	addi	t6,t6,3
    476c:	39f62223          	sw	t6,900(a2)
    4770:	83cfc06f          	j	7ac <benchmark_body+0x71c>
    4774:	0085a403          	lw	s0,8(a1)
    4778:	37082f83          	lw	t6,880(a6)
    477c:	01f40463          	beq	s0,t6,4784 <benchmark_body+0x46f4>
    4780:	84cfc06f          	j	7cc <benchmark_body+0x73c>
    4784:	0045af83          	lw	t6,4(a1)
    4788:	0085a403          	lw	s0,8(a1)
    478c:	008fc463          	blt	t6,s0,4794 <benchmark_body+0x4704>
    4790:	83cfc06f          	j	7cc <benchmark_body+0x73c>
    4794:	00c5a483          	lw	s1,12(a1)
    4798:	008f8933          	add	s2,t6,s0
    479c:	36982823          	sw	s1,880(a6)
    47a0:	3987a483          	lw	s1,920(a5)
    47a4:	ffc48493          	addi	s1,s1,-4
    47a8:	3897ac23          	sw	s1,920(a5)
    47ac:	38462483          	lw	s1,900(a2)
    47b0:	00249493          	slli	s1,s1,0x2
    47b4:	01c484b3          	add	s1,s1,t3
    47b8:	01f4a023          	sw	t6,0(s1)
    47bc:	38462f83          	lw	t6,900(a2)
    47c0:	001f8f93          	addi	t6,t6,1
    47c4:	002f9f93          	slli	t6,t6,0x2
    47c8:	01cf8fb3          	add	t6,t6,t3
    47cc:	008fa023          	sw	s0,0(t6)
    47d0:	38462f83          	lw	t6,900(a2)
    47d4:	002f8f93          	addi	t6,t6,2
    47d8:	002f9f93          	slli	t6,t6,0x2
    47dc:	01cf8fb3          	add	t6,t6,t3
    47e0:	012fa023          	sw	s2,0(t6)
    47e4:	38462f83          	lw	t6,900(a2)
    47e8:	003f8f93          	addi	t6,t6,3
    47ec:	39f62223          	sw	t6,900(a2)
    47f0:	fddfb06f          	j	7cc <benchmark_body+0x73c>
    47f4:	0085a403          	lw	s0,8(a1)
    47f8:	00c5af83          	lw	t6,12(a1)
    47fc:	01f40463          	beq	s0,t6,4804 <benchmark_body+0x4774>
    4800:	fedfb06f          	j	7ec <benchmark_body+0x75c>
    4804:	0045af83          	lw	t6,4(a1)
    4808:	0085a403          	lw	s0,8(a1)
    480c:	008fc463          	blt	t6,s0,4814 <benchmark_body+0x4784>
    4810:	fddfb06f          	j	7ec <benchmark_body+0x75c>
    4814:	3987a483          	lw	s1,920(a5)
    4818:	008f8933          	add	s2,t6,s0
    481c:	ffc48493          	addi	s1,s1,-4
    4820:	3897ac23          	sw	s1,920(a5)
    4824:	38462483          	lw	s1,900(a2)
    4828:	00249493          	slli	s1,s1,0x2
    482c:	01c484b3          	add	s1,s1,t3
    4830:	01f4a023          	sw	t6,0(s1)
    4834:	38462f83          	lw	t6,900(a2)
    4838:	001f8f93          	addi	t6,t6,1
    483c:	002f9f93          	slli	t6,t6,0x2
    4840:	01cf8fb3          	add	t6,t6,t3
    4844:	008fa023          	sw	s0,0(t6)
    4848:	38462f83          	lw	t6,900(a2)
    484c:	002f8f93          	addi	t6,t6,2
    4850:	002f9f93          	slli	t6,t6,0x2
    4854:	01cf8fb3          	add	t6,t6,t3
    4858:	012fa023          	sw	s2,0(t6)
    485c:	38462f83          	lw	t6,900(a2)
    4860:	003f8f93          	addi	t6,t6,3
    4864:	39f62223          	sw	t6,900(a2)
    4868:	f85fb06f          	j	7ec <benchmark_body+0x75c>
    486c:	00c5a403          	lw	s0,12(a1)
    4870:	0105af83          	lw	t6,16(a1)
    4874:	01f40463          	beq	s0,t6,487c <benchmark_body+0x47ec>
    4878:	f95fb06f          	j	80c <benchmark_body+0x77c>
    487c:	0045af83          	lw	t6,4(a1)
    4880:	00c5a403          	lw	s0,12(a1)
    4884:	008fc463          	blt	t6,s0,488c <benchmark_body+0x47fc>
    4888:	f85fb06f          	j	80c <benchmark_body+0x77c>
    488c:	0085a483          	lw	s1,8(a1)
    4890:	008f8933          	add	s2,t6,s0
    4894:	36982823          	sw	s1,880(a6)
    4898:	3987a483          	lw	s1,920(a5)
    489c:	ffc48493          	addi	s1,s1,-4
    48a0:	3897ac23          	sw	s1,920(a5)
    48a4:	38462483          	lw	s1,900(a2)
    48a8:	00249493          	slli	s1,s1,0x2
    48ac:	01c484b3          	add	s1,s1,t3
    48b0:	01f4a023          	sw	t6,0(s1)
    48b4:	38462f83          	lw	t6,900(a2)
    48b8:	001f8f93          	addi	t6,t6,1
    48bc:	002f9f93          	slli	t6,t6,0x2
    48c0:	01cf8fb3          	add	t6,t6,t3
    48c4:	008fa023          	sw	s0,0(t6)
    48c8:	38462f83          	lw	t6,900(a2)
    48cc:	002f8f93          	addi	t6,t6,2
    48d0:	002f9f93          	slli	t6,t6,0x2
    48d4:	01cf8fb3          	add	t6,t6,t3
    48d8:	012fa023          	sw	s2,0(t6)
    48dc:	38462f83          	lw	t6,900(a2)
    48e0:	003f8f93          	addi	t6,t6,3
    48e4:	39f62223          	sw	t6,900(a2)
    48e8:	f25fb06f          	j	80c <benchmark_body+0x77c>
    48ec:	00c5a403          	lw	s0,12(a1)
    48f0:	0105af83          	lw	t6,16(a1)
    48f4:	01f40463          	beq	s0,t6,48fc <benchmark_body+0x486c>
    48f8:	f35fb06f          	j	82c <benchmark_body+0x79c>
    48fc:	0045af83          	lw	t6,4(a1)
    4900:	00c5a403          	lw	s0,12(a1)
    4904:	008fc463          	blt	t6,s0,490c <benchmark_body+0x487c>
    4908:	f25fb06f          	j	82c <benchmark_body+0x79c>
    490c:	3987a483          	lw	s1,920(a5)
    4910:	008f8933          	add	s2,t6,s0
    4914:	ffc48493          	addi	s1,s1,-4
    4918:	3897ac23          	sw	s1,920(a5)
    491c:	38462483          	lw	s1,900(a2)
    4920:	00249493          	slli	s1,s1,0x2
    4924:	01c484b3          	add	s1,s1,t3
    4928:	01f4a023          	sw	t6,0(s1)
    492c:	38462f83          	lw	t6,900(a2)
    4930:	001f8f93          	addi	t6,t6,1
    4934:	002f9f93          	slli	t6,t6,0x2
    4938:	01cf8fb3          	add	t6,t6,t3
    493c:	008fa023          	sw	s0,0(t6)
    4940:	38462f83          	lw	t6,900(a2)
    4944:	002f8f93          	addi	t6,t6,2
    4948:	002f9f93          	slli	t6,t6,0x2
    494c:	01cf8fb3          	add	t6,t6,t3
    4950:	012fa023          	sw	s2,0(t6)
    4954:	38462f83          	lw	t6,900(a2)
    4958:	003f8f93          	addi	t6,t6,3
    495c:	39f62223          	sw	t6,900(a2)
    4960:	ecdfb06f          	j	82c <benchmark_body+0x79c>
    4964:	00c5a403          	lw	s0,12(a1)
    4968:	37082f83          	lw	t6,880(a6)
    496c:	01f40463          	beq	s0,t6,4974 <benchmark_body+0x48e4>
    4970:	eddfb06f          	j	84c <benchmark_body+0x7bc>
    4974:	0045af83          	lw	t6,4(a1)
    4978:	00c5a403          	lw	s0,12(a1)
    497c:	008fc463          	blt	t6,s0,4984 <benchmark_body+0x48f4>
    4980:	ecdfb06f          	j	84c <benchmark_body+0x7bc>
    4984:	0085a483          	lw	s1,8(a1)
    4988:	008f8933          	add	s2,t6,s0
    498c:	36982823          	sw	s1,880(a6)
    4990:	3987a483          	lw	s1,920(a5)
    4994:	ffc48493          	addi	s1,s1,-4
    4998:	3897ac23          	sw	s1,920(a5)
    499c:	38462483          	lw	s1,900(a2)
    49a0:	00249493          	slli	s1,s1,0x2
    49a4:	01c484b3          	add	s1,s1,t3
    49a8:	01f4a023          	sw	t6,0(s1)
    49ac:	38462f83          	lw	t6,900(a2)
    49b0:	001f8f93          	addi	t6,t6,1
    49b4:	002f9f93          	slli	t6,t6,0x2
    49b8:	01cf8fb3          	add	t6,t6,t3
    49bc:	008fa023          	sw	s0,0(t6)
    49c0:	38462f83          	lw	t6,900(a2)
    49c4:	002f8f93          	addi	t6,t6,2
    49c8:	002f9f93          	slli	t6,t6,0x2
    49cc:	01cf8fb3          	add	t6,t6,t3
    49d0:	012fa023          	sw	s2,0(t6)
    49d4:	38462f83          	lw	t6,900(a2)
    49d8:	003f8f93          	addi	t6,t6,3
    49dc:	39f62223          	sw	t6,900(a2)
    49e0:	e6dfb06f          	j	84c <benchmark_body+0x7bc>
    49e4:	00c5a403          	lw	s0,12(a1)
    49e8:	0085af83          	lw	t6,8(a1)
    49ec:	01f40463          	beq	s0,t6,49f4 <benchmark_body+0x4964>
    49f0:	e7dfb06f          	j	86c <benchmark_body+0x7dc>
    49f4:	0045af83          	lw	t6,4(a1)
    49f8:	00c5a403          	lw	s0,12(a1)
    49fc:	008fc463          	blt	t6,s0,4a04 <benchmark_body+0x4974>
    4a00:	e6dfb06f          	j	86c <benchmark_body+0x7dc>
    4a04:	3987a483          	lw	s1,920(a5)
    4a08:	008f8933          	add	s2,t6,s0
    4a0c:	ffc48493          	addi	s1,s1,-4
    4a10:	3897ac23          	sw	s1,920(a5)
    4a14:	38462483          	lw	s1,900(a2)
    4a18:	00249493          	slli	s1,s1,0x2
    4a1c:	01c484b3          	add	s1,s1,t3
    4a20:	01f4a023          	sw	t6,0(s1)
    4a24:	38462f83          	lw	t6,900(a2)
    4a28:	001f8f93          	addi	t6,t6,1
    4a2c:	002f9f93          	slli	t6,t6,0x2
    4a30:	01cf8fb3          	add	t6,t6,t3
    4a34:	008fa023          	sw	s0,0(t6)
    4a38:	38462f83          	lw	t6,900(a2)
    4a3c:	002f8f93          	addi	t6,t6,2
    4a40:	002f9f93          	slli	t6,t6,0x2
    4a44:	01cf8fb3          	add	t6,t6,t3
    4a48:	012fa023          	sw	s2,0(t6)
    4a4c:	38462f83          	lw	t6,900(a2)
    4a50:	003f8f93          	addi	t6,t6,3
    4a54:	39f62223          	sw	t6,900(a2)
    4a58:	e15fb06f          	j	86c <benchmark_body+0x7dc>
    4a5c:	0105a403          	lw	s0,16(a1)
    4a60:	0085af83          	lw	t6,8(a1)
    4a64:	01f40463          	beq	s0,t6,4a6c <benchmark_body+0x49dc>
    4a68:	e25fb06f          	j	88c <benchmark_body+0x7fc>
    4a6c:	0045af83          	lw	t6,4(a1)
    4a70:	0105a403          	lw	s0,16(a1)
    4a74:	008fc463          	blt	t6,s0,4a7c <benchmark_body+0x49ec>
    4a78:	e15fb06f          	j	88c <benchmark_body+0x7fc>
    4a7c:	00c5a483          	lw	s1,12(a1)
    4a80:	008f8933          	add	s2,t6,s0
    4a84:	36982823          	sw	s1,880(a6)
    4a88:	3987a483          	lw	s1,920(a5)
    4a8c:	ffc48493          	addi	s1,s1,-4
    4a90:	3897ac23          	sw	s1,920(a5)
    4a94:	38462483          	lw	s1,900(a2)
    4a98:	00249493          	slli	s1,s1,0x2
    4a9c:	01c484b3          	add	s1,s1,t3
    4aa0:	01f4a023          	sw	t6,0(s1)
    4aa4:	38462f83          	lw	t6,900(a2)
    4aa8:	001f8f93          	addi	t6,t6,1
    4aac:	002f9f93          	slli	t6,t6,0x2
    4ab0:	01cf8fb3          	add	t6,t6,t3
    4ab4:	008fa023          	sw	s0,0(t6)
    4ab8:	38462f83          	lw	t6,900(a2)
    4abc:	002f8f93          	addi	t6,t6,2
    4ac0:	002f9f93          	slli	t6,t6,0x2
    4ac4:	01cf8fb3          	add	t6,t6,t3
    4ac8:	012fa023          	sw	s2,0(t6)
    4acc:	38462f83          	lw	t6,900(a2)
    4ad0:	003f8f93          	addi	t6,t6,3
    4ad4:	39f62223          	sw	t6,900(a2)
    4ad8:	db5fb06f          	j	88c <benchmark_body+0x7fc>
    4adc:	0105a403          	lw	s0,16(a1)
    4ae0:	00c5af83          	lw	t6,12(a1)
    4ae4:	01f40463          	beq	s0,t6,4aec <benchmark_body+0x4a5c>
    4ae8:	dc5fb06f          	j	8ac <benchmark_body+0x81c>
    4aec:	0045af83          	lw	t6,4(a1)
    4af0:	0105a403          	lw	s0,16(a1)
    4af4:	008fc463          	blt	t6,s0,4afc <benchmark_body+0x4a6c>
    4af8:	db5fb06f          	j	8ac <benchmark_body+0x81c>
    4afc:	0085a483          	lw	s1,8(a1)
    4b00:	008f8933          	add	s2,t6,s0
    4b04:	36982823          	sw	s1,880(a6)
    4b08:	3987a483          	lw	s1,920(a5)
    4b0c:	ffc48493          	addi	s1,s1,-4
    4b10:	3897ac23          	sw	s1,920(a5)
    4b14:	38462483          	lw	s1,900(a2)
    4b18:	00249493          	slli	s1,s1,0x2
    4b1c:	01c484b3          	add	s1,s1,t3
    4b20:	01f4a023          	sw	t6,0(s1)
    4b24:	38462f83          	lw	t6,900(a2)
    4b28:	001f8f93          	addi	t6,t6,1
    4b2c:	002f9f93          	slli	t6,t6,0x2
    4b30:	01cf8fb3          	add	t6,t6,t3
    4b34:	008fa023          	sw	s0,0(t6)
    4b38:	38462f83          	lw	t6,900(a2)
    4b3c:	002f8f93          	addi	t6,t6,2
    4b40:	002f9f93          	slli	t6,t6,0x2
    4b44:	01cf8fb3          	add	t6,t6,t3
    4b48:	012fa023          	sw	s2,0(t6)
    4b4c:	38462f83          	lw	t6,900(a2)
    4b50:	003f8f93          	addi	t6,t6,3
    4b54:	39f62223          	sw	t6,900(a2)
    4b58:	d55fb06f          	j	8ac <benchmark_body+0x81c>
    4b5c:	0105a403          	lw	s0,16(a1)
    4b60:	37082f83          	lw	t6,880(a6)
    4b64:	01f40463          	beq	s0,t6,4b6c <benchmark_body+0x4adc>
    4b68:	d65fb06f          	j	8cc <benchmark_body+0x83c>
    4b6c:	0045af83          	lw	t6,4(a1)
    4b70:	0105a403          	lw	s0,16(a1)
    4b74:	008fc463          	blt	t6,s0,4b7c <benchmark_body+0x4aec>
    4b78:	d55fb06f          	j	8cc <benchmark_body+0x83c>
    4b7c:	00c5a483          	lw	s1,12(a1)
    4b80:	008f8933          	add	s2,t6,s0
    4b84:	36982823          	sw	s1,880(a6)
    4b88:	3987a483          	lw	s1,920(a5)
    4b8c:	ffc48493          	addi	s1,s1,-4
    4b90:	3897ac23          	sw	s1,920(a5)
    4b94:	38462483          	lw	s1,900(a2)
    4b98:	00249493          	slli	s1,s1,0x2
    4b9c:	01c484b3          	add	s1,s1,t3
    4ba0:	01f4a023          	sw	t6,0(s1)
    4ba4:	38462f83          	lw	t6,900(a2)
    4ba8:	001f8f93          	addi	t6,t6,1
    4bac:	002f9f93          	slli	t6,t6,0x2
    4bb0:	01cf8fb3          	add	t6,t6,t3
    4bb4:	008fa023          	sw	s0,0(t6)
    4bb8:	38462f83          	lw	t6,900(a2)
    4bbc:	002f8f93          	addi	t6,t6,2
    4bc0:	002f9f93          	slli	t6,t6,0x2
    4bc4:	01cf8fb3          	add	t6,t6,t3
    4bc8:	012fa023          	sw	s2,0(t6)
    4bcc:	38462f83          	lw	t6,900(a2)
    4bd0:	003f8f93          	addi	t6,t6,3
    4bd4:	39f62223          	sw	t6,900(a2)
    4bd8:	cf5fb06f          	j	8cc <benchmark_body+0x83c>
    4bdc:	0105a403          	lw	s0,16(a1)
    4be0:	00c5af83          	lw	t6,12(a1)
    4be4:	01f40463          	beq	s0,t6,4bec <benchmark_body+0x4b5c>
    4be8:	d05fb06f          	j	8ec <benchmark_body+0x85c>
    4bec:	0045af83          	lw	t6,4(a1)
    4bf0:	0105a403          	lw	s0,16(a1)
    4bf4:	008fc463          	blt	t6,s0,4bfc <benchmark_body+0x4b6c>
    4bf8:	cf5fb06f          	j	8ec <benchmark_body+0x85c>
    4bfc:	3987a483          	lw	s1,920(a5)
    4c00:	008f8933          	add	s2,t6,s0
    4c04:	ffc48493          	addi	s1,s1,-4
    4c08:	3897ac23          	sw	s1,920(a5)
    4c0c:	38462483          	lw	s1,900(a2)
    4c10:	00249493          	slli	s1,s1,0x2
    4c14:	01c484b3          	add	s1,s1,t3
    4c18:	01f4a023          	sw	t6,0(s1)
    4c1c:	38462f83          	lw	t6,900(a2)
    4c20:	001f8f93          	addi	t6,t6,1
    4c24:	002f9f93          	slli	t6,t6,0x2
    4c28:	01cf8fb3          	add	t6,t6,t3
    4c2c:	008fa023          	sw	s0,0(t6)
    4c30:	38462f83          	lw	t6,900(a2)
    4c34:	002f8f93          	addi	t6,t6,2
    4c38:	002f9f93          	slli	t6,t6,0x2
    4c3c:	01cf8fb3          	add	t6,t6,t3
    4c40:	012fa023          	sw	s2,0(t6)
    4c44:	38462f83          	lw	t6,900(a2)
    4c48:	003f8f93          	addi	t6,t6,3
    4c4c:	39f62223          	sw	t6,900(a2)
    4c50:	c9dfb06f          	j	8ec <benchmark_body+0x85c>
    4c54:	00000513          	li	a0,0
    4c58:	00008067          	ret

00004c5c <initialise_benchmark>:
    4c5c:	00008067          	ret

00004c60 <warm_caches>:
    4c60:	c30fb06f          	j	90 <benchmark_body>

00004c64 <benchmark>:
    4c64:	00020537          	lui	a0,0x20
    4c68:	21050513          	addi	a0,a0,528 # 20210 <TOHOST_ADDR+0x1ae70>
    4c6c:	c24fb06f          	j	90 <benchmark_body>

00004c70 <verify_benchmark>:
    4c70:	000057b7          	lui	a5,0x5
    4c74:	39c7a703          	lw	a4,924(a5) # 539c <P1_is_marked>
    4c78:	fc010113          	addi	sp,sp,-64
    4c7c:	00012423          	sw	zero,8(sp)
    4c80:	00012623          	sw	zero,12(sp)
    4c84:	00012823          	sw	zero,16(sp)
    4c88:	00012a23          	sw	zero,20(sp)
    4c8c:	00012c23          	sw	zero,24(sp)
    4c90:	00012e23          	sw	zero,28(sp)
    4c94:	02012023          	sw	zero,32(sp)
    4c98:	02012223          	sw	zero,36(sp)
    4c9c:	02012423          	sw	zero,40(sp)
    4ca0:	02012623          	sw	zero,44(sp)
    4ca4:	02012823          	sw	zero,48(sp)
    4ca8:	02012a23          	sw	zero,52(sp)
    4cac:	02012c23          	sw	zero,56(sp)
    4cb0:	02012e23          	sw	zero,60(sp)
    4cb4:	00300793          	li	a5,3
    4cb8:	00000513          	li	a0,0
    4cbc:	00f71a63          	bne	a4,a5,4cd0 <verify_benchmark+0x60>
    4cc0:	000057b7          	lui	a5,0x5
    4cc4:	3987a703          	lw	a4,920(a5) # 5398 <P2_is_marked>
    4cc8:	00500793          	li	a5,5
    4ccc:	00f70663          	beq	a4,a5,4cd8 <verify_benchmark+0x68>
    4cd0:	04010113          	addi	sp,sp,64
    4cd4:	00008067          	ret
    4cd8:	000057b7          	lui	a5,0x5
    4cdc:	3847a503          	lw	a0,900(a5) # 5384 <P3_is_marked>
    4ce0:	08051263          	bnez	a0,4d64 <verify_benchmark+0xf4>
    4ce4:	000058b7          	lui	a7,0x5
    4ce8:	00005837          	lui	a6,0x5
    4cec:	000055b7          	lui	a1,0x5
    4cf0:	02810613          	addi	a2,sp,40
    4cf4:	01410693          	addi	a3,sp,20
    4cf8:	00000313          	li	t1,0
    4cfc:	00000713          	li	a4,0
    4d00:	00000793          	li	a5,0
    4d04:	36488893          	addi	a7,a7,868 # 5364 <P1_marking_member_0>
    4d08:	37080813          	addi	a6,a6,880 # 5370 <P2_marking_member_0>
    4d0c:	34c58593          	addi	a1,a1,844 # 534c <P3_marking_member_0>
    4d10:	00300293          	li	t0,3
    4d14:	00f88e33          	add	t3,a7,a5
    4d18:	000e2e03          	lw	t3,0(t3)
    4d1c:	00170713          	addi	a4,a4,1
    4d20:	00f80eb3          	add	t4,a6,a5
    4d24:	00f58f33          	add	t5,a1,a5
    4d28:	00810f93          	addi	t6,sp,8
    4d2c:	00271793          	slli	a5,a4,0x2
    4d30:	00ff8fb3          	add	t6,t6,a5
    4d34:	f86e1ee3          	bne	t3,t1,4cd0 <verify_benchmark+0x60>
    4d38:	0006ae03          	lw	t3,0(a3)
    4d3c:	000ea303          	lw	t1,0(t4)
    4d40:	00468693          	addi	a3,a3,4
    4d44:	f86e16e3          	bne	t3,t1,4cd0 <verify_benchmark+0x60>
    4d48:	00062e03          	lw	t3,0(a2)
    4d4c:	000f2303          	lw	t1,0(t5)
    4d50:	00460613          	addi	a2,a2,4
    4d54:	f66e1ee3          	bne	t3,t1,4cd0 <verify_benchmark+0x60>
    4d58:	00570a63          	beq	a4,t0,4d6c <verify_benchmark+0xfc>
    4d5c:	000fa303          	lw	t1,0(t6)
    4d60:	fb5ff06f          	j	4d14 <verify_benchmark+0xa4>
    4d64:	00000513          	li	a0,0
    4d68:	f69ff06f          	j	4cd0 <verify_benchmark+0x60>
    4d6c:	00c82783          	lw	a5,12(a6)
    4d70:	f60790e3          	bnez	a5,4cd0 <verify_benchmark+0x60>
    4d74:	00c5a503          	lw	a0,12(a1)
    4d78:	fe0516e3          	bnez	a0,4d64 <verify_benchmark+0xf4>
    4d7c:	01082783          	lw	a5,16(a6)
    4d80:	f40798e3          	bnez	a5,4cd0 <verify_benchmark+0x60>
    4d84:	0105a783          	lw	a5,16(a1)
    4d88:	f40794e3          	bnez	a5,4cd0 <verify_benchmark+0x60>
    4d8c:	0145a503          	lw	a0,20(a1)
    4d90:	04010113          	addi	sp,sp,64
    4d94:	00153513          	seqz	a0,a0
    4d98:	00008067          	ret

00004d9c <initialise_board>:
    4d9c:	00000513          	li	a0,0
    4da0:	00008067          	ret

00004da4 <start_trigger>:
    4da4:	00000513          	li	a0,0
    4da8:	00008067          	ret

00004dac <stop_trigger>:
    4dac:	00000513          	li	a0,0
    4db0:	00008067          	ret

00004db4 <rand_beebs>:
    4db4:	000056b7          	lui	a3,0x5
    4db8:	3946a703          	lw	a4,916(a3) # 5394 <seed>
    4dbc:	00871793          	slli	a5,a4,0x8
    4dc0:	40e787b3          	sub	a5,a5,a4
    4dc4:	00379793          	slli	a5,a5,0x3
    4dc8:	00e787b3          	add	a5,a5,a4
    4dcc:	00779793          	slli	a5,a5,0x7
    4dd0:	00e787b3          	add	a5,a5,a4
    4dd4:	00379793          	slli	a5,a5,0x3
    4dd8:	40e787b3          	sub	a5,a5,a4
    4ddc:	00579513          	slli	a0,a5,0x5
    4de0:	00a78533          	add	a0,a5,a0
    4de4:	00251513          	slli	a0,a0,0x2
    4de8:	40e50533          	sub	a0,a0,a4
    4dec:	00251513          	slli	a0,a0,0x2
    4df0:	000037b7          	lui	a5,0x3
    4df4:	00e50533          	add	a0,a0,a4
    4df8:	03978793          	addi	a5,a5,57 # 3039 <benchmark_body+0x2fa9>
    4dfc:	00f50533          	add	a0,a0,a5
    4e00:	00151513          	slli	a0,a0,0x1
    4e04:	00155513          	srli	a0,a0,0x1
    4e08:	38a6aa23          	sw	a0,916(a3)
    4e0c:	01055513          	srli	a0,a0,0x10
    4e10:	00008067          	ret

00004e14 <srand_beebs>:
    4e14:	000057b7          	lui	a5,0x5
    4e18:	38a7aa23          	sw	a0,916(a5) # 5394 <seed>
    4e1c:	00008067          	ret

00004e20 <init_heap_beebs>:
    4e20:	000057b7          	lui	a5,0x5
    4e24:	00b505b3          	add	a1,a0,a1
    4e28:	38a7a823          	sw	a0,912(a5) # 5390 <heap_ptr>
    4e2c:	000057b7          	lui	a5,0x5
    4e30:	38b7a623          	sw	a1,908(a5) # 538c <heap_end>
    4e34:	000057b7          	lui	a5,0x5
    4e38:	3807a423          	sw	zero,904(a5) # 5388 <heap_requested>
    4e3c:	00008067          	ret

00004e40 <check_heap_beebs>:
    4e40:	000057b7          	lui	a5,0x5
    4e44:	3887a703          	lw	a4,904(a5) # 5388 <heap_requested>
    4e48:	000057b7          	lui	a5,0x5
    4e4c:	38c7a783          	lw	a5,908(a5) # 538c <heap_end>
    4e50:	00e50533          	add	a0,a0,a4
    4e54:	00a7b533          	sltu	a0,a5,a0
    4e58:	00154513          	xori	a0,a0,1
    4e5c:	00008067          	ret

00004e60 <malloc_beebs>:
    4e60:	000056b7          	lui	a3,0x5
    4e64:	3886a783          	lw	a5,904(a3) # 5388 <heap_requested>
    4e68:	00005637          	lui	a2,0x5
    4e6c:	39062703          	lw	a4,912(a2) # 5390 <heap_ptr>
    4e70:	000055b7          	lui	a1,0x5
    4e74:	38c5a583          	lw	a1,908(a1) # 538c <heap_end>
    4e78:	00a787b3          	add	a5,a5,a0
    4e7c:	38f6a423          	sw	a5,904(a3)
    4e80:	00a707b3          	add	a5,a4,a0
    4e84:	00f5ea63          	bltu	a1,a5,4e98 <malloc_beebs+0x38>
    4e88:	00050863          	beqz	a0,4e98 <malloc_beebs+0x38>
    4e8c:	38f62823          	sw	a5,912(a2)
    4e90:	00070513          	mv	a0,a4
    4e94:	00008067          	ret
    4e98:	00000713          	li	a4,0
    4e9c:	00070513          	mv	a0,a4
    4ea0:	00008067          	ret

00004ea4 <calloc_beebs>:
    4ea4:	ff010113          	addi	sp,sp,-16
    4ea8:	00112623          	sw	ra,12(sp)
    4eac:	264000ef          	jal	ra,5110 <__mulsi3>
    4eb0:	000056b7          	lui	a3,0x5
    4eb4:	3886a703          	lw	a4,904(a3) # 5388 <heap_requested>
    4eb8:	00005637          	lui	a2,0x5
    4ebc:	39062783          	lw	a5,912(a2) # 5390 <heap_ptr>
    4ec0:	000055b7          	lui	a1,0x5
    4ec4:	38c5a583          	lw	a1,908(a1) # 538c <heap_end>
    4ec8:	00a70733          	add	a4,a4,a0
    4ecc:	38e6a423          	sw	a4,904(a3)
    4ed0:	00a78733          	add	a4,a5,a0
    4ed4:	02e5ea63          	bltu	a1,a4,4f08 <calloc_beebs+0x64>
    4ed8:	02050863          	beqz	a0,4f08 <calloc_beebs+0x64>
    4edc:	38e62823          	sw	a4,912(a2)
    4ee0:	00078c63          	beqz	a5,4ef8 <calloc_beebs+0x54>
    4ee4:	00050613          	mv	a2,a0
    4ee8:	00000593          	li	a1,0
    4eec:	00078513          	mv	a0,a5
    4ef0:	2f8000ef          	jal	ra,51e8 <memset>
    4ef4:	00050793          	mv	a5,a0
    4ef8:	00c12083          	lw	ra,12(sp)
    4efc:	00078513          	mv	a0,a5
    4f00:	01010113          	addi	sp,sp,16
    4f04:	00008067          	ret
    4f08:	00c12083          	lw	ra,12(sp)
    4f0c:	00000793          	li	a5,0
    4f10:	00078513          	mv	a0,a5
    4f14:	01010113          	addi	sp,sp,16
    4f18:	00008067          	ret

00004f1c <realloc_beebs>:
    4f1c:	00005737          	lui	a4,0x5
    4f20:	38872783          	lw	a5,904(a4) # 5388 <heap_requested>
    4f24:	00005637          	lui	a2,0x5
    4f28:	39062683          	lw	a3,912(a2) # 5390 <heap_ptr>
    4f2c:	00005837          	lui	a6,0x5
    4f30:	38c82803          	lw	a6,908(a6) # 538c <heap_end>
    4f34:	00b787b3          	add	a5,a5,a1
    4f38:	38f72423          	sw	a5,904(a4)
    4f3c:	00b687b3          	add	a5,a3,a1
    4f40:	02f86a63          	bltu	a6,a5,4f74 <realloc_beebs+0x58>
    4f44:	02058863          	beqz	a1,4f74 <realloc_beebs+0x58>
    4f48:	38f62823          	sw	a5,912(a2)
    4f4c:	02050063          	beqz	a0,4f6c <realloc_beebs+0x50>
    4f50:	00068793          	mv	a5,a3
    4f54:	00b505b3          	add	a1,a0,a1
    4f58:	00054703          	lbu	a4,0(a0)
    4f5c:	00178793          	addi	a5,a5,1
    4f60:	00150513          	addi	a0,a0,1
    4f64:	fee78fa3          	sb	a4,-1(a5)
    4f68:	feb518e3          	bne	a0,a1,4f58 <realloc_beebs+0x3c>
    4f6c:	00068513          	mv	a0,a3
    4f70:	00008067          	ret
    4f74:	00000693          	li	a3,0
    4f78:	00068513          	mv	a0,a3
    4f7c:	00008067          	ret

00004f80 <free_beebs>:
    4f80:	00008067          	ret

00004f84 <simrv_exit>:
    4f84:	000057b7          	lui	a5,0x5
    4f88:	3a07a783          	lw	a5,928(a5) # 53a0 <TOHOST_ADDR>
    4f8c:	00020737          	lui	a4,0x20
    4f90:	00e7a023          	sw	a4,0(a5)
    4f94:	0000006f          	j	4f94 <simrv_exit+0x10>

00004f98 <simrv_putc>:
    4f98:	000057b7          	lui	a5,0x5
    4f9c:	3a07a703          	lw	a4,928(a5) # 53a0 <TOHOST_ADDR>
    4fa0:	000107b7          	lui	a5,0x10
    4fa4:	00f56533          	or	a0,a0,a5
    4fa8:	00a72023          	sw	a0,0(a4) # 20000 <TOHOST_ADDR+0x1ac60>
    4fac:	00008067          	ret

00004fb0 <simrv_puts>:
    4fb0:	00054783          	lbu	a5,0(a0)
    4fb4:	02078263          	beqz	a5,4fd8 <simrv_puts+0x28>
    4fb8:	00005737          	lui	a4,0x5
    4fbc:	3a072683          	lw	a3,928(a4) # 53a0 <TOHOST_ADDR>
    4fc0:	00010737          	lui	a4,0x10
    4fc4:	00e7e7b3          	or	a5,a5,a4
    4fc8:	00f6a023          	sw	a5,0(a3)
    4fcc:	00150513          	addi	a0,a0,1
    4fd0:	00054783          	lbu	a5,0(a0)
    4fd4:	fe0798e3          	bnez	a5,4fc4 <simrv_puts+0x14>
    4fd8:	00008067          	ret

00004fdc <simrv_puti>:
    4fdc:	fd010113          	addi	sp,sp,-48
    4fe0:	02912223          	sw	s1,36(sp)
    4fe4:	03212023          	sw	s2,32(sp)
    4fe8:	01412c23          	sw	s4,24(sp)
    4fec:	02112623          	sw	ra,44(sp)
    4ff0:	02812423          	sw	s0,40(sp)
    4ff4:	01312e23          	sw	s3,28(sp)
    4ff8:	00050913          	mv	s2,a0
    4ffc:	00000493          	li	s1,0
    5000:	00410a13          	addi	s4,sp,4
    5004:	0080006f          	j	500c <simrv_puti+0x30>
    5008:	00098493          	mv	s1,s3
    500c:	00a00593          	li	a1,10
    5010:	00090513          	mv	a0,s2
    5014:	1a4000ef          	jal	ra,51b8 <__modsi3>
    5018:	03050513          	addi	a0,a0,48
    501c:	00148993          	addi	s3,s1,1
    5020:	0ff57413          	andi	s0,a0,255
    5024:	013a07b3          	add	a5,s4,s3
    5028:	00090513          	mv	a0,s2
    502c:	00a00593          	li	a1,10
    5030:	fe878fa3          	sb	s0,-1(a5) # ffff <TOHOST_ADDR+0xac5f>
    5034:	100000ef          	jal	ra,5134 <__divsi3>
    5038:	00050913          	mv	s2,a0
    503c:	fc0516e3          	bnez	a0,5008 <simrv_puti+0x2c>
    5040:	000057b7          	lui	a5,0x5
    5044:	3a07a603          	lw	a2,928(a5) # 53a0 <TOHOST_ADDR>
    5048:	000106b7          	lui	a3,0x10
    504c:	009a07b3          	add	a5,s4,s1
    5050:	00c0006f          	j	505c <simrv_puti+0x80>
    5054:	fff7c403          	lbu	s0,-1(a5)
    5058:	00070793          	mv	a5,a4
    505c:	00d46433          	or	s0,s0,a3
    5060:	00862023          	sw	s0,0(a2)
    5064:	fff78713          	addi	a4,a5,-1
    5068:	fefa16e3          	bne	s4,a5,5054 <simrv_puti+0x78>
    506c:	02c12083          	lw	ra,44(sp)
    5070:	02812403          	lw	s0,40(sp)
    5074:	02412483          	lw	s1,36(sp)
    5078:	02012903          	lw	s2,32(sp)
    507c:	01c12983          	lw	s3,28(sp)
    5080:	01812a03          	lw	s4,24(sp)
    5084:	03010113          	addi	sp,sp,48
    5088:	00008067          	ret

0000508c <simrv_puth>:
    508c:	ff010113          	addi	sp,sp,-16
    5090:	00000793          	li	a5,0
    5094:	00810593          	addi	a1,sp,8
    5098:	00900e13          	li	t3,9
    509c:	0140006f          	j	50b0 <simrv_puth+0x24>
    50a0:	fe688fa3          	sb	t1,-1(a7)
    50a4:	00455513          	srli	a0,a0,0x4
    50a8:	02050863          	beqz	a0,50d8 <simrv_puth+0x4c>
    50ac:	00060793          	mv	a5,a2
    50b0:	00f57713          	andi	a4,a0,15
    50b4:	0ff77693          	andi	a3,a4,255
    50b8:	00178613          	addi	a2,a5,1
    50bc:	03068313          	addi	t1,a3,48 # 10030 <TOHOST_ADDR+0xac90>
    50c0:	00c588b3          	add	a7,a1,a2
    50c4:	03768693          	addi	a3,a3,55
    50c8:	fcee7ce3          	bgeu	t3,a4,50a0 <simrv_puth+0x14>
    50cc:	fed88fa3          	sb	a3,-1(a7)
    50d0:	00455513          	srli	a0,a0,0x4
    50d4:	fc051ce3          	bnez	a0,50ac <simrv_puth+0x20>
    50d8:	0207c863          	bltz	a5,5108 <simrv_puth+0x7c>
    50dc:	00005737          	lui	a4,0x5
    50e0:	3a072503          	lw	a0,928(a4) # 53a0 <TOHOST_ADDR>
    50e4:	00f587b3          	add	a5,a1,a5
    50e8:	00010637          	lui	a2,0x10
    50ec:	0080006f          	j	50f4 <simrv_puth+0x68>
    50f0:	00068793          	mv	a5,a3
    50f4:	0007c703          	lbu	a4,0(a5)
    50f8:	fff78693          	addi	a3,a5,-1
    50fc:	00c76733          	or	a4,a4,a2
    5100:	00e52023          	sw	a4,0(a0)
    5104:	fef596e3          	bne	a1,a5,50f0 <simrv_puth+0x64>
    5108:	01010113          	addi	sp,sp,16
    510c:	00008067          	ret

00005110 <__mulsi3>:
    5110:	00050613          	mv	a2,a0
    5114:	00000513          	li	a0,0
    5118:	0015f693          	andi	a3,a1,1
    511c:	00068463          	beqz	a3,5124 <__mulsi3+0x14>
    5120:	00c50533          	add	a0,a0,a2
    5124:	0015d593          	srli	a1,a1,0x1
    5128:	00161613          	slli	a2,a2,0x1
    512c:	fe0596e3          	bnez	a1,5118 <__mulsi3+0x8>
    5130:	00008067          	ret

00005134 <__divsi3>:
    5134:	06054063          	bltz	a0,5194 <__umodsi3+0x10>
    5138:	0605c663          	bltz	a1,51a4 <__umodsi3+0x20>

0000513c <__udivsi3>:
    513c:	00058613          	mv	a2,a1
    5140:	00050593          	mv	a1,a0
    5144:	fff00513          	li	a0,-1
    5148:	02060c63          	beqz	a2,5180 <__udivsi3+0x44>
    514c:	00100693          	li	a3,1
    5150:	00b67a63          	bgeu	a2,a1,5164 <__udivsi3+0x28>
    5154:	00c05863          	blez	a2,5164 <__udivsi3+0x28>
    5158:	00161613          	slli	a2,a2,0x1
    515c:	00169693          	slli	a3,a3,0x1
    5160:	feb66ae3          	bltu	a2,a1,5154 <__udivsi3+0x18>
    5164:	00000513          	li	a0,0
    5168:	00c5e663          	bltu	a1,a2,5174 <__udivsi3+0x38>
    516c:	40c585b3          	sub	a1,a1,a2
    5170:	00d56533          	or	a0,a0,a3
    5174:	0016d693          	srli	a3,a3,0x1
    5178:	00165613          	srli	a2,a2,0x1
    517c:	fe0696e3          	bnez	a3,5168 <__udivsi3+0x2c>
    5180:	00008067          	ret

00005184 <__umodsi3>:
    5184:	00008293          	mv	t0,ra
    5188:	fb5ff0ef          	jal	ra,513c <__udivsi3>
    518c:	00058513          	mv	a0,a1
    5190:	00028067          	jr	t0
    5194:	40a00533          	neg	a0,a0
    5198:	0005d863          	bgez	a1,51a8 <__umodsi3+0x24>
    519c:	40b005b3          	neg	a1,a1
    51a0:	f9dff06f          	j	513c <__udivsi3>
    51a4:	40b005b3          	neg	a1,a1
    51a8:	00008293          	mv	t0,ra
    51ac:	f91ff0ef          	jal	ra,513c <__udivsi3>
    51b0:	40a00533          	neg	a0,a0
    51b4:	00028067          	jr	t0

000051b8 <__modsi3>:
    51b8:	00008293          	mv	t0,ra
    51bc:	0005ca63          	bltz	a1,51d0 <__modsi3+0x18>
    51c0:	00054c63          	bltz	a0,51d8 <__modsi3+0x20>
    51c4:	f79ff0ef          	jal	ra,513c <__udivsi3>
    51c8:	00058513          	mv	a0,a1
    51cc:	00028067          	jr	t0
    51d0:	40b005b3          	neg	a1,a1
    51d4:	fe0558e3          	bgez	a0,51c4 <__modsi3+0xc>
    51d8:	40a00533          	neg	a0,a0
    51dc:	f61ff0ef          	jal	ra,513c <__udivsi3>
    51e0:	40b00533          	neg	a0,a1
    51e4:	00028067          	jr	t0

000051e8 <memset>:
    51e8:	00f00313          	li	t1,15
    51ec:	00050713          	mv	a4,a0
    51f0:	02c37e63          	bgeu	t1,a2,522c <memset+0x44>
    51f4:	00f77793          	andi	a5,a4,15
    51f8:	0a079063          	bnez	a5,5298 <memset+0xb0>
    51fc:	08059263          	bnez	a1,5280 <memset+0x98>
    5200:	ff067693          	andi	a3,a2,-16
    5204:	00f67613          	andi	a2,a2,15
    5208:	00e686b3          	add	a3,a3,a4
    520c:	00b72023          	sw	a1,0(a4)
    5210:	00b72223          	sw	a1,4(a4)
    5214:	00b72423          	sw	a1,8(a4)
    5218:	00b72623          	sw	a1,12(a4)
    521c:	01070713          	addi	a4,a4,16
    5220:	fed766e3          	bltu	a4,a3,520c <memset+0x24>
    5224:	00061463          	bnez	a2,522c <memset+0x44>
    5228:	00008067          	ret
    522c:	40c306b3          	sub	a3,t1,a2
    5230:	00269693          	slli	a3,a3,0x2
    5234:	00000297          	auipc	t0,0x0
    5238:	005686b3          	add	a3,a3,t0
    523c:	00c68067          	jr	12(a3)
    5240:	00b70723          	sb	a1,14(a4)
    5244:	00b706a3          	sb	a1,13(a4)
    5248:	00b70623          	sb	a1,12(a4)
    524c:	00b705a3          	sb	a1,11(a4)
    5250:	00b70523          	sb	a1,10(a4)
    5254:	00b704a3          	sb	a1,9(a4)
    5258:	00b70423          	sb	a1,8(a4)
    525c:	00b703a3          	sb	a1,7(a4)
    5260:	00b70323          	sb	a1,6(a4)
    5264:	00b702a3          	sb	a1,5(a4)
    5268:	00b70223          	sb	a1,4(a4)
    526c:	00b701a3          	sb	a1,3(a4)
    5270:	00b70123          	sb	a1,2(a4)
    5274:	00b700a3          	sb	a1,1(a4)
    5278:	00b70023          	sb	a1,0(a4)
    527c:	00008067          	ret
    5280:	0ff5f593          	andi	a1,a1,255
    5284:	00859693          	slli	a3,a1,0x8
    5288:	00d5e5b3          	or	a1,a1,a3
    528c:	01059693          	slli	a3,a1,0x10
    5290:	00d5e5b3          	or	a1,a1,a3
    5294:	f6dff06f          	j	5200 <memset+0x18>
    5298:	00279693          	slli	a3,a5,0x2
    529c:	00000297          	auipc	t0,0x0
    52a0:	005686b3          	add	a3,a3,t0
    52a4:	00008293          	mv	t0,ra
    52a8:	fa0680e7          	jalr	-96(a3)
    52ac:	00028093          	mv	ra,t0
    52b0:	ff078793          	addi	a5,a5,-16
    52b4:	40f70733          	sub	a4,a4,a5
    52b8:	00f60633          	add	a2,a2,a5
    52bc:	f6c378e3          	bgeu	t1,a2,522c <memset+0x44>
    52c0:	f3dff06f          	j	51fc <memset+0x14>

Disassembly of section .text.startup:

000052c4 <main>:
    52c4:	fe010113          	addi	sp,sp,-32
    52c8:	00112e23          	sw	ra,28(sp)
    52cc:	00812c23          	sw	s0,24(sp)
    52d0:	acdff0ef          	jal	ra,4d9c <initialise_board>
    52d4:	989ff0ef          	jal	ra,4c5c <initialise_benchmark>
    52d8:	00100513          	li	a0,1
    52dc:	985ff0ef          	jal	ra,4c60 <warm_caches>
    52e0:	ac5ff0ef          	jal	ra,4da4 <start_trigger>
    52e4:	981ff0ef          	jal	ra,4c64 <benchmark>
    52e8:	00a12623          	sw	a0,12(sp)
    52ec:	ac1ff0ef          	jal	ra,4dac <stop_trigger>
    52f0:	00c12503          	lw	a0,12(sp)
    52f4:	97dff0ef          	jal	ra,4c70 <verify_benchmark>
    52f8:	00050413          	mv	s0,a0
    52fc:	02050463          	beqz	a0,5324 <main+0x60>
    5300:	00005537          	lui	a0,0x5
    5304:	33450513          	addi	a0,a0,820 # 5334 <main+0x70>
    5308:	ca9ff0ef          	jal	ra,4fb0 <simrv_puts>
    530c:	c79ff0ef          	jal	ra,4f84 <simrv_exit>
    5310:	00143513          	seqz	a0,s0
    5314:	01c12083          	lw	ra,28(sp)
    5318:	01812403          	lw	s0,24(sp)
    531c:	02010113          	addi	sp,sp,32
    5320:	00008067          	ret
    5324:	00005537          	lui	a0,0x5
    5328:	34050513          	addi	a0,a0,832 # 5340 <main+0x7c>
    532c:	c85ff0ef          	jal	ra,4fb0 <simrv_puts>
    5330:	fddff06f          	j	530c <main+0x48>
