
bd/src/picojpeg/picojpeg:     file format elf32-littleriscv


Disassembly of section .init:

00000000 <_start>:
   0:	00000013          	nop
   4:	00000033          	add	zero,zero,zero
   8:	000000b3          	add	ra,zero,zero
   c:	00000133          	add	sp,zero,zero
  10:	000001b3          	add	gp,zero,zero
  14:	00000233          	add	tp,zero,zero
  18:	000002b3          	add	t0,zero,zero
  1c:	00000333          	add	t1,zero,zero
  20:	000003b3          	add	t2,zero,zero
  24:	00000433          	add	s0,zero,zero
  28:	000004b3          	add	s1,zero,zero
  2c:	00000533          	add	a0,zero,zero
  30:	000005b3          	add	a1,zero,zero
  34:	00000633          	add	a2,zero,zero
  38:	000006b3          	add	a3,zero,zero
  3c:	00000733          	add	a4,zero,zero
  40:	000007b3          	add	a5,zero,zero
  44:	00000833          	add	a6,zero,zero
  48:	000008b3          	add	a7,zero,zero
  4c:	00000933          	add	s2,zero,zero
  50:	000009b3          	add	s3,zero,zero
  54:	00000a33          	add	s4,zero,zero
  58:	00000ab3          	add	s5,zero,zero
  5c:	00000b33          	add	s6,zero,zero
  60:	00000bb3          	add	s7,zero,zero
  64:	00000c33          	add	s8,zero,zero
  68:	00000cb3          	add	s9,zero,zero
  6c:	00000d33          	add	s10,zero,zero
  70:	00000db3          	add	s11,zero,zero
  74:	00000e33          	add	t3,zero,zero
  78:	00000eb3          	add	t4,zero,zero
  7c:	00000f33          	add	t5,zero,zero
  80:	00000fb3          	add	t6,zero,zero
  84:	00010137          	lui	sp,0x10
  88:	3300406f          	j	43b8 <main>
  8c:	00000013          	nop

Disassembly of section .text:

00000090 <upsampleCb>:
      90:	000057b7          	lui	a5,0x5
      94:	87478793          	addi	a5,a5,-1932 # 4874 <gCoeffBuf>
      98:	00151e93          	slli	t4,a0,0x1
      9c:	01d78eb3          	add	t4,a5,t4
      a0:	08078e13          	addi	t3,a5,128
      a4:	18078793          	addi	a5,a5,384
      a8:	00be0e33          	add	t3,t3,a1
      ac:	008e8313          	addi	t1,t4,8
      b0:	00b785b3          	add	a1,a5,a1
      b4:	048e8e93          	addi	t4,t4,72
      b8:	0ff00693          	li	a3,255
      bc:	ff830893          	addi	a7,t1,-8
      c0:	00058513          	mv	a0,a1
      c4:	000e0613          	mv	a2,t3
      c8:	00288893          	addi	a7,a7,2
      cc:	ffe89783          	lh	a5,-2(a7)
      d0:	00064f03          	lbu	t5,0(a2)
      d4:	0ff7ff93          	andi	t6,a5,255
      d8:	001f9813          	slli	a6,t6,0x1
      dc:	01f80733          	add	a4,a6,t6
      e0:	00271713          	slli	a4,a4,0x2
      e4:	41f70733          	sub	a4,a4,t6
      e8:	00371713          	slli	a4,a4,0x3
      ec:	00875713          	srli	a4,a4,0x8
      f0:	fd470713          	addi	a4,a4,-44
      f4:	01071713          	slli	a4,a4,0x10
      f8:	01075713          	srli	a4,a4,0x10
      fc:	40ef0f33          	sub	t5,t5,a4
     100:	010f1f13          	slli	t5,t5,0x10
     104:	010f5f13          	srli	t5,t5,0x10
     108:	01e6fe63          	bgeu	a3,t5,124 <upsampleCb+0x94>
     10c:	010f1393          	slli	t2,t5,0x10
     110:	4103d393          	srai	t2,t2,0x10
     114:	00000293          	li	t0,0
     118:	0003c863          	bltz	t2,128 <upsampleCb+0x98>
     11c:	0ff00293          	li	t0,255
     120:	0076c463          	blt	a3,t2,128 <upsampleCb+0x98>
     124:	0fff7293          	andi	t0,t5,255
     128:	00164f03          	lbu	t5,1(a2)
     12c:	00560023          	sb	t0,0(a2)
     130:	40ef0f33          	sub	t5,t5,a4
     134:	010f1f13          	slli	t5,t5,0x10
     138:	010f5f13          	srli	t5,t5,0x10
     13c:	01e6fe63          	bgeu	a3,t5,158 <upsampleCb+0xc8>
     140:	010f1393          	slli	t2,t5,0x10
     144:	4103d393          	srai	t2,t2,0x10
     148:	00000293          	li	t0,0
     14c:	0003c863          	bltz	t2,15c <upsampleCb+0xcc>
     150:	0ff00293          	li	t0,255
     154:	0076c463          	blt	a3,t2,15c <upsampleCb+0xcc>
     158:	0fff7293          	andi	t0,t5,255
     15c:	00864f03          	lbu	t5,8(a2)
     160:	005600a3          	sb	t0,1(a2)
     164:	40ef0f33          	sub	t5,t5,a4
     168:	010f1f13          	slli	t5,t5,0x10
     16c:	010f5f13          	srli	t5,t5,0x10
     170:	01e6fe63          	bgeu	a3,t5,18c <upsampleCb+0xfc>
     174:	010f1393          	slli	t2,t5,0x10
     178:	4103d393          	srai	t2,t2,0x10
     17c:	00000293          	li	t0,0
     180:	0003c863          	bltz	t2,190 <upsampleCb+0x100>
     184:	0ff00293          	li	t0,255
     188:	0076c463          	blt	a3,t2,190 <upsampleCb+0x100>
     18c:	0fff7293          	andi	t0,t5,255
     190:	00964f03          	lbu	t5,9(a2)
     194:	00560423          	sb	t0,8(a2)
     198:	40ef0733          	sub	a4,t5,a4
     19c:	01071713          	slli	a4,a4,0x10
     1a0:	01075713          	srli	a4,a4,0x10
     1a4:	00e6fe63          	bgeu	a3,a4,1c0 <upsampleCb+0x130>
     1a8:	01071293          	slli	t0,a4,0x10
     1ac:	4102d293          	srai	t0,t0,0x10
     1b0:	00000f13          	li	t5,0
     1b4:	0002c863          	bltz	t0,1c4 <upsampleCb+0x134>
     1b8:	0ff00f13          	li	t5,255
     1bc:	0056c463          	blt	a3,t0,1c4 <upsampleCb+0x134>
     1c0:	0ff77f13          	andi	t5,a4,255
     1c4:	01f80733          	add	a4,a6,t6
     1c8:	00571813          	slli	a6,a4,0x5
     1cc:	01070733          	add	a4,a4,a6
     1d0:	0ff7f793          	andi	a5,a5,255
     1d4:	00775713          	srli	a4,a4,0x7
     1d8:	f1d78793          	addi	a5,a5,-227
     1dc:	00e787b3          	add	a5,a5,a4
     1e0:	00054803          	lbu	a6,0(a0)
     1e4:	01079793          	slli	a5,a5,0x10
     1e8:	0107d793          	srli	a5,a5,0x10
     1ec:	01078733          	add	a4,a5,a6
     1f0:	01071713          	slli	a4,a4,0x10
     1f4:	01e604a3          	sb	t5,9(a2)
     1f8:	01075713          	srli	a4,a4,0x10
     1fc:	00e6fe63          	bgeu	a3,a4,218 <upsampleCb+0x188>
     200:	01071f13          	slli	t5,a4,0x10
     204:	410f5f13          	srai	t5,t5,0x10
     208:	00000813          	li	a6,0
     20c:	000f4863          	bltz	t5,21c <upsampleCb+0x18c>
     210:	0ff00813          	li	a6,255
     214:	01e6c463          	blt	a3,t5,21c <upsampleCb+0x18c>
     218:	0ff77813          	andi	a6,a4,255
     21c:	00154703          	lbu	a4,1(a0)
     220:	01050023          	sb	a6,0(a0)
     224:	00e78733          	add	a4,a5,a4
     228:	01071713          	slli	a4,a4,0x10
     22c:	01075713          	srli	a4,a4,0x10
     230:	00e6fe63          	bgeu	a3,a4,24c <upsampleCb+0x1bc>
     234:	01071f13          	slli	t5,a4,0x10
     238:	410f5f13          	srai	t5,t5,0x10
     23c:	00000813          	li	a6,0
     240:	000f4863          	bltz	t5,250 <upsampleCb+0x1c0>
     244:	0ff00813          	li	a6,255
     248:	01e6c463          	blt	a3,t5,250 <upsampleCb+0x1c0>
     24c:	0ff77813          	andi	a6,a4,255
     250:	00854703          	lbu	a4,8(a0)
     254:	010500a3          	sb	a6,1(a0)
     258:	00e78733          	add	a4,a5,a4
     25c:	01071713          	slli	a4,a4,0x10
     260:	01075713          	srli	a4,a4,0x10
     264:	00e6fe63          	bgeu	a3,a4,280 <upsampleCb+0x1f0>
     268:	01071f13          	slli	t5,a4,0x10
     26c:	410f5f13          	srai	t5,t5,0x10
     270:	00000813          	li	a6,0
     274:	000f4863          	bltz	t5,284 <upsampleCb+0x1f4>
     278:	0ff00813          	li	a6,255
     27c:	01e6c463          	blt	a3,t5,284 <upsampleCb+0x1f4>
     280:	0ff77813          	andi	a6,a4,255
     284:	00954703          	lbu	a4,9(a0)
     288:	01050423          	sb	a6,8(a0)
     28c:	00e787b3          	add	a5,a5,a4
     290:	01079793          	slli	a5,a5,0x10
     294:	0107d793          	srli	a5,a5,0x10
     298:	00f6fe63          	bgeu	a3,a5,2b4 <upsampleCb+0x224>
     29c:	01079813          	slli	a6,a5,0x10
     2a0:	41085813          	srai	a6,a6,0x10
     2a4:	00000713          	li	a4,0
     2a8:	00084863          	bltz	a6,2b8 <upsampleCb+0x228>
     2ac:	0ff00713          	li	a4,255
     2b0:	0106c463          	blt	a3,a6,2b8 <upsampleCb+0x228>
     2b4:	0ff7f713          	andi	a4,a5,255
     2b8:	00e504a3          	sb	a4,9(a0)
     2bc:	00260613          	addi	a2,a2,2
     2c0:	00250513          	addi	a0,a0,2
     2c4:	e06892e3          	bne	a7,t1,c8 <upsampleCb+0x38>
     2c8:	01088313          	addi	t1,a7,16
     2cc:	010e0e13          	addi	t3,t3,16
     2d0:	01058593          	addi	a1,a1,16
     2d4:	de6e94e3          	bne	t4,t1,bc <upsampleCb+0x2c>
     2d8:	00008067          	ret

000002dc <upsampleCbH>:
     2dc:	000057b7          	lui	a5,0x5
     2e0:	87478793          	addi	a5,a5,-1932 # 4874 <gCoeffBuf>
     2e4:	00151e93          	slli	t4,a0,0x1
     2e8:	01d78eb3          	add	t4,a5,t4
     2ec:	08078e13          	addi	t3,a5,128
     2f0:	18078793          	addi	a5,a5,384
     2f4:	00be0e33          	add	t3,t3,a1
     2f8:	008e8313          	addi	t1,t4,8
     2fc:	00b785b3          	add	a1,a5,a1
     300:	088e8e93          	addi	t4,t4,136
     304:	0ff00813          	li	a6,255
     308:	ff830893          	addi	a7,t1,-8
     30c:	00058513          	mv	a0,a1
     310:	000e0613          	mv	a2,t3
     314:	00288893          	addi	a7,a7,2
     318:	ffe89783          	lh	a5,-2(a7)
     31c:	00064f03          	lbu	t5,0(a2)
     320:	0ff7ff93          	andi	t6,a5,255
     324:	001f9693          	slli	a3,t6,0x1
     328:	01f68733          	add	a4,a3,t6
     32c:	00271713          	slli	a4,a4,0x2
     330:	41f70733          	sub	a4,a4,t6
     334:	00371713          	slli	a4,a4,0x3
     338:	00875713          	srli	a4,a4,0x8
     33c:	fd470713          	addi	a4,a4,-44
     340:	01071713          	slli	a4,a4,0x10
     344:	01075713          	srli	a4,a4,0x10
     348:	40ef0f33          	sub	t5,t5,a4
     34c:	010f1f13          	slli	t5,t5,0x10
     350:	010f5f13          	srli	t5,t5,0x10
     354:	01e87e63          	bgeu	a6,t5,370 <upsampleCbH+0x94>
     358:	010f1393          	slli	t2,t5,0x10
     35c:	4103d393          	srai	t2,t2,0x10
     360:	00000293          	li	t0,0
     364:	0003c863          	bltz	t2,374 <upsampleCbH+0x98>
     368:	0ff00293          	li	t0,255
     36c:	00784463          	blt	a6,t2,374 <upsampleCbH+0x98>
     370:	0fff7293          	andi	t0,t5,255
     374:	00164f03          	lbu	t5,1(a2)
     378:	00560023          	sb	t0,0(a2)
     37c:	40ef0733          	sub	a4,t5,a4
     380:	01071713          	slli	a4,a4,0x10
     384:	01075713          	srli	a4,a4,0x10
     388:	00e87e63          	bgeu	a6,a4,3a4 <upsampleCbH+0xc8>
     38c:	01071293          	slli	t0,a4,0x10
     390:	4102d293          	srai	t0,t0,0x10
     394:	00000f13          	li	t5,0
     398:	0002c863          	bltz	t0,3a8 <upsampleCbH+0xcc>
     39c:	0ff00f13          	li	t5,255
     3a0:	00584463          	blt	a6,t0,3a8 <upsampleCbH+0xcc>
     3a4:	0ff77f13          	andi	t5,a4,255
     3a8:	01f68733          	add	a4,a3,t6
     3ac:	00571693          	slli	a3,a4,0x5
     3b0:	00d70733          	add	a4,a4,a3
     3b4:	0ff7f793          	andi	a5,a5,255
     3b8:	00775713          	srli	a4,a4,0x7
     3bc:	f1d78793          	addi	a5,a5,-227
     3c0:	00e787b3          	add	a5,a5,a4
     3c4:	00054683          	lbu	a3,0(a0)
     3c8:	01079793          	slli	a5,a5,0x10
     3cc:	0107d793          	srli	a5,a5,0x10
     3d0:	00d78733          	add	a4,a5,a3
     3d4:	01071713          	slli	a4,a4,0x10
     3d8:	01e600a3          	sb	t5,1(a2)
     3dc:	01075713          	srli	a4,a4,0x10
     3e0:	00e87e63          	bgeu	a6,a4,3fc <upsampleCbH+0x120>
     3e4:	01071f13          	slli	t5,a4,0x10
     3e8:	410f5f13          	srai	t5,t5,0x10
     3ec:	00000693          	li	a3,0
     3f0:	000f4863          	bltz	t5,400 <upsampleCbH+0x124>
     3f4:	0ff00693          	li	a3,255
     3f8:	01e84463          	blt	a6,t5,400 <upsampleCbH+0x124>
     3fc:	0ff77693          	andi	a3,a4,255
     400:	00154703          	lbu	a4,1(a0)
     404:	00d50023          	sb	a3,0(a0)
     408:	00e787b3          	add	a5,a5,a4
     40c:	01079793          	slli	a5,a5,0x10
     410:	0107d793          	srli	a5,a5,0x10
     414:	00f87e63          	bgeu	a6,a5,430 <upsampleCbH+0x154>
     418:	01079693          	slli	a3,a5,0x10
     41c:	4106d693          	srai	a3,a3,0x10
     420:	00000713          	li	a4,0
     424:	0006c863          	bltz	a3,434 <upsampleCbH+0x158>
     428:	0ff00713          	li	a4,255
     42c:	00d84463          	blt	a6,a3,434 <upsampleCbH+0x158>
     430:	0ff7f713          	andi	a4,a5,255
     434:	00e500a3          	sb	a4,1(a0)
     438:	00260613          	addi	a2,a2,2
     43c:	00250513          	addi	a0,a0,2
     440:	ec689ae3          	bne	a7,t1,314 <upsampleCbH+0x38>
     444:	01088313          	addi	t1,a7,16
     448:	008e0e13          	addi	t3,t3,8
     44c:	00858593          	addi	a1,a1,8
     450:	ea6e9ce3          	bne	t4,t1,308 <upsampleCbH+0x2c>
     454:	00008067          	ret

00000458 <upsampleCbV>:
     458:	00005337          	lui	t1,0x5
     45c:	87430313          	addi	t1,t1,-1932 # 4874 <gCoeffBuf>
     460:	08030e13          	addi	t3,t1,128
     464:	00151513          	slli	a0,a0,0x1
     468:	00be0e33          	add	t3,t3,a1
     46c:	18030793          	addi	a5,t1,384
     470:	01050513          	addi	a0,a0,16
     474:	00b785b3          	add	a1,a5,a1
     478:	00a30333          	add	t1,t1,a0
     47c:	040e0e93          	addi	t4,t3,64
     480:	0ff00813          	li	a6,255
     484:	ff030893          	addi	a7,t1,-16
     488:	00058513          	mv	a0,a1
     48c:	000e0613          	mv	a2,t3
     490:	00288893          	addi	a7,a7,2
     494:	ffe89783          	lh	a5,-2(a7)
     498:	00064f03          	lbu	t5,0(a2)
     49c:	0ff7ff93          	andi	t6,a5,255
     4a0:	001f9693          	slli	a3,t6,0x1
     4a4:	01f68733          	add	a4,a3,t6
     4a8:	00271713          	slli	a4,a4,0x2
     4ac:	41f70733          	sub	a4,a4,t6
     4b0:	00371713          	slli	a4,a4,0x3
     4b4:	00875713          	srli	a4,a4,0x8
     4b8:	fd470713          	addi	a4,a4,-44
     4bc:	01071713          	slli	a4,a4,0x10
     4c0:	01075713          	srli	a4,a4,0x10
     4c4:	40ef0f33          	sub	t5,t5,a4
     4c8:	010f1f13          	slli	t5,t5,0x10
     4cc:	010f5f13          	srli	t5,t5,0x10
     4d0:	01e87e63          	bgeu	a6,t5,4ec <upsampleCbV+0x94>
     4d4:	010f1393          	slli	t2,t5,0x10
     4d8:	4103d393          	srai	t2,t2,0x10
     4dc:	00000293          	li	t0,0
     4e0:	0003c863          	bltz	t2,4f0 <upsampleCbV+0x98>
     4e4:	0ff00293          	li	t0,255
     4e8:	00784463          	blt	a6,t2,4f0 <upsampleCbV+0x98>
     4ec:	0fff7293          	andi	t0,t5,255
     4f0:	00864f03          	lbu	t5,8(a2)
     4f4:	00560023          	sb	t0,0(a2)
     4f8:	40ef0733          	sub	a4,t5,a4
     4fc:	01071713          	slli	a4,a4,0x10
     500:	01075713          	srli	a4,a4,0x10
     504:	00e87e63          	bgeu	a6,a4,520 <upsampleCbV+0xc8>
     508:	01071293          	slli	t0,a4,0x10
     50c:	4102d293          	srai	t0,t0,0x10
     510:	00000f13          	li	t5,0
     514:	0002c863          	bltz	t0,524 <upsampleCbV+0xcc>
     518:	0ff00f13          	li	t5,255
     51c:	00584463          	blt	a6,t0,524 <upsampleCbV+0xcc>
     520:	0ff77f13          	andi	t5,a4,255
     524:	01f68733          	add	a4,a3,t6
     528:	00571693          	slli	a3,a4,0x5
     52c:	00d70733          	add	a4,a4,a3
     530:	0ff7f793          	andi	a5,a5,255
     534:	00775713          	srli	a4,a4,0x7
     538:	f1d78793          	addi	a5,a5,-227
     53c:	00e787b3          	add	a5,a5,a4
     540:	00054683          	lbu	a3,0(a0)
     544:	01079793          	slli	a5,a5,0x10
     548:	0107d793          	srli	a5,a5,0x10
     54c:	00d78733          	add	a4,a5,a3
     550:	01071713          	slli	a4,a4,0x10
     554:	01e60423          	sb	t5,8(a2)
     558:	01075713          	srli	a4,a4,0x10
     55c:	00e87e63          	bgeu	a6,a4,578 <upsampleCbV+0x120>
     560:	01071f13          	slli	t5,a4,0x10
     564:	410f5f13          	srai	t5,t5,0x10
     568:	00000693          	li	a3,0
     56c:	000f4863          	bltz	t5,57c <upsampleCbV+0x124>
     570:	0ff00693          	li	a3,255
     574:	01e84463          	blt	a6,t5,57c <upsampleCbV+0x124>
     578:	0ff77693          	andi	a3,a4,255
     57c:	00854703          	lbu	a4,8(a0)
     580:	00d50023          	sb	a3,0(a0)
     584:	00e787b3          	add	a5,a5,a4
     588:	01079793          	slli	a5,a5,0x10
     58c:	0107d793          	srli	a5,a5,0x10
     590:	00f87e63          	bgeu	a6,a5,5ac <upsampleCbV+0x154>
     594:	01079693          	slli	a3,a5,0x10
     598:	4106d693          	srai	a3,a3,0x10
     59c:	00000713          	li	a4,0
     5a0:	0006c863          	bltz	a3,5b0 <upsampleCbV+0x158>
     5a4:	0ff00713          	li	a4,255
     5a8:	00d84463          	blt	a6,a3,5b0 <upsampleCbV+0x158>
     5ac:	0ff7f713          	andi	a4,a5,255
     5b0:	00e50423          	sb	a4,8(a0)
     5b4:	00160613          	addi	a2,a2,1
     5b8:	00150513          	addi	a0,a0,1
     5bc:	ec689ae3          	bne	a7,t1,490 <upsampleCbV+0x38>
     5c0:	010e0e13          	addi	t3,t3,16
     5c4:	01058593          	addi	a1,a1,16
     5c8:	01088313          	addi	t1,a7,16
     5cc:	ebde1ce3          	bne	t3,t4,484 <upsampleCbV+0x2c>
     5d0:	00008067          	ret

000005d4 <upsampleCr>:
     5d4:	000057b7          	lui	a5,0x5
     5d8:	87478793          	addi	a5,a5,-1932 # 4874 <gCoeffBuf>
     5dc:	00151e93          	slli	t4,a0,0x1
     5e0:	01d78eb3          	add	t4,a5,t4
     5e4:	28078e13          	addi	t3,a5,640
     5e8:	08078793          	addi	a5,a5,128
     5ec:	00be0e33          	add	t3,t3,a1
     5f0:	008e8313          	addi	t1,t4,8
     5f4:	00b785b3          	add	a1,a5,a1
     5f8:	048e8e93          	addi	t4,t4,72
     5fc:	0ff00613          	li	a2,255
     600:	ff830893          	addi	a7,t1,-8
     604:	00058813          	mv	a6,a1
     608:	000e0513          	mv	a0,t3
     60c:	00288893          	addi	a7,a7,2
     610:	ffe89703          	lh	a4,-2(a7)
     614:	00054f83          	lbu	t6,0(a0)
     618:	0ff77f13          	andi	t5,a4,255
     61c:	001f1793          	slli	a5,t5,0x1
     620:	01e786b3          	add	a3,a5,t5
     624:	00269693          	slli	a3,a3,0x2
     628:	01e686b3          	add	a3,a3,t5
     62c:	00369693          	slli	a3,a3,0x3
     630:	0ff77713          	andi	a4,a4,255
     634:	41e686b3          	sub	a3,a3,t5
     638:	0086d693          	srli	a3,a3,0x8
     63c:	f4d70713          	addi	a4,a4,-179
     640:	00d70733          	add	a4,a4,a3
     644:	01071713          	slli	a4,a4,0x10
     648:	01075713          	srli	a4,a4,0x10
     64c:	01f706b3          	add	a3,a4,t6
     650:	01069693          	slli	a3,a3,0x10
     654:	0106d693          	srli	a3,a3,0x10
     658:	00d67e63          	bgeu	a2,a3,674 <upsampleCr+0xa0>
     65c:	01069293          	slli	t0,a3,0x10
     660:	4102d293          	srai	t0,t0,0x10
     664:	00000f93          	li	t6,0
     668:	0002c863          	bltz	t0,678 <upsampleCr+0xa4>
     66c:	0ff00f93          	li	t6,255
     670:	00564463          	blt	a2,t0,678 <upsampleCr+0xa4>
     674:	0ff6ff93          	andi	t6,a3,255
     678:	00154683          	lbu	a3,1(a0)
     67c:	01f50023          	sb	t6,0(a0)
     680:	00d706b3          	add	a3,a4,a3
     684:	01069693          	slli	a3,a3,0x10
     688:	0106d693          	srli	a3,a3,0x10
     68c:	00d67e63          	bgeu	a2,a3,6a8 <upsampleCr+0xd4>
     690:	01069293          	slli	t0,a3,0x10
     694:	4102d293          	srai	t0,t0,0x10
     698:	00000f93          	li	t6,0
     69c:	0002c863          	bltz	t0,6ac <upsampleCr+0xd8>
     6a0:	0ff00f93          	li	t6,255
     6a4:	00564463          	blt	a2,t0,6ac <upsampleCr+0xd8>
     6a8:	0ff6ff93          	andi	t6,a3,255
     6ac:	00854683          	lbu	a3,8(a0)
     6b0:	01f500a3          	sb	t6,1(a0)
     6b4:	00d706b3          	add	a3,a4,a3
     6b8:	01069693          	slli	a3,a3,0x10
     6bc:	0106d693          	srli	a3,a3,0x10
     6c0:	00d67e63          	bgeu	a2,a3,6dc <upsampleCr+0x108>
     6c4:	01069293          	slli	t0,a3,0x10
     6c8:	4102d293          	srai	t0,t0,0x10
     6cc:	00000f93          	li	t6,0
     6d0:	0002c863          	bltz	t0,6e0 <upsampleCr+0x10c>
     6d4:	0ff00f93          	li	t6,255
     6d8:	00564463          	blt	a2,t0,6e0 <upsampleCr+0x10c>
     6dc:	0ff6ff93          	andi	t6,a3,255
     6e0:	00954683          	lbu	a3,9(a0)
     6e4:	01f50423          	sb	t6,8(a0)
     6e8:	00d70733          	add	a4,a4,a3
     6ec:	01071713          	slli	a4,a4,0x10
     6f0:	01075713          	srli	a4,a4,0x10
     6f4:	00e67e63          	bgeu	a2,a4,710 <upsampleCr+0x13c>
     6f8:	01071f93          	slli	t6,a4,0x10
     6fc:	410fdf93          	srai	t6,t6,0x10
     700:	00000693          	li	a3,0
     704:	000fc863          	bltz	t6,714 <upsampleCr+0x140>
     708:	0ff00693          	li	a3,255
     70c:	01f64463          	blt	a2,t6,714 <upsampleCr+0x140>
     710:	0ff77693          	andi	a3,a4,255
     714:	01e787b3          	add	a5,a5,t5
     718:	00379793          	slli	a5,a5,0x3
     71c:	41e787b3          	sub	a5,a5,t5
     720:	00379793          	slli	a5,a5,0x3
     724:	41e787b3          	sub	a5,a5,t5
     728:	0087d793          	srli	a5,a5,0x8
     72c:	00084703          	lbu	a4,0(a6)
     730:	fa578793          	addi	a5,a5,-91
     734:	01079793          	slli	a5,a5,0x10
     738:	0107d793          	srli	a5,a5,0x10
     73c:	40f70733          	sub	a4,a4,a5
     740:	01071713          	slli	a4,a4,0x10
     744:	00d504a3          	sb	a3,9(a0)
     748:	01075713          	srli	a4,a4,0x10
     74c:	00e67e63          	bgeu	a2,a4,768 <upsampleCr+0x194>
     750:	01071f13          	slli	t5,a4,0x10
     754:	410f5f13          	srai	t5,t5,0x10
     758:	00000693          	li	a3,0
     75c:	000f4863          	bltz	t5,76c <upsampleCr+0x198>
     760:	0ff00693          	li	a3,255
     764:	01e64463          	blt	a2,t5,76c <upsampleCr+0x198>
     768:	0ff77693          	andi	a3,a4,255
     76c:	00184703          	lbu	a4,1(a6)
     770:	00d80023          	sb	a3,0(a6)
     774:	40f70733          	sub	a4,a4,a5
     778:	01071713          	slli	a4,a4,0x10
     77c:	01075713          	srli	a4,a4,0x10
     780:	00e67e63          	bgeu	a2,a4,79c <upsampleCr+0x1c8>
     784:	01071f13          	slli	t5,a4,0x10
     788:	410f5f13          	srai	t5,t5,0x10
     78c:	00000693          	li	a3,0
     790:	000f4863          	bltz	t5,7a0 <upsampleCr+0x1cc>
     794:	0ff00693          	li	a3,255
     798:	01e64463          	blt	a2,t5,7a0 <upsampleCr+0x1cc>
     79c:	0ff77693          	andi	a3,a4,255
     7a0:	00884703          	lbu	a4,8(a6)
     7a4:	00d800a3          	sb	a3,1(a6)
     7a8:	40f70733          	sub	a4,a4,a5
     7ac:	01071713          	slli	a4,a4,0x10
     7b0:	01075713          	srli	a4,a4,0x10
     7b4:	00e67e63          	bgeu	a2,a4,7d0 <upsampleCr+0x1fc>
     7b8:	01071f13          	slli	t5,a4,0x10
     7bc:	410f5f13          	srai	t5,t5,0x10
     7c0:	00000693          	li	a3,0
     7c4:	000f4863          	bltz	t5,7d4 <upsampleCr+0x200>
     7c8:	0ff00693          	li	a3,255
     7cc:	01e64463          	blt	a2,t5,7d4 <upsampleCr+0x200>
     7d0:	0ff77693          	andi	a3,a4,255
     7d4:	00984703          	lbu	a4,9(a6)
     7d8:	00d80423          	sb	a3,8(a6)
     7dc:	40f707b3          	sub	a5,a4,a5
     7e0:	01079793          	slli	a5,a5,0x10
     7e4:	0107d793          	srli	a5,a5,0x10
     7e8:	00f67e63          	bgeu	a2,a5,804 <upsampleCr+0x230>
     7ec:	01079693          	slli	a3,a5,0x10
     7f0:	4106d693          	srai	a3,a3,0x10
     7f4:	00000713          	li	a4,0
     7f8:	0006c863          	bltz	a3,808 <upsampleCr+0x234>
     7fc:	0ff00713          	li	a4,255
     800:	00d64463          	blt	a2,a3,808 <upsampleCr+0x234>
     804:	0ff7f713          	andi	a4,a5,255
     808:	00e804a3          	sb	a4,9(a6)
     80c:	00250513          	addi	a0,a0,2
     810:	00280813          	addi	a6,a6,2
     814:	de689ce3          	bne	a7,t1,60c <upsampleCr+0x38>
     818:	01088313          	addi	t1,a7,16
     81c:	010e0e13          	addi	t3,t3,16
     820:	01058593          	addi	a1,a1,16
     824:	dc6e9ee3          	bne	t4,t1,600 <upsampleCr+0x2c>
     828:	00008067          	ret

0000082c <upsampleCrH>:
     82c:	000057b7          	lui	a5,0x5
     830:	87478793          	addi	a5,a5,-1932 # 4874 <gCoeffBuf>
     834:	00151e93          	slli	t4,a0,0x1
     838:	01d78eb3          	add	t4,a5,t4
     83c:	28078e13          	addi	t3,a5,640
     840:	08078793          	addi	a5,a5,128
     844:	00be0e33          	add	t3,t3,a1
     848:	008e8313          	addi	t1,t4,8
     84c:	00b785b3          	add	a1,a5,a1
     850:	088e8e93          	addi	t4,t4,136
     854:	0ff00813          	li	a6,255
     858:	ff830893          	addi	a7,t1,-8
     85c:	00058513          	mv	a0,a1
     860:	000e0613          	mv	a2,t3
     864:	00288893          	addi	a7,a7,2
     868:	ffe89703          	lh	a4,-2(a7)
     86c:	00064f83          	lbu	t6,0(a2)
     870:	0ff77f13          	andi	t5,a4,255
     874:	001f1793          	slli	a5,t5,0x1
     878:	01e786b3          	add	a3,a5,t5
     87c:	00269693          	slli	a3,a3,0x2
     880:	01e686b3          	add	a3,a3,t5
     884:	00369693          	slli	a3,a3,0x3
     888:	0ff77713          	andi	a4,a4,255
     88c:	41e686b3          	sub	a3,a3,t5
     890:	0086d693          	srli	a3,a3,0x8
     894:	f4d70713          	addi	a4,a4,-179
     898:	00d70733          	add	a4,a4,a3
     89c:	01071713          	slli	a4,a4,0x10
     8a0:	01075713          	srli	a4,a4,0x10
     8a4:	01f706b3          	add	a3,a4,t6
     8a8:	01069693          	slli	a3,a3,0x10
     8ac:	0106d693          	srli	a3,a3,0x10
     8b0:	00d87e63          	bgeu	a6,a3,8cc <upsampleCrH+0xa0>
     8b4:	01069293          	slli	t0,a3,0x10
     8b8:	4102d293          	srai	t0,t0,0x10
     8bc:	00000f93          	li	t6,0
     8c0:	0002c863          	bltz	t0,8d0 <upsampleCrH+0xa4>
     8c4:	0ff00f93          	li	t6,255
     8c8:	00584463          	blt	a6,t0,8d0 <upsampleCrH+0xa4>
     8cc:	0ff6ff93          	andi	t6,a3,255
     8d0:	00164683          	lbu	a3,1(a2)
     8d4:	01f60023          	sb	t6,0(a2)
     8d8:	00d70733          	add	a4,a4,a3
     8dc:	01071713          	slli	a4,a4,0x10
     8e0:	01075713          	srli	a4,a4,0x10
     8e4:	00e87e63          	bgeu	a6,a4,900 <upsampleCrH+0xd4>
     8e8:	01071f93          	slli	t6,a4,0x10
     8ec:	410fdf93          	srai	t6,t6,0x10
     8f0:	00000693          	li	a3,0
     8f4:	000fc863          	bltz	t6,904 <upsampleCrH+0xd8>
     8f8:	0ff00693          	li	a3,255
     8fc:	01f84463          	blt	a6,t6,904 <upsampleCrH+0xd8>
     900:	0ff77693          	andi	a3,a4,255
     904:	01e787b3          	add	a5,a5,t5
     908:	00379793          	slli	a5,a5,0x3
     90c:	41e787b3          	sub	a5,a5,t5
     910:	00379793          	slli	a5,a5,0x3
     914:	41e787b3          	sub	a5,a5,t5
     918:	0087d793          	srli	a5,a5,0x8
     91c:	00054703          	lbu	a4,0(a0)
     920:	fa578793          	addi	a5,a5,-91
     924:	01079793          	slli	a5,a5,0x10
     928:	0107d793          	srli	a5,a5,0x10
     92c:	40f70733          	sub	a4,a4,a5
     930:	01071713          	slli	a4,a4,0x10
     934:	00d600a3          	sb	a3,1(a2)
     938:	01075713          	srli	a4,a4,0x10
     93c:	00e87e63          	bgeu	a6,a4,958 <upsampleCrH+0x12c>
     940:	01071f13          	slli	t5,a4,0x10
     944:	410f5f13          	srai	t5,t5,0x10
     948:	00000693          	li	a3,0
     94c:	000f4863          	bltz	t5,95c <upsampleCrH+0x130>
     950:	0ff00693          	li	a3,255
     954:	01e84463          	blt	a6,t5,95c <upsampleCrH+0x130>
     958:	0ff77693          	andi	a3,a4,255
     95c:	00154703          	lbu	a4,1(a0)
     960:	00d50023          	sb	a3,0(a0)
     964:	40f707b3          	sub	a5,a4,a5
     968:	01079793          	slli	a5,a5,0x10
     96c:	0107d793          	srli	a5,a5,0x10
     970:	00f87e63          	bgeu	a6,a5,98c <upsampleCrH+0x160>
     974:	01079693          	slli	a3,a5,0x10
     978:	4106d693          	srai	a3,a3,0x10
     97c:	00000713          	li	a4,0
     980:	0006c863          	bltz	a3,990 <upsampleCrH+0x164>
     984:	0ff00713          	li	a4,255
     988:	00d84463          	blt	a6,a3,990 <upsampleCrH+0x164>
     98c:	0ff7f713          	andi	a4,a5,255
     990:	00e500a3          	sb	a4,1(a0)
     994:	00260613          	addi	a2,a2,2
     998:	00250513          	addi	a0,a0,2
     99c:	ec6894e3          	bne	a7,t1,864 <upsampleCrH+0x38>
     9a0:	01088313          	addi	t1,a7,16
     9a4:	008e0e13          	addi	t3,t3,8
     9a8:	00858593          	addi	a1,a1,8
     9ac:	ea6e96e3          	bne	t4,t1,858 <upsampleCrH+0x2c>
     9b0:	00008067          	ret

000009b4 <upsampleCrV>:
     9b4:	00005337          	lui	t1,0x5
     9b8:	87430313          	addi	t1,t1,-1932 # 4874 <gCoeffBuf>
     9bc:	28030e13          	addi	t3,t1,640
     9c0:	00151513          	slli	a0,a0,0x1
     9c4:	00be0e33          	add	t3,t3,a1
     9c8:	08030793          	addi	a5,t1,128
     9cc:	01050513          	addi	a0,a0,16
     9d0:	00b785b3          	add	a1,a5,a1
     9d4:	00a30333          	add	t1,t1,a0
     9d8:	040e0e93          	addi	t4,t3,64
     9dc:	0ff00813          	li	a6,255
     9e0:	ff030893          	addi	a7,t1,-16
     9e4:	00058513          	mv	a0,a1
     9e8:	000e0613          	mv	a2,t3
     9ec:	00288893          	addi	a7,a7,2
     9f0:	ffe89703          	lh	a4,-2(a7)
     9f4:	00064f83          	lbu	t6,0(a2)
     9f8:	0ff77f13          	andi	t5,a4,255
     9fc:	001f1793          	slli	a5,t5,0x1
     a00:	01e786b3          	add	a3,a5,t5
     a04:	00269693          	slli	a3,a3,0x2
     a08:	01e686b3          	add	a3,a3,t5
     a0c:	00369693          	slli	a3,a3,0x3
     a10:	0ff77713          	andi	a4,a4,255
     a14:	41e686b3          	sub	a3,a3,t5
     a18:	0086d693          	srli	a3,a3,0x8
     a1c:	f4d70713          	addi	a4,a4,-179
     a20:	00d70733          	add	a4,a4,a3
     a24:	01071713          	slli	a4,a4,0x10
     a28:	01075713          	srli	a4,a4,0x10
     a2c:	01f706b3          	add	a3,a4,t6
     a30:	01069693          	slli	a3,a3,0x10
     a34:	0106d693          	srli	a3,a3,0x10
     a38:	00d87e63          	bgeu	a6,a3,a54 <upsampleCrV+0xa0>
     a3c:	01069293          	slli	t0,a3,0x10
     a40:	4102d293          	srai	t0,t0,0x10
     a44:	00000f93          	li	t6,0
     a48:	0002c863          	bltz	t0,a58 <upsampleCrV+0xa4>
     a4c:	0ff00f93          	li	t6,255
     a50:	00584463          	blt	a6,t0,a58 <upsampleCrV+0xa4>
     a54:	0ff6ff93          	andi	t6,a3,255
     a58:	00864683          	lbu	a3,8(a2)
     a5c:	01f60023          	sb	t6,0(a2)
     a60:	00d70733          	add	a4,a4,a3
     a64:	01071713          	slli	a4,a4,0x10
     a68:	01075713          	srli	a4,a4,0x10
     a6c:	00e87e63          	bgeu	a6,a4,a88 <upsampleCrV+0xd4>
     a70:	01071f93          	slli	t6,a4,0x10
     a74:	410fdf93          	srai	t6,t6,0x10
     a78:	00000693          	li	a3,0
     a7c:	000fc863          	bltz	t6,a8c <upsampleCrV+0xd8>
     a80:	0ff00693          	li	a3,255
     a84:	01f84463          	blt	a6,t6,a8c <upsampleCrV+0xd8>
     a88:	0ff77693          	andi	a3,a4,255
     a8c:	01e787b3          	add	a5,a5,t5
     a90:	00379793          	slli	a5,a5,0x3
     a94:	41e787b3          	sub	a5,a5,t5
     a98:	00379793          	slli	a5,a5,0x3
     a9c:	41e787b3          	sub	a5,a5,t5
     aa0:	0087d793          	srli	a5,a5,0x8
     aa4:	00054703          	lbu	a4,0(a0)
     aa8:	fa578793          	addi	a5,a5,-91
     aac:	01079793          	slli	a5,a5,0x10
     ab0:	0107d793          	srli	a5,a5,0x10
     ab4:	40f70733          	sub	a4,a4,a5
     ab8:	01071713          	slli	a4,a4,0x10
     abc:	00d60423          	sb	a3,8(a2)
     ac0:	01075713          	srli	a4,a4,0x10
     ac4:	00e87e63          	bgeu	a6,a4,ae0 <upsampleCrV+0x12c>
     ac8:	01071f13          	slli	t5,a4,0x10
     acc:	410f5f13          	srai	t5,t5,0x10
     ad0:	00000693          	li	a3,0
     ad4:	000f4863          	bltz	t5,ae4 <upsampleCrV+0x130>
     ad8:	0ff00693          	li	a3,255
     adc:	01e84463          	blt	a6,t5,ae4 <upsampleCrV+0x130>
     ae0:	0ff77693          	andi	a3,a4,255
     ae4:	00854703          	lbu	a4,8(a0)
     ae8:	00d50023          	sb	a3,0(a0)
     aec:	40f707b3          	sub	a5,a4,a5
     af0:	01079793          	slli	a5,a5,0x10
     af4:	0107d793          	srli	a5,a5,0x10
     af8:	00f87e63          	bgeu	a6,a5,b14 <upsampleCrV+0x160>
     afc:	01079693          	slli	a3,a5,0x10
     b00:	4106d693          	srai	a3,a3,0x10
     b04:	00000713          	li	a4,0
     b08:	0006c863          	bltz	a3,b18 <upsampleCrV+0x164>
     b0c:	0ff00713          	li	a4,255
     b10:	00d84463          	blt	a6,a3,b18 <upsampleCrV+0x164>
     b14:	0ff7f713          	andi	a4,a5,255
     b18:	00e50423          	sb	a4,8(a0)
     b1c:	00160613          	addi	a2,a2,1
     b20:	00150513          	addi	a0,a0,1
     b24:	ec6894e3          	bne	a7,t1,9ec <upsampleCrV+0x38>
     b28:	010e0e13          	addi	t3,t3,16
     b2c:	01058593          	addi	a1,a1,16
     b30:	01088313          	addi	t1,a7,16
     b34:	ebde16e3          	bne	t3,t4,9e0 <upsampleCrV+0x2c>
     b38:	00008067          	ret

00000b3c <getChar>:
     b3c:	ff010113          	addi	sp,sp,-16 # fff0 <TOHOST_ADDR+0xadfc>
     b40:	00912223          	sw	s1,4(sp)
     b44:	000054b7          	lui	s1,0x5
     b48:	1d04c783          	lbu	a5,464(s1) # 51d0 <gInBufLeft>
     b4c:	00112623          	sw	ra,12(sp)
     b50:	00812423          	sw	s0,8(sp)
     b54:	01212023          	sw	s2,0(sp)
     b58:	04078263          	beqz	a5,b9c <getChar+0x60>
     b5c:	00005437          	lui	s0,0x5
     b60:	00005937          	lui	s2,0x5
     b64:	87440413          	addi	s0,s0,-1932 # 4874 <gCoeffBuf>
     b68:	1d194703          	lbu	a4,465(s2) # 51d1 <gInBufOfs>
     b6c:	fff78793          	addi	a5,a5,-1
     b70:	1cf48823          	sb	a5,464(s1)
     b74:	00e40433          	add	s0,s0,a4
     b78:	38044503          	lbu	a0,896(s0)
     b7c:	00170713          	addi	a4,a4,1
     b80:	1ce908a3          	sb	a4,465(s2)
     b84:	00c12083          	lw	ra,12(sp)
     b88:	00812403          	lw	s0,8(sp)
     b8c:	00412483          	lw	s1,4(sp)
     b90:	00012903          	lw	s2,0(sp)
     b94:	01010113          	addi	sp,sp,16
     b98:	00008067          	ret
     b9c:	00005737          	lui	a4,0x5
     ba0:	000057b7          	lui	a5,0x5
     ba4:	18872683          	lw	a3,392(a4) # 5188 <g_pCallback_data>
     ba8:	00005437          	lui	s0,0x5
     bac:	18c7a783          	lw	a5,396(a5) # 518c <g_pNeedBytesCallback>
     bb0:	87440413          	addi	s0,s0,-1932 # 4874 <gCoeffBuf>
     bb4:	00005937          	lui	s2,0x5
     bb8:	00400713          	li	a4,4
     bbc:	1c048823          	sb	zero,464(s1)
     bc0:	1d048613          	addi	a2,s1,464
     bc4:	0fc00593          	li	a1,252
     bc8:	38440513          	addi	a0,s0,900
     bcc:	1ce908a3          	sb	a4,465(s2) # 51d1 <gInBufOfs>
     bd0:	000780e7          	jalr	a5
     bd4:	00050663          	beqz	a0,be0 <getChar+0xa4>
     bd8:	000057b7          	lui	a5,0x5
     bdc:	18a782a3          	sb	a0,389(a5) # 5185 <gCallbackStatus>
     be0:	1d04c783          	lbu	a5,464(s1)
     be4:	f80792e3          	bnez	a5,b68 <getChar+0x2c>
     be8:	00005737          	lui	a4,0x5
     bec:	1d274783          	lbu	a5,466(a4) # 51d2 <gTemFlag>
     bf0:	0ff00513          	li	a0,255
     bf4:	fff7c793          	not	a5,a5
     bf8:	0ff7f793          	andi	a5,a5,255
     bfc:	1cf70923          	sb	a5,466(a4)
     c00:	f80792e3          	bnez	a5,b84 <getChar+0x48>
     c04:	0d900513          	li	a0,217
     c08:	f7dff06f          	j	b84 <getChar+0x48>

00000c0c <getOctet.part.1>:
     c0c:	ff010113          	addi	sp,sp,-16
     c10:	00112623          	sw	ra,12(sp)
     c14:	f29ff0ef          	jal	ra,b3c <getChar>
     c18:	04050663          	beqz	a0,c64 <getOctet.part.1+0x58>
     c1c:	00005837          	lui	a6,0x5
     c20:	1d184783          	lbu	a5,465(a6) # 51d1 <gInBufOfs>
     c24:	000055b7          	lui	a1,0x5
     c28:	1d05c603          	lbu	a2,464(a1) # 51d0 <gInBufLeft>
     c2c:	fff78693          	addi	a3,a5,-1
     c30:	00005737          	lui	a4,0x5
     c34:	87470713          	addi	a4,a4,-1932 # 4874 <gCoeffBuf>
     c38:	0ff6f693          	andi	a3,a3,255
     c3c:	ffe78793          	addi	a5,a5,-2
     c40:	0ff7f793          	andi	a5,a5,255
     c44:	00d706b3          	add	a3,a4,a3
     c48:	38a68023          	sb	a0,896(a3)
     c4c:	00f70733          	add	a4,a4,a5
     c50:	00260613          	addi	a2,a2,2
     c54:	1cf808a3          	sb	a5,465(a6)
     c58:	fff00793          	li	a5,-1
     c5c:	38f70023          	sb	a5,896(a4)
     c60:	1cc58823          	sb	a2,464(a1)
     c64:	00c12083          	lw	ra,12(sp)
     c68:	01010113          	addi	sp,sp,16
     c6c:	00008067          	ret

00000c70 <getBits>:
     c70:	fd010113          	addi	sp,sp,-48
     c74:	03212023          	sw	s2,32(sp)
     c78:	01312e23          	sw	s3,28(sp)
     c7c:	01412c23          	sw	s4,24(sp)
     c80:	01512a23          	sw	s5,20(sp)
     c84:	01612823          	sw	s6,16(sp)
     c88:	00005937          	lui	s2,0x5
     c8c:	00005ab7          	lui	s5,0x5
     c90:	02112623          	sw	ra,44(sp)
     c94:	02812423          	sw	s0,40(sp)
     c98:	02912223          	sw	s1,36(sp)
     c9c:	00800713          	li	a4,8
     ca0:	1ce95a03          	lhu	s4,462(s2) # 51ce <gBitBuf>
     ca4:	00050993          	mv	s3,a0
     ca8:	00058b13          	mv	s6,a1
     cac:	1ccac683          	lbu	a3,460(s5) # 51cc <gBitsLeft>
     cb0:	06a76063          	bltu	a4,a0,d10 <getBits+0xa0>
     cb4:	00050493          	mv	s1,a0
     cb8:	000a0793          	mv	a5,s4
     cbc:	000a0413          	mv	s0,s4
     cc0:	0a96e663          	bltu	a3,s1,d6c <getBits+0xfc>
     cc4:	40968733          	sub	a4,a3,s1
     cc8:	009797b3          	sll	a5,a5,s1
     ccc:	1cea8623          	sb	a4,460(s5)
     cd0:	1cf91723          	sh	a5,462(s2)
     cd4:	01000513          	li	a0,16
     cd8:	41350533          	sub	a0,a0,s3
     cdc:	40a45533          	sra	a0,s0,a0
     ce0:	02c12083          	lw	ra,44(sp)
     ce4:	02812403          	lw	s0,40(sp)
     ce8:	01051513          	slli	a0,a0,0x10
     cec:	02412483          	lw	s1,36(sp)
     cf0:	02012903          	lw	s2,32(sp)
     cf4:	01c12983          	lw	s3,28(sp)
     cf8:	01812a03          	lw	s4,24(sp)
     cfc:	01412a83          	lw	s5,20(sp)
     d00:	01012b03          	lw	s6,16(sp)
     d04:	01055513          	srli	a0,a0,0x10
     d08:	03010113          	addi	sp,sp,48
     d0c:	00008067          	ret
     d10:	00da1733          	sll	a4,s4,a3
     d14:	ff850793          	addi	a5,a0,-8
     d18:	0ff7f493          	andi	s1,a5,255
     d1c:	1ce91723          	sh	a4,462(s2)
     d20:	e1dff0ef          	jal	ra,b3c <getChar>
     d24:	000b0663          	beqz	s6,d30 <getBits+0xc0>
     d28:	0ff00793          	li	a5,255
     d2c:	08f50463          	beq	a0,a5,db4 <getBits+0x144>
     d30:	1ce95703          	lhu	a4,462(s2)
     d34:	1ccac683          	lbu	a3,460(s5)
     d38:	00800793          	li	a5,8
     d3c:	00e56733          	or	a4,a0,a4
     d40:	01071713          	slli	a4,a4,0x10
     d44:	40d787b3          	sub	a5,a5,a3
     d48:	01075713          	srli	a4,a4,0x10
     d4c:	00f71733          	sll	a4,a4,a5
     d50:	01071793          	slli	a5,a4,0x10
     d54:	0107d793          	srli	a5,a5,0x10
     d58:	f00a7a13          	andi	s4,s4,-256
     d5c:	0087d413          	srli	s0,a5,0x8
     d60:	1cf91723          	sh	a5,462(s2)
     d64:	008a6433          	or	s0,s4,s0
     d68:	f496fee3          	bgeu	a3,s1,cc4 <getBits+0x54>
     d6c:	00d79733          	sll	a4,a5,a3
     d70:	1ce91723          	sh	a4,462(s2)
     d74:	dc9ff0ef          	jal	ra,b3c <getChar>
     d78:	000b0663          	beqz	s6,d84 <getBits+0x114>
     d7c:	0ff00793          	li	a5,255
     d80:	04f50263          	beq	a0,a5,dc4 <getBits+0x154>
     d84:	1ce95703          	lhu	a4,462(s2)
     d88:	1ccac783          	lbu	a5,460(s5)
     d8c:	00e56533          	or	a0,a0,a4
     d90:	01051513          	slli	a0,a0,0x10
     d94:	40f48733          	sub	a4,s1,a5
     d98:	01055513          	srli	a0,a0,0x10
     d9c:	00878793          	addi	a5,a5,8
     da0:	00e51533          	sll	a0,a0,a4
     da4:	409787b3          	sub	a5,a5,s1
     da8:	1ca91723          	sh	a0,462(s2)
     dac:	1cfa8623          	sb	a5,460(s5)
     db0:	f25ff06f          	j	cd4 <getBits+0x64>
     db4:	00a12623          	sw	a0,12(sp)
     db8:	e55ff0ef          	jal	ra,c0c <getOctet.part.1>
     dbc:	00c12503          	lw	a0,12(sp)
     dc0:	f71ff06f          	j	d30 <getBits+0xc0>
     dc4:	00a12623          	sw	a0,12(sp)
     dc8:	e45ff0ef          	jal	ra,c0c <getOctet.part.1>
     dcc:	00c12503          	lw	a0,12(sp)
     dd0:	fb5ff06f          	j	d84 <getBits+0x114>

00000dd4 <processMarkers>:
     dd4:	fa010113          	addi	sp,sp,-96
     dd8:	05412423          	sw	s4,72(sp)
     ddc:	00005a37          	lui	s4,0x5
     de0:	874a0793          	addi	a5,s4,-1932 # 4874 <gCoeffBuf>
     de4:	05212823          	sw	s2,80(sp)
     de8:	00004937          	lui	s2,0x4
     dec:	05312623          	sw	s3,76(sp)
     df0:	04112e23          	sw	ra,92(sp)
     df4:	04812c23          	sw	s0,88(sp)
     df8:	04912a23          	sw	s1,84(sp)
     dfc:	05512223          	sw	s5,68(sp)
     e00:	05612023          	sw	s6,64(sp)
     e04:	03712e23          	sw	s7,60(sp)
     e08:	03812c23          	sw	s8,56(sp)
     e0c:	03912a23          	sw	s9,52(sp)
     e10:	03a12823          	sw	s10,48(sp)
     e14:	03b12623          	sw	s11,44(sp)
     e18:	00f12423          	sw	a5,8(sp)
     e1c:	48090913          	addi	s2,s2,1152 # 4480 <CSWTCH.292>
     e20:	00a12623          	sw	a0,12(sp)
     e24:	50078993          	addi	s3,a5,1280
     e28:	0ff00413          	li	s0,255
     e2c:	00000593          	li	a1,0
     e30:	00800513          	li	a0,8
     e34:	e3dff0ef          	jal	ra,c70 <getBits>
     e38:	0ff57513          	andi	a0,a0,255
     e3c:	fe8518e3          	bne	a0,s0,e2c <processMarkers+0x58>
     e40:	00000593          	li	a1,0
     e44:	00800513          	li	a0,8
     e48:	e29ff0ef          	jal	ra,c70 <getBits>
     e4c:	0ff57793          	andi	a5,a0,255
     e50:	fe8788e3          	beq	a5,s0,e40 <processMarkers+0x6c>
     e54:	fc078ce3          	beqz	a5,e2c <processMarkers+0x58>
     e58:	0cb00713          	li	a4,203
     e5c:	04f77663          	bgeu	a4,a5,ea8 <processMarkers+0xd4>
     e60:	0d700713          	li	a4,215
     e64:	0cf77263          	bgeu	a4,a5,f28 <processMarkers+0x154>
     e68:	0db00713          	li	a4,219
     e6c:	2ae78c63          	beq	a5,a4,1124 <processMarkers+0x350>
     e70:	06e7e063          	bltu	a5,a4,ed0 <processMarkers+0xfc>
     e74:	0dd00713          	li	a4,221
     e78:	26e79463          	bne	a5,a4,10e0 <processMarkers+0x30c>
     e7c:	00000593          	li	a1,0
     e80:	01000513          	li	a0,16
     e84:	dedff0ef          	jal	ra,c70 <getBits>
     e88:	00400793          	li	a5,4
     e8c:	f8f51ee3          	bne	a0,a5,e28 <processMarkers+0x54>
     e90:	00000593          	li	a1,0
     e94:	01000513          	li	a0,16
     e98:	dd9ff0ef          	jal	ra,c70 <getBits>
     e9c:	000057b7          	lui	a5,0x5
     ea0:	1aa79a23          	sh	a0,436(a5) # 51b4 <gRestartInterval>
     ea4:	f85ff06f          	j	e28 <processMarkers+0x54>
     ea8:	0c900713          	li	a4,201
     eac:	02e7f263          	bgeu	a5,a4,ed0 <processMarkers+0xfc>
     eb0:	0c400713          	li	a4,196
     eb4:	08e78663          	beq	a5,a4,f40 <processMarkers+0x16c>
     eb8:	06f76063          	bltu	a4,a5,f18 <processMarkers+0x144>
     ebc:	00100713          	li	a4,1
     ec0:	06e78063          	beq	a5,a4,f20 <processMarkers+0x14c>
     ec4:	20078e63          	beqz	a5,10e0 <processMarkers+0x30c>
     ec8:	0c000713          	li	a4,192
     ecc:	20e7ea63          	bltu	a5,a4,10e0 <processMarkers+0x30c>
     ed0:	00c12703          	lw	a4,12(sp)
     ed4:	00000513          	li	a0,0
     ed8:	00f70023          	sb	a5,0(a4)
     edc:	05c12083          	lw	ra,92(sp)
     ee0:	05812403          	lw	s0,88(sp)
     ee4:	05412483          	lw	s1,84(sp)
     ee8:	05012903          	lw	s2,80(sp)
     eec:	04c12983          	lw	s3,76(sp)
     ef0:	04812a03          	lw	s4,72(sp)
     ef4:	04412a83          	lw	s5,68(sp)
     ef8:	04012b03          	lw	s6,64(sp)
     efc:	03c12b83          	lw	s7,60(sp)
     f00:	03812c03          	lw	s8,56(sp)
     f04:	03412c83          	lw	s9,52(sp)
     f08:	03012d03          	lw	s10,48(sp)
     f0c:	02c12d83          	lw	s11,44(sp)
     f10:	06010113          	addi	sp,sp,96
     f14:	00008067          	ret
     f18:	0c700713          	li	a4,199
     f1c:	faf77ae3          	bgeu	a4,a5,ed0 <processMarkers+0xfc>
     f20:	01200513          	li	a0,18
     f24:	fb9ff06f          	j	edc <processMarkers+0x108>
     f28:	0d000713          	li	a4,208
     f2c:	fee7fae3          	bgeu	a5,a4,f20 <processMarkers+0x14c>
     f30:	0cc00713          	li	a4,204
     f34:	01100513          	li	a0,17
     f38:	fae782e3          	beq	a5,a4,edc <processMarkers+0x108>
     f3c:	f95ff06f          	j	ed0 <processMarkers+0xfc>
     f40:	00000593          	li	a1,0
     f44:	01000513          	li	a0,16
     f48:	d29ff0ef          	jal	ra,c70 <getBits>
     f4c:	00100793          	li	a5,1
     f50:	eca7fce3          	bgeu	a5,a0,e28 <processMarkers+0x54>
     f54:	ffe50513          	addi	a0,a0,-2
     f58:	01051493          	slli	s1,a0,0x10
     f5c:	0104d493          	srli	s1,s1,0x10
     f60:	ec0484e3          	beqz	s1,e28 <processMarkers+0x54>
     f64:	00005bb7          	lui	s7,0x5
     f68:	00100b13          	li	s6,1
     f6c:	02010a93          	addi	s5,sp,32
     f70:	00000593          	li	a1,0
     f74:	00800513          	li	a0,8
     f78:	cf9ff0ef          	jal	ra,c70 <getBits>
     f7c:	0ff57793          	andi	a5,a0,255
     f80:	00e7fd13          	andi	s10,a5,14
     f84:	ea0d12e3          	bnez	s10,e28 <processMarkers+0x54>
     f88:	0f07f713          	andi	a4,a5,240
     f8c:	01000693          	li	a3,16
     f90:	e8e6ece3          	bltu	a3,a4,e28 <processMarkers+0x54>
     f94:	0037d713          	srli	a4,a5,0x3
     f98:	00277713          	andi	a4,a4,2
     f9c:	00157513          	andi	a0,a0,1
     fa0:	00a76a33          	or	s4,a4,a0
     fa4:	1d4bc583          	lbu	a1,468(s7) # 51d4 <gValidHuffTables>
     fa8:	002a1793          	slli	a5,s4,0x2
     fac:	00f907b3          	add	a5,s2,a5
     fb0:	014b1633          	sll	a2,s6,s4
     fb4:	0007a403          	lw	s0,0(a5)
     fb8:	0107ac03          	lw	s8,16(a5)
     fbc:	01010d93          	addi	s11,sp,16
     fc0:	00b667b3          	or	a5,a2,a1
     fc4:	1cfb8a23          	sb	a5,468(s7)
     fc8:	000d8813          	mv	a6,s11
     fcc:	00000c93          	li	s9,0
     fd0:	00000593          	li	a1,0
     fd4:	00800513          	li	a0,8
     fd8:	01012223          	sw	a6,4(sp)
     fdc:	c95ff0ef          	jal	ra,c70 <getBits>
     fe0:	00412803          	lw	a6,4(sp)
     fe4:	0ff57593          	andi	a1,a0,255
     fe8:	00bc87b3          	add	a5,s9,a1
     fec:	00a80023          	sb	a0,0(a6)
     ff0:	01079c93          	slli	s9,a5,0x10
     ff4:	00180813          	addi	a6,a6,1
     ff8:	010cdc93          	srli	s9,s9,0x10
     ffc:	fd581ae3          	bne	a6,s5,fd0 <processMarkers+0x1fc>
    1000:	00c00593          	li	a1,12
    1004:	014b5463          	bge	s6,s4,100c <processMarkers+0x238>
    1008:	0ff00593          	li	a1,255
    100c:	e195eee3          	bltu	a1,s9,e28 <processMarkers+0x54>
    1010:	00000a13          	li	s4,0
    1014:	020c8263          	beqz	s9,1038 <processMarkers+0x264>
    1018:	00000593          	li	a1,0
    101c:	00800513          	li	a0,8
    1020:	c51ff0ef          	jal	ra,c70 <getBits>
    1024:	014c05b3          	add	a1,s8,s4
    1028:	001a0713          	addi	a4,s4,1
    102c:	00a58023          	sb	a0,0(a1)
    1030:	0ff77a13          	andi	s4,a4,255
    1034:	ff9a62e3          	bltu	s4,s9,1018 <processMarkers+0x244>
    1038:	011c8793          	addi	a5,s9,17
    103c:	01079793          	slli	a5,a5,0x10
    1040:	0107d793          	srli	a5,a5,0x10
    1044:	def4e2e3          	bltu	s1,a5,e28 <processMarkers+0x54>
    1048:	40f484b3          	sub	s1,s1,a5
    104c:	01049493          	slli	s1,s1,0x10
    1050:	04040713          	addi	a4,s0,64
    1054:	0104d493          	srli	s1,s1,0x10
    1058:	02040413          	addi	s0,s0,32
    105c:	00000793          	li	a5,0
    1060:	0300006f          	j	1090 <processMarkers+0x2bc>
    1064:	fff00693          	li	a3,-1
    1068:	fe041023          	sh	zero,-32(s0)
    106c:	00d41023          	sh	a3,0(s0)
    1070:	00179793          	slli	a5,a5,0x1
    1074:	00070023          	sb	zero,0(a4)
    1078:	01079793          	slli	a5,a5,0x10
    107c:	001d8d93          	addi	s11,s11,1
    1080:	0107d793          	srli	a5,a5,0x10
    1084:	00170713          	addi	a4,a4,1
    1088:	00240413          	addi	s0,s0,2
    108c:	055d8663          	beq	s11,s5,10d8 <processMarkers+0x304>
    1090:	000dc583          	lbu	a1,0(s11)
    1094:	00b78833          	add	a6,a5,a1
    1098:	01a58533          	add	a0,a1,s10
    109c:	fc0584e3          	beqz	a1,1064 <processMarkers+0x290>
    10a0:	fef41023          	sh	a5,-32(s0)
    10a4:	01081793          	slli	a5,a6,0x10
    10a8:	0107d793          	srli	a5,a5,0x10
    10ac:	fff78593          	addi	a1,a5,-1
    10b0:	00b41023          	sh	a1,0(s0)
    10b4:	00179793          	slli	a5,a5,0x1
    10b8:	01a70023          	sb	s10,0(a4)
    10bc:	01079793          	slli	a5,a5,0x10
    10c0:	001d8d93          	addi	s11,s11,1
    10c4:	0ff57d13          	andi	s10,a0,255
    10c8:	0107d793          	srli	a5,a5,0x10
    10cc:	00170713          	addi	a4,a4,1
    10d0:	00240413          	addi	s0,s0,2
    10d4:	fb5d9ee3          	bne	s11,s5,1090 <processMarkers+0x2bc>
    10d8:	e8049ce3          	bnez	s1,f70 <processMarkers+0x19c>
    10dc:	d4dff06f          	j	e28 <processMarkers+0x54>
    10e0:	00000593          	li	a1,0
    10e4:	01000513          	li	a0,16
    10e8:	b89ff0ef          	jal	ra,c70 <getBits>
    10ec:	00100793          	li	a5,1
    10f0:	d2a7fce3          	bgeu	a5,a0,e28 <processMarkers+0x54>
    10f4:	ffe50513          	addi	a0,a0,-2
    10f8:	01051413          	slli	s0,a0,0x10
    10fc:	01045413          	srli	s0,s0,0x10
    1100:	d20404e3          	beqz	s0,e28 <processMarkers+0x54>
    1104:	fff40413          	addi	s0,s0,-1
    1108:	01041413          	slli	s0,s0,0x10
    110c:	00000593          	li	a1,0
    1110:	00800513          	li	a0,8
    1114:	01045413          	srli	s0,s0,0x10
    1118:	b59ff0ef          	jal	ra,c70 <getBits>
    111c:	fe0414e3          	bnez	s0,1104 <processMarkers+0x330>
    1120:	d09ff06f          	j	e28 <processMarkers+0x54>
    1124:	00000593          	li	a1,0
    1128:	01000513          	li	a0,16
    112c:	b45ff0ef          	jal	ra,c70 <getBits>
    1130:	00100793          	li	a5,1
    1134:	cea7fae3          	bgeu	a5,a0,e28 <processMarkers+0x54>
    1138:	ffe50513          	addi	a0,a0,-2
    113c:	01051a93          	slli	s5,a0,0x10
    1140:	010ada93          	srli	s5,s5,0x10
    1144:	ce0a82e3          	beqz	s5,e28 <processMarkers+0x54>
    1148:	00005bb7          	lui	s7,0x5
    114c:	00000593          	li	a1,0
    1150:	00800513          	li	a0,8
    1154:	b1dff0ef          	jal	ra,c70 <getBits>
    1158:	0ff57513          	andi	a0,a0,255
    115c:	00e57793          	andi	a5,a0,14
    1160:	00455b13          	srli	s6,a0,0x4
    1164:	00f57c13          	andi	s8,a0,15
    1168:	cc0790e3          	bnez	a5,e28 <processMarkers+0x54>
    116c:	1d3bc703          	lbu	a4,467(s7) # 51d3 <gValidQuantTables>
    1170:	018037b3          	snez	a5,s8
    1174:	00178793          	addi	a5,a5,1
    1178:	00e7e7b3          	or	a5,a5,a4
    117c:	00812703          	lw	a4,8(sp)
    1180:	1cfb89a3          	sb	a5,467(s7)
    1184:	00098d93          	mv	s11,s3
    1188:	48070493          	addi	s1,a4,1152
    118c:	00048d13          	mv	s10,s1
    1190:	0140006f          	j	11a4 <processMarkers+0x3d0>
    1194:	008d1023          	sh	s0,0(s10)
    1198:	002d0d13          	addi	s10,s10,2
    119c:	002d8d93          	addi	s11,s11,2
    11a0:	03a98a63          	beq	s3,s10,11d4 <processMarkers+0x400>
    11a4:	00000593          	li	a1,0
    11a8:	00800513          	li	a0,8
    11ac:	ac5ff0ef          	jal	ra,c70 <getBits>
    11b0:	00050413          	mv	s0,a0
    11b4:	080b1263          	bnez	s6,1238 <processMarkers+0x464>
    11b8:	01041413          	slli	s0,s0,0x10
    11bc:	41045413          	srai	s0,s0,0x10
    11c0:	fc0c1ae3          	bnez	s8,1194 <processMarkers+0x3c0>
    11c4:	008d9023          	sh	s0,0(s11)
    11c8:	002d0d13          	addi	s10,s10,2
    11cc:	002d8d93          	addi	s11,s11,2
    11d0:	fda99ae3          	bne	s3,s10,11a4 <processMarkers+0x3d0>
    11d4:	000c1463          	bnez	s8,11dc <processMarkers+0x408>
    11d8:	00098493          	mv	s1,s3
    11dc:	02090413          	addi	s0,s2,32
    11e0:	08000513          	li	a0,128
    11e4:	0080006f          	j	11ec <processMarkers+0x418>
    11e8:	00044503          	lbu	a0,0(s0)
    11ec:	00049583          	lh	a1,0(s1)
    11f0:	00140413          	addi	s0,s0,1
    11f4:	00248493          	addi	s1,s1,2
    11f8:	669020ef          	jal	ra,4060 <__mulsi3>
    11fc:	00450513          	addi	a0,a0,4
    1200:	40355513          	srai	a0,a0,0x3
    1204:	000047b7          	lui	a5,0x4
    1208:	fea49f23          	sh	a0,-2(s1)
    120c:	4e078793          	addi	a5,a5,1248 # 44e0 <CSWTCH.290>
    1210:	fc879ce3          	bne	a5,s0,11e8 <processMarkers+0x414>
    1214:	04100513          	li	a0,65
    1218:	000b0463          	beqz	s6,1220 <processMarkers+0x44c>
    121c:	08100513          	li	a0,129
    1220:	c0aae4e3          	bltu	s5,a0,e28 <processMarkers+0x54>
    1224:	40aa8ab3          	sub	s5,s5,a0
    1228:	010a9a93          	slli	s5,s5,0x10
    122c:	010ada93          	srli	s5,s5,0x10
    1230:	f00a9ee3          	bnez	s5,114c <processMarkers+0x378>
    1234:	bf5ff06f          	j	e28 <processMarkers+0x54>
    1238:	00000593          	li	a1,0
    123c:	00800513          	li	a0,8
    1240:	a31ff0ef          	jal	ra,c70 <getBits>
    1244:	00841413          	slli	s0,s0,0x8
    1248:	00850433          	add	s0,a0,s0
    124c:	01041413          	slli	s0,s0,0x10
    1250:	01045413          	srli	s0,s0,0x10
    1254:	f65ff06f          	j	11b8 <processMarkers+0x3e4>

00001258 <getBit>:
    1258:	fe010113          	addi	sp,sp,-32
    125c:	00812c23          	sw	s0,24(sp)
    1260:	00912a23          	sw	s1,20(sp)
    1264:	00005437          	lui	s0,0x5
    1268:	000054b7          	lui	s1,0x5
    126c:	1ce45503          	lhu	a0,462(s0) # 51ce <gBitBuf>
    1270:	1cc4c783          	lbu	a5,460(s1) # 51cc <gBitsLeft>
    1274:	01212823          	sw	s2,16(sp)
    1278:	00112e23          	sw	ra,28(sp)
    127c:	00f55913          	srli	s2,a0,0xf
    1280:	02078863          	beqz	a5,12b0 <getBit+0x58>
    1284:	00151513          	slli	a0,a0,0x1
    1288:	1ca41723          	sh	a0,462(s0)
    128c:	01c12083          	lw	ra,28(sp)
    1290:	01812403          	lw	s0,24(sp)
    1294:	fff78793          	addi	a5,a5,-1
    1298:	1cf48623          	sb	a5,460(s1)
    129c:	00090513          	mv	a0,s2
    12a0:	01412483          	lw	s1,20(sp)
    12a4:	01012903          	lw	s2,16(sp)
    12a8:	02010113          	addi	sp,sp,32
    12ac:	00008067          	ret
    12b0:	88dff0ef          	jal	ra,b3c <getChar>
    12b4:	0ff00793          	li	a5,255
    12b8:	02f50263          	beq	a0,a5,12dc <getBit+0x84>
    12bc:	1ce45703          	lhu	a4,462(s0)
    12c0:	1cc4c783          	lbu	a5,460(s1)
    12c4:	00e56533          	or	a0,a0,a4
    12c8:	00878793          	addi	a5,a5,8
    12cc:	01051513          	slli	a0,a0,0x10
    12d0:	01055513          	srli	a0,a0,0x10
    12d4:	0ff7f793          	andi	a5,a5,255
    12d8:	fadff06f          	j	1284 <getBit+0x2c>
    12dc:	00a12623          	sw	a0,12(sp)
    12e0:	92dff0ef          	jal	ra,c0c <getOctet.part.1>
    12e4:	00c12503          	lw	a0,12(sp)
    12e8:	fd5ff06f          	j	12bc <getBit+0x64>

000012ec <huffDecode>:
    12ec:	fe010113          	addi	sp,sp,-32
    12f0:	00912a23          	sw	s1,20(sp)
    12f4:	01212823          	sw	s2,16(sp)
    12f8:	01312623          	sw	s3,12(sp)
    12fc:	01412423          	sw	s4,8(sp)
    1300:	01512223          	sw	s5,4(sp)
    1304:	01612023          	sw	s6,0(sp)
    1308:	00112e23          	sw	ra,28(sp)
    130c:	00050b13          	mv	s6,a0
    1310:	00812c23          	sw	s0,24(sp)
    1314:	00058993          	mv	s3,a1
    1318:	f41ff0ef          	jal	ra,1258 <getBit>
    131c:	01051513          	slli	a0,a0,0x10
    1320:	00010ab7          	lui	s5,0x10
    1324:	01055513          	srli	a0,a0,0x10
    1328:	020b0913          	addi	s2,s6,32
    132c:	00000493          	li	s1,0
    1330:	fffa8a93          	addi	s5,s5,-1 # ffff <TOHOST_ADDR+0xae0b>
    1334:	01000a13          	li	s4,16
    1338:	00095703          	lhu	a4,0(s2)
    133c:	00151793          	slli	a5,a0,0x1
    1340:	01079413          	slli	s0,a5,0x10
    1344:	01045413          	srli	s0,s0,0x10
    1348:	00a76463          	bltu	a4,a0,1350 <huffDecode+0x64>
    134c:	05571663          	bne	a4,s5,1398 <huffDecode+0xac>
    1350:	f09ff0ef          	jal	ra,1258 <getBit>
    1354:	00a46533          	or	a0,s0,a0
    1358:	01051513          	slli	a0,a0,0x10
    135c:	00148493          	addi	s1,s1,1
    1360:	01055513          	srli	a0,a0,0x10
    1364:	00290913          	addi	s2,s2,2
    1368:	fd4498e3          	bne	s1,s4,1338 <huffDecode+0x4c>
    136c:	00000513          	li	a0,0
    1370:	01c12083          	lw	ra,28(sp)
    1374:	01812403          	lw	s0,24(sp)
    1378:	01412483          	lw	s1,20(sp)
    137c:	01012903          	lw	s2,16(sp)
    1380:	00c12983          	lw	s3,12(sp)
    1384:	00812a03          	lw	s4,8(sp)
    1388:	00412a83          	lw	s5,4(sp)
    138c:	00012b03          	lw	s6,0(sp)
    1390:	02010113          	addi	sp,sp,32
    1394:	00008067          	ret
    1398:	009b07b3          	add	a5,s6,s1
    139c:	00149493          	slli	s1,s1,0x1
    13a0:	0407c703          	lbu	a4,64(a5)
    13a4:	009b04b3          	add	s1,s6,s1
    13a8:	0004c783          	lbu	a5,0(s1)
    13ac:	00e50533          	add	a0,a0,a4
    13b0:	40f507b3          	sub	a5,a0,a5
    13b4:	0ff7f793          	andi	a5,a5,255
    13b8:	00f987b3          	add	a5,s3,a5
    13bc:	0007c503          	lbu	a0,0(a5)
    13c0:	fb1ff06f          	j	1370 <huffDecode+0x84>

000013c4 <pjpeg_decode_mcu>:
    13c4:	f9010113          	addi	sp,sp,-112
    13c8:	05712623          	sw	s7,76(sp)
    13cc:	00005bb7          	lui	s7,0x5
    13d0:	05412c23          	sw	s4,88(sp)
    13d4:	185bca03          	lbu	s4,389(s7) # 5185 <gCallbackStatus>
    13d8:	06112623          	sw	ra,108(sp)
    13dc:	06812423          	sw	s0,104(sp)
    13e0:	06912223          	sw	s1,100(sp)
    13e4:	07212023          	sw	s2,96(sp)
    13e8:	05312e23          	sw	s3,92(sp)
    13ec:	05512a23          	sw	s5,84(sp)
    13f0:	05612823          	sw	s6,80(sp)
    13f4:	05812423          	sw	s8,72(sp)
    13f8:	05912223          	sw	s9,68(sp)
    13fc:	05a12023          	sw	s10,64(sp)
    1400:	03b12e23          	sw	s11,60(sp)
    1404:	000a1a63          	bnez	s4,1418 <pjpeg_decode_mcu+0x54>
    1408:	000057b7          	lui	a5,0x5
    140c:	1967d783          	lhu	a5,406(a5) # 5196 <gNumMCUSRemaining>
    1410:	04079463          	bnez	a5,1458 <pjpeg_decode_mcu+0x94>
    1414:	00100a13          	li	s4,1
    1418:	06c12083          	lw	ra,108(sp)
    141c:	06812403          	lw	s0,104(sp)
    1420:	000a0513          	mv	a0,s4
    1424:	06412483          	lw	s1,100(sp)
    1428:	06012903          	lw	s2,96(sp)
    142c:	05c12983          	lw	s3,92(sp)
    1430:	05812a03          	lw	s4,88(sp)
    1434:	05412a83          	lw	s5,84(sp)
    1438:	05012b03          	lw	s6,80(sp)
    143c:	04c12b83          	lw	s7,76(sp)
    1440:	04812c03          	lw	s8,72(sp)
    1444:	04412c83          	lw	s9,68(sp)
    1448:	04012d03          	lw	s10,64(sp)
    144c:	03c12d83          	lw	s11,60(sp)
    1450:	07010113          	addi	sp,sp,112
    1454:	00008067          	ret
    1458:	000059b7          	lui	s3,0x5
    145c:	1b49d703          	lhu	a4,436(s3) # 51b4 <gRestartInterval>
    1460:	20071263          	bnez	a4,1664 <pjpeg_decode_mcu+0x2a0>
    1464:	00005737          	lui	a4,0x5
    1468:	02e12423          	sw	a4,40(sp)
    146c:	19e74703          	lbu	a4,414(a4) # 519e <gMaxBlocksPerMCU>
    1470:	22070463          	beqz	a4,1698 <pjpeg_decode_mcu+0x2d4>
    1474:	000057b7          	lui	a5,0x5
    1478:	1d878793          	addi	a5,a5,472 # 51d8 <gLastDC>
    147c:	00f12e23          	sw	a5,28(sp)
    1480:	000057b7          	lui	a5,0x5
    1484:	19078793          	addi	a5,a5,400 # 5190 <gMCUOrg>
    1488:	02f12023          	sw	a5,32(sp)
    148c:	000057b7          	lui	a5,0x5
    1490:	1a878793          	addi	a5,a5,424 # 51a8 <gCompDCTab>
    1494:	00f12c23          	sw	a5,24(sp)
    1498:	000057b7          	lui	a5,0x5
    149c:	1b878793          	addi	a5,a5,440 # 51b8 <gCompQuant>
    14a0:	00f12823          	sw	a5,16(sp)
    14a4:	000057b7          	lui	a5,0x5
    14a8:	87478413          	addi	s0,a5,-1932 # 4874 <gCoeffBuf>
    14ac:	000057b7          	lui	a5,0x5
    14b0:	1a478793          	addi	a5,a5,420 # 51a4 <gCompACTab>
    14b4:	00f12a23          	sw	a5,20(sp)
    14b8:	000067b7          	lui	a5,0x6
    14bc:	87478793          	addi	a5,a5,-1932 # 5874 <TOHOST_ADDR+0x680>
    14c0:	02f12223          	sw	a5,36(sp)
    14c4:	000057b7          	lui	a5,0x5
    14c8:	000049b7          	lui	s3,0x4
    14cc:	000054b7          	lui	s1,0x5
    14d0:	88478793          	addi	a5,a5,-1916 # 4884 <gCoeffBuf+0x10>
    14d4:	48098993          	addi	s3,s3,1152 # 4480 <CSWTCH.292>
    14d8:	00000913          	li	s2,0
    14dc:	8f448493          	addi	s1,s1,-1804 # 48f4 <gMCUBufG>
    14e0:	00f12623          	sw	a5,12(sp)
    14e4:	03412623          	sw	s4,44(sp)
    14e8:	02012783          	lw	a5,32(sp)
    14ec:	48040a93          	addi	s5,s0,1152
    14f0:	012787b3          	add	a5,a5,s2
    14f4:	0007cc03          	lbu	s8,0(a5)
    14f8:	01012783          	lw	a5,16(sp)
    14fc:	018787b3          	add	a5,a5,s8
    1500:	0007c703          	lbu	a4,0(a5)
    1504:	01812783          	lw	a5,24(sp)
    1508:	018787b3          	add	a5,a5,s8
    150c:	0007c783          	lbu	a5,0(a5)
    1510:	00071463          	bnez	a4,1518 <pjpeg_decode_mcu+0x154>
    1514:	50040a93          	addi	s5,s0,1280
    1518:	56078a63          	beqz	a5,1a8c <pjpeg_decode_mcu+0x6c8>
    151c:	5e040513          	addi	a0,s0,1504
    1520:	63040593          	addi	a1,s0,1584
    1524:	dc9ff0ef          	jal	ra,12ec <huffDecode>
    1528:	00f57793          	andi	a5,a0,15
    152c:	00050b13          	mv	s6,a0
    1530:	00000513          	li	a0,0
    1534:	56079a63          	bnez	a5,1aa8 <pjpeg_decode_mcu+0x6e4>
    1538:	fffb0b13          	addi	s6,s6,-1
    153c:	0ffb7b13          	andi	s6,s6,255
    1540:	00e00793          	li	a5,14
    1544:	0367e263          	bltu	a5,s6,1568 <pjpeg_decode_mcu+0x1a4>
    1548:	001b1b13          	slli	s6,s6,0x1
    154c:	01698b33          	add	s6,s3,s6
    1550:	060b5783          	lhu	a5,96(s6)
    1554:	00f57a63          	bgeu	a0,a5,1568 <pjpeg_decode_mcu+0x1a4>
    1558:	080b5783          	lhu	a5,128(s6)
    155c:	00f50533          	add	a0,a0,a5
    1560:	01051513          	slli	a0,a0,0x10
    1564:	01055513          	srli	a0,a0,0x10
    1568:	01c12703          	lw	a4,28(sp)
    156c:	001c1793          	slli	a5,s8,0x1
    1570:	000ad583          	lhu	a1,0(s5)
    1574:	00f707b3          	add	a5,a4,a5
    1578:	0007d703          	lhu	a4,0(a5)
    157c:	00e50533          	add	a0,a0,a4
    1580:	01051513          	slli	a0,a0,0x10
    1584:	01055513          	srli	a0,a0,0x10
    1588:	00a79023          	sh	a0,0(a5)
    158c:	2d5020ef          	jal	ra,4060 <__mulsi3>
    1590:	000057b7          	lui	a5,0x5
    1594:	1847c703          	lbu	a4,388(a5) # 5184 <gReduce>
    1598:	01412783          	lw	a5,20(sp)
    159c:	00a41023          	sh	a0,0(s0)
    15a0:	01878c33          	add	s8,a5,s8
    15a4:	000c4783          	lbu	a5,0(s8)
    15a8:	50070863          	beqz	a4,1ab8 <pjpeg_decode_mcu+0x6f4>
    15ac:	78078ae3          	beqz	a5,2540 <pjpeg_decode_mcu+0x117c>
    15b0:	02412783          	lw	a5,36(sp)
    15b4:	64040c93          	addi	s9,s0,1600
    15b8:	84078d13          	addi	s10,a5,-1984
    15bc:	00100d93          	li	s11,1
    15c0:	00f00c13          	li	s8,15
    15c4:	03000b13          	li	s6,48
    15c8:	03f00a93          	li	s5,63
    15cc:	000c8593          	mv	a1,s9
    15d0:	000d0513          	mv	a0,s10
    15d4:	d19ff0ef          	jal	ra,12ec <huffDecode>
    15d8:	00050a13          	mv	s4,a0
    15dc:	00f57513          	andi	a0,a0,15
    15e0:	46051e63          	bnez	a0,1a5c <pjpeg_decode_mcu+0x698>
    15e4:	004a5a13          	srli	s4,s4,0x4
    15e8:	0ffa7a13          	andi	s4,s4,255
    15ec:	018a1e63          	bne	s4,s8,1608 <pjpeg_decode_mcu+0x244>
    15f0:	49bb6463          	bltu	s6,s11,1a78 <pjpeg_decode_mcu+0x6b4>
    15f4:	00fd8d93          	addi	s11,s11,15
    15f8:	0ffdfd93          	andi	s11,s11,255
    15fc:	001d8d93          	addi	s11,s11,1
    1600:	0ffdfd93          	andi	s11,s11,255
    1604:	fdbaf4e3          	bgeu	s5,s11,15cc <pjpeg_decode_mcu+0x208>
    1608:	00041783          	lh	a5,0(s0)
    160c:	0ff00713          	li	a4,255
    1610:	04078793          	addi	a5,a5,64
    1614:	0077d793          	srli	a5,a5,0x7
    1618:	08078793          	addi	a5,a5,128
    161c:	01079793          	slli	a5,a5,0x10
    1620:	0107d793          	srli	a5,a5,0x10
    1624:	0ff7f613          	andi	a2,a5,255
    1628:	00f77a63          	bgeu	a4,a5,163c <pjpeg_decode_mcu+0x278>
    162c:	fff7c793          	not	a5,a5
    1630:	01079793          	slli	a5,a5,0x10
    1634:	41f7d793          	srai	a5,a5,0x1f
    1638:	0ff7f613          	andi	a2,a5,255
    163c:	000057b7          	lui	a5,0x5
    1640:	1a07a703          	lw	a4,416(a5) # 51a0 <gScanType>
    1644:	00400693          	li	a3,4
    1648:	3ee6ec63          	bltu	a3,a4,1a40 <pjpeg_decode_mcu+0x67c>
    164c:	000046b7          	lui	a3,0x4
    1650:	00271713          	slli	a4,a4,0x2
    1654:	42868693          	addi	a3,a3,1064 # 4428 <main+0x70>
    1658:	00d70733          	add	a4,a4,a3
    165c:	00072703          	lw	a4,0(a4)
    1660:	00070067          	jr	a4
    1664:	00005937          	lui	s2,0x5
    1668:	1b095783          	lhu	a5,432(s2) # 51b0 <gRestartsLeft>
    166c:	6e0782e3          	beqz	a5,2550 <pjpeg_decode_mcu+0x118c>
    1670:	00005737          	lui	a4,0x5
    1674:	02e12423          	sw	a4,40(sp)
    1678:	19e74703          	lbu	a4,414(a4) # 519e <gMaxBlocksPerMCU>
    167c:	fff78793          	addi	a5,a5,-1
    1680:	1af91823          	sh	a5,432(s2)
    1684:	de0718e3          	bnez	a4,1474 <pjpeg_decode_mcu+0xb0>
    1688:	185bc783          	lbu	a5,389(s7)
    168c:	3e079c63          	bnez	a5,1a84 <pjpeg_decode_mcu+0x6c0>
    1690:	000057b7          	lui	a5,0x5
    1694:	1967d783          	lhu	a5,406(a5) # 5196 <gNumMCUSRemaining>
    1698:	fff78793          	addi	a5,a5,-1
    169c:	00005737          	lui	a4,0x5
    16a0:	18f71b23          	sh	a5,406(a4) # 5196 <gNumMCUSRemaining>
    16a4:	d75ff06f          	j	1418 <pjpeg_decode_mcu+0x54>
    16a8:	00100793          	li	a5,1
    16ac:	00f91463          	bne	s2,a5,16b4 <pjpeg_decode_mcu+0x2f0>
    16b0:	45c0106f          	j	2b0c <pjpeg_decode_mcu+0x1748>
    16b4:	74090ee3          	beqz	s2,2610 <pjpeg_decode_mcu+0x124c>
    16b8:	00200793          	li	a5,2
    16bc:	76f902e3          	beq	s2,a5,2620 <pjpeg_decode_mcu+0x125c>
    16c0:	00300793          	li	a5,3
    16c4:	36f91e63          	bne	s2,a5,1a40 <pjpeg_decode_mcu+0x67c>
    16c8:	00161713          	slli	a4,a2,0x1
    16cc:	00c707b3          	add	a5,a4,a2
    16d0:	00279793          	slli	a5,a5,0x2
    16d4:	00c787b3          	add	a5,a5,a2
    16d8:	00379793          	slli	a5,a5,0x3
    16dc:	40c787b3          	sub	a5,a5,a2
    16e0:	0087d693          	srli	a3,a5,0x8
    16e4:	f4d60793          	addi	a5,a2,-179
    16e8:	28044583          	lbu	a1,640(s0)
    16ec:	00f687b3          	add	a5,a3,a5
    16f0:	01079793          	slli	a5,a5,0x10
    16f4:	0107d793          	srli	a5,a5,0x10
    16f8:	00b786b3          	add	a3,a5,a1
    16fc:	01069693          	slli	a3,a3,0x10
    1700:	0106d693          	srli	a3,a3,0x10
    1704:	0ff00593          	li	a1,255
    1708:	00d5fe63          	bgeu	a1,a3,1724 <pjpeg_decode_mcu+0x360>
    170c:	01069513          	slli	a0,a3,0x10
    1710:	41055513          	srai	a0,a0,0x10
    1714:	00000593          	li	a1,0
    1718:	00054863          	bltz	a0,1728 <pjpeg_decode_mcu+0x364>
    171c:	0ff00593          	li	a1,255
    1720:	00a5c463          	blt	a1,a0,1728 <pjpeg_decode_mcu+0x364>
    1724:	0ff6f593          	andi	a1,a3,255
    1728:	30044503          	lbu	a0,768(s0)
    172c:	28b40023          	sb	a1,640(s0)
    1730:	0ff00693          	li	a3,255
    1734:	00a787b3          	add	a5,a5,a0
    1738:	01079793          	slli	a5,a5,0x10
    173c:	0107d793          	srli	a5,a5,0x10
    1740:	00f6fe63          	bgeu	a3,a5,175c <pjpeg_decode_mcu+0x398>
    1744:	01079593          	slli	a1,a5,0x10
    1748:	4105d593          	srai	a1,a1,0x10
    174c:	00000693          	li	a3,0
    1750:	0005c863          	bltz	a1,1760 <pjpeg_decode_mcu+0x39c>
    1754:	0ff00693          	li	a3,255
    1758:	00b6c463          	blt	a3,a1,1760 <pjpeg_decode_mcu+0x39c>
    175c:	0ff7f693          	andi	a3,a5,255
    1760:	00c707b3          	add	a5,a4,a2
    1764:	00379793          	slli	a5,a5,0x3
    1768:	40c787b3          	sub	a5,a5,a2
    176c:	00379793          	slli	a5,a5,0x3
    1770:	40c787b3          	sub	a5,a5,a2
    1774:	0087d793          	srli	a5,a5,0x8
    1778:	08044703          	lbu	a4,128(s0)
    177c:	fa578793          	addi	a5,a5,-91
    1780:	01079793          	slli	a5,a5,0x10
    1784:	0107d793          	srli	a5,a5,0x10
    1788:	40f70733          	sub	a4,a4,a5
    178c:	01071713          	slli	a4,a4,0x10
    1790:	30d40023          	sb	a3,768(s0)
    1794:	01075713          	srli	a4,a4,0x10
    1798:	0ff00693          	li	a3,255
    179c:	00e6fe63          	bgeu	a3,a4,17b8 <pjpeg_decode_mcu+0x3f4>
    17a0:	01071613          	slli	a2,a4,0x10
    17a4:	41065613          	srai	a2,a2,0x10
    17a8:	00000693          	li	a3,0
    17ac:	00064863          	bltz	a2,17bc <pjpeg_decode_mcu+0x3f8>
    17b0:	0ff00693          	li	a3,255
    17b4:	00c6c463          	blt	a3,a2,17bc <pjpeg_decode_mcu+0x3f8>
    17b8:	0ff77693          	andi	a3,a4,255
    17bc:	10044703          	lbu	a4,256(s0)
    17c0:	08d40023          	sb	a3,128(s0)
    17c4:	0ff00693          	li	a3,255
    17c8:	40f707b3          	sub	a5,a4,a5
    17cc:	01079793          	slli	a5,a5,0x10
    17d0:	0107d793          	srli	a5,a5,0x10
    17d4:	00f6fe63          	bgeu	a3,a5,17f0 <pjpeg_decode_mcu+0x42c>
    17d8:	01079693          	slli	a3,a5,0x10
    17dc:	4106d693          	srai	a3,a3,0x10
    17e0:	00000713          	li	a4,0
    17e4:	0006c863          	bltz	a3,17f4 <pjpeg_decode_mcu+0x430>
    17e8:	0ff00713          	li	a4,255
    17ec:	00d74463          	blt	a4,a3,17f4 <pjpeg_decode_mcu+0x430>
    17f0:	0ff7f713          	andi	a4,a5,255
    17f4:	10e40023          	sb	a4,256(s0)
    17f8:	2480006f          	j	1a40 <pjpeg_decode_mcu+0x67c>
    17fc:	00100793          	li	a5,1
    1800:	00f91463          	bne	s2,a5,1808 <pjpeg_decode_mcu+0x444>
    1804:	2f80106f          	j	2afc <pjpeg_decode_mcu+0x1738>
    1808:	600904e3          	beqz	s2,2610 <pjpeg_decode_mcu+0x124c>
    180c:	00200793          	li	a5,2
    1810:	72f90ee3          	beq	s2,a5,274c <pjpeg_decode_mcu+0x1388>
    1814:	00300793          	li	a5,3
    1818:	22f91463          	bne	s2,a5,1a40 <pjpeg_decode_mcu+0x67c>
    181c:	00161713          	slli	a4,a2,0x1
    1820:	00c707b3          	add	a5,a4,a2
    1824:	00279793          	slli	a5,a5,0x2
    1828:	00c787b3          	add	a5,a5,a2
    182c:	00379793          	slli	a5,a5,0x3
    1830:	40c787b3          	sub	a5,a5,a2
    1834:	0087d693          	srli	a3,a5,0x8
    1838:	f4d60793          	addi	a5,a2,-179
    183c:	28044583          	lbu	a1,640(s0)
    1840:	00f687b3          	add	a5,a3,a5
    1844:	01079793          	slli	a5,a5,0x10
    1848:	0107d793          	srli	a5,a5,0x10
    184c:	00b786b3          	add	a3,a5,a1
    1850:	01069693          	slli	a3,a3,0x10
    1854:	0106d693          	srli	a3,a3,0x10
    1858:	0ff00593          	li	a1,255
    185c:	00d5fe63          	bgeu	a1,a3,1878 <pjpeg_decode_mcu+0x4b4>
    1860:	01069513          	slli	a0,a3,0x10
    1864:	41055513          	srai	a0,a0,0x10
    1868:	00000593          	li	a1,0
    186c:	00054863          	bltz	a0,187c <pjpeg_decode_mcu+0x4b8>
    1870:	0ff00593          	li	a1,255
    1874:	00a5c463          	blt	a1,a0,187c <pjpeg_decode_mcu+0x4b8>
    1878:	0ff6f593          	andi	a1,a3,255
    187c:	2c044503          	lbu	a0,704(s0)
    1880:	28b40023          	sb	a1,640(s0)
    1884:	0ff00693          	li	a3,255
    1888:	00a787b3          	add	a5,a5,a0
    188c:	01079793          	slli	a5,a5,0x10
    1890:	0107d793          	srli	a5,a5,0x10
    1894:	00f6fe63          	bgeu	a3,a5,18b0 <pjpeg_decode_mcu+0x4ec>
    1898:	01079593          	slli	a1,a5,0x10
    189c:	4105d593          	srai	a1,a1,0x10
    18a0:	00000693          	li	a3,0
    18a4:	0005c863          	bltz	a1,18b4 <pjpeg_decode_mcu+0x4f0>
    18a8:	0ff00693          	li	a3,255
    18ac:	00b6c463          	blt	a3,a1,18b4 <pjpeg_decode_mcu+0x4f0>
    18b0:	0ff7f693          	andi	a3,a5,255
    18b4:	00c707b3          	add	a5,a4,a2
    18b8:	00379793          	slli	a5,a5,0x3
    18bc:	40c787b3          	sub	a5,a5,a2
    18c0:	00379793          	slli	a5,a5,0x3
    18c4:	40c787b3          	sub	a5,a5,a2
    18c8:	0087d793          	srli	a5,a5,0x8
    18cc:	08044703          	lbu	a4,128(s0)
    18d0:	fa578793          	addi	a5,a5,-91
    18d4:	01079793          	slli	a5,a5,0x10
    18d8:	0107d793          	srli	a5,a5,0x10
    18dc:	40f70733          	sub	a4,a4,a5
    18e0:	01071713          	slli	a4,a4,0x10
    18e4:	2cd40023          	sb	a3,704(s0)
    18e8:	01075713          	srli	a4,a4,0x10
    18ec:	0ff00693          	li	a3,255
    18f0:	00e6fe63          	bgeu	a3,a4,190c <pjpeg_decode_mcu+0x548>
    18f4:	01071613          	slli	a2,a4,0x10
    18f8:	41065613          	srai	a2,a2,0x10
    18fc:	00000693          	li	a3,0
    1900:	00064863          	bltz	a2,1910 <pjpeg_decode_mcu+0x54c>
    1904:	0ff00693          	li	a3,255
    1908:	00c6c463          	blt	a3,a2,1910 <pjpeg_decode_mcu+0x54c>
    190c:	0ff77693          	andi	a3,a4,255
    1910:	0c044703          	lbu	a4,192(s0)
    1914:	08d40023          	sb	a3,128(s0)
    1918:	0ff00693          	li	a3,255
    191c:	40f707b3          	sub	a5,a4,a5
    1920:	01079793          	slli	a5,a5,0x10
    1924:	0107d793          	srli	a5,a5,0x10
    1928:	00f6fe63          	bgeu	a3,a5,1944 <pjpeg_decode_mcu+0x580>
    192c:	01079693          	slli	a3,a5,0x10
    1930:	4106d693          	srai	a3,a3,0x10
    1934:	00000713          	li	a4,0
    1938:	0006c863          	bltz	a3,1948 <pjpeg_decode_mcu+0x584>
    193c:	0ff00713          	li	a4,255
    1940:	00d74463          	blt	a4,a3,1948 <pjpeg_decode_mcu+0x584>
    1944:	0ff7f713          	andi	a4,a5,255
    1948:	0ce40023          	sb	a4,192(s0)
    194c:	0f40006f          	j	1a40 <pjpeg_decode_mcu+0x67c>
    1950:	00100793          	li	a5,1
    1954:	00f91463          	bne	s2,a5,195c <pjpeg_decode_mcu+0x598>
    1958:	0780106f          	j	29d0 <pjpeg_decode_mcu+0x160c>
    195c:	4a090ae3          	beqz	s2,2610 <pjpeg_decode_mcu+0x124c>
    1960:	00200793          	li	a5,2
    1964:	0cf91e63          	bne	s2,a5,1a40 <pjpeg_decode_mcu+0x67c>
    1968:	00161713          	slli	a4,a2,0x1
    196c:	00c707b3          	add	a5,a4,a2
    1970:	28044683          	lbu	a3,640(s0)
    1974:	00279793          	slli	a5,a5,0x2
    1978:	00c787b3          	add	a5,a5,a2
    197c:	00379793          	slli	a5,a5,0x3
    1980:	f4d68693          	addi	a3,a3,-179
    1984:	40c787b3          	sub	a5,a5,a2
    1988:	00c686b3          	add	a3,a3,a2
    198c:	0087d793          	srli	a5,a5,0x8
    1990:	00f687b3          	add	a5,a3,a5
    1994:	01079793          	slli	a5,a5,0x10
    1998:	0107d793          	srli	a5,a5,0x10
    199c:	0ff00693          	li	a3,255
    19a0:	00f6fe63          	bgeu	a3,a5,19bc <pjpeg_decode_mcu+0x5f8>
    19a4:	01079593          	slli	a1,a5,0x10
    19a8:	4105d593          	srai	a1,a1,0x10
    19ac:	00000693          	li	a3,0
    19b0:	0005c863          	bltz	a1,19c0 <pjpeg_decode_mcu+0x5fc>
    19b4:	0ff00693          	li	a3,255
    19b8:	00b6c463          	blt	a3,a1,19c0 <pjpeg_decode_mcu+0x5fc>
    19bc:	0ff7f693          	andi	a3,a5,255
    19c0:	00c707b3          	add	a5,a4,a2
    19c4:	00379793          	slli	a5,a5,0x3
    19c8:	08044703          	lbu	a4,128(s0)
    19cc:	40c787b3          	sub	a5,a5,a2
    19d0:	00379793          	slli	a5,a5,0x3
    19d4:	40c787b3          	sub	a5,a5,a2
    19d8:	05b70713          	addi	a4,a4,91
    19dc:	0087d793          	srli	a5,a5,0x8
    19e0:	40f707b3          	sub	a5,a4,a5
    19e4:	01079793          	slli	a5,a5,0x10
    19e8:	28d40023          	sb	a3,640(s0)
    19ec:	0107d793          	srli	a5,a5,0x10
    19f0:	0ff00713          	li	a4,255
    19f4:	00f77e63          	bgeu	a4,a5,1a10 <pjpeg_decode_mcu+0x64c>
    19f8:	01079693          	slli	a3,a5,0x10
    19fc:	4106d693          	srai	a3,a3,0x10
    1a00:	00000713          	li	a4,0
    1a04:	0006c863          	bltz	a3,1a14 <pjpeg_decode_mcu+0x650>
    1a08:	0ff00713          	li	a4,255
    1a0c:	00d74463          	blt	a4,a3,1a14 <pjpeg_decode_mcu+0x650>
    1a10:	0ff7f713          	andi	a4,a5,255
    1a14:	08e40023          	sb	a4,128(s0)
    1a18:	0280006f          	j	1a40 <pjpeg_decode_mcu+0x67c>
    1a1c:	00500793          	li	a5,5
    1a20:	0327e063          	bltu	a5,s2,1a40 <pjpeg_decode_mcu+0x67c>
    1a24:	00004737          	lui	a4,0x4
    1a28:	00291793          	slli	a5,s2,0x2
    1a2c:	43c70713          	addi	a4,a4,1084 # 443c <main+0x84>
    1a30:	00e787b3          	add	a5,a5,a4
    1a34:	0007a783          	lw	a5,0(a5)
    1a38:	00078067          	jr	a5
    1a3c:	28c40023          	sb	a2,640(s0)
    1a40:	02812783          	lw	a5,40(sp)
    1a44:	00190913          	addi	s2,s2,1
    1a48:	0ff97913          	andi	s2,s2,255
    1a4c:	19e7c783          	lbu	a5,414(a5)
    1a50:	a8f96ce3          	bltu	s2,a5,14e8 <pjpeg_decode_mcu+0x124>
    1a54:	02c12a03          	lw	s4,44(sp)
    1a58:	c31ff06f          	j	1688 <pjpeg_decode_mcu+0x2c4>
    1a5c:	004a5a13          	srli	s4,s4,0x4
    1a60:	00100593          	li	a1,1
    1a64:	0ffa7a13          	andi	s4,s4,255
    1a68:	a08ff0ef          	jal	ra,c70 <getBits>
    1a6c:	b80a08e3          	beqz	s4,15fc <pjpeg_decode_mcu+0x238>
    1a70:	014d8db3          	add	s11,s11,s4
    1a74:	b9bad2e3          	bge	s5,s11,15f8 <pjpeg_decode_mcu+0x234>
    1a78:	01c00a13          	li	s4,28
    1a7c:	185bc783          	lbu	a5,389(s7)
    1a80:	98078ce3          	beqz	a5,1418 <pjpeg_decode_mcu+0x54>
    1a84:	00078a13          	mv	s4,a5
    1a88:	991ff06f          	j	1418 <pjpeg_decode_mcu+0x54>
    1a8c:	58040513          	addi	a0,s0,1408
    1a90:	5d040593          	addi	a1,s0,1488
    1a94:	859ff0ef          	jal	ra,12ec <huffDecode>
    1a98:	00f57793          	andi	a5,a0,15
    1a9c:	00050b13          	mv	s6,a0
    1aa0:	00000513          	li	a0,0
    1aa4:	a8078ae3          	beqz	a5,1538 <pjpeg_decode_mcu+0x174>
    1aa8:	00100593          	li	a1,1
    1aac:	00078513          	mv	a0,a5
    1ab0:	9c0ff0ef          	jal	ra,c70 <getBits>
    1ab4:	a85ff06f          	j	1538 <pjpeg_decode_mcu+0x174>
    1ab8:	26078ce3          	beqz	a5,2530 <pjpeg_decode_mcu+0x116c>
    1abc:	02412783          	lw	a5,36(sp)
    1ac0:	64040d13          	addi	s10,s0,1600
    1ac4:	84078d93          	addi	s11,a5,-1984
    1ac8:	00100a13          	li	s4,1
    1acc:	03f00b13          	li	s6,63
    1ad0:	000d0593          	mv	a1,s10
    1ad4:	000d8513          	mv	a0,s11
    1ad8:	815ff0ef          	jal	ra,12ec <huffDecode>
    1adc:	00f57c93          	andi	s9,a0,15
    1ae0:	00050c13          	mv	s8,a0
    1ae4:	760c9c63          	bnez	s9,225c <pjpeg_decode_mcu+0xe98>
    1ae8:	00455c13          	srli	s8,a0,0x4
    1aec:	0ffc7c13          	andi	s8,s8,255
    1af0:	00f00793          	li	a5,15
    1af4:	1efc1ae3          	bne	s8,a5,24e8 <pjpeg_decode_mcu+0x1124>
    1af8:	03000793          	li	a5,48
    1afc:	f747eee3          	bltu	a5,s4,1a78 <pjpeg_decode_mcu+0x6b4>
    1b00:	010a0793          	addi	a5,s4,16
    1b04:	0ff7f793          	andi	a5,a5,255
    1b08:	01498733          	add	a4,s3,s4
    1b0c:	0a070703          	lb	a4,160(a4)
    1b10:	001a0a13          	addi	s4,s4,1
    1b14:	0ffa7a13          	andi	s4,s4,255
    1b18:	00171713          	slli	a4,a4,0x1
    1b1c:	00e40733          	add	a4,s0,a4
    1b20:	00071023          	sh	zero,0(a4)
    1b24:	fefa12e3          	bne	s4,a5,1b08 <pjpeg_decode_mcu+0x744>
    1b28:	00078a13          	mv	s4,a5
    1b2c:	fafb72e3          	bgeu	s6,a5,1ad0 <pjpeg_decode_mcu+0x70c>
    1b30:	00040613          	mv	a2,s0
    1b34:	0280006f          	j	1b5c <pjpeg_decode_mcu+0x798>
    1b38:	00e61123          	sh	a4,2(a2)
    1b3c:	00e61223          	sh	a4,4(a2)
    1b40:	00e61323          	sh	a4,6(a2)
    1b44:	00e61423          	sh	a4,8(a2)
    1b48:	00e61523          	sh	a4,10(a2)
    1b4c:	00e61623          	sh	a4,12(a2)
    1b50:	00e61723          	sh	a4,14(a2)
    1b54:	01060613          	addi	a2,a2,16
    1b58:	28960063          	beq	a2,s1,1dd8 <pjpeg_decode_mcu+0xa14>
    1b5c:	00261c03          	lh	s8,2(a2)
    1b60:	00461303          	lh	t1,4(a2)
    1b64:	00661683          	lh	a3,6(a2)
    1b68:	00861e83          	lh	t4,8(a2)
    1b6c:	00a61883          	lh	a7,10(a2)
    1b70:	006c67b3          	or	a5,s8,t1
    1b74:	00c61e03          	lh	t3,12(a2)
    1b78:	00f6e7b3          	or	a5,a3,a5
    1b7c:	00e61803          	lh	a6,14(a2)
    1b80:	00fee7b3          	or	a5,t4,a5
    1b84:	00f8e7b3          	or	a5,a7,a5
    1b88:	00fe67b3          	or	a5,t3,a5
    1b8c:	00f867b3          	or	a5,a6,a5
    1b90:	00061703          	lh	a4,0(a2)
    1b94:	fa0782e3          	beqz	a5,1b38 <pjpeg_decode_mcu+0x774>
    1b98:	01089893          	slli	a7,a7,0x10
    1b9c:	01069693          	slli	a3,a3,0x10
    1ba0:	0106d693          	srli	a3,a3,0x10
    1ba4:	0108d893          	srli	a7,a7,0x10
    1ba8:	40d882b3          	sub	t0,a7,a3
    1bac:	010c1c13          	slli	s8,s8,0x10
    1bb0:	01081813          	slli	a6,a6,0x10
    1bb4:	010c5c13          	srli	s8,s8,0x10
    1bb8:	01085813          	srli	a6,a6,0x10
    1bbc:	01029293          	slli	t0,t0,0x10
    1bc0:	410c07b3          	sub	a5,s8,a6
    1bc4:	0102d293          	srli	t0,t0,0x10
    1bc8:	010c03b3          	add	t2,s8,a6
    1bcc:	01079b13          	slli	s6,a5,0x10
    1bd0:	41828c33          	sub	s8,t0,s8
    1bd4:	410b5b13          	srai	s6,s6,0x10
    1bd8:	00d888b3          	add	a7,a7,a3
    1bdc:	01880833          	add	a6,a6,s8
    1be0:	01081c13          	slli	s8,a6,0x10
    1be4:	01089893          	slli	a7,a7,0x10
    1be8:	01039393          	slli	t2,t2,0x10
    1bec:	01031313          	slli	t1,t1,0x10
    1bf0:	010e1e13          	slli	t3,t3,0x10
    1bf4:	004b1793          	slli	a5,s6,0x4
    1bf8:	010e5e13          	srli	t3,t3,0x10
    1bfc:	410c5c13          	srai	s8,s8,0x10
    1c00:	0108d893          	srli	a7,a7,0x10
    1c04:	0103d393          	srli	t2,t2,0x10
    1c08:	01035313          	srli	t1,t1,0x10
    1c0c:	016787b3          	add	a5,a5,s6
    1c10:	41c30533          	sub	a0,t1,t3
    1c14:	411386b3          	sub	a3,t2,a7
    1c18:	001c1813          	slli	a6,s8,0x1
    1c1c:	00279793          	slli	a5,a5,0x2
    1c20:	01069f93          	slli	t6,a3,0x10
    1c24:	01051f13          	slli	t5,a0,0x10
    1c28:	01880833          	add	a6,a6,s8
    1c2c:	016787b3          	add	a5,a5,s6
    1c30:	410fdf93          	srai	t6,t6,0x10
    1c34:	410f5f13          	srai	t5,t5,0x10
    1c38:	00481813          	slli	a6,a6,0x4
    1c3c:	00279793          	slli	a5,a5,0x2
    1c40:	001f9693          	slli	a3,t6,0x1
    1c44:	001f1513          	slli	a0,t5,0x1
    1c48:	01880833          	add	a6,a6,s8
    1c4c:	016787b3          	add	a5,a5,s6
    1c50:	01f68ab3          	add	s5,a3,t6
    1c54:	01e50a33          	add	s4,a0,t5
    1c58:	01029293          	slli	t0,t0,0x10
    1c5c:	00281813          	slli	a6,a6,0x2
    1c60:	08078793          	addi	a5,a5,128
    1c64:	4102d293          	srai	t0,t0,0x10
    1c68:	004a9693          	slli	a3,s5,0x4
    1c6c:	004a1513          	slli	a0,s4,0x4
    1c70:	4087d793          	srai	a5,a5,0x8
    1c74:	08080813          	addi	a6,a6,128
    1c78:	007888b3          	add	a7,a7,t2
    1c7c:	00329593          	slli	a1,t0,0x3
    1c80:	415686b3          	sub	a3,a3,s5
    1c84:	41450533          	sub	a0,a0,s4
    1c88:	01089893          	slli	a7,a7,0x10
    1c8c:	01079793          	slli	a5,a5,0x10
    1c90:	40885813          	srai	a6,a6,0x8
    1c94:	0108d893          	srli	a7,a7,0x10
    1c98:	405585b3          	sub	a1,a1,t0
    1c9c:	0107d793          	srli	a5,a5,0x10
    1ca0:	00269693          	slli	a3,a3,0x2
    1ca4:	00251513          	slli	a0,a0,0x2
    1ca8:	01081813          	slli	a6,a6,0x10
    1cac:	01085813          	srli	a6,a6,0x10
    1cb0:	00559593          	slli	a1,a1,0x5
    1cb4:	01f686b3          	add	a3,a3,t6
    1cb8:	01e50533          	add	a0,a0,t5
    1cbc:	01071713          	slli	a4,a4,0x10
    1cc0:	40f88f33          	sub	t5,a7,a5
    1cc4:	010e9e93          	slli	t4,t4,0x10
    1cc8:	010ede93          	srli	t4,t4,0x10
    1ccc:	405582b3          	sub	t0,a1,t0
    1cd0:	01075713          	srli	a4,a4,0x10
    1cd4:	01e80f33          	add	t5,a6,t5
    1cd8:	00169693          	slli	a3,a3,0x1
    1cdc:	00151513          	slli	a0,a0,0x1
    1ce0:	41d70fb3          	sub	t6,a4,t4
    1ce4:	01c30333          	add	t1,t1,t3
    1ce8:	00229593          	slli	a1,t0,0x2
    1cec:	08068693          	addi	a3,a3,128
    1cf0:	08050513          	addi	a0,a0,128
    1cf4:	010f1f13          	slli	t5,t5,0x10
    1cf8:	010f5f13          	srli	t5,t5,0x10
    1cfc:	010f9e13          	slli	t3,t6,0x10
    1d00:	405585b3          	sub	a1,a1,t0
    1d04:	01031313          	slli	t1,t1,0x10
    1d08:	4086d693          	srai	a3,a3,0x8
    1d0c:	40855513          	srai	a0,a0,0x8
    1d10:	01035313          	srli	t1,t1,0x10
    1d14:	010e5e13          	srli	t3,t3,0x10
    1d18:	00df06b3          	add	a3,t5,a3
    1d1c:	01d70733          	add	a4,a4,t4
    1d20:	08058593          	addi	a1,a1,128
    1d24:	01051513          	slli	a0,a0,0x10
    1d28:	406e0eb3          	sub	t4,t3,t1
    1d2c:	01055513          	srli	a0,a0,0x10
    1d30:	4085d593          	srai	a1,a1,0x8
    1d34:	01069693          	slli	a3,a3,0x10
    1d38:	01071713          	slli	a4,a4,0x10
    1d3c:	0106d693          	srli	a3,a3,0x10
    1d40:	006e0e33          	add	t3,t3,t1
    1d44:	01075713          	srli	a4,a4,0x10
    1d48:	40b805b3          	sub	a1,a6,a1
    1d4c:	01d50eb3          	add	t4,a0,t4
    1d50:	00670fb3          	add	t6,a4,t1
    1d54:	40ae0533          	sub	a0,t3,a0
    1d58:	40670733          	sub	a4,a4,t1
    1d5c:	010e9e93          	slli	t4,t4,0x10
    1d60:	00b685b3          	add	a1,a3,a1
    1d64:	010ede93          	srli	t4,t4,0x10
    1d68:	411787b3          	sub	a5,a5,a7
    1d6c:	010f9e13          	slli	t3,t6,0x10
    1d70:	01071313          	slli	t1,a4,0x10
    1d74:	01059593          	slli	a1,a1,0x10
    1d78:	01051513          	slli	a0,a0,0x10
    1d7c:	0105d593          	srli	a1,a1,0x10
    1d80:	010e5e13          	srli	t3,t3,0x10
    1d84:	01035313          	srli	t1,t1,0x10
    1d88:	01055513          	srli	a0,a0,0x10
    1d8c:	00fe87b3          	add	a5,t4,a5
    1d90:	01c88fb3          	add	t6,a7,t3
    1d94:	41078833          	sub	a6,a5,a6
    1d98:	00a68733          	add	a4,a3,a0
    1d9c:	40b307b3          	sub	a5,t1,a1
    1da0:	40d50533          	sub	a0,a0,a3
    1da4:	006585b3          	add	a1,a1,t1
    1da8:	01df0f33          	add	t5,t5,t4
    1dac:	411e08b3          	sub	a7,t3,a7
    1db0:	01f61023          	sh	t6,0(a2)
    1db4:	01061123          	sh	a6,2(a2)
    1db8:	00e61223          	sh	a4,4(a2)
    1dbc:	00f61323          	sh	a5,6(a2)
    1dc0:	00b61423          	sh	a1,8(a2)
    1dc4:	00a61523          	sh	a0,10(a2)
    1dc8:	01e61623          	sh	t5,12(a2)
    1dcc:	01161723          	sh	a7,14(a2)
    1dd0:	01060613          	addi	a2,a2,16
    1dd4:	d89614e3          	bne	a2,s1,1b5c <pjpeg_decode_mcu+0x798>
    1dd8:	00040613          	mv	a2,s0
    1ddc:	0ff00593          	li	a1,255
    1de0:	0640006f          	j	1e44 <pjpeg_decode_mcu+0xa80>
    1de4:	040a0793          	addi	a5,s4,64
    1de8:	0077d793          	srli	a5,a5,0x7
    1dec:	08078793          	addi	a5,a5,128
    1df0:	01079793          	slli	a5,a5,0x10
    1df4:	0107d793          	srli	a5,a5,0x10
    1df8:	0ff7f713          	andi	a4,a5,255
    1dfc:	00f5fa63          	bgeu	a1,a5,1e10 <pjpeg_decode_mcu+0xa4c>
    1e00:	fff7c793          	not	a5,a5
    1e04:	01079793          	slli	a5,a5,0x10
    1e08:	41f7d793          	srai	a5,a5,0x1f
    1e0c:	0ff7f713          	andi	a4,a5,255
    1e10:	01071793          	slli	a5,a4,0x10
    1e14:	4107d793          	srai	a5,a5,0x10
    1e18:	00f61023          	sh	a5,0(a2)
    1e1c:	00f61823          	sh	a5,16(a2)
    1e20:	02f61023          	sh	a5,32(a2)
    1e24:	02f61823          	sh	a5,48(a2)
    1e28:	04f61023          	sh	a5,64(a2)
    1e2c:	04f61823          	sh	a5,80(a2)
    1e30:	06f61023          	sh	a5,96(a2)
    1e34:	06f61823          	sh	a5,112(a2)
    1e38:	00c12783          	lw	a5,12(sp)
    1e3c:	00260613          	addi	a2,a2,2
    1e40:	3ef60a63          	beq	a2,a5,2234 <pjpeg_decode_mcu+0xe70>
    1e44:	01061703          	lh	a4,16(a2)
    1e48:	02061e03          	lh	t3,32(a2)
    1e4c:	03061683          	lh	a3,48(a2)
    1e50:	04061b03          	lh	s6,64(a2)
    1e54:	05061e83          	lh	t4,80(a2)
    1e58:	01c767b3          	or	a5,a4,t3
    1e5c:	06061f03          	lh	t5,96(a2)
    1e60:	00f6e7b3          	or	a5,a3,a5
    1e64:	07061a83          	lh	s5,112(a2)
    1e68:	00fb67b3          	or	a5,s6,a5
    1e6c:	00fee7b3          	or	a5,t4,a5
    1e70:	00ff67b3          	or	a5,t5,a5
    1e74:	00fae7b3          	or	a5,s5,a5
    1e78:	00061a03          	lh	s4,0(a2)
    1e7c:	f60784e3          	beqz	a5,1de4 <pjpeg_decode_mcu+0xa20>
    1e80:	01069793          	slli	a5,a3,0x10
    1e84:	01071713          	slli	a4,a4,0x10
    1e88:	010a9a93          	slli	s5,s5,0x10
    1e8c:	010e9e93          	slli	t4,t4,0x10
    1e90:	010ada93          	srli	s5,s5,0x10
    1e94:	01075713          	srli	a4,a4,0x10
    1e98:	0107d793          	srli	a5,a5,0x10
    1e9c:	010ede93          	srli	t4,t4,0x10
    1ea0:	00fe82b3          	add	t0,t4,a5
    1ea4:	015708b3          	add	a7,a4,s5
    1ea8:	01029293          	slli	t0,t0,0x10
    1eac:	01089893          	slli	a7,a7,0x10
    1eb0:	0108d893          	srli	a7,a7,0x10
    1eb4:	0102d293          	srli	t0,t0,0x10
    1eb8:	40fe8eb3          	sub	t4,t4,a5
    1ebc:	415703b3          	sub	t2,a4,s5
    1ec0:	405887b3          	sub	a5,a7,t0
    1ec4:	010e9e93          	slli	t4,t4,0x10
    1ec8:	01039c13          	slli	s8,t2,0x10
    1ecc:	01079f93          	slli	t6,a5,0x10
    1ed0:	010ede93          	srli	t4,t4,0x10
    1ed4:	410c5c13          	srai	s8,s8,0x10
    1ed8:	410fdf93          	srai	t6,t6,0x10
    1edc:	40ee8733          	sub	a4,t4,a4
    1ee0:	010e1e13          	slli	t3,t3,0x10
    1ee4:	010f1f13          	slli	t5,t5,0x10
    1ee8:	010e5e13          	srli	t3,t3,0x10
    1eec:	010f5f13          	srli	t5,t5,0x10
    1ef0:	004c1513          	slli	a0,s8,0x4
    1ef4:	001f9793          	slli	a5,t6,0x1
    1ef8:	00ea8733          	add	a4,s5,a4
    1efc:	41ee06b3          	sub	a3,t3,t5
    1f00:	01f787b3          	add	a5,a5,t6
    1f04:	01850533          	add	a0,a0,s8
    1f08:	01071713          	slli	a4,a4,0x10
    1f0c:	41075713          	srai	a4,a4,0x10
    1f10:	01069813          	slli	a6,a3,0x10
    1f14:	00251513          	slli	a0,a0,0x2
    1f18:	00479693          	slli	a3,a5,0x4
    1f1c:	41085813          	srai	a6,a6,0x10
    1f20:	018503b3          	add	t2,a0,s8
    1f24:	00171a93          	slli	s5,a4,0x1
    1f28:	40f687b3          	sub	a5,a3,a5
    1f2c:	010a1a13          	slli	s4,s4,0x10
    1f30:	010b1b13          	slli	s6,s6,0x10
    1f34:	00181693          	slli	a3,a6,0x1
    1f38:	010a5a13          	srli	s4,s4,0x10
    1f3c:	010b5b13          	srli	s6,s6,0x10
    1f40:	00ea8ab3          	add	s5,s5,a4
    1f44:	010e9e93          	slli	t4,t4,0x10
    1f48:	00239393          	slli	t2,t2,0x2
    1f4c:	00279793          	slli	a5,a5,0x2
    1f50:	410ede93          	srai	t4,t4,0x10
    1f54:	010686b3          	add	a3,a3,a6
    1f58:	018383b3          	add	t2,t2,s8
    1f5c:	01f787b3          	add	a5,a5,t6
    1f60:	01ee0f33          	add	t5,t3,t5
    1f64:	016a0fb3          	add	t6,s4,s6
    1f68:	004a9a93          	slli	s5,s5,0x4
    1f6c:	003e9313          	slli	t1,t4,0x3
    1f70:	00469513          	slli	a0,a3,0x4
    1f74:	00ea8ab3          	add	s5,s5,a4
    1f78:	011282b3          	add	t0,t0,a7
    1f7c:	010f1f13          	slli	t5,t5,0x10
    1f80:	010f9f93          	slli	t6,t6,0x10
    1f84:	08038393          	addi	t2,t2,128
    1f88:	010f5f13          	srli	t5,t5,0x10
    1f8c:	41d30c33          	sub	s8,t1,t4
    1f90:	010fdf93          	srli	t6,t6,0x10
    1f94:	40d506b3          	sub	a3,a0,a3
    1f98:	00179793          	slli	a5,a5,0x1
    1f9c:	01029293          	slli	t0,t0,0x10
    1fa0:	002a9a93          	slli	s5,s5,0x2
    1fa4:	4083d393          	srai	t2,t2,0x8
    1fa8:	0102d293          	srli	t0,t0,0x10
    1fac:	01ef8533          	add	a0,t6,t5
    1fb0:	005c1313          	slli	t1,s8,0x5
    1fb4:	08078793          	addi	a5,a5,128
    1fb8:	00269693          	slli	a3,a3,0x2
    1fbc:	01039393          	slli	t2,t2,0x10
    1fc0:	080a8a93          	addi	s5,s5,128
    1fc4:	41d30333          	sub	t1,t1,t4
    1fc8:	0103d393          	srli	t2,t2,0x10
    1fcc:	010686b3          	add	a3,a3,a6
    1fd0:	4087d793          	srai	a5,a5,0x8
    1fd4:	01051513          	slli	a0,a0,0x10
    1fd8:	01029813          	slli	a6,t0,0x10
    1fdc:	408ada93          	srai	s5,s5,0x8
    1fe0:	00231e93          	slli	t4,t1,0x2
    1fe4:	41055513          	srai	a0,a0,0x10
    1fe8:	41085813          	srai	a6,a6,0x10
    1fec:	407787b3          	sub	a5,a5,t2
    1ff0:	00169693          	slli	a3,a3,0x1
    1ff4:	010a9a93          	slli	s5,s5,0x10
    1ff8:	010ada93          	srli	s5,s5,0x10
    1ffc:	406e8eb3          	sub	t4,t4,t1
    2000:	01050e33          	add	t3,a0,a6
    2004:	00f287b3          	add	a5,t0,a5
    2008:	416a0a33          	sub	s4,s4,s6
    200c:	08068693          	addi	a3,a3,128
    2010:	080e8e93          	addi	t4,t4,128
    2014:	040e0e13          	addi	t3,t3,64
    2018:	010a1a13          	slli	s4,s4,0x10
    201c:	00fa87b3          	add	a5,s5,a5
    2020:	4086d693          	srai	a3,a3,0x8
    2024:	010a5a13          	srli	s4,s4,0x10
    2028:	408ede93          	srai	t4,t4,0x8
    202c:	007e5e13          	srli	t3,t3,0x7
    2030:	01079793          	slli	a5,a5,0x10
    2034:	01069693          	slli	a3,a3,0x10
    2038:	41ea0733          	sub	a4,s4,t5
    203c:	0107d793          	srli	a5,a5,0x10
    2040:	0106d693          	srli	a3,a3,0x10
    2044:	01ea0a33          	add	s4,s4,t5
    2048:	405388b3          	sub	a7,t2,t0
    204c:	41da8eb3          	sub	t4,s5,t4
    2050:	080e0e13          	addi	t3,t3,128
    2054:	01d78eb3          	add	t4,a5,t4
    2058:	41ef8333          	sub	t1,t6,t5
    205c:	00e68733          	add	a4,a3,a4
    2060:	415888b3          	sub	a7,a7,s5
    2064:	40da06b3          	sub	a3,s4,a3
    2068:	010e1e13          	slli	t3,t3,0x10
    206c:	010e5e13          	srli	t3,t3,0x10
    2070:	01089893          	slli	a7,a7,0x10
    2074:	01079793          	slli	a5,a5,0x10
    2078:	010e9e93          	slli	t4,t4,0x10
    207c:	01031313          	slli	t1,t1,0x10
    2080:	01071713          	slli	a4,a4,0x10
    2084:	01069693          	slli	a3,a3,0x10
    2088:	4108d893          	srai	a7,a7,0x10
    208c:	4107d793          	srai	a5,a5,0x10
    2090:	410ede93          	srai	t4,t4,0x10
    2094:	41035313          	srai	t1,t1,0x10
    2098:	41075713          	srai	a4,a4,0x10
    209c:	4106d693          	srai	a3,a3,0x10
    20a0:	0ffe7f13          	andi	t5,t3,255
    20a4:	01c5fa63          	bgeu	a1,t3,20b8 <pjpeg_decode_mcu+0xcf4>
    20a8:	fffe4e13          	not	t3,t3
    20ac:	010e1e13          	slli	t3,t3,0x10
    20b0:	41fe5e13          	srai	t3,t3,0x1f
    20b4:	0ffe7f13          	andi	t5,t3,255
    20b8:	01170e33          	add	t3,a4,a7
    20bc:	040e0e13          	addi	t3,t3,64
    20c0:	007e5e13          	srli	t3,t3,0x7
    20c4:	080e0e13          	addi	t3,t3,128
    20c8:	010e1e13          	slli	t3,t3,0x10
    20cc:	010e5e13          	srli	t3,t3,0x10
    20d0:	01e61023          	sh	t5,0(a2)
    20d4:	0ffe7f13          	andi	t5,t3,255
    20d8:	01c5fa63          	bgeu	a1,t3,20ec <pjpeg_decode_mcu+0xd28>
    20dc:	fffe4e13          	not	t3,t3
    20e0:	010e1e13          	slli	t3,t3,0x10
    20e4:	41fe5e13          	srai	t3,t3,0x1f
    20e8:	0ffe7f13          	andi	t5,t3,255
    20ec:	00f68e33          	add	t3,a3,a5
    20f0:	040e0e13          	addi	t3,t3,64
    20f4:	007e5e13          	srli	t3,t3,0x7
    20f8:	080e0e13          	addi	t3,t3,128
    20fc:	010e1e13          	slli	t3,t3,0x10
    2100:	010e5e13          	srli	t3,t3,0x10
    2104:	01e61823          	sh	t5,16(a2)
    2108:	0ffe7f13          	andi	t5,t3,255
    210c:	01c5fa63          	bgeu	a1,t3,2120 <pjpeg_decode_mcu+0xd5c>
    2110:	fffe4e13          	not	t3,t3
    2114:	010e1e13          	slli	t3,t3,0x10
    2118:	41fe5e13          	srai	t3,t3,0x1f
    211c:	0ffe7f13          	andi	t5,t3,255
    2120:	41d30e33          	sub	t3,t1,t4
    2124:	040e0e13          	addi	t3,t3,64
    2128:	007e5e13          	srli	t3,t3,0x7
    212c:	080e0e13          	addi	t3,t3,128
    2130:	010e1e13          	slli	t3,t3,0x10
    2134:	010e5e13          	srli	t3,t3,0x10
    2138:	03e61023          	sh	t5,32(a2)
    213c:	0ffe7f13          	andi	t5,t3,255
    2140:	01c5fa63          	bgeu	a1,t3,2154 <pjpeg_decode_mcu+0xd90>
    2144:	fffe4e13          	not	t3,t3
    2148:	010e1e13          	slli	t3,t3,0x10
    214c:	41fe5e13          	srai	t3,t3,0x1f
    2150:	0ffe7f13          	andi	t5,t3,255
    2154:	01d30333          	add	t1,t1,t4
    2158:	04030313          	addi	t1,t1,64
    215c:	00735313          	srli	t1,t1,0x7
    2160:	08030313          	addi	t1,t1,128
    2164:	01031313          	slli	t1,t1,0x10
    2168:	01035313          	srli	t1,t1,0x10
    216c:	03e61823          	sh	t5,48(a2)
    2170:	0ff37e13          	andi	t3,t1,255
    2174:	0065fa63          	bgeu	a1,t1,2188 <pjpeg_decode_mcu+0xdc4>
    2178:	fff34313          	not	t1,t1
    217c:	01031313          	slli	t1,t1,0x10
    2180:	41f35313          	srai	t1,t1,0x1f
    2184:	0ff37e13          	andi	t3,t1,255
    2188:	40f686b3          	sub	a3,a3,a5
    218c:	04068693          	addi	a3,a3,64
    2190:	0076d693          	srli	a3,a3,0x7
    2194:	08068693          	addi	a3,a3,128
    2198:	01069693          	slli	a3,a3,0x10
    219c:	0106d693          	srli	a3,a3,0x10
    21a0:	05c61023          	sh	t3,64(a2)
    21a4:	0ff6f793          	andi	a5,a3,255
    21a8:	00d5fa63          	bgeu	a1,a3,21bc <pjpeg_decode_mcu+0xdf8>
    21ac:	fff6c693          	not	a3,a3
    21b0:	01069693          	slli	a3,a3,0x10
    21b4:	41f6d693          	srai	a3,a3,0x1f
    21b8:	0ff6f793          	andi	a5,a3,255
    21bc:	41170733          	sub	a4,a4,a7
    21c0:	04070713          	addi	a4,a4,64
    21c4:	00775713          	srli	a4,a4,0x7
    21c8:	08070713          	addi	a4,a4,128
    21cc:	01071713          	slli	a4,a4,0x10
    21d0:	01075713          	srli	a4,a4,0x10
    21d4:	04f61823          	sh	a5,80(a2)
    21d8:	0ff77693          	andi	a3,a4,255
    21dc:	00e5fa63          	bgeu	a1,a4,21f0 <pjpeg_decode_mcu+0xe2c>
    21e0:	fff74713          	not	a4,a4
    21e4:	01071713          	slli	a4,a4,0x10
    21e8:	41f75713          	srai	a4,a4,0x1f
    21ec:	0ff77693          	andi	a3,a4,255
    21f0:	410507b3          	sub	a5,a0,a6
    21f4:	04078793          	addi	a5,a5,64
    21f8:	0077d793          	srli	a5,a5,0x7
    21fc:	08078793          	addi	a5,a5,128
    2200:	01079793          	slli	a5,a5,0x10
    2204:	0107d793          	srli	a5,a5,0x10
    2208:	06d61023          	sh	a3,96(a2)
    220c:	0ff7f713          	andi	a4,a5,255
    2210:	00f5fa63          	bgeu	a1,a5,2224 <pjpeg_decode_mcu+0xe60>
    2214:	fff7c793          	not	a5,a5
    2218:	01079793          	slli	a5,a5,0x10
    221c:	41f7d793          	srai	a5,a5,0x1f
    2220:	0ff7f713          	andi	a4,a5,255
    2224:	00c12783          	lw	a5,12(sp)
    2228:	06e61823          	sh	a4,112(a2)
    222c:	00260613          	addi	a2,a2,2
    2230:	c0f61ae3          	bne	a2,a5,1e44 <pjpeg_decode_mcu+0xa80>
    2234:	000057b7          	lui	a5,0x5
    2238:	1a07a783          	lw	a5,416(a5) # 51a0 <gScanType>
    223c:	00400713          	li	a4,4
    2240:	80f760e3          	bltu	a4,a5,1a40 <pjpeg_decode_mcu+0x67c>
    2244:	00004737          	lui	a4,0x4
    2248:	00279793          	slli	a5,a5,0x2
    224c:	45470713          	addi	a4,a4,1108 # 4454 <main+0x9c>
    2250:	00e787b3          	add	a5,a5,a4
    2254:	0007a783          	lw	a5,0(a5)
    2258:	00078067          	jr	a5
    225c:	00100593          	li	a1,1
    2260:	000c8513          	mv	a0,s9
    2264:	a0dfe0ef          	jal	ra,c70 <getBits>
    2268:	004c5793          	srli	a5,s8,0x4
    226c:	0ff7f793          	andi	a5,a5,255
    2270:	000a0713          	mv	a4,s4
    2274:	06079263          	bnez	a5,22d8 <pjpeg_decode_mcu+0xf14>
    2278:	fffc8c93          	addi	s9,s9,-1
    227c:	0ffcfc93          	andi	s9,s9,255
    2280:	001c9c93          	slli	s9,s9,0x1
    2284:	01998cb3          	add	s9,s3,s9
    2288:	060cd783          	lhu	a5,96(s9)
    228c:	00f57a63          	bgeu	a0,a5,22a0 <pjpeg_decode_mcu+0xedc>
    2290:	080cd783          	lhu	a5,128(s9)
    2294:	00f50533          	add	a0,a0,a5
    2298:	01051513          	slli	a0,a0,0x10
    229c:	01055513          	srli	a0,a0,0x10
    22a0:	00e98733          	add	a4,s3,a4
    22a4:	001a1793          	slli	a5,s4,0x1
    22a8:	00fa87b3          	add	a5,s5,a5
    22ac:	0a070c03          	lb	s8,160(a4)
    22b0:	0007d583          	lhu	a1,0(a5)
    22b4:	001a0a13          	addi	s4,s4,1
    22b8:	001c1c13          	slli	s8,s8,0x1
    22bc:	5a5010ef          	jal	ra,4060 <__mulsi3>
    22c0:	01840c33          	add	s8,s0,s8
    22c4:	0ffa7793          	andi	a5,s4,255
    22c8:	00ac1023          	sh	a0,0(s8)
    22cc:	00078a13          	mv	s4,a5
    22d0:	80fb70e3          	bgeu	s6,a5,1ad0 <pjpeg_decode_mcu+0x70c>
    22d4:	85dff06f          	j	1b30 <pjpeg_decode_mcu+0x76c>
    22d8:	01478a33          	add	s4,a5,s4
    22dc:	f94b4e63          	blt	s6,s4,1a78 <pjpeg_decode_mcu+0x6b4>
    22e0:	01079793          	slli	a5,a5,0x10
    22e4:	0107d793          	srli	a5,a5,0x10
    22e8:	0ffa7a13          	andi	s4,s4,255
    22ec:	40fa0733          	sub	a4,s4,a5
    22f0:	0ff77713          	andi	a4,a4,255
    22f4:	00e98733          	add	a4,s3,a4
    22f8:	0a070703          	lb	a4,160(a4)
    22fc:	fff78793          	addi	a5,a5,-1
    2300:	01079793          	slli	a5,a5,0x10
    2304:	00171713          	slli	a4,a4,0x1
    2308:	00e40733          	add	a4,s0,a4
    230c:	0107d793          	srli	a5,a5,0x10
    2310:	00071023          	sh	zero,0(a4)
    2314:	fc079ce3          	bnez	a5,22ec <pjpeg_decode_mcu+0xf28>
    2318:	000a0713          	mv	a4,s4
    231c:	f5dff06f          	j	2278 <pjpeg_decode_mcu+0xeb4>
    2320:	000057b7          	lui	a5,0x5
    2324:	18040593          	addi	a1,s0,384
    2328:	28040613          	addi	a2,s0,640
    232c:	00048693          	mv	a3,s1
    2330:	87478413          	addi	s0,a5,-1932 # 4874 <gCoeffBuf>
    2334:	87478793          	addi	a5,a5,-1932
    2338:	00278793          	addi	a5,a5,2
    233c:	ffe7c703          	lbu	a4,-2(a5)
    2340:	00160613          	addi	a2,a2,1
    2344:	00168693          	addi	a3,a3,1
    2348:	00158593          	addi	a1,a1,1
    234c:	fee60fa3          	sb	a4,-1(a2)
    2350:	fee68fa3          	sb	a4,-1(a3)
    2354:	fee58fa3          	sb	a4,-1(a1)
    2358:	fe9790e3          	bne	a5,s1,2338 <pjpeg_decode_mcu+0xf74>
    235c:	ee4ff06f          	j	1a40 <pjpeg_decode_mcu+0x67c>
    2360:	00500793          	li	a5,5
    2364:	ed27ee63          	bltu	a5,s2,1a40 <pjpeg_decode_mcu+0x67c>
    2368:	00004737          	lui	a4,0x4
    236c:	00291793          	slli	a5,s2,0x2
    2370:	46870713          	addi	a4,a4,1128 # 4468 <main+0xb0>
    2374:	00e787b3          	add	a5,a5,a4
    2378:	0007a783          	lw	a5,0(a5)
    237c:	00078067          	jr	a5
    2380:	00100793          	li	a5,1
    2384:	72f90c63          	beq	s2,a5,2abc <pjpeg_decode_mcu+0x16f8>
    2388:	52090863          	beqz	s2,28b8 <pjpeg_decode_mcu+0x14f4>
    238c:	00200793          	li	a5,2
    2390:	26f90263          	beq	s2,a5,25f4 <pjpeg_decode_mcu+0x1230>
    2394:	00300793          	li	a5,3
    2398:	eaf91463          	bne	s2,a5,1a40 <pjpeg_decode_mcu+0x67c>
    239c:	00000593          	li	a1,0
    23a0:	00000513          	li	a0,0
    23a4:	e10fe0ef          	jal	ra,9b4 <upsampleCrV>
    23a8:	08000593          	li	a1,128
    23ac:	02000513          	li	a0,32
    23b0:	e04fe0ef          	jal	ra,9b4 <upsampleCrV>
    23b4:	e8cff06f          	j	1a40 <pjpeg_decode_mcu+0x67c>
    23b8:	00100793          	li	a5,1
    23bc:	6cf90063          	beq	s2,a5,2a7c <pjpeg_decode_mcu+0x16b8>
    23c0:	4a090c63          	beqz	s2,2878 <pjpeg_decode_mcu+0x14b4>
    23c4:	00200793          	li	a5,2
    23c8:	20f90863          	beq	s2,a5,25d8 <pjpeg_decode_mcu+0x1214>
    23cc:	00300793          	li	a5,3
    23d0:	e6f91863          	bne	s2,a5,1a40 <pjpeg_decode_mcu+0x67c>
    23d4:	00000593          	li	a1,0
    23d8:	00000513          	li	a0,0
    23dc:	c50fe0ef          	jal	ra,82c <upsampleCrH>
    23e0:	04000593          	li	a1,64
    23e4:	00400513          	li	a0,4
    23e8:	c44fe0ef          	jal	ra,82c <upsampleCrH>
    23ec:	e54ff06f          	j	1a40 <pjpeg_decode_mcu+0x67c>
    23f0:	00100793          	li	a5,1
    23f4:	50f90263          	beq	s2,a5,28f8 <pjpeg_decode_mcu+0x1534>
    23f8:	1a090063          	beqz	s2,2598 <pjpeg_decode_mcu+0x11d4>
    23fc:	00200793          	li	a5,2
    2400:	e4f91063          	bne	s2,a5,1a40 <pjpeg_decode_mcu+0x67c>
    2404:	000057b7          	lui	a5,0x5
    2408:	28040593          	addi	a1,s0,640
    240c:	00048613          	mv	a2,s1
    2410:	87478413          	addi	s0,a5,-1932 # 4874 <gCoeffBuf>
    2414:	87478693          	addi	a3,a5,-1932
    2418:	0ff00513          	li	a0,255
    241c:	05b00813          	li	a6,91
    2420:	00268693          	addi	a3,a3,2
    2424:	ffe69303          	lh	t1,-2(a3)
    2428:	0005ce03          	lbu	t3,0(a1)
    242c:	0ff37893          	andi	a7,t1,255
    2430:	00189793          	slli	a5,a7,0x1
    2434:	01178733          	add	a4,a5,a7
    2438:	00271713          	slli	a4,a4,0x2
    243c:	01170733          	add	a4,a4,a7
    2440:	00371713          	slli	a4,a4,0x3
    2444:	41170733          	sub	a4,a4,a7
    2448:	0ff37313          	andi	t1,t1,255
    244c:	00875713          	srli	a4,a4,0x8
    2450:	f4d30313          	addi	t1,t1,-179
    2454:	00670733          	add	a4,a4,t1
    2458:	01c70733          	add	a4,a4,t3
    245c:	01071713          	slli	a4,a4,0x10
    2460:	01075713          	srli	a4,a4,0x10
    2464:	00e57e63          	bgeu	a0,a4,2480 <pjpeg_decode_mcu+0x10bc>
    2468:	01071e13          	slli	t3,a4,0x10
    246c:	410e5e13          	srai	t3,t3,0x10
    2470:	00000313          	li	t1,0
    2474:	000e4863          	bltz	t3,2484 <pjpeg_decode_mcu+0x10c0>
    2478:	0ff00313          	li	t1,255
    247c:	01c54463          	blt	a0,t3,2484 <pjpeg_decode_mcu+0x10c0>
    2480:	0ff77313          	andi	t1,a4,255
    2484:	011787b3          	add	a5,a5,a7
    2488:	00379793          	slli	a5,a5,0x3
    248c:	411787b3          	sub	a5,a5,a7
    2490:	00379793          	slli	a5,a5,0x3
    2494:	411787b3          	sub	a5,a5,a7
    2498:	00064703          	lbu	a4,0(a2)
    249c:	0087d793          	srli	a5,a5,0x8
    24a0:	40f807b3          	sub	a5,a6,a5
    24a4:	00e787b3          	add	a5,a5,a4
    24a8:	01079793          	slli	a5,a5,0x10
    24ac:	00658023          	sb	t1,0(a1)
    24b0:	0107d793          	srli	a5,a5,0x10
    24b4:	00158593          	addi	a1,a1,1
    24b8:	00f57e63          	bgeu	a0,a5,24d4 <pjpeg_decode_mcu+0x1110>
    24bc:	01079893          	slli	a7,a5,0x10
    24c0:	4108d893          	srai	a7,a7,0x10
    24c4:	00000713          	li	a4,0
    24c8:	0008c863          	bltz	a7,24d8 <pjpeg_decode_mcu+0x1114>
    24cc:	0ff00713          	li	a4,255
    24d0:	01154463          	blt	a0,a7,24d8 <pjpeg_decode_mcu+0x1114>
    24d4:	0ff7f713          	andi	a4,a5,255
    24d8:	00e60023          	sb	a4,0(a2)
    24dc:	00160613          	addi	a2,a2,1
    24e0:	f49690e3          	bne	a3,s1,2420 <pjpeg_decode_mcu+0x105c>
    24e4:	d5cff06f          	j	1a40 <pjpeg_decode_mcu+0x67c>
    24e8:	03f00713          	li	a4,63
    24ec:	e5476263          	bltu	a4,s4,1b30 <pjpeg_decode_mcu+0x76c>
    24f0:	03f00713          	li	a4,63
    24f4:	0a198693          	addi	a3,s3,161
    24f8:	41470733          	sub	a4,a4,s4
    24fc:	000047b7          	lui	a5,0x4
    2500:	014686b3          	add	a3,a3,s4
    2504:	0ff77713          	andi	a4,a4,255
    2508:	52078793          	addi	a5,a5,1312 # 4520 <ZAG>
    250c:	014787b3          	add	a5,a5,s4
    2510:	00e686b3          	add	a3,a3,a4
    2514:	00078703          	lb	a4,0(a5)
    2518:	00178793          	addi	a5,a5,1
    251c:	00171713          	slli	a4,a4,0x1
    2520:	00e40733          	add	a4,s0,a4
    2524:	00071023          	sh	zero,0(a4)
    2528:	fef696e3          	bne	a3,a5,2514 <pjpeg_decode_mcu+0x1150>
    252c:	e04ff06f          	j	1b30 <pjpeg_decode_mcu+0x76c>
    2530:	02412783          	lw	a5,36(sp)
    2534:	74040d13          	addi	s10,s0,1856
    2538:	89078d93          	addi	s11,a5,-1904
    253c:	d8cff06f          	j	1ac8 <pjpeg_decode_mcu+0x704>
    2540:	02412783          	lw	a5,36(sp)
    2544:	74040c93          	addi	s9,s0,1856
    2548:	89078d13          	addi	s10,a5,-1904
    254c:	870ff06f          	j	15bc <pjpeg_decode_mcu+0x1f8>
    2550:	60000413          	li	s0,1536
    2554:	0ff00493          	li	s1,255
    2558:	0140006f          	j	256c <pjpeg_decode_mcu+0x11a8>
    255c:	fff40413          	addi	s0,s0,-1
    2560:	01041413          	slli	s0,s0,0x10
    2564:	01045413          	srli	s0,s0,0x10
    2568:	02040463          	beqz	s0,2590 <pjpeg_decode_mcu+0x11cc>
    256c:	dd0fe0ef          	jal	ra,b3c <getChar>
    2570:	fe9516e3          	bne	a0,s1,255c <pjpeg_decode_mcu+0x1198>
    2574:	0ff00493          	li	s1,255
    2578:	dc4fe0ef          	jal	ra,b3c <getChar>
    257c:	32951ce3          	bne	a0,s1,30b4 <pjpeg_decode_mcu+0x1cf0>
    2580:	fff40413          	addi	s0,s0,-1
    2584:	01041413          	slli	s0,s0,0x10
    2588:	01045413          	srli	s0,s0,0x10
    258c:	fe0416e3          	bnez	s0,2578 <pjpeg_decode_mcu+0x11b4>
    2590:	01d00a13          	li	s4,29
    2594:	ce8ff06f          	j	1a7c <pjpeg_decode_mcu+0x6b8>
    2598:	000057b7          	lui	a5,0x5
    259c:	18040593          	addi	a1,s0,384
    25a0:	28040613          	addi	a2,s0,640
    25a4:	00048693          	mv	a3,s1
    25a8:	87478413          	addi	s0,a5,-1932 # 4874 <gCoeffBuf>
    25ac:	87478793          	addi	a5,a5,-1932
    25b0:	00278793          	addi	a5,a5,2
    25b4:	ffe7c703          	lbu	a4,-2(a5)
    25b8:	00160613          	addi	a2,a2,1
    25bc:	00168693          	addi	a3,a3,1
    25c0:	00158593          	addi	a1,a1,1
    25c4:	fee60fa3          	sb	a4,-1(a2)
    25c8:	fee68fa3          	sb	a4,-1(a3)
    25cc:	fee58fa3          	sb	a4,-1(a1)
    25d0:	fe9790e3          	bne	a5,s1,25b0 <pjpeg_decode_mcu+0x11ec>
    25d4:	c6cff06f          	j	1a40 <pjpeg_decode_mcu+0x67c>
    25d8:	00000593          	li	a1,0
    25dc:	00000513          	li	a0,0
    25e0:	cfdfd0ef          	jal	ra,2dc <upsampleCbH>
    25e4:	04000593          	li	a1,64
    25e8:	00400513          	li	a0,4
    25ec:	cf1fd0ef          	jal	ra,2dc <upsampleCbH>
    25f0:	c50ff06f          	j	1a40 <pjpeg_decode_mcu+0x67c>
    25f4:	00000593          	li	a1,0
    25f8:	00000513          	li	a0,0
    25fc:	e5dfd0ef          	jal	ra,458 <upsampleCbV>
    2600:	08000593          	li	a1,128
    2604:	02000513          	li	a0,32
    2608:	e51fd0ef          	jal	ra,458 <upsampleCbV>
    260c:	c34ff06f          	j	1a40 <pjpeg_decode_mcu+0x67c>
    2610:	28c40023          	sb	a2,640(s0)
    2614:	08c40023          	sb	a2,128(s0)
    2618:	18c40023          	sb	a2,384(s0)
    261c:	c24ff06f          	j	1a40 <pjpeg_decode_mcu+0x67c>
    2620:	00161713          	slli	a4,a2,0x1
    2624:	00c707b3          	add	a5,a4,a2
    2628:	00279793          	slli	a5,a5,0x2
    262c:	40c787b3          	sub	a5,a5,a2
    2630:	00379793          	slli	a5,a5,0x3
    2634:	0087d793          	srli	a5,a5,0x8
    2638:	08044683          	lbu	a3,128(s0)
    263c:	fd478793          	addi	a5,a5,-44
    2640:	01079793          	slli	a5,a5,0x10
    2644:	0107d793          	srli	a5,a5,0x10
    2648:	40f686b3          	sub	a3,a3,a5
    264c:	01069693          	slli	a3,a3,0x10
    2650:	0106d693          	srli	a3,a3,0x10
    2654:	0ff00593          	li	a1,255
    2658:	00d5fe63          	bgeu	a1,a3,2674 <pjpeg_decode_mcu+0x12b0>
    265c:	01069513          	slli	a0,a3,0x10
    2660:	41055513          	srai	a0,a0,0x10
    2664:	00000593          	li	a1,0
    2668:	00054863          	bltz	a0,2678 <pjpeg_decode_mcu+0x12b4>
    266c:	0ff00593          	li	a1,255
    2670:	00a5c463          	blt	a1,a0,2678 <pjpeg_decode_mcu+0x12b4>
    2674:	0ff6f593          	andi	a1,a3,255
    2678:	10044683          	lbu	a3,256(s0)
    267c:	08b40023          	sb	a1,128(s0)
    2680:	0ff00593          	li	a1,255
    2684:	40f687b3          	sub	a5,a3,a5
    2688:	01079793          	slli	a5,a5,0x10
    268c:	0107d793          	srli	a5,a5,0x10
    2690:	00f5fe63          	bgeu	a1,a5,26ac <pjpeg_decode_mcu+0x12e8>
    2694:	01079593          	slli	a1,a5,0x10
    2698:	4105d593          	srai	a1,a1,0x10
    269c:	00000693          	li	a3,0
    26a0:	0005c863          	bltz	a1,26b0 <pjpeg_decode_mcu+0x12ec>
    26a4:	0ff00693          	li	a3,255
    26a8:	00b6c463          	blt	a3,a1,26b0 <pjpeg_decode_mcu+0x12ec>
    26ac:	0ff7f693          	andi	a3,a5,255
    26b0:	00c70733          	add	a4,a4,a2
    26b4:	00571793          	slli	a5,a4,0x5
    26b8:	00f707b3          	add	a5,a4,a5
    26bc:	00179793          	slli	a5,a5,0x1
    26c0:	0087d793          	srli	a5,a5,0x8
    26c4:	f1d60613          	addi	a2,a2,-227
    26c8:	18044703          	lbu	a4,384(s0)
    26cc:	00c787b3          	add	a5,a5,a2
    26d0:	01079793          	slli	a5,a5,0x10
    26d4:	0107d793          	srli	a5,a5,0x10
    26d8:	00e78733          	add	a4,a5,a4
    26dc:	01071713          	slli	a4,a4,0x10
    26e0:	10d40023          	sb	a3,256(s0)
    26e4:	01075713          	srli	a4,a4,0x10
    26e8:	0ff00693          	li	a3,255
    26ec:	00e6fe63          	bgeu	a3,a4,2708 <pjpeg_decode_mcu+0x1344>
    26f0:	01071613          	slli	a2,a4,0x10
    26f4:	41065613          	srai	a2,a2,0x10
    26f8:	00000693          	li	a3,0
    26fc:	00064863          	bltz	a2,270c <pjpeg_decode_mcu+0x1348>
    2700:	0ff00693          	li	a3,255
    2704:	00c6c463          	blt	a3,a2,270c <pjpeg_decode_mcu+0x1348>
    2708:	0ff77693          	andi	a3,a4,255
    270c:	20044603          	lbu	a2,512(s0)
    2710:	18d40023          	sb	a3,384(s0)
    2714:	0ff00713          	li	a4,255
    2718:	00c787b3          	add	a5,a5,a2
    271c:	01079793          	slli	a5,a5,0x10
    2720:	0107d793          	srli	a5,a5,0x10
    2724:	00f77e63          	bgeu	a4,a5,2740 <pjpeg_decode_mcu+0x137c>
    2728:	01079693          	slli	a3,a5,0x10
    272c:	4106d693          	srai	a3,a3,0x10
    2730:	00000713          	li	a4,0
    2734:	0006c863          	bltz	a3,2744 <pjpeg_decode_mcu+0x1380>
    2738:	0ff00713          	li	a4,255
    273c:	00d74463          	blt	a4,a3,2744 <pjpeg_decode_mcu+0x1380>
    2740:	0ff7f713          	andi	a4,a5,255
    2744:	20e40023          	sb	a4,512(s0)
    2748:	af8ff06f          	j	1a40 <pjpeg_decode_mcu+0x67c>
    274c:	00161713          	slli	a4,a2,0x1
    2750:	00c707b3          	add	a5,a4,a2
    2754:	00279793          	slli	a5,a5,0x2
    2758:	40c787b3          	sub	a5,a5,a2
    275c:	00379793          	slli	a5,a5,0x3
    2760:	0087d793          	srli	a5,a5,0x8
    2764:	08044683          	lbu	a3,128(s0)
    2768:	fd478793          	addi	a5,a5,-44
    276c:	01079793          	slli	a5,a5,0x10
    2770:	0107d793          	srli	a5,a5,0x10
    2774:	40f686b3          	sub	a3,a3,a5
    2778:	01069693          	slli	a3,a3,0x10
    277c:	0106d693          	srli	a3,a3,0x10
    2780:	0ff00593          	li	a1,255
    2784:	00d5fe63          	bgeu	a1,a3,27a0 <pjpeg_decode_mcu+0x13dc>
    2788:	01069513          	slli	a0,a3,0x10
    278c:	41055513          	srai	a0,a0,0x10
    2790:	00000593          	li	a1,0
    2794:	00054863          	bltz	a0,27a4 <pjpeg_decode_mcu+0x13e0>
    2798:	0ff00593          	li	a1,255
    279c:	00a5c463          	blt	a1,a0,27a4 <pjpeg_decode_mcu+0x13e0>
    27a0:	0ff6f593          	andi	a1,a3,255
    27a4:	0c044683          	lbu	a3,192(s0)
    27a8:	08b40023          	sb	a1,128(s0)
    27ac:	0ff00593          	li	a1,255
    27b0:	40f687b3          	sub	a5,a3,a5
    27b4:	01079793          	slli	a5,a5,0x10
    27b8:	0107d793          	srli	a5,a5,0x10
    27bc:	00f5fe63          	bgeu	a1,a5,27d8 <pjpeg_decode_mcu+0x1414>
    27c0:	01079593          	slli	a1,a5,0x10
    27c4:	4105d593          	srai	a1,a1,0x10
    27c8:	00000693          	li	a3,0
    27cc:	0005c863          	bltz	a1,27dc <pjpeg_decode_mcu+0x1418>
    27d0:	0ff00693          	li	a3,255
    27d4:	00b6c463          	blt	a3,a1,27dc <pjpeg_decode_mcu+0x1418>
    27d8:	0ff7f693          	andi	a3,a5,255
    27dc:	00c70733          	add	a4,a4,a2
    27e0:	00571793          	slli	a5,a4,0x5
    27e4:	00f707b3          	add	a5,a4,a5
    27e8:	00179793          	slli	a5,a5,0x1
    27ec:	0087d793          	srli	a5,a5,0x8
    27f0:	f1d60613          	addi	a2,a2,-227
    27f4:	18044703          	lbu	a4,384(s0)
    27f8:	00c787b3          	add	a5,a5,a2
    27fc:	01079793          	slli	a5,a5,0x10
    2800:	0107d793          	srli	a5,a5,0x10
    2804:	00e78733          	add	a4,a5,a4
    2808:	01071713          	slli	a4,a4,0x10
    280c:	0cd40023          	sb	a3,192(s0)
    2810:	01075713          	srli	a4,a4,0x10
    2814:	0ff00693          	li	a3,255
    2818:	00e6fe63          	bgeu	a3,a4,2834 <pjpeg_decode_mcu+0x1470>
    281c:	01071613          	slli	a2,a4,0x10
    2820:	41065613          	srai	a2,a2,0x10
    2824:	00000693          	li	a3,0
    2828:	00064863          	bltz	a2,2838 <pjpeg_decode_mcu+0x1474>
    282c:	0ff00693          	li	a3,255
    2830:	00c6c463          	blt	a3,a2,2838 <pjpeg_decode_mcu+0x1474>
    2834:	0ff77693          	andi	a3,a4,255
    2838:	1c044603          	lbu	a2,448(s0)
    283c:	18d40023          	sb	a3,384(s0)
    2840:	0ff00713          	li	a4,255
    2844:	00c787b3          	add	a5,a5,a2
    2848:	01079793          	slli	a5,a5,0x10
    284c:	0107d793          	srli	a5,a5,0x10
    2850:	00f77e63          	bgeu	a4,a5,286c <pjpeg_decode_mcu+0x14a8>
    2854:	01079693          	slli	a3,a5,0x10
    2858:	4106d693          	srai	a3,a3,0x10
    285c:	00000713          	li	a4,0
    2860:	0006c863          	bltz	a3,2870 <pjpeg_decode_mcu+0x14ac>
    2864:	0ff00713          	li	a4,255
    2868:	00d74463          	blt	a4,a3,2870 <pjpeg_decode_mcu+0x14ac>
    286c:	0ff7f713          	andi	a4,a5,255
    2870:	1ce40023          	sb	a4,448(s0)
    2874:	9ccff06f          	j	1a40 <pjpeg_decode_mcu+0x67c>
    2878:	000057b7          	lui	a5,0x5
    287c:	18040593          	addi	a1,s0,384
    2880:	28040613          	addi	a2,s0,640
    2884:	00048693          	mv	a3,s1
    2888:	87478413          	addi	s0,a5,-1932 # 4874 <gCoeffBuf>
    288c:	87478793          	addi	a5,a5,-1932
    2890:	00278793          	addi	a5,a5,2
    2894:	ffe7c703          	lbu	a4,-2(a5)
    2898:	00160613          	addi	a2,a2,1
    289c:	00168693          	addi	a3,a3,1
    28a0:	00158593          	addi	a1,a1,1
    28a4:	fee60fa3          	sb	a4,-1(a2)
    28a8:	fee68fa3          	sb	a4,-1(a3)
    28ac:	fee58fa3          	sb	a4,-1(a1)
    28b0:	fe9790e3          	bne	a5,s1,2890 <pjpeg_decode_mcu+0x14cc>
    28b4:	98cff06f          	j	1a40 <pjpeg_decode_mcu+0x67c>
    28b8:	000057b7          	lui	a5,0x5
    28bc:	18040593          	addi	a1,s0,384
    28c0:	28040613          	addi	a2,s0,640
    28c4:	00048693          	mv	a3,s1
    28c8:	87478413          	addi	s0,a5,-1932 # 4874 <gCoeffBuf>
    28cc:	87478793          	addi	a5,a5,-1932
    28d0:	00278793          	addi	a5,a5,2
    28d4:	ffe7c703          	lbu	a4,-2(a5)
    28d8:	00160613          	addi	a2,a2,1
    28dc:	00168693          	addi	a3,a3,1
    28e0:	00158593          	addi	a1,a1,1
    28e4:	fee60fa3          	sb	a4,-1(a2)
    28e8:	fee68fa3          	sb	a4,-1(a3)
    28ec:	fee58fa3          	sb	a4,-1(a1)
    28f0:	fe9790e3          	bne	a5,s1,28d0 <pjpeg_decode_mcu+0x150c>
    28f4:	94cff06f          	j	1a40 <pjpeg_decode_mcu+0x67c>
    28f8:	000057b7          	lui	a5,0x5
    28fc:	18040593          	addi	a1,s0,384
    2900:	00048613          	mv	a2,s1
    2904:	87478413          	addi	s0,a5,-1932 # 4874 <gCoeffBuf>
    2908:	87478693          	addi	a3,a5,-1932
    290c:	02c00813          	li	a6,44
    2910:	0ff00513          	li	a0,255
    2914:	00268693          	addi	a3,a3,2
    2918:	ffe69703          	lh	a4,-2(a3)
    291c:	00064e03          	lbu	t3,0(a2)
    2920:	0ff77313          	andi	t1,a4,255
    2924:	00131893          	slli	a7,t1,0x1
    2928:	006887b3          	add	a5,a7,t1
    292c:	00279793          	slli	a5,a5,0x2
    2930:	406787b3          	sub	a5,a5,t1
    2934:	00379793          	slli	a5,a5,0x3
    2938:	0087d793          	srli	a5,a5,0x8
    293c:	40f807b3          	sub	a5,a6,a5
    2940:	01c787b3          	add	a5,a5,t3
    2944:	01079793          	slli	a5,a5,0x10
    2948:	0107d793          	srli	a5,a5,0x10
    294c:	00f57e63          	bgeu	a0,a5,2968 <pjpeg_decode_mcu+0x15a4>
    2950:	01079e93          	slli	t4,a5,0x10
    2954:	410ede93          	srai	t4,t4,0x10
    2958:	00000e13          	li	t3,0
    295c:	000ec863          	bltz	t4,296c <pjpeg_decode_mcu+0x15a8>
    2960:	0ff00e13          	li	t3,255
    2964:	01d54463          	blt	a0,t4,296c <pjpeg_decode_mcu+0x15a8>
    2968:	0ff7fe13          	andi	t3,a5,255
    296c:	006888b3          	add	a7,a7,t1
    2970:	00589313          	slli	t1,a7,0x5
    2974:	0ff77793          	andi	a5,a4,255
    2978:	006888b3          	add	a7,a7,t1
    297c:	0005c703          	lbu	a4,0(a1)
    2980:	f1d78793          	addi	a5,a5,-227
    2984:	0078d893          	srli	a7,a7,0x7
    2988:	011787b3          	add	a5,a5,a7
    298c:	00e787b3          	add	a5,a5,a4
    2990:	01079793          	slli	a5,a5,0x10
    2994:	01c60023          	sb	t3,0(a2)
    2998:	0107d793          	srli	a5,a5,0x10
    299c:	00160613          	addi	a2,a2,1
    29a0:	00f57e63          	bgeu	a0,a5,29bc <pjpeg_decode_mcu+0x15f8>
    29a4:	01079893          	slli	a7,a5,0x10
    29a8:	4108d893          	srai	a7,a7,0x10
    29ac:	00000713          	li	a4,0
    29b0:	0008c863          	bltz	a7,29c0 <pjpeg_decode_mcu+0x15fc>
    29b4:	0ff00713          	li	a4,255
    29b8:	01154463          	blt	a0,a7,29c0 <pjpeg_decode_mcu+0x15fc>
    29bc:	0ff7f713          	andi	a4,a5,255
    29c0:	00e58023          	sb	a4,0(a1)
    29c4:	00158593          	addi	a1,a1,1
    29c8:	f49696e3          	bne	a3,s1,2914 <pjpeg_decode_mcu+0x1550>
    29cc:	874ff06f          	j	1a40 <pjpeg_decode_mcu+0x67c>
    29d0:	00161713          	slli	a4,a2,0x1
    29d4:	00c707b3          	add	a5,a4,a2
    29d8:	08044683          	lbu	a3,128(s0)
    29dc:	00279793          	slli	a5,a5,0x2
    29e0:	40c787b3          	sub	a5,a5,a2
    29e4:	00379793          	slli	a5,a5,0x3
    29e8:	02c68693          	addi	a3,a3,44
    29ec:	0087d793          	srli	a5,a5,0x8
    29f0:	40f687b3          	sub	a5,a3,a5
    29f4:	01079793          	slli	a5,a5,0x10
    29f8:	0107d793          	srli	a5,a5,0x10
    29fc:	0ff00693          	li	a3,255
    2a00:	00f6fe63          	bgeu	a3,a5,2a1c <pjpeg_decode_mcu+0x1658>
    2a04:	01079593          	slli	a1,a5,0x10
    2a08:	4105d593          	srai	a1,a1,0x10
    2a0c:	00000693          	li	a3,0
    2a10:	0005c863          	bltz	a1,2a20 <pjpeg_decode_mcu+0x165c>
    2a14:	0ff00693          	li	a3,255
    2a18:	00b6c463          	blt	a3,a1,2a20 <pjpeg_decode_mcu+0x165c>
    2a1c:	0ff7f693          	andi	a3,a5,255
    2a20:	00c70733          	add	a4,a4,a2
    2a24:	18044783          	lbu	a5,384(s0)
    2a28:	00571593          	slli	a1,a4,0x5
    2a2c:	00b70733          	add	a4,a4,a1
    2a30:	f1d78793          	addi	a5,a5,-227
    2a34:	00171713          	slli	a4,a4,0x1
    2a38:	00875713          	srli	a4,a4,0x8
    2a3c:	00c787b3          	add	a5,a5,a2
    2a40:	00e787b3          	add	a5,a5,a4
    2a44:	01079793          	slli	a5,a5,0x10
    2a48:	08d40023          	sb	a3,128(s0)
    2a4c:	0107d793          	srli	a5,a5,0x10
    2a50:	0ff00713          	li	a4,255
    2a54:	00f77e63          	bgeu	a4,a5,2a70 <pjpeg_decode_mcu+0x16ac>
    2a58:	01079693          	slli	a3,a5,0x10
    2a5c:	4106d693          	srai	a3,a3,0x10
    2a60:	00000713          	li	a4,0
    2a64:	0006c863          	bltz	a3,2a74 <pjpeg_decode_mcu+0x16b0>
    2a68:	0ff00713          	li	a4,255
    2a6c:	00d74463          	blt	a4,a3,2a74 <pjpeg_decode_mcu+0x16b0>
    2a70:	0ff7f713          	andi	a4,a5,255
    2a74:	18e40023          	sb	a4,384(s0)
    2a78:	fc9fe06f          	j	1a40 <pjpeg_decode_mcu+0x67c>
    2a7c:	00005737          	lui	a4,0x5
    2a80:	1c040593          	addi	a1,s0,448
    2a84:	0c040613          	addi	a2,s0,192
    2a88:	2c040693          	addi	a3,s0,704
    2a8c:	87470793          	addi	a5,a4,-1932 # 4874 <gCoeffBuf>
    2a90:	87470413          	addi	s0,a4,-1932
    2a94:	00278793          	addi	a5,a5,2
    2a98:	ffe7c703          	lbu	a4,-2(a5)
    2a9c:	00168693          	addi	a3,a3,1
    2aa0:	00160613          	addi	a2,a2,1
    2aa4:	00158593          	addi	a1,a1,1
    2aa8:	fee68fa3          	sb	a4,-1(a3)
    2aac:	fee60fa3          	sb	a4,-1(a2)
    2ab0:	fee58fa3          	sb	a4,-1(a1)
    2ab4:	fe9790e3          	bne	a5,s1,2a94 <pjpeg_decode_mcu+0x16d0>
    2ab8:	f89fe06f          	j	1a40 <pjpeg_decode_mcu+0x67c>
    2abc:	00005737          	lui	a4,0x5
    2ac0:	20040593          	addi	a1,s0,512
    2ac4:	10040613          	addi	a2,s0,256
    2ac8:	30040693          	addi	a3,s0,768
    2acc:	87470793          	addi	a5,a4,-1932 # 4874 <gCoeffBuf>
    2ad0:	87470413          	addi	s0,a4,-1932
    2ad4:	00278793          	addi	a5,a5,2
    2ad8:	ffe7c703          	lbu	a4,-2(a5)
    2adc:	00168693          	addi	a3,a3,1
    2ae0:	00160613          	addi	a2,a2,1
    2ae4:	00158593          	addi	a1,a1,1
    2ae8:	fee68fa3          	sb	a4,-1(a3)
    2aec:	fee60fa3          	sb	a4,-1(a2)
    2af0:	fee58fa3          	sb	a4,-1(a1)
    2af4:	fe9790e3          	bne	a5,s1,2ad4 <pjpeg_decode_mcu+0x1710>
    2af8:	f49fe06f          	j	1a40 <pjpeg_decode_mcu+0x67c>
    2afc:	2cc40023          	sb	a2,704(s0)
    2b00:	0cc40023          	sb	a2,192(s0)
    2b04:	1cc40023          	sb	a2,448(s0)
    2b08:	f39fe06f          	j	1a40 <pjpeg_decode_mcu+0x67c>
    2b0c:	30c40023          	sb	a2,768(s0)
    2b10:	10c40023          	sb	a2,256(s0)
    2b14:	20c40023          	sb	a2,512(s0)
    2b18:	f29fe06f          	j	1a40 <pjpeg_decode_mcu+0x67c>
    2b1c:	00005737          	lui	a4,0x5
    2b20:	24040593          	addi	a1,s0,576
    2b24:	14040613          	addi	a2,s0,320
    2b28:	34040693          	addi	a3,s0,832
    2b2c:	87470793          	addi	a5,a4,-1932 # 4874 <gCoeffBuf>
    2b30:	87470413          	addi	s0,a4,-1932
    2b34:	00278793          	addi	a5,a5,2
    2b38:	ffe7c703          	lbu	a4,-2(a5)
    2b3c:	00168693          	addi	a3,a3,1
    2b40:	00160613          	addi	a2,a2,1
    2b44:	00158593          	addi	a1,a1,1
    2b48:	fee68fa3          	sb	a4,-1(a3)
    2b4c:	fee60fa3          	sb	a4,-1(a2)
    2b50:	fee58fa3          	sb	a4,-1(a1)
    2b54:	fe9790e3          	bne	a5,s1,2b34 <pjpeg_decode_mcu+0x1770>
    2b58:	ee9fe06f          	j	1a40 <pjpeg_decode_mcu+0x67c>
    2b5c:	00005737          	lui	a4,0x5
    2b60:	20040593          	addi	a1,s0,512
    2b64:	10040613          	addi	a2,s0,256
    2b68:	30040693          	addi	a3,s0,768
    2b6c:	87470793          	addi	a5,a4,-1932 # 4874 <gCoeffBuf>
    2b70:	87470413          	addi	s0,a4,-1932
    2b74:	00278793          	addi	a5,a5,2
    2b78:	ffe7c703          	lbu	a4,-2(a5)
    2b7c:	00168693          	addi	a3,a3,1
    2b80:	00160613          	addi	a2,a2,1
    2b84:	00158593          	addi	a1,a1,1
    2b88:	fee68fa3          	sb	a4,-1(a3)
    2b8c:	fee60fa3          	sb	a4,-1(a2)
    2b90:	fee58fa3          	sb	a4,-1(a1)
    2b94:	fe9790e3          	bne	a5,s1,2b74 <pjpeg_decode_mcu+0x17b0>
    2b98:	ea9fe06f          	j	1a40 <pjpeg_decode_mcu+0x67c>
    2b9c:	00005737          	lui	a4,0x5
    2ba0:	1c040593          	addi	a1,s0,448
    2ba4:	0c040613          	addi	a2,s0,192
    2ba8:	2c040693          	addi	a3,s0,704
    2bac:	87470793          	addi	a5,a4,-1932 # 4874 <gCoeffBuf>
    2bb0:	87470413          	addi	s0,a4,-1932
    2bb4:	00278793          	addi	a5,a5,2
    2bb8:	ffe7c703          	lbu	a4,-2(a5)
    2bbc:	00168693          	addi	a3,a3,1
    2bc0:	00160613          	addi	a2,a2,1
    2bc4:	00158593          	addi	a1,a1,1
    2bc8:	fee68fa3          	sb	a4,-1(a3)
    2bcc:	fee60fa3          	sb	a4,-1(a2)
    2bd0:	fee58fa3          	sb	a4,-1(a1)
    2bd4:	fe9790e3          	bne	a5,s1,2bb4 <pjpeg_decode_mcu+0x17f0>
    2bd8:	e69fe06f          	j	1a40 <pjpeg_decode_mcu+0x67c>
    2bdc:	000057b7          	lui	a5,0x5
    2be0:	18040593          	addi	a1,s0,384
    2be4:	28040613          	addi	a2,s0,640
    2be8:	00048693          	mv	a3,s1
    2bec:	87478413          	addi	s0,a5,-1932 # 4874 <gCoeffBuf>
    2bf0:	87478793          	addi	a5,a5,-1932
    2bf4:	00278793          	addi	a5,a5,2
    2bf8:	ffe7c703          	lbu	a4,-2(a5)
    2bfc:	00160613          	addi	a2,a2,1
    2c00:	00168693          	addi	a3,a3,1
    2c04:	00158593          	addi	a1,a1,1
    2c08:	fee60fa3          	sb	a4,-1(a2)
    2c0c:	fee68fa3          	sb	a4,-1(a3)
    2c10:	fee58fa3          	sb	a4,-1(a1)
    2c14:	fe9790e3          	bne	a5,s1,2bf4 <pjpeg_decode_mcu+0x1830>
    2c18:	e29fe06f          	j	1a40 <pjpeg_decode_mcu+0x67c>
    2c1c:	00000593          	li	a1,0
    2c20:	00000513          	li	a0,0
    2c24:	c6cfd0ef          	jal	ra,90 <upsampleCb>
    2c28:	04000593          	li	a1,64
    2c2c:	00400513          	li	a0,4
    2c30:	c60fd0ef          	jal	ra,90 <upsampleCb>
    2c34:	08000593          	li	a1,128
    2c38:	02000513          	li	a0,32
    2c3c:	c54fd0ef          	jal	ra,90 <upsampleCb>
    2c40:	0c000593          	li	a1,192
    2c44:	02400513          	li	a0,36
    2c48:	c48fd0ef          	jal	ra,90 <upsampleCb>
    2c4c:	df5fe06f          	j	1a40 <pjpeg_decode_mcu+0x67c>
    2c50:	00000593          	li	a1,0
    2c54:	00000513          	li	a0,0
    2c58:	97dfd0ef          	jal	ra,5d4 <upsampleCr>
    2c5c:	04000593          	li	a1,64
    2c60:	00400513          	li	a0,4
    2c64:	971fd0ef          	jal	ra,5d4 <upsampleCr>
    2c68:	08000593          	li	a1,128
    2c6c:	02000513          	li	a0,32
    2c70:	965fd0ef          	jal	ra,5d4 <upsampleCr>
    2c74:	0c000593          	li	a1,192
    2c78:	02400513          	li	a0,36
    2c7c:	959fd0ef          	jal	ra,5d4 <upsampleCr>
    2c80:	dc1fe06f          	j	1a40 <pjpeg_decode_mcu+0x67c>
    2c84:	00161713          	slli	a4,a2,0x1
    2c88:	00c707b3          	add	a5,a4,a2
    2c8c:	00279793          	slli	a5,a5,0x2
    2c90:	40c787b3          	sub	a5,a5,a2
    2c94:	00379793          	slli	a5,a5,0x3
    2c98:	0087d793          	srli	a5,a5,0x8
    2c9c:	08044683          	lbu	a3,128(s0)
    2ca0:	fd478793          	addi	a5,a5,-44
    2ca4:	01079793          	slli	a5,a5,0x10
    2ca8:	0107d793          	srli	a5,a5,0x10
    2cac:	40f686b3          	sub	a3,a3,a5
    2cb0:	01069693          	slli	a3,a3,0x10
    2cb4:	0106d693          	srli	a3,a3,0x10
    2cb8:	0ff00593          	li	a1,255
    2cbc:	00d5fe63          	bgeu	a1,a3,2cd8 <pjpeg_decode_mcu+0x1914>
    2cc0:	01069513          	slli	a0,a3,0x10
    2cc4:	41055513          	srai	a0,a0,0x10
    2cc8:	00000593          	li	a1,0
    2ccc:	00054863          	bltz	a0,2cdc <pjpeg_decode_mcu+0x1918>
    2cd0:	0ff00593          	li	a1,255
    2cd4:	00a5c463          	blt	a1,a0,2cdc <pjpeg_decode_mcu+0x1918>
    2cd8:	0ff6f593          	andi	a1,a3,255
    2cdc:	0c044683          	lbu	a3,192(s0)
    2ce0:	08b40023          	sb	a1,128(s0)
    2ce4:	0ff00593          	li	a1,255
    2ce8:	40f686b3          	sub	a3,a3,a5
    2cec:	01069693          	slli	a3,a3,0x10
    2cf0:	0106d693          	srli	a3,a3,0x10
    2cf4:	00d5fe63          	bgeu	a1,a3,2d10 <pjpeg_decode_mcu+0x194c>
    2cf8:	01069513          	slli	a0,a3,0x10
    2cfc:	41055513          	srai	a0,a0,0x10
    2d00:	00000593          	li	a1,0
    2d04:	00054863          	bltz	a0,2d14 <pjpeg_decode_mcu+0x1950>
    2d08:	0ff00593          	li	a1,255
    2d0c:	00a5c463          	blt	a1,a0,2d14 <pjpeg_decode_mcu+0x1950>
    2d10:	0ff6f593          	andi	a1,a3,255
    2d14:	10044683          	lbu	a3,256(s0)
    2d18:	0cb40023          	sb	a1,192(s0)
    2d1c:	0ff00593          	li	a1,255
    2d20:	40f686b3          	sub	a3,a3,a5
    2d24:	01069693          	slli	a3,a3,0x10
    2d28:	0106d693          	srli	a3,a3,0x10
    2d2c:	00d5fe63          	bgeu	a1,a3,2d48 <pjpeg_decode_mcu+0x1984>
    2d30:	01069513          	slli	a0,a3,0x10
    2d34:	41055513          	srai	a0,a0,0x10
    2d38:	00000593          	li	a1,0
    2d3c:	00054863          	bltz	a0,2d4c <pjpeg_decode_mcu+0x1988>
    2d40:	0ff00593          	li	a1,255
    2d44:	00a5c463          	blt	a1,a0,2d4c <pjpeg_decode_mcu+0x1988>
    2d48:	0ff6f593          	andi	a1,a3,255
    2d4c:	14044683          	lbu	a3,320(s0)
    2d50:	10b40023          	sb	a1,256(s0)
    2d54:	0ff00593          	li	a1,255
    2d58:	40f687b3          	sub	a5,a3,a5
    2d5c:	01079793          	slli	a5,a5,0x10
    2d60:	0107d793          	srli	a5,a5,0x10
    2d64:	00f5fe63          	bgeu	a1,a5,2d80 <pjpeg_decode_mcu+0x19bc>
    2d68:	01079593          	slli	a1,a5,0x10
    2d6c:	4105d593          	srai	a1,a1,0x10
    2d70:	00000693          	li	a3,0
    2d74:	0005c863          	bltz	a1,2d84 <pjpeg_decode_mcu+0x19c0>
    2d78:	0ff00693          	li	a3,255
    2d7c:	00b6c463          	blt	a3,a1,2d84 <pjpeg_decode_mcu+0x19c0>
    2d80:	0ff7f693          	andi	a3,a5,255
    2d84:	00c70733          	add	a4,a4,a2
    2d88:	00571793          	slli	a5,a4,0x5
    2d8c:	00f707b3          	add	a5,a4,a5
    2d90:	00179793          	slli	a5,a5,0x1
    2d94:	0087d793          	srli	a5,a5,0x8
    2d98:	f1d60613          	addi	a2,a2,-227
    2d9c:	18044703          	lbu	a4,384(s0)
    2da0:	00c787b3          	add	a5,a5,a2
    2da4:	01079793          	slli	a5,a5,0x10
    2da8:	0107d793          	srli	a5,a5,0x10
    2dac:	00e78733          	add	a4,a5,a4
    2db0:	01071713          	slli	a4,a4,0x10
    2db4:	14d40023          	sb	a3,320(s0)
    2db8:	01075713          	srli	a4,a4,0x10
    2dbc:	0ff00693          	li	a3,255
    2dc0:	00e6fe63          	bgeu	a3,a4,2ddc <pjpeg_decode_mcu+0x1a18>
    2dc4:	01071613          	slli	a2,a4,0x10
    2dc8:	41065613          	srai	a2,a2,0x10
    2dcc:	00000693          	li	a3,0
    2dd0:	00064863          	bltz	a2,2de0 <pjpeg_decode_mcu+0x1a1c>
    2dd4:	0ff00693          	li	a3,255
    2dd8:	00c6c463          	blt	a3,a2,2de0 <pjpeg_decode_mcu+0x1a1c>
    2ddc:	0ff77693          	andi	a3,a4,255
    2de0:	1c044703          	lbu	a4,448(s0)
    2de4:	18d40023          	sb	a3,384(s0)
    2de8:	0ff00693          	li	a3,255
    2dec:	00e78733          	add	a4,a5,a4
    2df0:	01071713          	slli	a4,a4,0x10
    2df4:	01075713          	srli	a4,a4,0x10
    2df8:	00e6fe63          	bgeu	a3,a4,2e14 <pjpeg_decode_mcu+0x1a50>
    2dfc:	01071613          	slli	a2,a4,0x10
    2e00:	41065613          	srai	a2,a2,0x10
    2e04:	00000693          	li	a3,0
    2e08:	00064863          	bltz	a2,2e18 <pjpeg_decode_mcu+0x1a54>
    2e0c:	0ff00693          	li	a3,255
    2e10:	00c6c463          	blt	a3,a2,2e18 <pjpeg_decode_mcu+0x1a54>
    2e14:	0ff77693          	andi	a3,a4,255
    2e18:	20044703          	lbu	a4,512(s0)
    2e1c:	1cd40023          	sb	a3,448(s0)
    2e20:	0ff00693          	li	a3,255
    2e24:	00e78733          	add	a4,a5,a4
    2e28:	01071713          	slli	a4,a4,0x10
    2e2c:	01075713          	srli	a4,a4,0x10
    2e30:	00e6fe63          	bgeu	a3,a4,2e4c <pjpeg_decode_mcu+0x1a88>
    2e34:	01071613          	slli	a2,a4,0x10
    2e38:	41065613          	srai	a2,a2,0x10
    2e3c:	00000693          	li	a3,0
    2e40:	00064863          	bltz	a2,2e50 <pjpeg_decode_mcu+0x1a8c>
    2e44:	0ff00693          	li	a3,255
    2e48:	00c6c463          	blt	a3,a2,2e50 <pjpeg_decode_mcu+0x1a8c>
    2e4c:	0ff77693          	andi	a3,a4,255
    2e50:	24044603          	lbu	a2,576(s0)
    2e54:	20d40023          	sb	a3,512(s0)
    2e58:	0ff00713          	li	a4,255
    2e5c:	00c787b3          	add	a5,a5,a2
    2e60:	01079793          	slli	a5,a5,0x10
    2e64:	0107d793          	srli	a5,a5,0x10
    2e68:	00f77e63          	bgeu	a4,a5,2e84 <pjpeg_decode_mcu+0x1ac0>
    2e6c:	01079693          	slli	a3,a5,0x10
    2e70:	4106d693          	srai	a3,a3,0x10
    2e74:	00000713          	li	a4,0
    2e78:	0006c863          	bltz	a3,2e88 <pjpeg_decode_mcu+0x1ac4>
    2e7c:	0ff00713          	li	a4,255
    2e80:	00d74463          	blt	a4,a3,2e88 <pjpeg_decode_mcu+0x1ac4>
    2e84:	0ff7f713          	andi	a4,a5,255
    2e88:	24e40023          	sb	a4,576(s0)
    2e8c:	bb5fe06f          	j	1a40 <pjpeg_decode_mcu+0x67c>
    2e90:	34c40023          	sb	a2,832(s0)
    2e94:	14c40023          	sb	a2,320(s0)
    2e98:	24c40023          	sb	a2,576(s0)
    2e9c:	ba5fe06f          	j	1a40 <pjpeg_decode_mcu+0x67c>
    2ea0:	00161713          	slli	a4,a2,0x1
    2ea4:	00c707b3          	add	a5,a4,a2
    2ea8:	00279793          	slli	a5,a5,0x2
    2eac:	00c787b3          	add	a5,a5,a2
    2eb0:	00379793          	slli	a5,a5,0x3
    2eb4:	40c787b3          	sub	a5,a5,a2
    2eb8:	0087d693          	srli	a3,a5,0x8
    2ebc:	f4d60793          	addi	a5,a2,-179
    2ec0:	28044583          	lbu	a1,640(s0)
    2ec4:	00f687b3          	add	a5,a3,a5
    2ec8:	01079793          	slli	a5,a5,0x10
    2ecc:	0107d793          	srli	a5,a5,0x10
    2ed0:	00b786b3          	add	a3,a5,a1
    2ed4:	01069693          	slli	a3,a3,0x10
    2ed8:	0106d693          	srli	a3,a3,0x10
    2edc:	0ff00593          	li	a1,255
    2ee0:	00d5fe63          	bgeu	a1,a3,2efc <pjpeg_decode_mcu+0x1b38>
    2ee4:	01069513          	slli	a0,a3,0x10
    2ee8:	41055513          	srai	a0,a0,0x10
    2eec:	00000593          	li	a1,0
    2ef0:	00054863          	bltz	a0,2f00 <pjpeg_decode_mcu+0x1b3c>
    2ef4:	0ff00593          	li	a1,255
    2ef8:	00a5c463          	blt	a1,a0,2f00 <pjpeg_decode_mcu+0x1b3c>
    2efc:	0ff6f593          	andi	a1,a3,255
    2f00:	2c044683          	lbu	a3,704(s0)
    2f04:	28b40023          	sb	a1,640(s0)
    2f08:	0ff00593          	li	a1,255
    2f0c:	00d786b3          	add	a3,a5,a3
    2f10:	01069693          	slli	a3,a3,0x10
    2f14:	0106d693          	srli	a3,a3,0x10
    2f18:	00d5fe63          	bgeu	a1,a3,2f34 <pjpeg_decode_mcu+0x1b70>
    2f1c:	01069513          	slli	a0,a3,0x10
    2f20:	41055513          	srai	a0,a0,0x10
    2f24:	00000593          	li	a1,0
    2f28:	00054863          	bltz	a0,2f38 <pjpeg_decode_mcu+0x1b74>
    2f2c:	0ff00593          	li	a1,255
    2f30:	00a5c463          	blt	a1,a0,2f38 <pjpeg_decode_mcu+0x1b74>
    2f34:	0ff6f593          	andi	a1,a3,255
    2f38:	30044683          	lbu	a3,768(s0)
    2f3c:	2cb40023          	sb	a1,704(s0)
    2f40:	0ff00593          	li	a1,255
    2f44:	00d786b3          	add	a3,a5,a3
    2f48:	01069693          	slli	a3,a3,0x10
    2f4c:	0106d693          	srli	a3,a3,0x10
    2f50:	00d5fe63          	bgeu	a1,a3,2f6c <pjpeg_decode_mcu+0x1ba8>
    2f54:	01069513          	slli	a0,a3,0x10
    2f58:	41055513          	srai	a0,a0,0x10
    2f5c:	00000593          	li	a1,0
    2f60:	00054863          	bltz	a0,2f70 <pjpeg_decode_mcu+0x1bac>
    2f64:	0ff00593          	li	a1,255
    2f68:	00a5c463          	blt	a1,a0,2f70 <pjpeg_decode_mcu+0x1bac>
    2f6c:	0ff6f593          	andi	a1,a3,255
    2f70:	34044503          	lbu	a0,832(s0)
    2f74:	30b40023          	sb	a1,768(s0)
    2f78:	0ff00693          	li	a3,255
    2f7c:	00a787b3          	add	a5,a5,a0
    2f80:	01079793          	slli	a5,a5,0x10
    2f84:	0107d793          	srli	a5,a5,0x10
    2f88:	00f6fe63          	bgeu	a3,a5,2fa4 <pjpeg_decode_mcu+0x1be0>
    2f8c:	01079593          	slli	a1,a5,0x10
    2f90:	4105d593          	srai	a1,a1,0x10
    2f94:	00000693          	li	a3,0
    2f98:	0005c863          	bltz	a1,2fa8 <pjpeg_decode_mcu+0x1be4>
    2f9c:	0ff00693          	li	a3,255
    2fa0:	00b6c463          	blt	a3,a1,2fa8 <pjpeg_decode_mcu+0x1be4>
    2fa4:	0ff7f693          	andi	a3,a5,255
    2fa8:	00c70733          	add	a4,a4,a2
    2fac:	00371713          	slli	a4,a4,0x3
    2fb0:	40c70733          	sub	a4,a4,a2
    2fb4:	00371713          	slli	a4,a4,0x3
    2fb8:	40c707b3          	sub	a5,a4,a2
    2fbc:	0087d793          	srli	a5,a5,0x8
    2fc0:	08044703          	lbu	a4,128(s0)
    2fc4:	fa578793          	addi	a5,a5,-91
    2fc8:	01079793          	slli	a5,a5,0x10
    2fcc:	0107d793          	srli	a5,a5,0x10
    2fd0:	40f70733          	sub	a4,a4,a5
    2fd4:	01071713          	slli	a4,a4,0x10
    2fd8:	34d40023          	sb	a3,832(s0)
    2fdc:	01075713          	srli	a4,a4,0x10
    2fe0:	0ff00693          	li	a3,255
    2fe4:	00e6fe63          	bgeu	a3,a4,3000 <pjpeg_decode_mcu+0x1c3c>
    2fe8:	01071613          	slli	a2,a4,0x10
    2fec:	41065613          	srai	a2,a2,0x10
    2ff0:	00000693          	li	a3,0
    2ff4:	00064863          	bltz	a2,3004 <pjpeg_decode_mcu+0x1c40>
    2ff8:	0ff00693          	li	a3,255
    2ffc:	00c6c463          	blt	a3,a2,3004 <pjpeg_decode_mcu+0x1c40>
    3000:	0ff77693          	andi	a3,a4,255
    3004:	0c044703          	lbu	a4,192(s0)
    3008:	08d40023          	sb	a3,128(s0)
    300c:	0ff00693          	li	a3,255
    3010:	40f70733          	sub	a4,a4,a5
    3014:	01071713          	slli	a4,a4,0x10
    3018:	01075713          	srli	a4,a4,0x10
    301c:	00e6fe63          	bgeu	a3,a4,3038 <pjpeg_decode_mcu+0x1c74>
    3020:	01071613          	slli	a2,a4,0x10
    3024:	41065613          	srai	a2,a2,0x10
    3028:	00000693          	li	a3,0
    302c:	00064863          	bltz	a2,303c <pjpeg_decode_mcu+0x1c78>
    3030:	0ff00693          	li	a3,255
    3034:	00c6c463          	blt	a3,a2,303c <pjpeg_decode_mcu+0x1c78>
    3038:	0ff77693          	andi	a3,a4,255
    303c:	10044703          	lbu	a4,256(s0)
    3040:	0cd40023          	sb	a3,192(s0)
    3044:	0ff00693          	li	a3,255
    3048:	40f70733          	sub	a4,a4,a5
    304c:	01071713          	slli	a4,a4,0x10
    3050:	01075713          	srli	a4,a4,0x10
    3054:	00e6fe63          	bgeu	a3,a4,3070 <pjpeg_decode_mcu+0x1cac>
    3058:	01071613          	slli	a2,a4,0x10
    305c:	41065613          	srai	a2,a2,0x10
    3060:	00000693          	li	a3,0
    3064:	00064863          	bltz	a2,3074 <pjpeg_decode_mcu+0x1cb0>
    3068:	0ff00693          	li	a3,255
    306c:	00c6c463          	blt	a3,a2,3074 <pjpeg_decode_mcu+0x1cb0>
    3070:	0ff77693          	andi	a3,a4,255
    3074:	14044703          	lbu	a4,320(s0)
    3078:	10d40023          	sb	a3,256(s0)
    307c:	0ff00693          	li	a3,255
    3080:	40f707b3          	sub	a5,a4,a5
    3084:	01079793          	slli	a5,a5,0x10
    3088:	0107d793          	srli	a5,a5,0x10
    308c:	00f6fe63          	bgeu	a3,a5,30a8 <pjpeg_decode_mcu+0x1ce4>
    3090:	01079693          	slli	a3,a5,0x10
    3094:	4106d693          	srai	a3,a3,0x10
    3098:	00000713          	li	a4,0
    309c:	0006c863          	bltz	a3,30ac <pjpeg_decode_mcu+0x1ce8>
    30a0:	0ff00713          	li	a4,255
    30a4:	00d74463          	blt	a4,a3,30ac <pjpeg_decode_mcu+0x1ce8>
    30a8:	0ff7f713          	andi	a4,a5,255
    30ac:	14e40023          	sb	a4,320(s0)
    30b0:	991fe06f          	j	1a40 <pjpeg_decode_mcu+0x67c>
    30b4:	000056b7          	lui	a3,0x5
    30b8:	1b26d703          	lhu	a4,434(a3) # 51b2 <gNextRestartNum>
    30bc:	0d070793          	addi	a5,a4,208
    30c0:	ccf51863          	bne	a0,a5,2590 <pjpeg_decode_mcu+0x11cc>
    30c4:	1b49d603          	lhu	a2,436(s3)
    30c8:	00170713          	addi	a4,a4,1
    30cc:	000057b7          	lui	a5,0x5
    30d0:	00777713          	andi	a4,a4,7
    30d4:	1d878813          	addi	a6,a5,472 # 51d8 <gLastDC>
    30d8:	1ae69923          	sh	a4,434(a3)
    30dc:	00100593          	li	a1,1
    30e0:	00800713          	li	a4,8
    30e4:	1c07ac23          	sw	zero,472(a5)
    30e8:	00800513          	li	a0,8
    30ec:	000057b7          	lui	a5,0x5
    30f0:	1ce78623          	sb	a4,460(a5) # 51cc <gBitsLeft>
    30f4:	00081223          	sh	zero,4(a6)
    30f8:	1ac91823          	sh	a2,432(s2)
    30fc:	b75fd0ef          	jal	ra,c70 <getBits>
    3100:	00100593          	li	a1,1
    3104:	00800513          	li	a0,8
    3108:	b69fd0ef          	jal	ra,c70 <getBits>
    310c:	1b095783          	lhu	a5,432(s2)
    3110:	d60fe06f          	j	1670 <pjpeg_decode_mcu+0x2ac>

00003114 <pjpeg_decode_init>:
    3114:	00005737          	lui	a4,0x5
    3118:	f9010113          	addi	sp,sp,-112
    311c:	18b72623          	sw	a1,396(a4) # 518c <g_pNeedBytesCallback>
    3120:	00005737          	lui	a4,0x5
    3124:	06112623          	sw	ra,108(sp)
    3128:	06812423          	sw	s0,104(sp)
    312c:	06912223          	sw	s1,100(sp)
    3130:	07212023          	sw	s2,96(sp)
    3134:	05312e23          	sw	s3,92(sp)
    3138:	05412c23          	sw	s4,88(sp)
    313c:	05512a23          	sw	s5,84(sp)
    3140:	05612823          	sw	s6,80(sp)
    3144:	05712623          	sw	s7,76(sp)
    3148:	05812423          	sw	s8,72(sp)
    314c:	05a12023          	sw	s10,64(sp)
    3150:	03b12e23          	sw	s11,60(sp)
    3154:	05912223          	sw	s9,68(sp)
    3158:	18c72423          	sw	a2,392(a4) # 5188 <g_pCallback_data>
    315c:	00005437          	lui	s0,0x5
    3160:	00005737          	lui	a4,0x5
    3164:	000057b7          	lui	a5,0x5
    3168:	00005ab7          	lui	s5,0x5
    316c:	000059b7          	lui	s3,0x5
    3170:	000054b7          	lui	s1,0x5
    3174:	18d70223          	sb	a3,388(a4) # 5184 <gReduce>
    3178:	00052023          	sw	zero,0(a0)
    317c:	00052223          	sw	zero,4(a0)
    3180:	00052423          	sw	zero,8(a0)
    3184:	00052623          	sw	zero,12(a0)
    3188:	00052823          	sw	zero,16(a0)
    318c:	00052a23          	sw	zero,20(a0)
    3190:	00052c23          	sw	zero,24(a0)
    3194:	00052e23          	sw	zero,28(a0)
    3198:	02052023          	sw	zero,32(a0)
    319c:	02052223          	sw	zero,36(a0)
    31a0:	02052423          	sw	zero,40(a0)
    31a4:	1a079a23          	sh	zero,436(a5) # 51b4 <gRestartInterval>
    31a8:	00005737          	lui	a4,0x5
    31ac:	000057b7          	lui	a5,0x5
    31b0:	00005a37          	lui	s4,0x5
    31b4:	180402a3          	sb	zero,389(s0) # 5185 <gCallbackStatus>
    31b8:	1c0a9523          	sh	zero,458(s5) # 51ca <gImageXSize>
    31bc:	1c099423          	sh	zero,456(s3) # 51c8 <gImageYSize>
    31c0:	1c0483a3          	sb	zero,455(s1) # 51c7 <gCompsInFrame>
    31c4:	1a0a07a3          	sb	zero,431(s4) # 51af <gCompsInScan>
    31c8:	00000593          	li	a1,0
    31cc:	1c078a23          	sb	zero,468(a5) # 51d4 <gValidHuffTables>
    31d0:	1c070923          	sb	zero,466(a4) # 51d2 <gTemFlag>
    31d4:	000057b7          	lui	a5,0x5
    31d8:	00800713          	li	a4,8
    31dc:	00050d93          	mv	s11,a0
    31e0:	00005b37          	lui	s6,0x5
    31e4:	00005c37          	lui	s8,0x5
    31e8:	00005937          	lui	s2,0x5
    31ec:	00005bb7          	lui	s7,0x5
    31f0:	00800513          	li	a0,8
    31f4:	1c0789a3          	sb	zero,467(a5) # 51d3 <gValidQuantTables>
    31f8:	1ceb8623          	sb	a4,460(s7) # 51cc <gBitsLeft>
    31fc:	1c0b08a3          	sb	zero,465(s6) # 51d1 <gInBufOfs>
    3200:	1c0c0823          	sb	zero,464(s8) # 51d0 <gInBufLeft>
    3204:	1c091723          	sh	zero,462(s2) # 51ce <gBitBuf>
    3208:	a69fd0ef          	jal	ra,c70 <getBits>
    320c:	00000593          	li	a1,0
    3210:	00800513          	li	a0,8
    3214:	a5dfd0ef          	jal	ra,c70 <getBits>
    3218:	18544d03          	lbu	s10,389(s0)
    321c:	040d0263          	beqz	s10,3260 <pjpeg_decode_init+0x14c>
    3220:	06c12083          	lw	ra,108(sp)
    3224:	06812403          	lw	s0,104(sp)
    3228:	000d0513          	mv	a0,s10
    322c:	06412483          	lw	s1,100(sp)
    3230:	06012903          	lw	s2,96(sp)
    3234:	05c12983          	lw	s3,92(sp)
    3238:	05812a03          	lw	s4,88(sp)
    323c:	05412a83          	lw	s5,84(sp)
    3240:	05012b03          	lw	s6,80(sp)
    3244:	04c12b83          	lw	s7,76(sp)
    3248:	04812c03          	lw	s8,72(sp)
    324c:	04412c83          	lw	s9,68(sp)
    3250:	04012d03          	lw	s10,64(sp)
    3254:	03c12d83          	lw	s11,60(sp)
    3258:	07010113          	addi	sp,sp,112
    325c:	00008067          	ret
    3260:	00000593          	li	a1,0
    3264:	00800513          	li	a0,8
    3268:	a09fd0ef          	jal	ra,c70 <getBits>
    326c:	00050c93          	mv	s9,a0
    3270:	00000593          	li	a1,0
    3274:	00800513          	li	a0,8
    3278:	9f9fd0ef          	jal	ra,c70 <getBits>
    327c:	00001737          	lui	a4,0x1
    3280:	0ffcfc93          	andi	s9,s9,255
    3284:	0ff00613          	li	a2,255
    3288:	0ff57d13          	andi	s10,a0,255
    328c:	fff70713          	addi	a4,a4,-1 # fff <processMarkers+0x22b>
    3290:	06cc8263          	beq	s9,a2,32f4 <pjpeg_decode_init+0x1e0>
    3294:	01b12623          	sw	s11,12(sp)
    3298:	0d900c93          	li	s9,217
    329c:	000d0d93          	mv	s11,s10
    32a0:	00070d13          	mv	s10,a4
    32a4:	00c0006f          	j	32b0 <pjpeg_decode_init+0x19c>
    32a8:	00050d93          	mv	s11,a0
    32ac:	020d0a63          	beqz	s10,32e0 <pjpeg_decode_init+0x1cc>
    32b0:	00000593          	li	a1,0
    32b4:	00800513          	li	a0,8
    32b8:	9b9fd0ef          	jal	ra,c70 <getBits>
    32bc:	fffd0793          	addi	a5,s10,-1
    32c0:	01079d13          	slli	s10,a5,0x10
    32c4:	0ff00793          	li	a5,255
    32c8:	010d5d13          	srli	s10,s10,0x10
    32cc:	0ff57513          	andi	a0,a0,255
    32d0:	fcfd9ce3          	bne	s11,a5,32a8 <pjpeg_decode_init+0x194>
    32d4:	0d800793          	li	a5,216
    32d8:	04f50c63          	beq	a0,a5,3330 <pjpeg_decode_init+0x21c>
    32dc:	fd9516e3          	bne	a0,s9,32a8 <pjpeg_decode_init+0x194>
    32e0:	01300d13          	li	s10,19
    32e4:	18544783          	lbu	a5,389(s0)
    32e8:	f2078ce3          	beqz	a5,3220 <pjpeg_decode_init+0x10c>
    32ec:	00078d13          	mv	s10,a5
    32f0:	f31ff06f          	j	3220 <pjpeg_decode_init+0x10c>
    32f4:	0d800613          	li	a2,216
    32f8:	f8cd1ee3          	bne	s10,a2,3294 <pjpeg_decode_init+0x180>
    32fc:	02f10513          	addi	a0,sp,47
    3300:	ad5fd0ef          	jal	ra,dd4 <processMarkers>
    3304:	00050d13          	mv	s10,a0
    3308:	fc051ee3          	bnez	a0,32e4 <pjpeg_decode_init+0x1d0>
    330c:	02f14683          	lbu	a3,47(sp)
    3310:	0c200613          	li	a2,194
    3314:	06c68463          	beq	a3,a2,337c <pjpeg_decode_init+0x268>
    3318:	0c900613          	li	a2,201
    331c:	04c68c63          	beq	a3,a2,3374 <pjpeg_decode_init+0x260>
    3320:	0c000613          	li	a2,192
    3324:	02c68263          	beq	a3,a2,3348 <pjpeg_decode_init+0x234>
    3328:	01400d13          	li	s10,20
    332c:	fb9ff06f          	j	32e4 <pjpeg_decode_init+0x1d0>
    3330:	1ce95703          	lhu	a4,462(s2)
    3334:	000d8d13          	mv	s10,s11
    3338:	00c12d83          	lw	s11,12(sp)
    333c:	00875713          	srli	a4,a4,0x8
    3340:	fba70ee3          	beq	a4,s10,32fc <pjpeg_decode_init+0x1e8>
    3344:	f9dff06f          	j	32e0 <pjpeg_decode_init+0x1cc>
    3348:	00000593          	li	a1,0
    334c:	01000513          	li	a0,16
    3350:	921fd0ef          	jal	ra,c70 <getBits>
    3354:	00050c93          	mv	s9,a0
    3358:	00000593          	li	a1,0
    335c:	00800513          	li	a0,8
    3360:	911fd0ef          	jal	ra,c70 <getBits>
    3364:	00800693          	li	a3,8
    3368:	00d50e63          	beq	a0,a3,3384 <pjpeg_decode_init+0x270>
    336c:	00700d13          	li	s10,7
    3370:	f75ff06f          	j	32e4 <pjpeg_decode_init+0x1d0>
    3374:	01100d13          	li	s10,17
    3378:	f6dff06f          	j	32e4 <pjpeg_decode_init+0x1d0>
    337c:	02500d13          	li	s10,37
    3380:	f65ff06f          	j	32e4 <pjpeg_decode_init+0x1d0>
    3384:	00000593          	li	a1,0
    3388:	01000513          	li	a0,16
    338c:	8e5fd0ef          	jal	ra,c70 <getBits>
    3390:	fff50693          	addi	a3,a0,-1
    3394:	01069693          	slli	a3,a3,0x10
    3398:	1ca99423          	sh	a0,456(s3)
    339c:	0106d693          	srli	a3,a3,0x10
    33a0:	000047b7          	lui	a5,0x4
    33a4:	3ef6f463          	bgeu	a3,a5,378c <pjpeg_decode_init+0x678>
    33a8:	00000593          	li	a1,0
    33ac:	01000513          	li	a0,16
    33b0:	8c1fd0ef          	jal	ra,c70 <getBits>
    33b4:	fff50693          	addi	a3,a0,-1
    33b8:	01069693          	slli	a3,a3,0x10
    33bc:	1caa9523          	sh	a0,458(s5)
    33c0:	0106d693          	srli	a3,a3,0x10
    33c4:	000047b7          	lui	a5,0x4
    33c8:	3cf6f663          	bgeu	a3,a5,3794 <pjpeg_decode_init+0x680>
    33cc:	00000593          	li	a1,0
    33d0:	00800513          	li	a0,8
    33d4:	89dfd0ef          	jal	ra,c70 <getBits>
    33d8:	0ff57513          	andi	a0,a0,255
    33dc:	1ca483a3          	sb	a0,455(s1)
    33e0:	00300693          	li	a3,3
    33e4:	6ca6e063          	bltu	a3,a0,3aa4 <pjpeg_decode_init+0x990>
    33e8:	00151693          	slli	a3,a0,0x1
    33ec:	00a686b3          	add	a3,a3,a0
    33f0:	00868693          	addi	a3,a3,8
    33f4:	6adc9463          	bne	s9,a3,3a9c <pjpeg_decode_init+0x988>
    33f8:	0a050a63          	beqz	a0,34ac <pjpeg_decode_init+0x398>
    33fc:	00005cb7          	lui	s9,0x5
    3400:	1c4c8793          	addi	a5,s9,452 # 51c4 <gCompIdent>
    3404:	00f12623          	sw	a5,12(sp)
    3408:	000057b7          	lui	a5,0x5
    340c:	1c078793          	addi	a5,a5,448 # 51c0 <gCompHSamp>
    3410:	00f12823          	sw	a5,16(sp)
    3414:	000057b7          	lui	a5,0x5
    3418:	000056b7          	lui	a3,0x5
    341c:	1bc78793          	addi	a5,a5,444 # 51bc <gCompVSamp>
    3420:	00f12a23          	sw	a5,20(sp)
    3424:	1b868c93          	addi	s9,a3,440 # 51b8 <gCompQuant>
    3428:	00c0006f          	j	3434 <pjpeg_decode_init+0x320>
    342c:	1c74c783          	lbu	a5,455(s1)
    3430:	06fd7e63          	bgeu	s10,a5,34ac <pjpeg_decode_init+0x398>
    3434:	00000593          	li	a1,0
    3438:	00800513          	li	a0,8
    343c:	835fd0ef          	jal	ra,c70 <getBits>
    3440:	00c12783          	lw	a5,12(sp)
    3444:	00000593          	li	a1,0
    3448:	01a787b3          	add	a5,a5,s10
    344c:	00a78023          	sb	a0,0(a5)
    3450:	00400513          	li	a0,4
    3454:	81dfd0ef          	jal	ra,c70 <getBits>
    3458:	01012783          	lw	a5,16(sp)
    345c:	00000593          	li	a1,0
    3460:	01a787b3          	add	a5,a5,s10
    3464:	00a78023          	sb	a0,0(a5)
    3468:	00400513          	li	a0,4
    346c:	805fd0ef          	jal	ra,c70 <getBits>
    3470:	01412783          	lw	a5,20(sp)
    3474:	00000593          	li	a1,0
    3478:	01a787b3          	add	a5,a5,s10
    347c:	00a78023          	sb	a0,0(a5)
    3480:	00800513          	li	a0,8
    3484:	fecfd0ef          	jal	ra,c70 <getBits>
    3488:	01ac87b3          	add	a5,s9,s10
    348c:	0ff57513          	andi	a0,a0,255
    3490:	001d0d13          	addi	s10,s10,1
    3494:	00a78023          	sb	a0,0(a5)
    3498:	00100793          	li	a5,1
    349c:	0ffd7d13          	andi	s10,s10,255
    34a0:	f8a7f6e3          	bgeu	a5,a0,342c <pjpeg_decode_init+0x318>
    34a4:	02400d13          	li	s10,36
    34a8:	e3dff06f          	j	32e4 <pjpeg_decode_init+0x1d0>
    34ac:	18544d03          	lbu	s10,389(s0)
    34b0:	d60d18e3          	bnez	s10,3220 <pjpeg_decode_init+0x10c>
    34b4:	1c74c683          	lbu	a3,455(s1)
    34b8:	00100613          	li	a2,1
    34bc:	20c68a63          	beq	a3,a2,36d0 <pjpeg_decode_init+0x5bc>
    34c0:	00300593          	li	a1,3
    34c4:	01a00d13          	li	s10,26
    34c8:	d4b69ce3          	bne	a3,a1,3220 <pjpeg_decode_init+0x10c>
    34cc:	00005837          	lui	a6,0x5
    34d0:	1c080513          	addi	a0,a6,448 # 51c0 <gCompHSamp>
    34d4:	00154583          	lbu	a1,1(a0)
    34d8:	01b00d13          	li	s10,27
    34dc:	d4c592e3          	bne	a1,a2,3220 <pjpeg_decode_init+0x10c>
    34e0:	00005337          	lui	t1,0x5
    34e4:	1bc30893          	addi	a7,t1,444 # 51bc <gCompVSamp>
    34e8:	0018c603          	lbu	a2,1(a7)
    34ec:	d2b61ae3          	bne	a2,a1,3220 <pjpeg_decode_init+0x10c>
    34f0:	00254583          	lbu	a1,2(a0)
    34f4:	d2c596e3          	bne	a1,a2,3220 <pjpeg_decode_init+0x10c>
    34f8:	0028c603          	lbu	a2,2(a7)
    34fc:	d2b612e3          	bne	a2,a1,3220 <pjpeg_decode_init+0x10c>
    3500:	1c084583          	lbu	a1,448(a6)
    3504:	28c58c63          	beq	a1,a2,379c <pjpeg_decode_init+0x688>
    3508:	00200693          	li	a3,2
    350c:	d0d59ae3          	bne	a1,a3,3220 <pjpeg_decode_init+0x10c>
    3510:	1bc34683          	lbu	a3,444(t1)
    3514:	5ec68663          	beq	a3,a2,3b00 <pjpeg_decode_init+0x9ec>
    3518:	00200613          	li	a2,2
    351c:	01b00d13          	li	s10,27
    3520:	d0c690e3          	bne	a3,a2,3220 <pjpeg_decode_init+0x10c>
    3524:	000056b7          	lui	a3,0x5
    3528:	000057b7          	lui	a5,0x5
    352c:	00400593          	li	a1,4
    3530:	19068613          	addi	a2,a3,400 # 5190 <gMCUOrg>
    3534:	01000713          	li	a4,16
    3538:	00005837          	lui	a6,0x5
    353c:	000058b7          	lui	a7,0x5
    3540:	1ab7a023          	sw	a1,416(a5) # 51a0 <gScanType>
    3544:	00600513          	li	a0,6
    3548:	000055b7          	lui	a1,0x5
    354c:	1806a823          	sw	zero,400(a3)
    3550:	20100693          	li	a3,513
    3554:	00d61223          	sh	a3,4(a2)
    3558:	00f12a23          	sw	a5,20(sp)
    355c:	01012c23          	sw	a6,24(sp)
    3560:	01112823          	sw	a7,16(sp)
    3564:	18a58f23          	sb	a0,414(a1) # 519e <gMaxBlocksPerMCU>
    3568:	18e80ea3          	sb	a4,413(a6) # 519d <gMaxMCUXSize>
    356c:	18e88e23          	sb	a4,412(a7) # 519c <gMaxMCUYSize>
    3570:	00f00613          	li	a2,15
    3574:	01000693          	li	a3,16
    3578:	1caad503          	lhu	a0,458(s5)
    357c:	00400593          	li	a1,4
    3580:	00f50513          	addi	a0,a0,15
    3584:	1c89d703          	lhu	a4,456(s3)
    3588:	ff868693          	addi	a3,a3,-8
    358c:	00d036b3          	snez	a3,a3
    3590:	00c70733          	add	a4,a4,a2
    3594:	00368693          	addi	a3,a3,3
    3598:	40b55533          	sra	a0,a0,a1
    359c:	40d75733          	sra	a4,a4,a3
    35a0:	01051513          	slli	a0,a0,0x10
    35a4:	01055513          	srli	a0,a0,0x10
    35a8:	000057b7          	lui	a5,0x5
    35ac:	01071713          	slli	a4,a4,0x10
    35b0:	01075713          	srli	a4,a4,0x10
    35b4:	18a79d23          	sh	a0,410(a5) # 519a <gMaxMCUSPerRow>
    35b8:	000057b7          	lui	a5,0x5
    35bc:	00070593          	mv	a1,a4
    35c0:	18e79c23          	sh	a4,408(a5) # 5198 <gMaxMCUSPerCol>
    35c4:	29d000ef          	jal	ra,4060 <__mulsi3>
    35c8:	00005737          	lui	a4,0x5
    35cc:	18a71b23          	sh	a0,406(a4) # 5196 <gNumMCUSRemaining>
    35d0:	02f10513          	addi	a0,sp,47
    35d4:	801fd0ef          	jal	ra,dd4 <processMarkers>
    35d8:	00050d13          	mv	s10,a0
    35dc:	d00514e3          	bnez	a0,32e4 <pjpeg_decode_init+0x1d0>
    35e0:	02f14683          	lbu	a3,47(sp)
    35e4:	0da00713          	li	a4,218
    35e8:	01200d13          	li	s10,18
    35ec:	cee69ce3          	bne	a3,a4,32e4 <pjpeg_decode_init+0x1d0>
    35f0:	00000593          	li	a1,0
    35f4:	01000513          	li	a0,16
    35f8:	e78fd0ef          	jal	ra,c70 <getBits>
    35fc:	00050d13          	mv	s10,a0
    3600:	00000593          	li	a1,0
    3604:	00800513          	li	a0,8
    3608:	e68fd0ef          	jal	ra,c70 <getBits>
    360c:	0ff57513          	andi	a0,a0,255
    3610:	ffdd0f13          	addi	t5,s10,-3
    3614:	00151713          	slli	a4,a0,0x1
    3618:	010f1d13          	slli	s10,t5,0x10
    361c:	1aaa07a3          	sb	a0,431(s4)
    3620:	010d5d13          	srli	s10,s10,0x10
    3624:	00370713          	addi	a4,a4,3
    3628:	14ed1e63          	bne	s10,a4,3784 <pjpeg_decode_init+0x670>
    362c:	fff50713          	addi	a4,a0,-1
    3630:	0ff77713          	andi	a4,a4,255
    3634:	00200693          	li	a3,2
    3638:	14e6e663          	bltu	a3,a4,3784 <pjpeg_decode_init+0x670>
    363c:	00005837          	lui	a6,0x5
    3640:	01b12e23          	sw	s11,28(sp)
    3644:	00000f93          	li	t6,0
    3648:	1a880c93          	addi	s9,a6,424 # 51a8 <gCompDCTab>
    364c:	000d0d93          	mv	s11,s10
    3650:	00000593          	li	a1,0
    3654:	00800513          	li	a0,8
    3658:	01f12623          	sw	t6,12(sp)
    365c:	e14fd0ef          	jal	ra,c70 <getBits>
    3660:	0ff57d13          	andi	s10,a0,255
    3664:	00000593          	li	a1,0
    3668:	00800513          	li	a0,8
    366c:	e04fd0ef          	jal	ra,c70 <getBits>
    3670:	1c74c803          	lbu	a6,455(s1)
    3674:	ffed8793          	addi	a5,s11,-2
    3678:	01079e13          	slli	t3,a5,0x10
    367c:	0ff57513          	andi	a0,a0,255
    3680:	010e5e13          	srli	t3,t3,0x10
    3684:	04080263          	beqz	a6,36c8 <pjpeg_decode_init+0x5b4>
    3688:	00005737          	lui	a4,0x5
    368c:	1c474783          	lbu	a5,452(a4) # 51c4 <gCompIdent>
    3690:	000056b7          	lui	a3,0x5
    3694:	1a468893          	addi	a7,a3,420 # 51a4 <gCompACTab>
    3698:	00c12f83          	lw	t6,12(sp)
    369c:	0ba78063          	beq	a5,s10,373c <pjpeg_decode_init+0x628>
    36a0:	1c470713          	addi	a4,a4,452
    36a4:	00100793          	li	a5,1
    36a8:	0180006f          	j	36c0 <pjpeg_decode_init+0x5ac>
    36ac:	00174603          	lbu	a2,1(a4)
    36b0:	00078593          	mv	a1,a5
    36b4:	00170713          	addi	a4,a4,1
    36b8:	00178793          	addi	a5,a5,1
    36bc:	08cd0463          	beq	s10,a2,3744 <pjpeg_decode_init+0x630>
    36c0:	0ff7f693          	andi	a3,a5,255
    36c4:	ff06e4e3          	bltu	a3,a6,36ac <pjpeg_decode_init+0x598>
    36c8:	00f00d13          	li	s10,15
    36cc:	c19ff06f          	j	32e4 <pjpeg_decode_init+0x1d0>
    36d0:	00005737          	lui	a4,0x5
    36d4:	1c074603          	lbu	a2,448(a4) # 51c0 <gCompHSamp>
    36d8:	01b00d13          	li	s10,27
    36dc:	b4d612e3          	bne	a2,a3,3220 <pjpeg_decode_init+0x10c>
    36e0:	000056b7          	lui	a3,0x5
    36e4:	1bc6c683          	lbu	a3,444(a3) # 51bc <gCompVSamp>
    36e8:	b2c69ce3          	bne	a3,a2,3220 <pjpeg_decode_init+0x10c>
    36ec:	00005637          	lui	a2,0x5
    36f0:	00800713          	li	a4,8
    36f4:	000057b7          	lui	a5,0x5
    36f8:	000055b7          	lui	a1,0x5
    36fc:	00005537          	lui	a0,0x5
    3700:	18d60f23          	sb	a3,414(a2) # 519e <gMaxBlocksPerMCU>
    3704:	000056b7          	lui	a3,0x5
    3708:	18068823          	sb	zero,400(a3) # 5190 <gMCUOrg>
    370c:	00f12a23          	sw	a5,20(sp)
    3710:	00b12c23          	sw	a1,24(sp)
    3714:	00a12823          	sw	a0,16(sp)
    3718:	1a07a023          	sw	zero,416(a5) # 51a0 <gScanType>
    371c:	18e58ea3          	sb	a4,413(a1) # 519d <gMaxMCUXSize>
    3720:	18e50e23          	sb	a4,412(a0) # 519c <gMaxMCUYSize>
    3724:	00700613          	li	a2,7
    3728:	00800693          	li	a3,8
    372c:	1caad503          	lhu	a0,458(s5)
    3730:	00300593          	li	a1,3
    3734:	00750513          	addi	a0,a0,7
    3738:	e4dff06f          	j	3584 <pjpeg_decode_init+0x470>
    373c:	00000693          	li	a3,0
    3740:	00000593          	li	a1,0
    3744:	00005737          	lui	a4,0x5
    3748:	1ac70713          	addi	a4,a4,428 # 51ac <gCompList>
    374c:	1afa4783          	lbu	a5,431(s4)
    3750:	00ef8833          	add	a6,t6,a4
    3754:	00455613          	srli	a2,a0,0x4
    3758:	00bc8733          	add	a4,s9,a1
    375c:	00f57513          	andi	a0,a0,15
    3760:	00b885b3          	add	a1,a7,a1
    3764:	001f8f93          	addi	t6,t6,1
    3768:	00d80023          	sb	a3,0(a6)
    376c:	00c70023          	sb	a2,0(a4)
    3770:	00a58023          	sb	a0,0(a1)
    3774:	0fffff93          	andi	t6,t6,255
    3778:	08fff463          	bgeu	t6,a5,3800 <pjpeg_decode_init+0x6ec>
    377c:	000e0d93          	mv	s11,t3
    3780:	ed1ff06f          	j	3650 <pjpeg_decode_init+0x53c>
    3784:	00e00d13          	li	s10,14
    3788:	b5dff06f          	j	32e4 <pjpeg_decode_init+0x1d0>
    378c:	00800d13          	li	s10,8
    3790:	b55ff06f          	j	32e4 <pjpeg_decode_init+0x1d0>
    3794:	00900d13          	li	s10,9
    3798:	b4dff06f          	j	32e4 <pjpeg_decode_init+0x1d0>
    379c:	1bc34603          	lbu	a2,444(t1)
    37a0:	30b60663          	beq	a2,a1,3aac <pjpeg_decode_init+0x998>
    37a4:	00200693          	li	a3,2
    37a8:	a6d61ce3          	bne	a2,a3,3220 <pjpeg_decode_init+0x10c>
    37ac:	000057b7          	lui	a5,0x5
    37b0:	00300713          	li	a4,3
    37b4:	00400693          	li	a3,4
    37b8:	1ae7a023          	sw	a4,416(a5) # 51a0 <gScanType>
    37bc:	00005737          	lui	a4,0x5
    37c0:	18d70f23          	sb	a3,414(a4) # 519e <gMaxBlocksPerMCU>
    37c4:	00005737          	lui	a4,0x5
    37c8:	020106b7          	lui	a3,0x2010
    37cc:	00005637          	lui	a2,0x5
    37d0:	18d72823          	sw	a3,400(a4) # 5190 <gMCUOrg>
    37d4:	00800713          	li	a4,8
    37d8:	000055b7          	lui	a1,0x5
    37dc:	18e60ea3          	sb	a4,413(a2) # 519d <gMaxMCUXSize>
    37e0:	01000713          	li	a4,16
    37e4:	00c12c23          	sw	a2,24(sp)
    37e8:	00f12a23          	sw	a5,20(sp)
    37ec:	00b12823          	sw	a1,16(sp)
    37f0:	18e58e23          	sb	a4,412(a1) # 519c <gMaxMCUYSize>
    37f4:	00f00613          	li	a2,15
    37f8:	01000693          	li	a3,16
    37fc:	f31ff06f          	j	372c <pjpeg_decode_init+0x618>
    3800:	00000593          	li	a1,0
    3804:	00800513          	li	a0,8
    3808:	000d8d13          	mv	s10,s11
    380c:	01c12d83          	lw	s11,28(sp)
    3810:	c60fd0ef          	jal	ra,c70 <getBits>
    3814:	0ff57693          	andi	a3,a0,255
    3818:	00005737          	lui	a4,0x5
    381c:	00000593          	li	a1,0
    3820:	00800513          	li	a0,8
    3824:	14d70a23          	sb	a3,340(a4) # 5154 <spectral_start>
    3828:	c48fd0ef          	jal	ra,c70 <getBits>
    382c:	0ff57693          	andi	a3,a0,255
    3830:	00005737          	lui	a4,0x5
    3834:	00000593          	li	a1,0
    3838:	00400513          	li	a0,4
    383c:	14d70ba3          	sb	a3,343(a4) # 5157 <spectral_end>
    3840:	c30fd0ef          	jal	ra,c70 <getBits>
    3844:	0ff57693          	andi	a3,a0,255
    3848:	00005737          	lui	a4,0x5
    384c:	00000593          	li	a1,0
    3850:	00400513          	li	a0,4
    3854:	14d70b23          	sb	a3,342(a4) # 5156 <successive_high>
    3858:	c18fd0ef          	jal	ra,c70 <getBits>
    385c:	ffbd0f13          	addi	t5,s10,-5
    3860:	0ff57513          	andi	a0,a0,255
    3864:	00005737          	lui	a4,0x5
    3868:	010f1d13          	slli	s10,t5,0x10
    386c:	000057b7          	lui	a5,0x5
    3870:	14a70aa3          	sb	a0,341(a4) # 5155 <successive_low>
    3874:	010d5d13          	srli	s10,s10,0x10
    3878:	1a478893          	addi	a7,a5,420 # 51a4 <gCompACTab>
    387c:	020d0463          	beqz	s10,38a4 <pjpeg_decode_init+0x790>
    3880:	00000593          	li	a1,0
    3884:	00800513          	li	a0,8
    3888:	fffd0d13          	addi	s10,s10,-1
    388c:	be4fd0ef          	jal	ra,c70 <getBits>
    3890:	010d1d13          	slli	s10,s10,0x10
    3894:	000057b7          	lui	a5,0x5
    3898:	010d5d13          	srli	s10,s10,0x10
    389c:	1a478893          	addi	a7,a5,420 # 51a4 <gCompACTab>
    38a0:	fe0d10e3          	bnez	s10,3880 <pjpeg_decode_init+0x76c>
    38a4:	1afa4683          	lbu	a3,431(s4)
    38a8:	08068a63          	beqz	a3,393c <pjpeg_decode_init+0x828>
    38ac:	000057b7          	lui	a5,0x5
    38b0:	1ac7c583          	lbu	a1,428(a5) # 51ac <gCompList>
    38b4:	00005737          	lui	a4,0x5
    38b8:	1d474e83          	lbu	t4,468(a4) # 51d4 <gValidHuffTables>
    38bc:	00b88733          	add	a4,a7,a1
    38c0:	00074703          	lbu	a4,0(a4)
    38c4:	00bc8533          	add	a0,s9,a1
    38c8:	00054503          	lbu	a0,0(a0)
    38cc:	00100613          	li	a2,1
    38d0:	00270713          	addi	a4,a4,2
    38d4:	00e61733          	sll	a4,a2,a4
    38d8:	00a61633          	sll	a2,a2,a0
    38dc:	00c76733          	or	a4,a4,a2
    38e0:	01d77633          	and	a2,a4,t4
    38e4:	04e61863          	bne	a2,a4,3934 <pjpeg_decode_init+0x820>
    38e8:	fff68e13          	addi	t3,a3,-1 # 200ffff <TOHOST_ADDR+0x200ae0b>
    38ec:	1ac78513          	addi	a0,a5,428
    38f0:	0ffe7e13          	andi	t3,t3,255
    38f4:	01c50e33          	add	t3,a0,t3
    38f8:	1ac78613          	addi	a2,a5,428
    38fc:	00100313          	li	t1,1
    3900:	14ce0c63          	beq	t3,a2,3a58 <pjpeg_decode_init+0x944>
    3904:	00164703          	lbu	a4,1(a2)
    3908:	00160613          	addi	a2,a2,1
    390c:	00e887b3          	add	a5,a7,a4
    3910:	0007c783          	lbu	a5,0(a5)
    3914:	00ec8733          	add	a4,s9,a4
    3918:	00074703          	lbu	a4,0(a4)
    391c:	00278793          	addi	a5,a5,2
    3920:	00f317b3          	sll	a5,t1,a5
    3924:	00e31733          	sll	a4,t1,a4
    3928:	00e7e7b3          	or	a5,a5,a4
    392c:	01d7f733          	and	a4,a5,t4
    3930:	fce788e3          	beq	a5,a4,3900 <pjpeg_decode_init+0x7ec>
    3934:	01800d13          	li	s10,24
    3938:	9adff06f          	j	32e4 <pjpeg_decode_init+0x1d0>
    393c:	000057b7          	lui	a5,0x5
    3940:	00005737          	lui	a4,0x5
    3944:	1b47d683          	lhu	a3,436(a5) # 51b4 <gRestartInterval>
    3948:	1d870613          	addi	a2,a4,472 # 51d8 <gLastDC>
    394c:	1c072c23          	sw	zero,472(a4)
    3950:	00061223          	sh	zero,4(a2)
    3954:	00068a63          	beqz	a3,3968 <pjpeg_decode_init+0x854>
    3958:	00005737          	lui	a4,0x5
    395c:	1ad71823          	sh	a3,432(a4) # 51b0 <gRestartsLeft>
    3960:	00005737          	lui	a4,0x5
    3964:	1a071923          	sh	zero,434(a4) # 51b2 <gNextRestartNum>
    3968:	1d1b4583          	lbu	a1,465(s6)
    396c:	1d0c4603          	lbu	a2,464(s8)
    3970:	1ccbc503          	lbu	a0,460(s7)
    3974:	fff58693          	addi	a3,a1,-1
    3978:	00160813          	addi	a6,a2,1
    397c:	1ce95703          	lhu	a4,462(s2)
    3980:	00005937          	lui	s2,0x5
    3984:	0ff6f693          	andi	a3,a3,255
    3988:	0ff87813          	andi	a6,a6,255
    398c:	87490913          	addi	s2,s2,-1932 # 4874 <gCoeffBuf>
    3990:	00050e63          	beqz	a0,39ac <pjpeg_decode_init+0x898>
    3994:	00d906b3          	add	a3,s2,a3
    3998:	ffe58593          	addi	a1,a1,-2
    399c:	00260613          	addi	a2,a2,2
    39a0:	38e68023          	sb	a4,896(a3)
    39a4:	0ff67813          	andi	a6,a2,255
    39a8:	0ff5f693          	andi	a3,a1,255
    39ac:	00d90633          	add	a2,s2,a3
    39b0:	00875713          	srli	a4,a4,0x8
    39b4:	38e60023          	sb	a4,896(a2)
    39b8:	00100593          	li	a1,1
    39bc:	00800713          	li	a4,8
    39c0:	00800513          	li	a0,8
    39c4:	1cdb08a3          	sb	a3,465(s6)
    39c8:	1d0c0823          	sb	a6,464(s8)
    39cc:	1ceb8623          	sb	a4,460(s7)
    39d0:	aa0fd0ef          	jal	ra,c70 <getBits>
    39d4:	00100593          	li	a1,1
    39d8:	00800513          	li	a0,8
    39dc:	a94fd0ef          	jal	ra,c70 <getBits>
    39e0:	18544d03          	lbu	s10,389(s0)
    39e4:	820d1ee3          	bnez	s10,3220 <pjpeg_decode_init+0x10c>
    39e8:	01412783          	lw	a5,20(sp)
    39ec:	1caadf03          	lhu	t5,458(s5)
    39f0:	1c89de83          	lhu	t4,456(s3)
    39f4:	1a07a303          	lw	t1,416(a5)
    39f8:	000057b7          	lui	a5,0x5
    39fc:	19a7d883          	lhu	a7,410(a5) # 519a <gMaxMCUSPerRow>
    3a00:	000057b7          	lui	a5,0x5
    3a04:	1987d803          	lhu	a6,408(a5) # 5198 <gMaxMCUSPerCol>
    3a08:	01812783          	lw	a5,24(sp)
    3a0c:	1c74ce03          	lbu	t3,455(s1)
    3a10:	28090613          	addi	a2,s2,640
    3a14:	19d7c503          	lbu	a0,413(a5)
    3a18:	01012783          	lw	a5,16(sp)
    3a1c:	08090693          	addi	a3,s2,128
    3a20:	18090913          	addi	s2,s2,384
    3a24:	19c7c583          	lbu	a1,412(a5)
    3a28:	01eda023          	sw	t5,0(s11)
    3a2c:	01dda223          	sw	t4,4(s11)
    3a30:	01cda423          	sw	t3,8(s11)
    3a34:	006daa23          	sw	t1,20(s11)
    3a38:	011da623          	sw	a7,12(s11)
    3a3c:	010da823          	sw	a6,16(s11)
    3a40:	00adac23          	sw	a0,24(s11)
    3a44:	00bdae23          	sw	a1,28(s11)
    3a48:	02cda023          	sw	a2,32(s11)
    3a4c:	02dda223          	sw	a3,36(s11)
    3a50:	032da423          	sw	s2,40(s11)
    3a54:	fccff06f          	j	3220 <pjpeg_decode_init+0x10c>
    3a58:	000057b7          	lui	a5,0x5
    3a5c:	000056b7          	lui	a3,0x5
    3a60:	1d37c803          	lbu	a6,467(a5) # 51d3 <gValidQuantTables>
    3a64:	1b868c93          	addi	s9,a3,440 # 51b8 <gCompQuant>
    3a68:	00058793          	mv	a5,a1
    3a6c:	0100006f          	j	3a7c <pjpeg_decode_init+0x968>
    3a70:	ecc506e3          	beq	a0,a2,393c <pjpeg_decode_init+0x828>
    3a74:	00154783          	lbu	a5,1(a0)
    3a78:	00150513          	addi	a0,a0,1
    3a7c:	00fc87b3          	add	a5,s9,a5
    3a80:	0007c783          	lbu	a5,0(a5)
    3a84:	00f037b3          	snez	a5,a5
    3a88:	00178793          	addi	a5,a5,1
    3a8c:	00f877b3          	and	a5,a6,a5
    3a90:	fe0790e3          	bnez	a5,3a70 <pjpeg_decode_init+0x95c>
    3a94:	01700d13          	li	s10,23
    3a98:	84dff06f          	j	32e4 <pjpeg_decode_init+0x1d0>
    3a9c:	00b00d13          	li	s10,11
    3aa0:	845ff06f          	j	32e4 <pjpeg_decode_init+0x1d0>
    3aa4:	00a00d13          	li	s10,10
    3aa8:	83dff06f          	j	32e4 <pjpeg_decode_init+0x1d0>
    3aac:	000057b7          	lui	a5,0x5
    3ab0:	1ac7a023          	sw	a2,416(a5) # 51a0 <gScanType>
    3ab4:	00005637          	lui	a2,0x5
    3ab8:	000055b7          	lui	a1,0x5
    3abc:	18d60f23          	sb	a3,414(a2) # 519e <gMaxBlocksPerMCU>
    3ac0:	10000693          	li	a3,256
    3ac4:	00800713          	li	a4,8
    3ac8:	00005837          	lui	a6,0x5
    3acc:	000058b7          	lui	a7,0x5
    3ad0:	19058513          	addi	a0,a1,400 # 5190 <gMCUOrg>
    3ad4:	18d59823          	sh	a3,400(a1)
    3ad8:	00200693          	li	a3,2
    3adc:	00d50123          	sb	a3,2(a0)
    3ae0:	00f12a23          	sw	a5,20(sp)
    3ae4:	01012c23          	sw	a6,24(sp)
    3ae8:	01112823          	sw	a7,16(sp)
    3aec:	18e80ea3          	sb	a4,413(a6) # 519d <gMaxMCUXSize>
    3af0:	18e88e23          	sb	a4,412(a7) # 519c <gMaxMCUYSize>
    3af4:	00700613          	li	a2,7
    3af8:	00800693          	li	a3,8
    3afc:	c31ff06f          	j	372c <pjpeg_decode_init+0x618>
    3b00:	000057b7          	lui	a5,0x5
    3b04:	00200713          	li	a4,2
    3b08:	00400693          	li	a3,4
    3b0c:	1ae7a023          	sw	a4,416(a5) # 51a0 <gScanType>
    3b10:	00005737          	lui	a4,0x5
    3b14:	18d70f23          	sb	a3,414(a4) # 519e <gMaxBlocksPerMCU>
    3b18:	00005737          	lui	a4,0x5
    3b1c:	020106b7          	lui	a3,0x2010
    3b20:	00005637          	lui	a2,0x5
    3b24:	18d72823          	sw	a3,400(a4) # 5190 <gMCUOrg>
    3b28:	01000713          	li	a4,16
    3b2c:	000055b7          	lui	a1,0x5
    3b30:	18e60ea3          	sb	a4,413(a2) # 519d <gMaxMCUXSize>
    3b34:	00800713          	li	a4,8
    3b38:	00c12c23          	sw	a2,24(sp)
    3b3c:	00f12a23          	sw	a5,20(sp)
    3b40:	00b12823          	sw	a1,16(sp)
    3b44:	18e58e23          	sb	a4,412(a1) # 519c <gMaxMCUYSize>
    3b48:	00700613          	li	a2,7
    3b4c:	00800693          	li	a3,8
    3b50:	a29ff06f          	j	3578 <pjpeg_decode_init+0x464>

00003b54 <pjpeg_need_bytes_callback>:
    3b54:	ff010113          	addi	sp,sp,-16
    3b58:	00912223          	sw	s1,4(sp)
    3b5c:	000054b7          	lui	s1,0x5
    3b60:	1e04a783          	lw	a5,480(s1) # 51e0 <jpeg_off>
    3b64:	00812423          	sw	s0,8(sp)
    3b68:	23a00413          	li	s0,570
    3b6c:	01212023          	sw	s2,0(sp)
    3b70:	00112623          	sw	ra,12(sp)
    3b74:	40f40433          	sub	s0,s0,a5
    3b78:	00060913          	mv	s2,a2
    3b7c:	0085f463          	bgeu	a1,s0,3b84 <pjpeg_need_bytes_callback+0x30>
    3b80:	00058413          	mv	s0,a1
    3b84:	000045b7          	lui	a1,0x4
    3b88:	56058593          	addi	a1,a1,1376 # 4560 <jpeg_data>
    3b8c:	00040613          	mv	a2,s0
    3b90:	00f585b3          	add	a1,a1,a5
    3b94:	62c000ef          	jal	ra,41c0 <memcpy>
    3b98:	00890023          	sb	s0,0(s2)
    3b9c:	1e04a783          	lw	a5,480(s1)
    3ba0:	00c12083          	lw	ra,12(sp)
    3ba4:	00012903          	lw	s2,0(sp)
    3ba8:	00878433          	add	s0,a5,s0
    3bac:	1e84a023          	sw	s0,480(s1)
    3bb0:	00812403          	lw	s0,8(sp)
    3bb4:	00412483          	lw	s1,4(sp)
    3bb8:	00000513          	li	a0,0
    3bbc:	01010113          	addi	sp,sp,16
    3bc0:	00008067          	ret

00003bc4 <benchmark_body>:
    3bc4:	08a05663          	blez	a0,3c50 <benchmark_body+0x8c>
    3bc8:	fe010113          	addi	sp,sp,-32
    3bcc:	00812c23          	sw	s0,24(sp)
    3bd0:	00912a23          	sw	s1,20(sp)
    3bd4:	01212823          	sw	s2,16(sp)
    3bd8:	01312623          	sw	s3,12(sp)
    3bdc:	01412423          	sw	s4,8(sp)
    3be0:	01512223          	sw	s5,4(sp)
    3be4:	00112e23          	sw	ra,28(sp)
    3be8:	00050913          	mv	s2,a0
    3bec:	00000493          	li	s1,0
    3bf0:	00005ab7          	lui	s5,0x5
    3bf4:	00004a37          	lui	s4,0x4
    3bf8:	000059b7          	lui	s3,0x5
    3bfc:	00100413          	li	s0,1
    3c00:	00000693          	li	a3,0
    3c04:	00000613          	li	a2,0
    3c08:	b54a0593          	addi	a1,s4,-1196 # 3b54 <pjpeg_need_bytes_callback>
    3c0c:	15898513          	addi	a0,s3,344 # 5158 <pInfo>
    3c10:	1e0aa023          	sw	zero,480(s5) # 51e0 <jpeg_off>
    3c14:	d00ff0ef          	jal	ra,3114 <pjpeg_decode_init>
    3c18:	facfd0ef          	jal	ra,13c4 <pjpeg_decode_mcu>
    3c1c:	fe851ee3          	bne	a0,s0,3c18 <benchmark_body+0x54>
    3c20:	00148493          	addi	s1,s1,1
    3c24:	fc991ee3          	bne	s2,s1,3c00 <benchmark_body+0x3c>
    3c28:	01c12083          	lw	ra,28(sp)
    3c2c:	01812403          	lw	s0,24(sp)
    3c30:	01412483          	lw	s1,20(sp)
    3c34:	01012903          	lw	s2,16(sp)
    3c38:	00c12983          	lw	s3,12(sp)
    3c3c:	00812a03          	lw	s4,8(sp)
    3c40:	00412a83          	lw	s5,4(sp)
    3c44:	00000513          	li	a0,0
    3c48:	02010113          	addi	sp,sp,32
    3c4c:	00008067          	ret
    3c50:	00000513          	li	a0,0
    3c54:	00008067          	ret

00003c58 <verify_benchmark>:
    3c58:	ff010113          	addi	sp,sp,-16
    3c5c:	00912223          	sw	s1,4(sp)
    3c60:	000054b7          	lui	s1,0x5
    3c64:	15848493          	addi	s1,s1,344 # 5158 <pInfo>
    3c68:	00812423          	sw	s0,8(sp)
    3c6c:	0204a503          	lw	a0,32(s1)
    3c70:	00004437          	lui	s0,0x4
    3c74:	56040413          	addi	s0,s0,1376 # 4560 <jpeg_data>
    3c78:	04000613          	li	a2,64
    3c7c:	23c40593          	addi	a1,s0,572
    3c80:	01212023          	sw	s2,0(sp)
    3c84:	00112623          	sw	ra,12(sp)
    3c88:	4b0000ef          	jal	ra,4138 <memcmp>
    3c8c:	00000913          	li	s2,0
    3c90:	02051863          	bnez	a0,3cc0 <verify_benchmark+0x68>
    3c94:	00050913          	mv	s2,a0
    3c98:	0244a503          	lw	a0,36(s1)
    3c9c:	04000613          	li	a2,64
    3ca0:	27c40593          	addi	a1,s0,636
    3ca4:	494000ef          	jal	ra,4138 <memcmp>
    3ca8:	00051c63          	bnez	a0,3cc0 <verify_benchmark+0x68>
    3cac:	0284a503          	lw	a0,40(s1)
    3cb0:	04000613          	li	a2,64
    3cb4:	2bc40593          	addi	a1,s0,700
    3cb8:	480000ef          	jal	ra,4138 <memcmp>
    3cbc:	00153913          	seqz	s2,a0
    3cc0:	00c12083          	lw	ra,12(sp)
    3cc4:	00812403          	lw	s0,8(sp)
    3cc8:	00090513          	mv	a0,s2
    3ccc:	00412483          	lw	s1,4(sp)
    3cd0:	00012903          	lw	s2,0(sp)
    3cd4:	01010113          	addi	sp,sp,16
    3cd8:	00008067          	ret

00003cdc <initialise_benchmark>:
    3cdc:	00008067          	ret

00003ce0 <warm_caches>:
    3ce0:	ee5ff06f          	j	3bc4 <benchmark_body>

00003ce4 <benchmark>:
    3ce4:	1f400513          	li	a0,500
    3ce8:	eddff06f          	j	3bc4 <benchmark_body>

00003cec <initialise_board>:
    3cec:	00000513          	li	a0,0
    3cf0:	00008067          	ret

00003cf4 <start_trigger>:
    3cf4:	00000513          	li	a0,0
    3cf8:	00008067          	ret

00003cfc <stop_trigger>:
    3cfc:	00000513          	li	a0,0
    3d00:	00008067          	ret

00003d04 <rand_beebs>:
    3d04:	000056b7          	lui	a3,0x5
    3d08:	1f06a703          	lw	a4,496(a3) # 51f0 <seed>
    3d0c:	00871793          	slli	a5,a4,0x8
    3d10:	40e787b3          	sub	a5,a5,a4
    3d14:	00379793          	slli	a5,a5,0x3
    3d18:	00e787b3          	add	a5,a5,a4
    3d1c:	00779793          	slli	a5,a5,0x7
    3d20:	00e787b3          	add	a5,a5,a4
    3d24:	00379793          	slli	a5,a5,0x3
    3d28:	40e787b3          	sub	a5,a5,a4
    3d2c:	00579513          	slli	a0,a5,0x5
    3d30:	00a78533          	add	a0,a5,a0
    3d34:	00251513          	slli	a0,a0,0x2
    3d38:	40e50533          	sub	a0,a0,a4
    3d3c:	00251513          	slli	a0,a0,0x2
    3d40:	000037b7          	lui	a5,0x3
    3d44:	00e50533          	add	a0,a0,a4
    3d48:	03978793          	addi	a5,a5,57 # 3039 <pjpeg_decode_mcu+0x1c75>
    3d4c:	00f50533          	add	a0,a0,a5
    3d50:	00151513          	slli	a0,a0,0x1
    3d54:	00155513          	srli	a0,a0,0x1
    3d58:	1ea6a823          	sw	a0,496(a3)
    3d5c:	01055513          	srli	a0,a0,0x10
    3d60:	00008067          	ret

00003d64 <srand_beebs>:
    3d64:	000057b7          	lui	a5,0x5
    3d68:	1ea7a823          	sw	a0,496(a5) # 51f0 <seed>
    3d6c:	00008067          	ret

00003d70 <init_heap_beebs>:
    3d70:	000057b7          	lui	a5,0x5
    3d74:	00b505b3          	add	a1,a0,a1
    3d78:	1ea7a623          	sw	a0,492(a5) # 51ec <heap_ptr>
    3d7c:	000057b7          	lui	a5,0x5
    3d80:	1eb7a423          	sw	a1,488(a5) # 51e8 <heap_end>
    3d84:	000057b7          	lui	a5,0x5
    3d88:	1e07a223          	sw	zero,484(a5) # 51e4 <heap_requested>
    3d8c:	00008067          	ret

00003d90 <check_heap_beebs>:
    3d90:	000057b7          	lui	a5,0x5
    3d94:	1e47a703          	lw	a4,484(a5) # 51e4 <heap_requested>
    3d98:	000057b7          	lui	a5,0x5
    3d9c:	1e87a783          	lw	a5,488(a5) # 51e8 <heap_end>
    3da0:	00e50533          	add	a0,a0,a4
    3da4:	00a7b533          	sltu	a0,a5,a0
    3da8:	00154513          	xori	a0,a0,1
    3dac:	00008067          	ret

00003db0 <malloc_beebs>:
    3db0:	000056b7          	lui	a3,0x5
    3db4:	1e46a783          	lw	a5,484(a3) # 51e4 <heap_requested>
    3db8:	00005637          	lui	a2,0x5
    3dbc:	1ec62703          	lw	a4,492(a2) # 51ec <heap_ptr>
    3dc0:	000055b7          	lui	a1,0x5
    3dc4:	1e85a583          	lw	a1,488(a1) # 51e8 <heap_end>
    3dc8:	00a787b3          	add	a5,a5,a0
    3dcc:	1ef6a223          	sw	a5,484(a3)
    3dd0:	00a707b3          	add	a5,a4,a0
    3dd4:	00f5ea63          	bltu	a1,a5,3de8 <malloc_beebs+0x38>
    3dd8:	00050863          	beqz	a0,3de8 <malloc_beebs+0x38>
    3ddc:	1ef62623          	sw	a5,492(a2)
    3de0:	00070513          	mv	a0,a4
    3de4:	00008067          	ret
    3de8:	00000713          	li	a4,0
    3dec:	00070513          	mv	a0,a4
    3df0:	00008067          	ret

00003df4 <calloc_beebs>:
    3df4:	ff010113          	addi	sp,sp,-16
    3df8:	00112623          	sw	ra,12(sp)
    3dfc:	264000ef          	jal	ra,4060 <__mulsi3>
    3e00:	000056b7          	lui	a3,0x5
    3e04:	1e46a703          	lw	a4,484(a3) # 51e4 <heap_requested>
    3e08:	00005637          	lui	a2,0x5
    3e0c:	1ec62783          	lw	a5,492(a2) # 51ec <heap_ptr>
    3e10:	000055b7          	lui	a1,0x5
    3e14:	1e85a583          	lw	a1,488(a1) # 51e8 <heap_end>
    3e18:	00a70733          	add	a4,a4,a0
    3e1c:	1ee6a223          	sw	a4,484(a3)
    3e20:	00a78733          	add	a4,a5,a0
    3e24:	02e5ea63          	bltu	a1,a4,3e58 <calloc_beebs+0x64>
    3e28:	02050863          	beqz	a0,3e58 <calloc_beebs+0x64>
    3e2c:	1ee62623          	sw	a4,492(a2)
    3e30:	00078c63          	beqz	a5,3e48 <calloc_beebs+0x54>
    3e34:	00050613          	mv	a2,a0
    3e38:	00000593          	li	a1,0
    3e3c:	00078513          	mv	a0,a5
    3e40:	49c000ef          	jal	ra,42dc <memset>
    3e44:	00050793          	mv	a5,a0
    3e48:	00c12083          	lw	ra,12(sp)
    3e4c:	00078513          	mv	a0,a5
    3e50:	01010113          	addi	sp,sp,16
    3e54:	00008067          	ret
    3e58:	00c12083          	lw	ra,12(sp)
    3e5c:	00000793          	li	a5,0
    3e60:	00078513          	mv	a0,a5
    3e64:	01010113          	addi	sp,sp,16
    3e68:	00008067          	ret

00003e6c <realloc_beebs>:
    3e6c:	00005737          	lui	a4,0x5
    3e70:	1e472783          	lw	a5,484(a4) # 51e4 <heap_requested>
    3e74:	00005637          	lui	a2,0x5
    3e78:	1ec62683          	lw	a3,492(a2) # 51ec <heap_ptr>
    3e7c:	00005837          	lui	a6,0x5
    3e80:	1e882803          	lw	a6,488(a6) # 51e8 <heap_end>
    3e84:	00b787b3          	add	a5,a5,a1
    3e88:	1ef72223          	sw	a5,484(a4)
    3e8c:	00b687b3          	add	a5,a3,a1
    3e90:	02f86a63          	bltu	a6,a5,3ec4 <realloc_beebs+0x58>
    3e94:	02058863          	beqz	a1,3ec4 <realloc_beebs+0x58>
    3e98:	1ef62623          	sw	a5,492(a2)
    3e9c:	02050063          	beqz	a0,3ebc <realloc_beebs+0x50>
    3ea0:	00068793          	mv	a5,a3
    3ea4:	00b505b3          	add	a1,a0,a1
    3ea8:	00054703          	lbu	a4,0(a0)
    3eac:	00178793          	addi	a5,a5,1
    3eb0:	00150513          	addi	a0,a0,1
    3eb4:	fee78fa3          	sb	a4,-1(a5)
    3eb8:	feb518e3          	bne	a0,a1,3ea8 <realloc_beebs+0x3c>
    3ebc:	00068513          	mv	a0,a3
    3ec0:	00008067          	ret
    3ec4:	00000693          	li	a3,0
    3ec8:	00068513          	mv	a0,a3
    3ecc:	00008067          	ret

00003ed0 <free_beebs>:
    3ed0:	00008067          	ret

00003ed4 <simrv_exit>:
    3ed4:	000057b7          	lui	a5,0x5
    3ed8:	1f47a783          	lw	a5,500(a5) # 51f4 <TOHOST_ADDR>
    3edc:	00020737          	lui	a4,0x20
    3ee0:	00e7a023          	sw	a4,0(a5)
    3ee4:	0000006f          	j	3ee4 <simrv_exit+0x10>

00003ee8 <simrv_putc>:
    3ee8:	000057b7          	lui	a5,0x5
    3eec:	1f47a703          	lw	a4,500(a5) # 51f4 <TOHOST_ADDR>
    3ef0:	000107b7          	lui	a5,0x10
    3ef4:	00f56533          	or	a0,a0,a5
    3ef8:	00a72023          	sw	a0,0(a4) # 20000 <TOHOST_ADDR+0x1ae0c>
    3efc:	00008067          	ret

00003f00 <simrv_puts>:
    3f00:	00054783          	lbu	a5,0(a0)
    3f04:	02078263          	beqz	a5,3f28 <simrv_puts+0x28>
    3f08:	00005737          	lui	a4,0x5
    3f0c:	1f472683          	lw	a3,500(a4) # 51f4 <TOHOST_ADDR>
    3f10:	00010737          	lui	a4,0x10
    3f14:	00e7e7b3          	or	a5,a5,a4
    3f18:	00f6a023          	sw	a5,0(a3)
    3f1c:	00150513          	addi	a0,a0,1
    3f20:	00054783          	lbu	a5,0(a0)
    3f24:	fe0798e3          	bnez	a5,3f14 <simrv_puts+0x14>
    3f28:	00008067          	ret

00003f2c <simrv_puti>:
    3f2c:	fd010113          	addi	sp,sp,-48
    3f30:	02912223          	sw	s1,36(sp)
    3f34:	03212023          	sw	s2,32(sp)
    3f38:	01412c23          	sw	s4,24(sp)
    3f3c:	02112623          	sw	ra,44(sp)
    3f40:	02812423          	sw	s0,40(sp)
    3f44:	01312e23          	sw	s3,28(sp)
    3f48:	00050913          	mv	s2,a0
    3f4c:	00000493          	li	s1,0
    3f50:	00410a13          	addi	s4,sp,4
    3f54:	0080006f          	j	3f5c <simrv_puti+0x30>
    3f58:	00098493          	mv	s1,s3
    3f5c:	00a00593          	li	a1,10
    3f60:	00090513          	mv	a0,s2
    3f64:	1a4000ef          	jal	ra,4108 <__modsi3>
    3f68:	03050513          	addi	a0,a0,48
    3f6c:	00148993          	addi	s3,s1,1
    3f70:	0ff57413          	andi	s0,a0,255
    3f74:	013a07b3          	add	a5,s4,s3
    3f78:	00090513          	mv	a0,s2
    3f7c:	00a00593          	li	a1,10
    3f80:	fe878fa3          	sb	s0,-1(a5) # ffff <TOHOST_ADDR+0xae0b>
    3f84:	100000ef          	jal	ra,4084 <__divsi3>
    3f88:	00050913          	mv	s2,a0
    3f8c:	fc0516e3          	bnez	a0,3f58 <simrv_puti+0x2c>
    3f90:	000057b7          	lui	a5,0x5
    3f94:	1f47a603          	lw	a2,500(a5) # 51f4 <TOHOST_ADDR>
    3f98:	000106b7          	lui	a3,0x10
    3f9c:	009a07b3          	add	a5,s4,s1
    3fa0:	00c0006f          	j	3fac <simrv_puti+0x80>
    3fa4:	fff7c403          	lbu	s0,-1(a5)
    3fa8:	00070793          	mv	a5,a4
    3fac:	00d46433          	or	s0,s0,a3
    3fb0:	00862023          	sw	s0,0(a2)
    3fb4:	fff78713          	addi	a4,a5,-1
    3fb8:	fefa16e3          	bne	s4,a5,3fa4 <simrv_puti+0x78>
    3fbc:	02c12083          	lw	ra,44(sp)
    3fc0:	02812403          	lw	s0,40(sp)
    3fc4:	02412483          	lw	s1,36(sp)
    3fc8:	02012903          	lw	s2,32(sp)
    3fcc:	01c12983          	lw	s3,28(sp)
    3fd0:	01812a03          	lw	s4,24(sp)
    3fd4:	03010113          	addi	sp,sp,48
    3fd8:	00008067          	ret

00003fdc <simrv_puth>:
    3fdc:	ff010113          	addi	sp,sp,-16
    3fe0:	00000793          	li	a5,0
    3fe4:	00810593          	addi	a1,sp,8
    3fe8:	00900e13          	li	t3,9
    3fec:	0140006f          	j	4000 <simrv_puth+0x24>
    3ff0:	fe688fa3          	sb	t1,-1(a7)
    3ff4:	00455513          	srli	a0,a0,0x4
    3ff8:	02050863          	beqz	a0,4028 <simrv_puth+0x4c>
    3ffc:	00060793          	mv	a5,a2
    4000:	00f57713          	andi	a4,a0,15
    4004:	0ff77693          	andi	a3,a4,255
    4008:	00178613          	addi	a2,a5,1
    400c:	03068313          	addi	t1,a3,48 # 10030 <TOHOST_ADDR+0xae3c>
    4010:	00c588b3          	add	a7,a1,a2
    4014:	03768693          	addi	a3,a3,55
    4018:	fcee7ce3          	bgeu	t3,a4,3ff0 <simrv_puth+0x14>
    401c:	fed88fa3          	sb	a3,-1(a7)
    4020:	00455513          	srli	a0,a0,0x4
    4024:	fc051ce3          	bnez	a0,3ffc <simrv_puth+0x20>
    4028:	0207c863          	bltz	a5,4058 <simrv_puth+0x7c>
    402c:	00005737          	lui	a4,0x5
    4030:	1f472503          	lw	a0,500(a4) # 51f4 <TOHOST_ADDR>
    4034:	00f587b3          	add	a5,a1,a5
    4038:	00010637          	lui	a2,0x10
    403c:	0080006f          	j	4044 <simrv_puth+0x68>
    4040:	00068793          	mv	a5,a3
    4044:	0007c703          	lbu	a4,0(a5)
    4048:	fff78693          	addi	a3,a5,-1
    404c:	00c76733          	or	a4,a4,a2
    4050:	00e52023          	sw	a4,0(a0)
    4054:	fef596e3          	bne	a1,a5,4040 <simrv_puth+0x64>
    4058:	01010113          	addi	sp,sp,16
    405c:	00008067          	ret

00004060 <__mulsi3>:
    4060:	00050613          	mv	a2,a0
    4064:	00000513          	li	a0,0
    4068:	0015f693          	andi	a3,a1,1
    406c:	00068463          	beqz	a3,4074 <__mulsi3+0x14>
    4070:	00c50533          	add	a0,a0,a2
    4074:	0015d593          	srli	a1,a1,0x1
    4078:	00161613          	slli	a2,a2,0x1
    407c:	fe0596e3          	bnez	a1,4068 <__mulsi3+0x8>
    4080:	00008067          	ret

00004084 <__divsi3>:
    4084:	06054063          	bltz	a0,40e4 <__umodsi3+0x10>
    4088:	0605c663          	bltz	a1,40f4 <__umodsi3+0x20>

0000408c <__udivsi3>:
    408c:	00058613          	mv	a2,a1
    4090:	00050593          	mv	a1,a0
    4094:	fff00513          	li	a0,-1
    4098:	02060c63          	beqz	a2,40d0 <__udivsi3+0x44>
    409c:	00100693          	li	a3,1
    40a0:	00b67a63          	bgeu	a2,a1,40b4 <__udivsi3+0x28>
    40a4:	00c05863          	blez	a2,40b4 <__udivsi3+0x28>
    40a8:	00161613          	slli	a2,a2,0x1
    40ac:	00169693          	slli	a3,a3,0x1
    40b0:	feb66ae3          	bltu	a2,a1,40a4 <__udivsi3+0x18>
    40b4:	00000513          	li	a0,0
    40b8:	00c5e663          	bltu	a1,a2,40c4 <__udivsi3+0x38>
    40bc:	40c585b3          	sub	a1,a1,a2
    40c0:	00d56533          	or	a0,a0,a3
    40c4:	0016d693          	srli	a3,a3,0x1
    40c8:	00165613          	srli	a2,a2,0x1
    40cc:	fe0696e3          	bnez	a3,40b8 <__udivsi3+0x2c>
    40d0:	00008067          	ret

000040d4 <__umodsi3>:
    40d4:	00008293          	mv	t0,ra
    40d8:	fb5ff0ef          	jal	ra,408c <__udivsi3>
    40dc:	00058513          	mv	a0,a1
    40e0:	00028067          	jr	t0
    40e4:	40a00533          	neg	a0,a0
    40e8:	0005d863          	bgez	a1,40f8 <__umodsi3+0x24>
    40ec:	40b005b3          	neg	a1,a1
    40f0:	f9dff06f          	j	408c <__udivsi3>
    40f4:	40b005b3          	neg	a1,a1
    40f8:	00008293          	mv	t0,ra
    40fc:	f91ff0ef          	jal	ra,408c <__udivsi3>
    4100:	40a00533          	neg	a0,a0
    4104:	00028067          	jr	t0

00004108 <__modsi3>:
    4108:	00008293          	mv	t0,ra
    410c:	0005ca63          	bltz	a1,4120 <__modsi3+0x18>
    4110:	00054c63          	bltz	a0,4128 <__modsi3+0x20>
    4114:	f79ff0ef          	jal	ra,408c <__udivsi3>
    4118:	00058513          	mv	a0,a1
    411c:	00028067          	jr	t0
    4120:	40b005b3          	neg	a1,a1
    4124:	fe0558e3          	bgez	a0,4114 <__modsi3+0xc>
    4128:	40a00533          	neg	a0,a0
    412c:	f61ff0ef          	jal	ra,408c <__udivsi3>
    4130:	40b00533          	neg	a0,a1
    4134:	00028067          	jr	t0

00004138 <memcmp>:
    4138:	00300793          	li	a5,3
    413c:	02c7f863          	bgeu	a5,a2,416c <memcmp+0x34>
    4140:	00b567b3          	or	a5,a0,a1
    4144:	0037f793          	andi	a5,a5,3
    4148:	00300693          	li	a3,3
    414c:	06079263          	bnez	a5,41b0 <memcmp+0x78>
    4150:	00052703          	lw	a4,0(a0)
    4154:	0005a783          	lw	a5,0(a1)
    4158:	04f71c63          	bne	a4,a5,41b0 <memcmp+0x78>
    415c:	ffc60613          	addi	a2,a2,-4 # fffc <TOHOST_ADDR+0xae08>
    4160:	00450513          	addi	a0,a0,4
    4164:	00458593          	addi	a1,a1,4
    4168:	fec6e4e3          	bltu	a3,a2,4150 <memcmp+0x18>
    416c:	fff60793          	addi	a5,a2,-1
    4170:	02060c63          	beqz	a2,41a8 <memcmp+0x70>
    4174:	00054703          	lbu	a4,0(a0)
    4178:	0005c683          	lbu	a3,0(a1)
    417c:	02d71e63          	bne	a4,a3,41b8 <memcmp+0x80>
    4180:	00178713          	addi	a4,a5,1
    4184:	00150793          	addi	a5,a0,1
    4188:	00e50533          	add	a0,a0,a4
    418c:	0140006f          	j	41a0 <memcmp+0x68>
    4190:	0007c703          	lbu	a4,0(a5)
    4194:	0005c683          	lbu	a3,0(a1)
    4198:	00178793          	addi	a5,a5,1
    419c:	00d71e63          	bne	a4,a3,41b8 <memcmp+0x80>
    41a0:	00158593          	addi	a1,a1,1
    41a4:	fea796e3          	bne	a5,a0,4190 <memcmp+0x58>
    41a8:	00000513          	li	a0,0
    41ac:	00008067          	ret
    41b0:	fff60793          	addi	a5,a2,-1
    41b4:	fc1ff06f          	j	4174 <memcmp+0x3c>
    41b8:	40d70533          	sub	a0,a4,a3
    41bc:	00008067          	ret

000041c0 <memcpy>:
    41c0:	00a5c7b3          	xor	a5,a1,a0
    41c4:	0037f793          	andi	a5,a5,3
    41c8:	00c508b3          	add	a7,a0,a2
    41cc:	06079263          	bnez	a5,4230 <memcpy+0x70>
    41d0:	00300793          	li	a5,3
    41d4:	04c7fe63          	bgeu	a5,a2,4230 <memcpy+0x70>
    41d8:	00357793          	andi	a5,a0,3
    41dc:	00050713          	mv	a4,a0
    41e0:	06079863          	bnez	a5,4250 <memcpy+0x90>
    41e4:	ffc8f613          	andi	a2,a7,-4
    41e8:	fe060793          	addi	a5,a2,-32
    41ec:	08f76c63          	bltu	a4,a5,4284 <memcpy+0xc4>
    41f0:	02c77c63          	bgeu	a4,a2,4228 <memcpy+0x68>
    41f4:	00058693          	mv	a3,a1
    41f8:	00070793          	mv	a5,a4
    41fc:	0006a803          	lw	a6,0(a3)
    4200:	00478793          	addi	a5,a5,4
    4204:	00468693          	addi	a3,a3,4
    4208:	ff07ae23          	sw	a6,-4(a5)
    420c:	fec7e8e3          	bltu	a5,a2,41fc <memcpy+0x3c>
    4210:	fff60793          	addi	a5,a2,-1
    4214:	40e787b3          	sub	a5,a5,a4
    4218:	ffc7f793          	andi	a5,a5,-4
    421c:	00478793          	addi	a5,a5,4
    4220:	00f70733          	add	a4,a4,a5
    4224:	00f585b3          	add	a1,a1,a5
    4228:	01176863          	bltu	a4,a7,4238 <memcpy+0x78>
    422c:	00008067          	ret
    4230:	00050713          	mv	a4,a0
    4234:	ff157ce3          	bgeu	a0,a7,422c <memcpy+0x6c>
    4238:	0005c783          	lbu	a5,0(a1)
    423c:	00170713          	addi	a4,a4,1
    4240:	00158593          	addi	a1,a1,1
    4244:	fef70fa3          	sb	a5,-1(a4)
    4248:	ff1768e3          	bltu	a4,a7,4238 <memcpy+0x78>
    424c:	00008067          	ret
    4250:	0005c683          	lbu	a3,0(a1)
    4254:	00170713          	addi	a4,a4,1
    4258:	00377793          	andi	a5,a4,3
    425c:	fed70fa3          	sb	a3,-1(a4)
    4260:	00158593          	addi	a1,a1,1
    4264:	f80780e3          	beqz	a5,41e4 <memcpy+0x24>
    4268:	0005c683          	lbu	a3,0(a1)
    426c:	00170713          	addi	a4,a4,1
    4270:	00377793          	andi	a5,a4,3
    4274:	fed70fa3          	sb	a3,-1(a4)
    4278:	00158593          	addi	a1,a1,1
    427c:	fc079ae3          	bnez	a5,4250 <memcpy+0x90>
    4280:	f65ff06f          	j	41e4 <memcpy+0x24>
    4284:	0005a683          	lw	a3,0(a1)
    4288:	0045a283          	lw	t0,4(a1)
    428c:	0085af83          	lw	t6,8(a1)
    4290:	00c5af03          	lw	t5,12(a1)
    4294:	0105ae83          	lw	t4,16(a1)
    4298:	0145ae03          	lw	t3,20(a1)
    429c:	0185a303          	lw	t1,24(a1)
    42a0:	01c5a803          	lw	a6,28(a1)
    42a4:	02458593          	addi	a1,a1,36
    42a8:	00d72023          	sw	a3,0(a4)
    42ac:	ffc5a683          	lw	a3,-4(a1)
    42b0:	00572223          	sw	t0,4(a4)
    42b4:	01f72423          	sw	t6,8(a4)
    42b8:	01e72623          	sw	t5,12(a4)
    42bc:	01d72823          	sw	t4,16(a4)
    42c0:	01c72a23          	sw	t3,20(a4)
    42c4:	00672c23          	sw	t1,24(a4)
    42c8:	01072e23          	sw	a6,28(a4)
    42cc:	02470713          	addi	a4,a4,36
    42d0:	fed72e23          	sw	a3,-4(a4)
    42d4:	faf768e3          	bltu	a4,a5,4284 <memcpy+0xc4>
    42d8:	f19ff06f          	j	41f0 <memcpy+0x30>

000042dc <memset>:
    42dc:	00f00313          	li	t1,15
    42e0:	00050713          	mv	a4,a0
    42e4:	02c37e63          	bgeu	t1,a2,4320 <memset+0x44>
    42e8:	00f77793          	andi	a5,a4,15
    42ec:	0a079063          	bnez	a5,438c <memset+0xb0>
    42f0:	08059263          	bnez	a1,4374 <memset+0x98>
    42f4:	ff067693          	andi	a3,a2,-16
    42f8:	00f67613          	andi	a2,a2,15
    42fc:	00e686b3          	add	a3,a3,a4
    4300:	00b72023          	sw	a1,0(a4)
    4304:	00b72223          	sw	a1,4(a4)
    4308:	00b72423          	sw	a1,8(a4)
    430c:	00b72623          	sw	a1,12(a4)
    4310:	01070713          	addi	a4,a4,16
    4314:	fed766e3          	bltu	a4,a3,4300 <memset+0x24>
    4318:	00061463          	bnez	a2,4320 <memset+0x44>
    431c:	00008067          	ret
    4320:	40c306b3          	sub	a3,t1,a2
    4324:	00269693          	slli	a3,a3,0x2
    4328:	00000297          	auipc	t0,0x0
    432c:	005686b3          	add	a3,a3,t0
    4330:	00c68067          	jr	12(a3)
    4334:	00b70723          	sb	a1,14(a4)
    4338:	00b706a3          	sb	a1,13(a4)
    433c:	00b70623          	sb	a1,12(a4)
    4340:	00b705a3          	sb	a1,11(a4)
    4344:	00b70523          	sb	a1,10(a4)
    4348:	00b704a3          	sb	a1,9(a4)
    434c:	00b70423          	sb	a1,8(a4)
    4350:	00b703a3          	sb	a1,7(a4)
    4354:	00b70323          	sb	a1,6(a4)
    4358:	00b702a3          	sb	a1,5(a4)
    435c:	00b70223          	sb	a1,4(a4)
    4360:	00b701a3          	sb	a1,3(a4)
    4364:	00b70123          	sb	a1,2(a4)
    4368:	00b700a3          	sb	a1,1(a4)
    436c:	00b70023          	sb	a1,0(a4)
    4370:	00008067          	ret
    4374:	0ff5f593          	andi	a1,a1,255
    4378:	00859693          	slli	a3,a1,0x8
    437c:	00d5e5b3          	or	a1,a1,a3
    4380:	01059693          	slli	a3,a1,0x10
    4384:	00d5e5b3          	or	a1,a1,a3
    4388:	f6dff06f          	j	42f4 <memset+0x18>
    438c:	00279693          	slli	a3,a5,0x2
    4390:	00000297          	auipc	t0,0x0
    4394:	005686b3          	add	a3,a3,t0
    4398:	00008293          	mv	t0,ra
    439c:	fa0680e7          	jalr	-96(a3)
    43a0:	00028093          	mv	ra,t0
    43a4:	ff078793          	addi	a5,a5,-16
    43a8:	40f70733          	sub	a4,a4,a5
    43ac:	00f60633          	add	a2,a2,a5
    43b0:	f6c378e3          	bgeu	t1,a2,4320 <memset+0x44>
    43b4:	f3dff06f          	j	42f0 <memset+0x14>

Disassembly of section .text.startup:

000043b8 <main>:
    43b8:	fe010113          	addi	sp,sp,-32
    43bc:	00112e23          	sw	ra,28(sp)
    43c0:	00812c23          	sw	s0,24(sp)
    43c4:	929ff0ef          	jal	ra,3cec <initialise_board>
    43c8:	915ff0ef          	jal	ra,3cdc <initialise_benchmark>
    43cc:	00100513          	li	a0,1
    43d0:	911ff0ef          	jal	ra,3ce0 <warm_caches>
    43d4:	921ff0ef          	jal	ra,3cf4 <start_trigger>
    43d8:	90dff0ef          	jal	ra,3ce4 <benchmark>
    43dc:	00a12623          	sw	a0,12(sp)
    43e0:	91dff0ef          	jal	ra,3cfc <stop_trigger>
    43e4:	00c12503          	lw	a0,12(sp)
    43e8:	871ff0ef          	jal	ra,3c58 <verify_benchmark>
    43ec:	00050413          	mv	s0,a0
    43f0:	02050463          	beqz	a0,4418 <main+0x60>
    43f4:	00005537          	lui	a0,0x5
    43f8:	85c50513          	addi	a0,a0,-1956 # 485c <b_ref.2046+0x40>
    43fc:	b05ff0ef          	jal	ra,3f00 <simrv_puts>
    4400:	ad5ff0ef          	jal	ra,3ed4 <simrv_exit>
    4404:	00143513          	seqz	a0,s0
    4408:	01c12083          	lw	ra,28(sp)
    440c:	01812403          	lw	s0,24(sp)
    4410:	02010113          	addi	sp,sp,32
    4414:	00008067          	ret
    4418:	00005537          	lui	a0,0x5
    441c:	86850513          	addi	a0,a0,-1944 # 4868 <b_ref.2046+0x4c>
    4420:	ae1ff0ef          	jal	ra,3f00 <simrv_puts>
    4424:	fddff06f          	j	4400 <main+0x48>
