
bd/src/qrduino/qrduino:     file format elf32-littleriscv


Disassembly of section .init:

00000000 <_start>:
   0:	00000013          	nop
   4:	00000033          	add	zero,zero,zero
   8:	000000b3          	add	ra,zero,zero
   c:	00000133          	add	sp,zero,zero
  10:	000001b3          	add	gp,zero,zero
  14:	00000233          	add	tp,zero,zero
  18:	000002b3          	add	t0,zero,zero
  1c:	00000333          	add	t1,zero,zero
  20:	000003b3          	add	t2,zero,zero
  24:	00000433          	add	s0,zero,zero
  28:	000004b3          	add	s1,zero,zero
  2c:	00000533          	add	a0,zero,zero
  30:	000005b3          	add	a1,zero,zero
  34:	00000633          	add	a2,zero,zero
  38:	000006b3          	add	a3,zero,zero
  3c:	00000733          	add	a4,zero,zero
  40:	000007b3          	add	a5,zero,zero
  44:	00000833          	add	a6,zero,zero
  48:	000008b3          	add	a7,zero,zero
  4c:	00000933          	add	s2,zero,zero
  50:	000009b3          	add	s3,zero,zero
  54:	00000a33          	add	s4,zero,zero
  58:	00000ab3          	add	s5,zero,zero
  5c:	00000b33          	add	s6,zero,zero
  60:	00000bb3          	add	s7,zero,zero
  64:	00000c33          	add	s8,zero,zero
  68:	00000cb3          	add	s9,zero,zero
  6c:	00000d33          	add	s10,zero,zero
  70:	00000db3          	add	s11,zero,zero
  74:	00000e33          	add	t3,zero,zero
  78:	00000eb3          	add	t4,zero,zero
  7c:	00000f33          	add	t5,zero,zero
  80:	00000fb3          	add	t6,zero,zero
  84:	00010137          	lui	sp,0x10
  88:	7200306f          	j	37a8 <main>
  8c:	00000013          	nop

Disassembly of section .text:

00000090 <applymask>:
      90:	00700793          	li	a5,7
      94:	0aa7e2e3          	bltu	a5,a0,938 <applymask+0x8a8>
      98:	00004737          	lui	a4,0x4
      9c:	00251793          	slli	a5,a0,0x2
      a0:	81870713          	addi	a4,a4,-2024 # 3818 <main+0x70>
      a4:	00e787b3          	add	a5,a5,a4
      a8:	0007a783          	lw	a5,0(a5)
      ac:	fc010113          	addi	sp,sp,-64 # ffc0 <TOHOST_ADDR+0xa14c>
      b0:	02812c23          	sw	s0,56(sp)
      b4:	03212823          	sw	s2,48(sp)
      b8:	02112e23          	sw	ra,60(sp)
      bc:	02912a23          	sw	s1,52(sp)
      c0:	03312623          	sw	s3,44(sp)
      c4:	03412423          	sw	s4,40(sp)
      c8:	03512223          	sw	s5,36(sp)
      cc:	03612023          	sw	s6,32(sp)
      d0:	01712e23          	sw	s7,28(sp)
      d4:	01812c23          	sw	s8,24(sp)
      d8:	01912a23          	sw	s9,20(sp)
      dc:	01a12823          	sw	s10,16(sp)
      e0:	01b12623          	sw	s11,12(sp)
      e4:	00050913          	mv	s2,a0
      e8:	00006437          	lui	s0,0x6
      ec:	00078067          	jr	a5
      f0:	e3c44783          	lbu	a5,-452(s0) # 5e3c <WD>
      f4:	7a078663          	beqz	a5,8a0 <applymask+0x810>
      f8:	00000d93          	li	s11,0
      fc:	00000993          	li	s3,0
     100:	00000913          	li	s2,0
     104:	00000493          	li	s1,0
     108:	00300a13          	li	s4,3
     10c:	00006ab7          	lui	s5,0x6
     110:	00006c37          	lui	s8,0x6
     114:	00006bb7          	lui	s7,0x6
     118:	08000b13          	li	s6,128
     11c:	0b00006f          	j	1cc <applymask+0x13c>
     120:	00190713          	addi	a4,s2,1
     124:	0ff77713          	andi	a4,a4,255
     128:	0a090663          	beqz	s2,1d4 <applymask+0x144>
     12c:	41390933          	sub	s2,s2,s3
     130:	00193913          	seqz	s2,s2
     134:	012787b3          	add	a5,a5,s2
     138:	00070913          	mv	s2,a4
     13c:	0017f793          	andi	a5,a5,1
     140:	06079e63          	bnez	a5,1bc <applymask+0x12c>
     144:	749df063          	bgeu	s11,s1,884 <applymask+0x7f4>
     148:	00048d13          	mv	s10,s1
     14c:	000d8c93          	mv	s9,s11
     150:	000d0593          	mv	a1,s10
     154:	000d0513          	mv	a0,s10
     158:	14c030ef          	jal	ra,32a4 <__mulsi3>
     15c:	01a50533          	add	a0,a0,s10
     160:	00155513          	srli	a0,a0,0x1
     164:	e58aa783          	lw	a5,-424(s5) # 5e58 <framask>
     168:	00ac8533          	add	a0,s9,a0
     16c:	00355713          	srli	a4,a0,0x3
     170:	00e787b3          	add	a5,a5,a4
     174:	0007c783          	lbu	a5,0(a5)
     178:	fff54513          	not	a0,a0
     17c:	00757513          	andi	a0,a0,7
     180:	40a7d533          	sra	a0,a5,a0
     184:	00157513          	andi	a0,a0,1
     188:	02051a63          	bnez	a0,1bc <applymask+0x12c>
     18c:	e55bc503          	lbu	a0,-427(s7) # 5e55 <WDB>
     190:	000d8593          	mv	a1,s11
     194:	110030ef          	jal	ra,32a4 <__mulsi3>
     198:	e38c2783          	lw	a5,-456(s8) # 5e38 <qrframe>
     19c:	0034d713          	srli	a4,s1,0x3
     1a0:	00e50533          	add	a0,a0,a4
     1a4:	00a78533          	add	a0,a5,a0
     1a8:	00054703          	lbu	a4,0(a0)
     1ac:	0074f793          	andi	a5,s1,7
     1b0:	40fb57b3          	sra	a5,s6,a5
     1b4:	00e7c7b3          	xor	a5,a5,a4
     1b8:	00f50023          	sb	a5,0(a0)
     1bc:	e3c44783          	lbu	a5,-452(s0)
     1c0:	00148493          	addi	s1,s1,1
     1c4:	0ff4f493          	andi	s1,s1,255
     1c8:	74f4f063          	bgeu	s1,a5,908 <applymask+0x878>
     1cc:	01b4f7b3          	and	a5,s1,s11
     1d0:	f54918e3          	bne	s2,s4,120 <applymask+0x90>
     1d4:	00100913          	li	s2,1
     1d8:	f65ff06f          	j	13c <applymask+0xac>
     1dc:	e3c44783          	lbu	a5,-452(s0)
     1e0:	6c078063          	beqz	a5,8a0 <applymask+0x810>
     1e4:	00000d93          	li	s11,0
     1e8:	00000913          	li	s2,0
     1ec:	00000d13          	li	s10,0
     1f0:	00000493          	li	s1,0
     1f4:	00300993          	li	s3,3
     1f8:	00006a37          	lui	s4,0x6
     1fc:	00006bb7          	lui	s7,0x6
     200:	00006b37          	lui	s6,0x6
     204:	08000a93          	li	s5,128
     208:	0f3d0263          	beq	s10,s3,2ec <applymask+0x25c>
     20c:	001d0793          	addi	a5,s10,1
     210:	0ff7f693          	andi	a3,a5,255
     214:	0c0d0c63          	beqz	s10,2ec <applymask+0x25c>
     218:	412d07b3          	sub	a5,s10,s2
     21c:	0017b713          	seqz	a4,a5
     220:	00068d13          	mv	s10,a3
     224:	01b487b3          	add	a5,s1,s11
     228:	00e787b3          	add	a5,a5,a4
     22c:	0017f793          	andi	a5,a5,1
     230:	06079e63          	bnez	a5,2ac <applymask+0x21c>
     234:	649df263          	bgeu	s11,s1,878 <applymask+0x7e8>
     238:	00048c93          	mv	s9,s1
     23c:	000d8c13          	mv	s8,s11
     240:	000c8593          	mv	a1,s9
     244:	000c8513          	mv	a0,s9
     248:	05c030ef          	jal	ra,32a4 <__mulsi3>
     24c:	01950533          	add	a0,a0,s9
     250:	00155513          	srli	a0,a0,0x1
     254:	e58a2783          	lw	a5,-424(s4) # 5e58 <framask>
     258:	00ac0533          	add	a0,s8,a0
     25c:	00355713          	srli	a4,a0,0x3
     260:	00e787b3          	add	a5,a5,a4
     264:	0007c783          	lbu	a5,0(a5)
     268:	fff54513          	not	a0,a0
     26c:	00757513          	andi	a0,a0,7
     270:	40a7d533          	sra	a0,a5,a0
     274:	00157513          	andi	a0,a0,1
     278:	02051a63          	bnez	a0,2ac <applymask+0x21c>
     27c:	e55b4503          	lbu	a0,-427(s6) # 5e55 <WDB>
     280:	000d8593          	mv	a1,s11
     284:	020030ef          	jal	ra,32a4 <__mulsi3>
     288:	e38ba783          	lw	a5,-456(s7) # 5e38 <qrframe>
     28c:	0034d713          	srli	a4,s1,0x3
     290:	00e50533          	add	a0,a0,a4
     294:	00a78533          	add	a0,a5,a0
     298:	00054703          	lbu	a4,0(a0)
     29c:	0074f793          	andi	a5,s1,7
     2a0:	40fad7b3          	sra	a5,s5,a5
     2a4:	00e7c7b3          	xor	a5,a5,a4
     2a8:	00f50023          	sb	a5,0(a0)
     2ac:	e3c44783          	lbu	a5,-452(s0)
     2b0:	00148493          	addi	s1,s1,1
     2b4:	0ff4f493          	andi	s1,s1,255
     2b8:	f4f4e8e3          	bltu	s1,a5,208 <applymask+0x178>
     2bc:	001d8d93          	addi	s11,s11,1
     2c0:	00190913          	addi	s2,s2,1
     2c4:	0ffdfd93          	andi	s11,s11,255
     2c8:	0ff97913          	andi	s2,s2,255
     2cc:	5cfdfa63          	bgeu	s11,a5,8a0 <applymask+0x810>
     2d0:	ffd90793          	addi	a5,s2,-3
     2d4:	00f037b3          	snez	a5,a5
     2d8:	40f007b3          	neg	a5,a5
     2dc:	00000d13          	li	s10,0
     2e0:	00f97933          	and	s2,s2,a5
     2e4:	00000493          	li	s1,0
     2e8:	f33d12e3          	bne	s10,s3,20c <applymask+0x17c>
     2ec:	00100d13          	li	s10,1
     2f0:	00000713          	li	a4,0
     2f4:	f31ff06f          	j	224 <applymask+0x194>
     2f8:	e3c44783          	lbu	a5,-452(s0)
     2fc:	00050c93          	mv	s9,a0
     300:	00050493          	mv	s1,a0
     304:	58078e63          	beqz	a5,8a0 <applymask+0x810>
     308:	000069b7          	lui	s3,0x6
     30c:	00006b37          	lui	s6,0x6
     310:	00006ab7          	lui	s5,0x6
     314:	08000a13          	li	s4,128
     318:	0880006f          	j	3a0 <applymask+0x310>
     31c:	00048b93          	mv	s7,s1
     320:	000c8c13          	mv	s8,s9
     324:	000b8593          	mv	a1,s7
     328:	000b8513          	mv	a0,s7
     32c:	779020ef          	jal	ra,32a4 <__mulsi3>
     330:	017507b3          	add	a5,a0,s7
     334:	0017d793          	srli	a5,a5,0x1
     338:	e589a703          	lw	a4,-424(s3) # 5e58 <framask>
     33c:	00fc07b3          	add	a5,s8,a5
     340:	0037d693          	srli	a3,a5,0x3
     344:	00d70733          	add	a4,a4,a3
     348:	00074703          	lbu	a4,0(a4)
     34c:	fff7c793          	not	a5,a5
     350:	0077f793          	andi	a5,a5,7
     354:	40f757b3          	sra	a5,a4,a5
     358:	0017f793          	andi	a5,a5,1
     35c:	02079a63          	bnez	a5,390 <applymask+0x300>
     360:	e55ac503          	lbu	a0,-427(s5) # 5e55 <WDB>
     364:	000c8593          	mv	a1,s9
     368:	73d020ef          	jal	ra,32a4 <__mulsi3>
     36c:	e38b2783          	lw	a5,-456(s6) # 5e38 <qrframe>
     370:	0034d713          	srli	a4,s1,0x3
     374:	00e50533          	add	a0,a0,a4
     378:	00a78533          	add	a0,a5,a0
     37c:	00054703          	lbu	a4,0(a0)
     380:	0074f793          	andi	a5,s1,7
     384:	40fa57b3          	sra	a5,s4,a5
     388:	00e7c7b3          	xor	a5,a5,a4
     38c:	00f50023          	sb	a5,0(a0)
     390:	e3c44783          	lbu	a5,-452(s0)
     394:	00148493          	addi	s1,s1,1
     398:	0ff4f493          	andi	s1,s1,255
     39c:	54f4f063          	bgeu	s1,a5,8dc <applymask+0x84c>
     3a0:	009c87b3          	add	a5,s9,s1
     3a4:	0017f793          	andi	a5,a5,1
     3a8:	fe0794e3          	bnez	a5,390 <applymask+0x300>
     3ac:	f69ce8e3          	bltu	s9,s1,31c <applymask+0x28c>
     3b0:	000c8b93          	mv	s7,s9
     3b4:	00048c13          	mv	s8,s1
     3b8:	f6dff06f          	j	324 <applymask+0x294>
     3bc:	e3c44783          	lbu	a5,-452(s0)
     3c0:	00000c93          	li	s9,0
     3c4:	00000493          	li	s1,0
     3c8:	00000913          	li	s2,0
     3cc:	4c078a63          	beqz	a5,8a0 <applymask+0x810>
     3d0:	000069b7          	lui	s3,0x6
     3d4:	00006b37          	lui	s6,0x6
     3d8:	00006ab7          	lui	s5,0x6
     3dc:	08000a13          	li	s4,128
     3e0:	06091e63          	bnez	s2,45c <applymask+0x3cc>
     3e4:	4a9cf663          	bgeu	s9,s1,890 <applymask+0x800>
     3e8:	00048593          	mv	a1,s1
     3ec:	00048b93          	mv	s7,s1
     3f0:	000c8c13          	mv	s8,s9
     3f4:	00058513          	mv	a0,a1
     3f8:	6ad020ef          	jal	ra,32a4 <__mulsi3>
     3fc:	01750533          	add	a0,a0,s7
     400:	00155513          	srli	a0,a0,0x1
     404:	e589a783          	lw	a5,-424(s3) # 5e58 <framask>
     408:	00ac0533          	add	a0,s8,a0
     40c:	00355713          	srli	a4,a0,0x3
     410:	00e787b3          	add	a5,a5,a4
     414:	0007c783          	lbu	a5,0(a5)
     418:	fff54513          	not	a0,a0
     41c:	00757513          	andi	a0,a0,7
     420:	40a7d533          	sra	a0,a5,a0
     424:	00157513          	andi	a0,a0,1
     428:	02051a63          	bnez	a0,45c <applymask+0x3cc>
     42c:	e55ac503          	lbu	a0,-427(s5) # 5e55 <WDB>
     430:	000c8593          	mv	a1,s9
     434:	671020ef          	jal	ra,32a4 <__mulsi3>
     438:	e38b2783          	lw	a5,-456(s6) # 5e38 <qrframe>
     43c:	0034d713          	srli	a4,s1,0x3
     440:	00e50533          	add	a0,a0,a4
     444:	00a78533          	add	a0,a5,a0
     448:	00054703          	lbu	a4,0(a0)
     44c:	0074f793          	andi	a5,s1,7
     450:	40fa57b3          	sra	a5,s4,a5
     454:	00e7c7b3          	xor	a5,a5,a4
     458:	00f50023          	sb	a5,0(a0)
     45c:	e3c44783          	lbu	a5,-452(s0)
     460:	00148493          	addi	s1,s1,1
     464:	0ff4f493          	andi	s1,s1,255
     468:	f6f4ece3          	bltu	s1,a5,3e0 <applymask+0x350>
     46c:	001c8c93          	addi	s9,s9,1
     470:	0ffcfc93          	andi	s9,s9,255
     474:	42fcf663          	bgeu	s9,a5,8a0 <applymask+0x810>
     478:	00000493          	li	s1,0
     47c:	001cf913          	andi	s2,s9,1
     480:	f61ff06f          	j	3e0 <applymask+0x350>
     484:	e3c44703          	lbu	a4,-452(s0)
     488:	00000c13          	li	s8,0
     48c:	00000793          	li	a5,0
     490:	00000c93          	li	s9,0
     494:	40070663          	beqz	a4,8a0 <applymask+0x810>
     498:	00300913          	li	s2,3
     49c:	000069b7          	lui	s3,0x6
     4a0:	00006b37          	lui	s6,0x6
     4a4:	00006ab7          	lui	s5,0x6
     4a8:	08000a13          	li	s4,128
     4ac:	39278c63          	beq	a5,s2,844 <applymask+0x7b4>
     4b0:	38078a63          	beqz	a5,844 <applymask+0x7b4>
     4b4:	00178793          	addi	a5,a5,1
     4b8:	0ff7f793          	andi	a5,a5,255
     4bc:	e3c44703          	lbu	a4,-452(s0)
     4c0:	001c8693          	addi	a3,s9,1
     4c4:	0ff6fc93          	andi	s9,a3,255
     4c8:	feece2e3          	bltu	s9,a4,4ac <applymask+0x41c>
     4cc:	001c0c13          	addi	s8,s8,1
     4d0:	0ffc7c13          	andi	s8,s8,255
     4d4:	00000c93          	li	s9,0
     4d8:	3cec7463          	bgeu	s8,a4,8a0 <applymask+0x810>
     4dc:	000c0b93          	mv	s7,s8
     4e0:	000c8493          	mv	s1,s9
     4e4:	000b8593          	mv	a1,s7
     4e8:	000b8513          	mv	a0,s7
     4ec:	5b9020ef          	jal	ra,32a4 <__mulsi3>
     4f0:	01750533          	add	a0,a0,s7
     4f4:	00155513          	srli	a0,a0,0x1
     4f8:	e589a783          	lw	a5,-424(s3) # 5e58 <framask>
     4fc:	00a48533          	add	a0,s1,a0
     500:	00355713          	srli	a4,a0,0x3
     504:	00e787b3          	add	a5,a5,a4
     508:	0007c783          	lbu	a5,0(a5)
     50c:	fff54513          	not	a0,a0
     510:	00757513          	andi	a0,a0,7
     514:	40a7d7b3          	sra	a5,a5,a0
     518:	0017f793          	andi	a5,a5,1
     51c:	fa0790e3          	bnez	a5,4bc <applymask+0x42c>
     520:	e55ac503          	lbu	a0,-427(s5) # 5e55 <WDB>
     524:	000c0593          	mv	a1,s8
     528:	57d020ef          	jal	ra,32a4 <__mulsi3>
     52c:	e38b2783          	lw	a5,-456(s6) # 5e38 <qrframe>
     530:	003cd713          	srli	a4,s9,0x3
     534:	00e50533          	add	a0,a0,a4
     538:	00a78533          	add	a0,a5,a0
     53c:	00054703          	lbu	a4,0(a0)
     540:	007cf793          	andi	a5,s9,7
     544:	40fa57b3          	sra	a5,s4,a5
     548:	00e7c7b3          	xor	a5,a5,a4
     54c:	00f50023          	sb	a5,0(a0)
     550:	00100793          	li	a5,1
     554:	f69ff06f          	j	4bc <applymask+0x42c>
     558:	e3c44783          	lbu	a5,-452(s0)
     55c:	34078263          	beqz	a5,8a0 <applymask+0x810>
     560:	00000d13          	li	s10,0
     564:	00000993          	li	s3,0
     568:	00000793          	li	a5,0
     56c:	00000493          	li	s1,0
     570:	00300a93          	li	s5,3
     574:	00006a37          	lui	s4,0x6
     578:	00006c37          	lui	s8,0x6
     57c:	00006bb7          	lui	s7,0x6
     580:	08000b13          	li	s6,128
     584:	0d579c63          	bne	a5,s5,65c <applymask+0x5cc>
     588:	0c9d7e63          	bgeu	s10,s1,664 <applymask+0x5d4>
     58c:	00048c93          	mv	s9,s1
     590:	000d0913          	mv	s2,s10
     594:	000c8593          	mv	a1,s9
     598:	000c8513          	mv	a0,s9
     59c:	509020ef          	jal	ra,32a4 <__mulsi3>
     5a0:	01950533          	add	a0,a0,s9
     5a4:	00155513          	srli	a0,a0,0x1
     5a8:	e58a2783          	lw	a5,-424(s4) # 5e58 <framask>
     5ac:	00a90533          	add	a0,s2,a0
     5b0:	00355713          	srli	a4,a0,0x3
     5b4:	00e787b3          	add	a5,a5,a4
     5b8:	0007c783          	lbu	a5,0(a5)
     5bc:	fff54513          	not	a0,a0
     5c0:	00757513          	andi	a0,a0,7
     5c4:	40a7d533          	sra	a0,a5,a0
     5c8:	00157513          	andi	a0,a0,1
     5cc:	02051a63          	bnez	a0,600 <applymask+0x570>
     5d0:	e55bc503          	lbu	a0,-427(s7) # 5e55 <WDB>
     5d4:	000d0593          	mv	a1,s10
     5d8:	4cd020ef          	jal	ra,32a4 <__mulsi3>
     5dc:	e38c2783          	lw	a5,-456(s8) # 5e38 <qrframe>
     5e0:	0034d713          	srli	a4,s1,0x3
     5e4:	00e50533          	add	a0,a0,a4
     5e8:	00a78533          	add	a0,a5,a0
     5ec:	00054703          	lbu	a4,0(a0)
     5f0:	0074f793          	andi	a5,s1,7
     5f4:	40fb57b3          	sra	a5,s6,a5
     5f8:	00e7c7b3          	xor	a5,a5,a4
     5fc:	00f50023          	sb	a5,0(a0)
     600:	e3c44703          	lbu	a4,-452(s0)
     604:	00148493          	addi	s1,s1,1
     608:	0ff4f493          	andi	s1,s1,255
     60c:	00100793          	li	a5,1
     610:	00e4fe63          	bgeu	s1,a4,62c <applymask+0x59c>
     614:	e3c44703          	lbu	a4,-452(s0)
     618:	00148493          	addi	s1,s1,1
     61c:	00178793          	addi	a5,a5,1
     620:	0ff4f493          	andi	s1,s1,255
     624:	0ff7f793          	andi	a5,a5,255
     628:	f4e4eee3          	bltu	s1,a4,584 <applymask+0x4f4>
     62c:	001d0d13          	addi	s10,s10,1
     630:	00198993          	addi	s3,s3,1
     634:	0ffd7d13          	andi	s10,s10,255
     638:	0ff9f793          	andi	a5,s3,255
     63c:	26ed7263          	bgeu	s10,a4,8a0 <applymask+0x810>
     640:	ffd78993          	addi	s3,a5,-3
     644:	013039b3          	snez	s3,s3
     648:	413009b3          	neg	s3,s3
     64c:	0137f9b3          	and	s3,a5,s3
     650:	00098793          	mv	a5,s3
     654:	00000493          	li	s1,0
     658:	f35788e3          	beq	a5,s5,588 <applymask+0x4f8>
     65c:	fa079ce3          	bnez	a5,614 <applymask+0x584>
     660:	f29d66e3          	bltu	s10,s1,58c <applymask+0x4fc>
     664:	000d0c93          	mv	s9,s10
     668:	00048913          	mv	s2,s1
     66c:	f29ff06f          	j	594 <applymask+0x504>
     670:	e3c44783          	lbu	a5,-452(s0)
     674:	00000d93          	li	s11,0
     678:	00000d13          	li	s10,0
     67c:	22078263          	beqz	a5,8a0 <applymask+0x810>
     680:	000069b7          	lui	s3,0x6
     684:	00006b37          	lui	s6,0x6
     688:	00006ab7          	lui	s5,0x6
     68c:	08000a13          	li	s4,128
     690:	00300913          	li	s2,3
     694:	00000b93          	li	s7,0
     698:	00000c93          	li	s9,0
     69c:	060d1e63          	bnez	s10,718 <applymask+0x688>
     6a0:	1d7df063          	bgeu	s11,s7,860 <applymask+0x7d0>
     6a4:	000b8493          	mv	s1,s7
     6a8:	000d8c13          	mv	s8,s11
     6ac:	00048593          	mv	a1,s1
     6b0:	00048513          	mv	a0,s1
     6b4:	3f1020ef          	jal	ra,32a4 <__mulsi3>
     6b8:	00950533          	add	a0,a0,s1
     6bc:	00155513          	srli	a0,a0,0x1
     6c0:	e589a783          	lw	a5,-424(s3) # 5e58 <framask>
     6c4:	00ac0533          	add	a0,s8,a0
     6c8:	00355713          	srli	a4,a0,0x3
     6cc:	00e787b3          	add	a5,a5,a4
     6d0:	0007c783          	lbu	a5,0(a5)
     6d4:	fff54513          	not	a0,a0
     6d8:	00757513          	andi	a0,a0,7
     6dc:	40a7d533          	sra	a0,a5,a0
     6e0:	00157513          	andi	a0,a0,1
     6e4:	02051a63          	bnez	a0,718 <applymask+0x688>
     6e8:	e55ac503          	lbu	a0,-427(s5) # 5e55 <WDB>
     6ec:	000d8593          	mv	a1,s11
     6f0:	3b5020ef          	jal	ra,32a4 <__mulsi3>
     6f4:	e38b2783          	lw	a5,-456(s6) # 5e38 <qrframe>
     6f8:	003bd713          	srli	a4,s7,0x3
     6fc:	00e50533          	add	a0,a0,a4
     700:	00a78533          	add	a0,a5,a0
     704:	00054703          	lbu	a4,0(a0)
     708:	007bf793          	andi	a5,s7,7
     70c:	40fa57b3          	sra	a5,s4,a5
     710:	00e7c7b3          	xor	a5,a5,a4
     714:	00f50023          	sb	a5,0(a0)
     718:	e3c44783          	lbu	a5,-452(s0)
     71c:	001b8693          	addi	a3,s7,1
     720:	001c8713          	addi	a4,s9,1
     724:	0ff6fb93          	andi	s7,a3,255
     728:	0ff77c93          	andi	s9,a4,255
     72c:	1cfbf263          	bgeu	s7,a5,8f0 <applymask+0x860>
     730:	f72c96e3          	bne	s9,s2,69c <applymask+0x60c>
     734:	001d4d13          	xori	s10,s10,1
     738:	00000c93          	li	s9,0
     73c:	f61ff06f          	j	69c <applymask+0x60c>
     740:	e3c44783          	lbu	a5,-452(s0)
     744:	00000b13          	li	s6,0
     748:	00000993          	li	s3,0
     74c:	14078a63          	beqz	a5,8a0 <applymask+0x810>
     750:	00300913          	li	s2,3
     754:	00006ab7          	lui	s5,0x6
     758:	00006c37          	lui	s8,0x6
     75c:	00006bb7          	lui	s7,0x6
     760:	01303a33          	snez	s4,s3
     764:	00000c93          	li	s9,0
     768:	00000493          	li	s1,0
     76c:	0f2c8463          	beq	s9,s2,854 <applymask+0x7c4>
     770:	019037b3          	snez	a5,s9
     774:	001c8c93          	addi	s9,s9,1
     778:	00fa7733          	and	a4,s4,a5
     77c:	0ffcfc93          	andi	s9,s9,255
     780:	0164f7b3          	and	a5,s1,s6
     784:	0017f793          	andi	a5,a5,1
     788:	00e787b3          	add	a5,a5,a4
     78c:	08079063          	bnez	a5,80c <applymask+0x77c>
     790:	0c9b7e63          	bgeu	s6,s1,86c <applymask+0x7dc>
     794:	00048d93          	mv	s11,s1
     798:	000b0d13          	mv	s10,s6
     79c:	000d8593          	mv	a1,s11
     7a0:	000d8513          	mv	a0,s11
     7a4:	301020ef          	jal	ra,32a4 <__mulsi3>
     7a8:	01b50533          	add	a0,a0,s11
     7ac:	00155513          	srli	a0,a0,0x1
     7b0:	e58aa783          	lw	a5,-424(s5) # 5e58 <framask>
     7b4:	00ad0533          	add	a0,s10,a0
     7b8:	00355713          	srli	a4,a0,0x3
     7bc:	00e787b3          	add	a5,a5,a4
     7c0:	0007c783          	lbu	a5,0(a5)
     7c4:	fff54513          	not	a0,a0
     7c8:	00757513          	andi	a0,a0,7
     7cc:	40a7d533          	sra	a0,a5,a0
     7d0:	00157513          	andi	a0,a0,1
     7d4:	02051c63          	bnez	a0,80c <applymask+0x77c>
     7d8:	e55bc503          	lbu	a0,-427(s7) # 5e55 <WDB>
     7dc:	000b0593          	mv	a1,s6
     7e0:	2c5020ef          	jal	ra,32a4 <__mulsi3>
     7e4:	e38c2783          	lw	a5,-456(s8) # 5e38 <qrframe>
     7e8:	0034d713          	srli	a4,s1,0x3
     7ec:	00e50533          	add	a0,a0,a4
     7f0:	00a78533          	add	a0,a5,a0
     7f4:	00054703          	lbu	a4,0(a0)
     7f8:	0074f793          	andi	a5,s1,7
     7fc:	08000693          	li	a3,128
     800:	40f6d7b3          	sra	a5,a3,a5
     804:	00e7c7b3          	xor	a5,a5,a4
     808:	00f50023          	sb	a5,0(a0)
     80c:	e3c44783          	lbu	a5,-452(s0)
     810:	00148493          	addi	s1,s1,1
     814:	0ff4f493          	andi	s1,s1,255
     818:	f4f4eae3          	bltu	s1,a5,76c <applymask+0x6dc>
     81c:	001b0693          	addi	a3,s6,1
     820:	00198993          	addi	s3,s3,1
     824:	0ff6fb13          	andi	s6,a3,255
     828:	0ff9f993          	andi	s3,s3,255
     82c:	06fb7a63          	bgeu	s6,a5,8a0 <applymask+0x810>
     830:	ffd98793          	addi	a5,s3,-3
     834:	00f037b3          	snez	a5,a5
     838:	40f007b3          	neg	a5,a5
     83c:	00f9f9b3          	and	s3,s3,a5
     840:	f21ff06f          	j	760 <applymask+0x6d0>
     844:	c99c7ce3          	bgeu	s8,s9,4dc <applymask+0x44c>
     848:	000c8b93          	mv	s7,s9
     84c:	000c0493          	mv	s1,s8
     850:	c95ff06f          	j	4e4 <applymask+0x454>
     854:	00100c93          	li	s9,1
     858:	00000713          	li	a4,0
     85c:	f25ff06f          	j	780 <applymask+0x6f0>
     860:	000d8493          	mv	s1,s11
     864:	000b8c13          	mv	s8,s7
     868:	e45ff06f          	j	6ac <applymask+0x61c>
     86c:	000b0d93          	mv	s11,s6
     870:	00048d13          	mv	s10,s1
     874:	f29ff06f          	j	79c <applymask+0x70c>
     878:	000d8c93          	mv	s9,s11
     87c:	00048c13          	mv	s8,s1
     880:	9c1ff06f          	j	240 <applymask+0x1b0>
     884:	000d8d13          	mv	s10,s11
     888:	00048c93          	mv	s9,s1
     88c:	8c5ff06f          	j	150 <applymask+0xc0>
     890:	000c8593          	mv	a1,s9
     894:	000c8b93          	mv	s7,s9
     898:	00048c13          	mv	s8,s1
     89c:	b59ff06f          	j	3f4 <applymask+0x364>
     8a0:	03c12083          	lw	ra,60(sp)
     8a4:	03812403          	lw	s0,56(sp)
     8a8:	03412483          	lw	s1,52(sp)
     8ac:	03012903          	lw	s2,48(sp)
     8b0:	02c12983          	lw	s3,44(sp)
     8b4:	02812a03          	lw	s4,40(sp)
     8b8:	02412a83          	lw	s5,36(sp)
     8bc:	02012b03          	lw	s6,32(sp)
     8c0:	01c12b83          	lw	s7,28(sp)
     8c4:	01812c03          	lw	s8,24(sp)
     8c8:	01412c83          	lw	s9,20(sp)
     8cc:	01012d03          	lw	s10,16(sp)
     8d0:	00c12d83          	lw	s11,12(sp)
     8d4:	04010113          	addi	sp,sp,64
     8d8:	00008067          	ret
     8dc:	001c8c93          	addi	s9,s9,1
     8e0:	0ffcfc93          	andi	s9,s9,255
     8e4:	fafcfee3          	bgeu	s9,a5,8a0 <applymask+0x810>
     8e8:	00090493          	mv	s1,s2
     8ec:	ab5ff06f          	j	3a0 <applymask+0x310>
     8f0:	001d8d93          	addi	s11,s11,1
     8f4:	0ffdfd93          	andi	s11,s11,255
     8f8:	fafdf4e3          	bgeu	s11,a5,8a0 <applymask+0x810>
     8fc:	001ddd13          	srli	s10,s11,0x1
     900:	001d7d13          	andi	s10,s10,1
     904:	d91ff06f          	j	694 <applymask+0x604>
     908:	001d8d93          	addi	s11,s11,1
     90c:	00198993          	addi	s3,s3,1
     910:	0ffdfd93          	andi	s11,s11,255
     914:	0ff9f993          	andi	s3,s3,255
     918:	f8fdf4e3          	bgeu	s11,a5,8a0 <applymask+0x810>
     91c:	ffd98793          	addi	a5,s3,-3
     920:	00f037b3          	snez	a5,a5
     924:	40f007b3          	neg	a5,a5
     928:	00f9f9b3          	and	s3,s3,a5
     92c:	00000913          	li	s2,0
     930:	00000493          	li	s1,0
     934:	899ff06f          	j	1cc <applymask+0x13c>
     938:	00008067          	ret

0000093c <badruns>:
     93c:	000067b7          	lui	a5,0x6
     940:	e507a603          	lw	a2,-432(a5) # 5e50 <rlens>
     944:	00050813          	mv	a6,a0
     948:	00000793          	li	a5,0
     94c:	00000513          	li	a0,0
     950:	00400593          	li	a1,4
     954:	00f60733          	add	a4,a2,a5
     958:	00074703          	lbu	a4,0(a4)
     95c:	00178793          	addi	a5,a5,1
     960:	0ff7f793          	andi	a5,a5,255
     964:	ffe50693          	addi	a3,a0,-2
     968:	00e5f463          	bgeu	a1,a4,970 <badruns+0x34>
     96c:	00d70533          	add	a0,a4,a3
     970:	fef872e3          	bgeu	a6,a5,954 <badruns+0x18>
     974:	fff80893          	addi	a7,a6,-1
     978:	00300793          	li	a5,3
     97c:	0917d463          	bge	a5,a7,a04 <badruns+0xc8>
     980:	00300313          	li	t1,3
     984:	00c0006f          	j	990 <badruns+0x54>
     988:	00078313          	mv	t1,a5
     98c:	0717dc63          	bge	a5,a7,a04 <badruns+0xc8>
     990:	00f60733          	add	a4,a2,a5
     994:	ffe74683          	lbu	a3,-2(a4)
     998:	00274583          	lbu	a1,2(a4)
     99c:	00278793          	addi	a5,a5,2
     9a0:	0ff7f793          	andi	a5,a5,255
     9a4:	feb692e3          	bne	a3,a1,988 <badruns+0x4c>
     9a8:	fff74583          	lbu	a1,-1(a4)
     9ac:	fcb69ee3          	bne	a3,a1,988 <badruns+0x4c>
     9b0:	00174583          	lbu	a1,1(a4)
     9b4:	fcd59ae3          	bne	a1,a3,988 <badruns+0x4c>
     9b8:	00074e03          	lbu	t3,0(a4)
     9bc:	00159693          	slli	a3,a1,0x1
     9c0:	00b685b3          	add	a1,a3,a1
     9c4:	fdc592e3          	bne	a1,t3,988 <badruns+0x4c>
     9c8:	ffd74683          	lbu	a3,-3(a4)
     9cc:	00230313          	addi	t1,t1,2
     9d0:	02068463          	beqz	a3,9f8 <badruns+0xbc>
     9d4:	00169e13          	slli	t3,a3,0x1
     9d8:	00259593          	slli	a1,a1,0x2
     9dc:	00de06b3          	add	a3,t3,a3
     9e0:	01035c63          	bge	t1,a6,9f8 <badruns+0xbc>
     9e4:	00b6da63          	bge	a3,a1,9f8 <badruns+0xbc>
     9e8:	00374683          	lbu	a3,3(a4)
     9ec:	00169713          	slli	a4,a3,0x1
     9f0:	00d70733          	add	a4,a4,a3
     9f4:	f8b74ae3          	blt	a4,a1,988 <badruns+0x4c>
     9f8:	02850513          	addi	a0,a0,40
     9fc:	00078313          	mv	t1,a5
     a00:	f917c8e3          	blt	a5,a7,990 <badruns+0x54>
     a04:	00008067          	ret

00000a08 <appendrs>:
     a08:	fc010113          	addi	sp,sp,-64
     a0c:	00060893          	mv	a7,a2
     a10:	02812c23          	sw	s0,56(sp)
     a14:	03612023          	sw	s6,32(sp)
     a18:	00058413          	mv	s0,a1
     a1c:	00050b13          	mv	s6,a0
     a20:	00068613          	mv	a2,a3
     a24:	00000593          	li	a1,0
     a28:	00088513          	mv	a0,a7
     a2c:	03212823          	sw	s2,48(sp)
     a30:	01812c23          	sw	s8,24(sp)
     a34:	02112e23          	sw	ra,60(sp)
     a38:	02912a23          	sw	s1,52(sp)
     a3c:	03312623          	sw	s3,44(sp)
     a40:	03412423          	sw	s4,40(sp)
     a44:	03512223          	sw	s5,36(sp)
     a48:	01712e23          	sw	s7,28(sp)
     a4c:	01912a23          	sw	s9,20(sp)
     a50:	01a12823          	sw	s10,16(sp)
     a54:	01b12623          	sw	s11,12(sp)
     a58:	00068913          	mv	s2,a3
     a5c:	00070c13          	mv	s8,a4
     a60:	3e1020ef          	jal	ra,3640 <memset>
     a64:	0a040e63          	beqz	s0,b20 <appendrs+0x118>
     a68:	fff40793          	addi	a5,s0,-1
     a6c:	ffe90a93          	addi	s5,s2,-2
     a70:	fff90c93          	addi	s9,s2,-1
     a74:	001b0b93          	addi	s7,s6,1
     a78:	0ff7f793          	andi	a5,a5,255
     a7c:	00150493          	addi	s1,a0,1
     a80:	0ffafa93          	andi	s5,s5,255
     a84:	000049b7          	lui	s3,0x4
     a88:	00050893          	mv	a7,a0
     a8c:	01950db3          	add	s11,a0,s9
     a90:	00fb8bb3          	add	s7,s7,a5
     a94:	83898993          	addi	s3,s3,-1992 # 3838 <g0log>
     a98:	0ff00d13          	li	s10,255
     a9c:	00100413          	li	s0,1
     aa0:	0fe00a13          	li	s4,254
     aa4:	01548ab3          	add	s5,s1,s5
     aa8:	0008c703          	lbu	a4,0(a7)
     aac:	000b4783          	lbu	a5,0(s6)
     ab0:	00e7c7b3          	xor	a5,a5,a4
     ab4:	00f987b3          	add	a5,s3,a5
     ab8:	0007c703          	lbu	a4,0(a5)
     abc:	0ba70063          	beq	a4,s10,b5c <appendrs+0x154>
     ac0:	03247e63          	bgeu	s0,s2,afc <appendrs+0xf4>
     ac4:	00088613          	mv	a2,a7
     ac8:	019c0833          	add	a6,s8,s9
     acc:	00084783          	lbu	a5,0(a6)
     ad0:	00164583          	lbu	a1,1(a2)
     ad4:	fff80813          	addi	a6,a6,-1
     ad8:	00e787b3          	add	a5,a5,a4
     adc:	00fa5463          	bge	s4,a5,ae4 <appendrs+0xdc>
     ae0:	f0178793          	addi	a5,a5,-255
     ae4:	00f987b3          	add	a5,s3,a5
     ae8:	1007c783          	lbu	a5,256(a5)
     aec:	00160613          	addi	a2,a2,1
     af0:	00f5c7b3          	xor	a5,a1,a5
     af4:	fef60fa3          	sb	a5,-1(a2)
     af8:	fd561ae3          	bne	a2,s5,acc <appendrs+0xc4>
     afc:	000c4783          	lbu	a5,0(s8)
     b00:	00e787b3          	add	a5,a5,a4
     b04:	00fa5463          	bge	s4,a5,b0c <appendrs+0x104>
     b08:	f0178793          	addi	a5,a5,-255
     b0c:	00f987b3          	add	a5,s3,a5
     b10:	1007c783          	lbu	a5,256(a5)
     b14:	00fd8023          	sb	a5,0(s11)
     b18:	001b0b13          	addi	s6,s6,1
     b1c:	f96b96e3          	bne	s7,s6,aa8 <appendrs+0xa0>
     b20:	03c12083          	lw	ra,60(sp)
     b24:	03812403          	lw	s0,56(sp)
     b28:	03412483          	lw	s1,52(sp)
     b2c:	03012903          	lw	s2,48(sp)
     b30:	02c12983          	lw	s3,44(sp)
     b34:	02812a03          	lw	s4,40(sp)
     b38:	02412a83          	lw	s5,36(sp)
     b3c:	02012b03          	lw	s6,32(sp)
     b40:	01c12b83          	lw	s7,28(sp)
     b44:	01812c03          	lw	s8,24(sp)
     b48:	01412c83          	lw	s9,20(sp)
     b4c:	01012d03          	lw	s10,16(sp)
     b50:	00c12d83          	lw	s11,12(sp)
     b54:	04010113          	addi	sp,sp,64
     b58:	00008067          	ret
     b5c:	00088513          	mv	a0,a7
     b60:	000c8613          	mv	a2,s9
     b64:	00048593          	mv	a1,s1
     b68:	1b9020ef          	jal	ra,3520 <memmove>
     b6c:	00050893          	mv	a7,a0
     b70:	00000793          	li	a5,0
     b74:	fa1ff06f          	j	b14 <appendrs+0x10c>

00000b78 <qrencode>:
     b78:	f9010113          	addi	sp,sp,-112
     b7c:	06812423          	sw	s0,104(sp)
     b80:	00006437          	lui	s0,0x6
     b84:	05412c23          	sw	s4,88(sp)
     b88:	e4042a03          	lw	s4,-448(s0) # 5e40 <strinbuf>
     b8c:	06112623          	sw	ra,108(sp)
     b90:	06912223          	sw	s1,100(sp)
     b94:	000a0513          	mv	a0,s4
     b98:	07212023          	sw	s2,96(sp)
     b9c:	05312e23          	sw	s3,92(sp)
     ba0:	05512a23          	sw	s5,84(sp)
     ba4:	05612823          	sw	s6,80(sp)
     ba8:	05712623          	sw	s7,76(sp)
     bac:	05812423          	sw	s8,72(sp)
     bb0:	05912223          	sw	s9,68(sp)
     bb4:	05a12023          	sw	s10,64(sp)
     bb8:	03b12e23          	sw	s11,60(sp)
     bbc:	00006b37          	lui	s6,0x6
     bc0:	35d020ef          	jal	ra,371c <strlen>
     bc4:	000069b7          	lui	s3,0x6
     bc8:	e44b4a83          	lbu	s5,-444(s6) # 5e44 <neccblk2>
     bcc:	00050493          	mv	s1,a0
     bd0:	00006937          	lui	s2,0x6
     bd4:	e469c503          	lbu	a0,-442(s3) # 5e46 <neccblk1>
     bd8:	e4594583          	lbu	a1,-443(s2) # 5e45 <datablkw>
     bdc:	01550533          	add	a0,a0,s5
     be0:	6c4020ef          	jal	ra,32a4 <__mulsi3>
     be4:	01550ab3          	add	s5,a0,s5
     be8:	000065b7          	lui	a1,0x6
     bec:	ffea8793          	addi	a5,s5,-2
     bf0:	e4c5c703          	lbu	a4,-436(a1) # 5e4c <VERSION>
     bf4:	18f4ea63          	bltu	s1,a5,d88 <qrencode+0x210>
     bf8:	00900693          	li	a3,9
     bfc:	ffda8493          	addi	s1,s5,-3
     c00:	18e6e863          	bltu	a3,a4,d90 <qrencode+0x218>
     c04:	00078493          	mv	s1,a5
     c08:	009a0a33          	add	s4,s4,s1
     c0c:	000a00a3          	sb	zero,1(s4)
     c10:	fff48793          	addi	a5,s1,-1
     c14:	fff00513          	li	a0,-1
     c18:	04048263          	beqz	s1,c5c <qrencode+0xe4>
     c1c:	e4042703          	lw	a4,-448(s0)
     c20:	00278613          	addi	a2,a5,2
     c24:	00f706b3          	add	a3,a4,a5
     c28:	0006c683          	lbu	a3,0(a3)
     c2c:	00c70733          	add	a4,a4,a2
     c30:	00074603          	lbu	a2,0(a4)
     c34:	00469693          	slli	a3,a3,0x4
     c38:	00c6e6b3          	or	a3,a3,a2
     c3c:	00d70023          	sb	a3,0(a4)
     c40:	e4042703          	lw	a4,-448(s0)
     c44:	00f70733          	add	a4,a4,a5
     c48:	00074683          	lbu	a3,0(a4)
     c4c:	fff78793          	addi	a5,a5,-1
     c50:	0046d693          	srli	a3,a3,0x4
     c54:	00d700a3          	sb	a3,1(a4)
     c58:	fca792e3          	bne	a5,a0,c1c <qrencode+0xa4>
     c5c:	e4042683          	lw	a3,-448(s0)
     c60:	00449713          	slli	a4,s1,0x4
     c64:	0044d793          	srli	a5,s1,0x4
     c68:	0016c603          	lbu	a2,1(a3)
     c6c:	0407e793          	ori	a5,a5,64
     c70:	fec00513          	li	a0,-20
     c74:	00c76733          	or	a4,a4,a2
     c78:	00e680a3          	sb	a4,1(a3)
     c7c:	e4042703          	lw	a4,-448(s0)
     c80:	00f70023          	sb	a5,0(a4)
     c84:	e4c5c783          	lbu	a5,-436(a1)
     c88:	01100593          	li	a1,17
     c8c:	00a7b793          	sltiu	a5,a5,10
     c90:	40f487b3          	sub	a5,s1,a5
     c94:	00378793          	addi	a5,a5,3
     c98:	1957ec63          	bltu	a5,s5,e30 <qrencode+0x2b8>
     c9c:	000064b7          	lui	s1,0x6
     ca0:	000067b7          	lui	a5,0x6
     ca4:	e384a503          	lw	a0,-456(s1) # 5e38 <qrframe>
     ca8:	e4042c03          	lw	s8,-448(s0)
     cac:	e547c303          	lbu	t1,-428(a5) # 5e54 <eccblkwid>
     cb0:	00100793          	li	a5,1
     cb4:	00f50023          	sb	a5,0(a0)
     cb8:	015c0cb3          	add	s9,s8,s5
     cbc:	4c0300e3          	beqz	t1,197c <qrencode+0xe04>
     cc0:	00004737          	lui	a4,0x4
     cc4:	fff30e13          	addi	t3,t1,-1
     cc8:	83870f93          	addi	t6,a4,-1992 # 3838 <g0log>
     ccc:	00f500a3          	sb	a5,1(a0)
     cd0:	00150593          	addi	a1,a0,1
     cd4:	0ffe7e13          	andi	t3,t3,255
     cd8:	00100813          	li	a6,1
     cdc:	00000613          	li	a2,0
     ce0:	00000793          	li	a5,0
     ce4:	03f12623          	sw	t6,44(sp)
     ce8:	0fe00893          	li	a7,254
     cec:	00100f13          	li	t5,1
     cf0:	0ff00e93          	li	t4,255
     cf4:	00c787b3          	add	a5,a5,a2
     cf8:	00f8d463          	bge	a7,a5,d00 <qrencode+0x188>
     cfc:	f0178793          	addi	a5,a5,-255
     d00:	00ff87b3          	add	a5,t6,a5
     d04:	1007c703          	lbu	a4,256(a5)
     d08:	00e50023          	sb	a4,0(a0)
     d0c:	14ce0663          	beq	t3,a2,e58 <qrencode+0x2e0>
     d10:	fff58693          	addi	a3,a1,-1
     d14:	01e580a3          	sb	t5,1(a1)
     d18:	40c686b3          	sub	a3,a3,a2
     d1c:	00058713          	mv	a4,a1
     d20:	0100006f          	j	d30 <qrencode+0x1b8>
     d24:	00570023          	sb	t0,0(a4)
     d28:	fff70713          	addi	a4,a4,-1
     d2c:	04e68063          	beq	a3,a4,d6c <qrencode+0x1f4>
     d30:	00074783          	lbu	a5,0(a4)
     d34:	fff74283          	lbu	t0,-1(a4)
     d38:	fe0786e3          	beqz	a5,d24 <qrencode+0x1ac>
     d3c:	00ff87b3          	add	a5,t6,a5
     d40:	0007c783          	lbu	a5,0(a5)
     d44:	010787b3          	add	a5,a5,a6
     d48:	00f8d663          	bge	a7,a5,d54 <qrencode+0x1dc>
     d4c:	f0178793          	addi	a5,a5,-255
     d50:	ffd78ee3          	beq	a5,t4,d4c <qrencode+0x1d4>
     d54:	00ff87b3          	add	a5,t6,a5
     d58:	1007c783          	lbu	a5,256(a5)
     d5c:	fff70713          	addi	a4,a4,-1
     d60:	00f2c2b3          	xor	t0,t0,a5
     d64:	005700a3          	sb	t0,1(a4)
     d68:	fce694e3          	bne	a3,a4,d30 <qrencode+0x1b8>
     d6c:	00054783          	lbu	a5,0(a0)
     d70:	00160613          	addi	a2,a2,1
     d74:	00158593          	addi	a1,a1,1
     d78:	00ff87b3          	add	a5,t6,a5
     d7c:	0007c783          	lbu	a5,0(a5)
     d80:	00180813          	addi	a6,a6,1
     d84:	f71ff06f          	j	cf4 <qrencode+0x17c>
     d88:	00900793          	li	a5,9
     d8c:	e6e7fee3          	bgeu	a5,a4,c08 <qrencode+0x90>
     d90:	009a0a33          	add	s4,s4,s1
     d94:	000a0123          	sb	zero,2(s4)
     d98:	fff48793          	addi	a5,s1,-1
     d9c:	fff00513          	li	a0,-1
     da0:	04048263          	beqz	s1,de4 <qrencode+0x26c>
     da4:	e4042703          	lw	a4,-448(s0)
     da8:	00378613          	addi	a2,a5,3
     dac:	00f706b3          	add	a3,a4,a5
     db0:	0006c683          	lbu	a3,0(a3)
     db4:	00c70733          	add	a4,a4,a2
     db8:	00074603          	lbu	a2,0(a4)
     dbc:	00469693          	slli	a3,a3,0x4
     dc0:	00c6e6b3          	or	a3,a3,a2
     dc4:	00d70023          	sb	a3,0(a4)
     dc8:	e4042703          	lw	a4,-448(s0)
     dcc:	00f70733          	add	a4,a4,a5
     dd0:	00074683          	lbu	a3,0(a4)
     dd4:	fff78793          	addi	a5,a5,-1
     dd8:	0046d693          	srli	a3,a3,0x4
     ddc:	00d70123          	sb	a3,2(a4)
     de0:	fca792e3          	bne	a5,a0,da4 <qrencode+0x22c>
     de4:	e4042603          	lw	a2,-448(s0)
     de8:	00449793          	slli	a5,s1,0x4
     dec:	0044d693          	srli	a3,s1,0x4
     df0:	00264503          	lbu	a0,2(a2)
     df4:	00c4d713          	srli	a4,s1,0xc
     df8:	04076713          	ori	a4,a4,64
     dfc:	00a7e7b3          	or	a5,a5,a0
     e00:	00f60123          	sb	a5,2(a2)
     e04:	e4042603          	lw	a2,-448(s0)
     e08:	fec00513          	li	a0,-20
     e0c:	00d600a3          	sb	a3,1(a2)
     e10:	e4042783          	lw	a5,-448(s0)
     e14:	00e78023          	sb	a4,0(a5)
     e18:	e4c5c783          	lbu	a5,-436(a1)
     e1c:	01100593          	li	a1,17
     e20:	00a7b793          	sltiu	a5,a5,10
     e24:	40f487b3          	sub	a5,s1,a5
     e28:	00378793          	addi	a5,a5,3
     e2c:	e757f8e3          	bgeu	a5,s5,c9c <qrencode+0x124>
     e30:	e4042683          	lw	a3,-448(s0)
     e34:	00178613          	addi	a2,a5,1
     e38:	00f686b3          	add	a3,a3,a5
     e3c:	00a68023          	sb	a0,0(a3)
     e40:	e4042703          	lw	a4,-448(s0)
     e44:	00278793          	addi	a5,a5,2
     e48:	00c70733          	add	a4,a4,a2
     e4c:	00b70023          	sb	a1,0(a4)
     e50:	ff57e0e3          	bltu	a5,s5,e30 <qrencode+0x2b8>
     e54:	e49ff06f          	j	c9c <qrencode+0x124>
     e58:	00000793          	li	a5,0
     e5c:	00050693          	mv	a3,a0
     e60:	02c12603          	lw	a2,44(sp)
     e64:	0080006f          	j	e6c <qrencode+0x2f4>
     e68:	0006c703          	lbu	a4,0(a3)
     e6c:	00e60733          	add	a4,a2,a4
     e70:	00074703          	lbu	a4,0(a4)
     e74:	00178793          	addi	a5,a5,1
     e78:	0ff7f793          	andi	a5,a5,255
     e7c:	00e68023          	sb	a4,0(a3)
     e80:	00f506b3          	add	a3,a0,a5
     e84:	fef372e3          	bgeu	t1,a5,e68 <qrencode+0x2f0>
     e88:	e469c783          	lbu	a5,-442(s3)
     e8c:	e4594b83          	lbu	s7,-443(s2)
     e90:	04078463          	beqz	a5,ed8 <qrencode+0x360>
     e94:	000067b7          	lui	a5,0x6
     e98:	e547c683          	lbu	a3,-428(a5) # 5e54 <eccblkwid>
     e9c:	00000a13          	li	s4,0
     ea0:	000b8593          	mv	a1,s7
     ea4:	e384a703          	lw	a4,-456(s1)
     ea8:	000c8613          	mv	a2,s9
     eac:	000c0513          	mv	a0,s8
     eb0:	b59ff0ef          	jal	ra,a08 <appendrs>
     eb4:	000067b7          	lui	a5,0x6
     eb8:	e547c683          	lbu	a3,-428(a5) # 5e54 <eccblkwid>
     ebc:	e4594583          	lbu	a1,-443(s2)
     ec0:	e469c783          	lbu	a5,-442(s3)
     ec4:	001a0a13          	addi	s4,s4,1
     ec8:	00bc0c33          	add	s8,s8,a1
     ecc:	00dc8cb3          	add	s9,s9,a3
     ed0:	fcfa6ae3          	bltu	s4,a5,ea4 <qrencode+0x32c>
     ed4:	00058b93          	mv	s7,a1
     ed8:	e44b4783          	lbu	a5,-444(s6)
     edc:	e384aa03          	lw	s4,-456(s1)
     ee0:	2a0788e3          	beqz	a5,1990 <qrencode+0xe18>
     ee4:	000067b7          	lui	a5,0x6
     ee8:	e547c683          	lbu	a3,-428(a5) # 5e54 <eccblkwid>
     eec:	00000d13          	li	s10,0
     ef0:	001b8593          	addi	a1,s7,1
     ef4:	000a0713          	mv	a4,s4
     ef8:	0080006f          	j	f00 <qrencode+0x388>
     efc:	e384a703          	lw	a4,-456(s1)
     f00:	000c8613          	mv	a2,s9
     f04:	0ff5f593          	andi	a1,a1,255
     f08:	000c0513          	mv	a0,s8
     f0c:	afdff0ef          	jal	ra,a08 <appendrs>
     f10:	000067b7          	lui	a5,0x6
     f14:	e4594b83          	lbu	s7,-443(s2)
     f18:	e547c683          	lbu	a3,-428(a5) # 5e54 <eccblkwid>
     f1c:	e44b4703          	lbu	a4,-444(s6)
     f20:	001b8593          	addi	a1,s7,1
     f24:	001d0d13          	addi	s10,s10,1
     f28:	00bc0c33          	add	s8,s8,a1
     f2c:	00dc8cb3          	add	s9,s9,a3
     f30:	fced66e3          	bltu	s10,a4,efc <qrencode+0x384>
     f34:	e384aa03          	lw	s4,-456(s1)
     f38:	e469c503          	lbu	a0,-442(s3)
     f3c:	00000c13          	li	s8,0
     f40:	0a0b8863          	beqz	s7,ff0 <qrencode+0x478>
     f44:	00000c13          	li	s8,0
     f48:	00000c93          	li	s9,0
     f4c:	02050c63          	beqz	a0,f84 <qrencode+0x40c>
     f50:	000c8593          	mv	a1,s9
     f54:	000b8513          	mv	a0,s7
     f58:	34c020ef          	jal	ra,32a4 <__mulsi3>
     f5c:	e4042783          	lw	a5,-448(s0)
     f60:	001a0a13          	addi	s4,s4,1
     f64:	001c8c93          	addi	s9,s9,1
     f68:	018787b3          	add	a5,a5,s8
     f6c:	00a78533          	add	a0,a5,a0
     f70:	00054783          	lbu	a5,0(a0)
     f74:	fefa0fa3          	sb	a5,-1(s4)
     f78:	e469c503          	lbu	a0,-442(s3)
     f7c:	e4594b83          	lbu	s7,-443(s2)
     f80:	fcace8e3          	bltu	s9,a0,f50 <qrencode+0x3d8>
     f84:	e44b4783          	lbu	a5,-444(s6)
     f88:	04078e63          	beqz	a5,fe4 <qrencode+0x46c>
     f8c:	00000c93          	li	s9,0
     f90:	00c0006f          	j	f9c <qrencode+0x424>
     f94:	e469c503          	lbu	a0,-442(s3)
     f98:	e4594b83          	lbu	s7,-443(s2)
     f9c:	000b8593          	mv	a1,s7
     fa0:	304020ef          	jal	ra,32a4 <__mulsi3>
     fa4:	00050d13          	mv	s10,a0
     fa8:	000c8593          	mv	a1,s9
     fac:	001b8513          	addi	a0,s7,1
     fb0:	2f4020ef          	jal	ra,32a4 <__mulsi3>
     fb4:	e4042783          	lw	a5,-448(s0)
     fb8:	001a0a13          	addi	s4,s4,1
     fbc:	001c8c93          	addi	s9,s9,1
     fc0:	018787b3          	add	a5,a5,s8
     fc4:	01a787b3          	add	a5,a5,s10
     fc8:	00a78533          	add	a0,a5,a0
     fcc:	00054783          	lbu	a5,0(a0)
     fd0:	fefa0fa3          	sb	a5,-1(s4)
     fd4:	e44b4783          	lbu	a5,-444(s6)
     fd8:	fafceee3          	bltu	s9,a5,f94 <qrencode+0x41c>
     fdc:	e4594b83          	lbu	s7,-443(s2)
     fe0:	e469c503          	lbu	a0,-442(s3)
     fe4:	001c0c13          	addi	s8,s8,1
     fe8:	f77c60e3          	bltu	s8,s7,f48 <qrencode+0x3d0>
     fec:	e44b4703          	lbu	a4,-444(s6)
     ff0:	04070863          	beqz	a4,1040 <qrencode+0x4c8>
     ff4:	00000b93          	li	s7,0
     ff8:	e4594c83          	lbu	s9,-443(s2)
     ffc:	001a0a13          	addi	s4,s4,1
    1000:	000c8593          	mv	a1,s9
    1004:	2a0020ef          	jal	ra,32a4 <__mulsi3>
    1008:	00050d13          	mv	s10,a0
    100c:	000b8593          	mv	a1,s7
    1010:	001c8513          	addi	a0,s9,1
    1014:	290020ef          	jal	ra,32a4 <__mulsi3>
    1018:	e4042783          	lw	a5,-448(s0)
    101c:	001b8b93          	addi	s7,s7,1
    1020:	018787b3          	add	a5,a5,s8
    1024:	01a787b3          	add	a5,a5,s10
    1028:	00a78533          	add	a0,a5,a0
    102c:	00054783          	lbu	a5,0(a0)
    1030:	fefa0fa3          	sb	a5,-1(s4)
    1034:	e44b4703          	lbu	a4,-444(s6)
    1038:	e469c503          	lbu	a0,-442(s3)
    103c:	faebeee3          	bltu	s7,a4,ff8 <qrencode+0x480>
    1040:	000067b7          	lui	a5,0x6
    1044:	e547c783          	lbu	a5,-428(a5) # 5e54 <eccblkwid>
    1048:	00e505b3          	add	a1,a0,a4
    104c:	00000c13          	li	s8,0
    1050:	00078513          	mv	a0,a5
    1054:	04078e63          	beqz	a5,10b0 <qrencode+0x538>
    1058:	018a8cb3          	add	s9,s5,s8
    105c:	00000b93          	li	s7,0
    1060:	04058063          	beqz	a1,10a0 <qrencode+0x528>
    1064:	000b8593          	mv	a1,s7
    1068:	23c020ef          	jal	ra,32a4 <__mulsi3>
    106c:	e4042783          	lw	a5,-448(s0)
    1070:	001a0a13          	addi	s4,s4,1
    1074:	001b8b93          	addi	s7,s7,1
    1078:	019787b3          	add	a5,a5,s9
    107c:	00a78533          	add	a0,a5,a0
    1080:	00054783          	lbu	a5,0(a0)
    1084:	fefa0fa3          	sb	a5,-1(s4)
    1088:	e44b4783          	lbu	a5,-444(s6)
    108c:	e469c583          	lbu	a1,-442(s3)
    1090:	00f585b3          	add	a1,a1,a5
    1094:	000067b7          	lui	a5,0x6
    1098:	e547c503          	lbu	a0,-428(a5) # 5e54 <eccblkwid>
    109c:	fcbbe4e3          	bltu	s7,a1,1064 <qrencode+0x4ec>
    10a0:	001c0c13          	addi	s8,s8,1
    10a4:	faac6ae3          	bltu	s8,a0,1058 <qrencode+0x4e0>
    10a8:	1fc020ef          	jal	ra,32a4 <__mulsi3>
    10ac:	00aa8ab3          	add	s5,s5,a0
    10b0:	e384a583          	lw	a1,-456(s1)
    10b4:	e4042503          	lw	a0,-448(s0)
    10b8:	000a8613          	mv	a2,s5
    10bc:	00006a37          	lui	s4,0x6
    10c0:	344020ef          	jal	ra,3404 <memcpy>
    10c4:	00006ab7          	lui	s5,0x6
    10c8:	e3ca4583          	lbu	a1,-452(s4) # 5e3c <WD>
    10cc:	e55ac503          	lbu	a0,-427(s5) # 5e55 <WDB>
    10d0:	e384ab83          	lw	s7,-456(s1)
    10d4:	1d0020ef          	jal	ra,32a4 <__mulsi3>
    10d8:	000067b7          	lui	a5,0x6
    10dc:	e487a583          	lw	a1,-440(a5) # 5e48 <framebase>
    10e0:	00050613          	mv	a2,a0
    10e4:	000b8513          	mv	a0,s7
    10e8:	31c020ef          	jal	ra,3404 <memcpy>
    10ec:	000067b7          	lui	a5,0x6
    10f0:	e547c703          	lbu	a4,-428(a5) # 5e54 <eccblkwid>
    10f4:	e44b4c03          	lbu	s8,-444(s6)
    10f8:	e3ca4b83          	lbu	s7,-452(s4)
    10fc:	e4594503          	lbu	a0,-443(s2)
    1100:	e469c583          	lbu	a1,-442(s3)
    1104:	fffb8793          	addi	a5,s7,-1
    1108:	00e50533          	add	a0,a0,a4
    110c:	018585b3          	add	a1,a1,s8
    1110:	0ff7fd93          	andi	s11,a5,255
    1114:	190020ef          	jal	ra,32a4 <__mulsi3>
    1118:	e384a783          	lw	a5,-456(s1)
    111c:	01850533          	add	a0,a0,s8
    1120:	00f12423          	sw	a5,8(sp)
    1124:	e55ac783          	lbu	a5,-427(s5)
    1128:	06050ce3          	beqz	a0,19a0 <qrencode+0xe28>
    112c:	00f12a23          	sw	a5,20(sp)
    1130:	00100793          	li	a5,1
    1134:	000d8d13          	mv	s10,s11
    1138:	00f12823          	sw	a5,16(sp)
    113c:	00100b93          	li	s7,1
    1140:	00012223          	sw	zero,4(sp)
    1144:	000d8c93          	mv	s9,s11
    1148:	00412783          	lw	a5,4(sp)
    114c:	e4042683          	lw	a3,-448(s0)
    1150:	00800c13          	li	s8,8
    1154:	00f686b3          	add	a3,a3,a5
    1158:	0006cd83          	lbu	s11,0(a3)
    115c:	000c8793          	mv	a5,s9
    1160:	000b8c93          	mv	s9,s7
    1164:	000d0b93          	mv	s7,s10
    1168:	00078d13          	mv	s10,a5
    116c:	01412583          	lw	a1,20(sp)
    1170:	018d9693          	slli	a3,s11,0x18
    1174:	4186d693          	srai	a3,a3,0x18
    1178:	00b12623          	sw	a1,12(sp)
    117c:	0406d463          	bgez	a3,11c4 <qrencode+0x64c>
    1180:	000d0513          	mv	a0,s10
    1184:	120020ef          	jal	ra,32a4 <__mulsi3>
    1188:	00812783          	lw	a5,8(sp)
    118c:	003bd693          	srli	a3,s7,0x3
    1190:	00a68533          	add	a0,a3,a0
    1194:	00a78533          	add	a0,a5,a0
    1198:	00054603          	lbu	a2,0(a0)
    119c:	08000793          	li	a5,128
    11a0:	007bf693          	andi	a3,s7,7
    11a4:	40d7d6b3          	sra	a3,a5,a3
    11a8:	00c6e6b3          	or	a3,a3,a2
    11ac:	00d50023          	sb	a3,0(a0)
    11b0:	e55ac783          	lbu	a5,-427(s5)
    11b4:	e384a703          	lw	a4,-456(s1)
    11b8:	00f12a23          	sw	a5,20(sp)
    11bc:	00e12423          	sw	a4,8(sp)
    11c0:	00f12623          	sw	a5,12(sp)
    11c4:	e3ca4783          	lbu	a5,-452(s4)
    11c8:	00006737          	lui	a4,0x6
    11cc:	e5872703          	lw	a4,-424(a4) # 5e58 <framask>
    11d0:	03812223          	sw	s8,36(sp)
    11d4:	01012c03          	lw	s8,16(sp)
    11d8:	02f12423          	sw	a5,40(sp)
    11dc:	fff78793          	addi	a5,a5,-1
    11e0:	00e12e23          	sw	a4,28(sp)
    11e4:	00f12c23          	sw	a5,24(sp)
    11e8:	03b12023          	sw	s11,32(sp)
    11ec:	2e0c0663          	beqz	s8,14d8 <qrencode+0x960>
    11f0:	fffb8b93          	addi	s7,s7,-1
    11f4:	0ffbfb93          	andi	s7,s7,255
    11f8:	000b8d93          	mv	s11,s7
    11fc:	000d0713          	mv	a4,s10
    1200:	001c4c13          	xori	s8,s8,1
    1204:	00e12823          	sw	a4,16(sp)
    1208:	0ffc7c13          	andi	s8,s8,255
    120c:	317d7063          	bgeu	s10,s7,150c <qrencode+0x994>
    1210:	000b8593          	mv	a1,s7
    1214:	000b8513          	mv	a0,s7
    1218:	08c020ef          	jal	ra,32a4 <__mulsi3>
    121c:	01012703          	lw	a4,16(sp)
    1220:	01b50533          	add	a0,a0,s11
    1224:	00155513          	srli	a0,a0,0x1
    1228:	00e50533          	add	a0,a0,a4
    122c:	fff54793          	not	a5,a0
    1230:	0077f793          	andi	a5,a5,7
    1234:	00355513          	srli	a0,a0,0x3
    1238:	01c12703          	lw	a4,28(sp)
    123c:	00a70533          	add	a0,a4,a0
    1240:	00054703          	lbu	a4,0(a0)
    1244:	40f757b3          	sra	a5,a4,a5
    1248:	0017f793          	andi	a5,a5,1
    124c:	fa0790e3          	bnez	a5,11ec <qrencode+0x674>
    1250:	01812823          	sw	s8,16(sp)
    1254:	02412c03          	lw	s8,36(sp)
    1258:	02012d83          	lw	s11,32(sp)
    125c:	fffc0c13          	addi	s8,s8,-1
    1260:	001d9d93          	slli	s11,s11,0x1
    1264:	0ffc7c13          	andi	s8,s8,255
    1268:	0ffdfd93          	andi	s11,s11,255
    126c:	f00c10e3          	bnez	s8,116c <qrencode+0x5f4>
    1270:	000d0793          	mv	a5,s10
    1274:	000b8d13          	mv	s10,s7
    1278:	000c8b93          	mv	s7,s9
    127c:	00078c93          	mv	s9,a5
    1280:	000067b7          	lui	a5,0x6
    1284:	e547c683          	lbu	a3,-428(a5) # 5e54 <eccblkwid>
    1288:	e44b4c03          	lbu	s8,-444(s6)
    128c:	00412783          	lw	a5,4(sp)
    1290:	e4594503          	lbu	a0,-443(s2)
    1294:	e469c583          	lbu	a1,-442(s3)
    1298:	00178d93          	addi	s11,a5,1
    129c:	00d50533          	add	a0,a0,a3
    12a0:	018585b3          	add	a1,a1,s8
    12a4:	01b12223          	sw	s11,4(sp)
    12a8:	7fd010ef          	jal	ra,32a4 <__mulsi3>
    12ac:	01850533          	add	a0,a0,s8
    12b0:	e8adcce3          	blt	s11,a0,1148 <qrencode+0x5d0>
    12b4:	02812503          	lw	a0,40(sp)
    12b8:	00c12583          	lw	a1,12(sp)
    12bc:	e4042903          	lw	s2,-448(s0)
    12c0:	00007d37          	lui	s10,0x7
    12c4:	7e1010ef          	jal	ra,32a4 <__mulsi3>
    12c8:	00812583          	lw	a1,8(sp)
    12cc:	00050613          	mv	a2,a0
    12d0:	00090513          	mv	a0,s2
    12d4:	130020ef          	jal	ra,3404 <memcpy>
    12d8:	530d0793          	addi	a5,s10,1328 # 7530 <TOHOST_ADDR+0x16bc>
    12dc:	00000b13          	li	s6,0
    12e0:	00012823          	sw	zero,16(sp)
    12e4:	00f12a23          	sw	a5,20(sp)
    12e8:	00006bb7          	lui	s7,0x6
    12ec:	00100c13          	li	s8,1
    12f0:	000b0513          	mv	a0,s6
    12f4:	d9dfe0ef          	jal	ra,90 <applymask>
    12f8:	e3ca4903          	lbu	s2,-452(s4)
    12fc:	fff90e13          	addi	t3,s2,-1
    1300:	67c05663          	blez	t3,196c <qrencode+0xdf4>
    1304:	e384a303          	lw	t1,-456(s1)
    1308:	e55acc83          	lbu	s9,-427(s5)
    130c:	00000993          	li	s3,0
    1310:	00000d13          	li	s10,0
    1314:	00000d93          	li	s11,0
    1318:	000d8593          	mv	a1,s11
    131c:	000c8513          	mv	a0,s9
    1320:	01c12623          	sw	t3,12(sp)
    1324:	00612423          	sw	t1,8(sp)
    1328:	77d010ef          	jal	ra,32a4 <__mulsi3>
    132c:	00a12223          	sw	a0,4(sp)
    1330:	000c8593          	mv	a1,s9
    1334:	001d8513          	addi	a0,s11,1
    1338:	76d010ef          	jal	ra,32a4 <__mulsi3>
    133c:	00812303          	lw	t1,8(sp)
    1340:	00412e83          	lw	t4,4(sp)
    1344:	00c12e03          	lw	t3,12(sp)
    1348:	00000693          	li	a3,0
    134c:	00000813          	li	a6,0
    1350:	01d30fb3          	add	t6,t1,t4
    1354:	00a30f33          	add	t5,t1,a0
    1358:	00385793          	srli	a5,a6,0x3
    135c:	00168593          	addi	a1,a3,1
    1360:	00f307b3          	add	a5,t1,a5
    1364:	01d78633          	add	a2,a5,t4
    1368:	4035d713          	srai	a4,a1,0x3
    136c:	00064283          	lbu	t0,0(a2)
    1370:	00ef83b3          	add	t2,t6,a4
    1374:	fff6c613          	not	a2,a3
    1378:	0003c683          	lbu	a3,0(t2)
    137c:	00767613          	andi	a2,a2,7
    1380:	fff5c593          	not	a1,a1
    1384:	0075f593          	andi	a1,a1,7
    1388:	40c2d2b3          	sra	t0,t0,a2
    138c:	40b6d6b3          	sra	a3,a3,a1
    1390:	0012f293          	andi	t0,t0,1
    1394:	0016f693          	andi	a3,a3,1
    1398:	00a787b3          	add	a5,a5,a0
    139c:	10028663          	beqz	t0,14a8 <qrencode+0x930>
    13a0:	02068663          	beqz	a3,13cc <qrencode+0x854>
    13a4:	0007c683          	lbu	a3,0(a5)
    13a8:	00ef0733          	add	a4,t5,a4
    13ac:	40c6d633          	sra	a2,a3,a2
    13b0:	00167613          	andi	a2,a2,1
    13b4:	00060c63          	beqz	a2,13cc <qrencode+0x854>
    13b8:	00074783          	lbu	a5,0(a4)
    13bc:	40b7d5b3          	sra	a1,a5,a1
    13c0:	0015f593          	andi	a1,a1,1
    13c4:	00058463          	beqz	a1,13cc <qrencode+0x854>
    13c8:	00398993          	addi	s3,s3,3
    13cc:	00180813          	addi	a6,a6,1
    13d0:	0ff87813          	andi	a6,a6,255
    13d4:	00080693          	mv	a3,a6
    13d8:	f9c840e3          	blt	a6,t3,1358 <qrencode+0x7e0>
    13dc:	001d0893          	addi	a7,s10,1
    13e0:	0ff8fd13          	andi	s10,a7,255
    13e4:	000d0d93          	mv	s11,s10
    13e8:	f3cd48e3          	blt	s10,t3,1318 <qrencode+0x7a0>
    13ec:	28090263          	beqz	s2,1670 <qrencode+0xaf8>
    13f0:	00000c93          	li	s9,0
    13f4:	00000d93          	li	s11,0
    13f8:	e50ba783          	lw	a5,-432(s7) # 5e50 <rlens>
    13fc:	00078023          	sb	zero,0(a5)
    1400:	e3ca4903          	lbu	s2,-452(s4)
    1404:	4c090c63          	beqz	s2,18dc <qrencode+0xd64>
    1408:	00000d13          	li	s10,0
    140c:	00000893          	li	a7,0
    1410:	00000793          	li	a5,0
    1414:	0340006f          	j	1448 <qrencode+0x8d0>
    1418:	0ff5fd13          	andi	s10,a1,255
    141c:	01a686b3          	add	a3,a3,s10
    1420:	01868023          	sb	s8,0(a3)
    1424:	00178793          	addi	a5,a5,1
    1428:	e3ca4903          	lbu	s2,-452(s4)
    142c:	0ff7f793          	andi	a5,a5,255
    1430:	00100693          	li	a3,1
    1434:	00071463          	bnez	a4,143c <qrencode+0x8c4>
    1438:	fff00693          	li	a3,-1
    143c:	00dc8cb3          	add	s9,s9,a3
    1440:	00070893          	mv	a7,a4
    1444:	0f27fa63          	bgeu	a5,s2,1538 <qrencode+0x9c0>
    1448:	e55ac503          	lbu	a0,-427(s5)
    144c:	000d8593          	mv	a1,s11
    1450:	01112423          	sw	a7,8(sp)
    1454:	00f12223          	sw	a5,4(sp)
    1458:	64d010ef          	jal	ra,32a4 <__mulsi3>
    145c:	e384a683          	lw	a3,-456(s1)
    1460:	00412783          	lw	a5,4(sp)
    1464:	00812883          	lw	a7,8(sp)
    1468:	00a68533          	add	a0,a3,a0
    146c:	0037d593          	srli	a1,a5,0x3
    1470:	00b50533          	add	a0,a0,a1
    1474:	00054683          	lbu	a3,0(a0)
    1478:	fff7c713          	not	a4,a5
    147c:	00777713          	andi	a4,a4,7
    1480:	40e6d733          	sra	a4,a3,a4
    1484:	00177713          	andi	a4,a4,1
    1488:	001d0593          	addi	a1,s10,1
    148c:	e50ba683          	lw	a3,-432(s7)
    1490:	f91714e3          	bne	a4,a7,1418 <qrencode+0x8a0>
    1494:	01a686b3          	add	a3,a3,s10
    1498:	0006c583          	lbu	a1,0(a3)
    149c:	00158593          	addi	a1,a1,1
    14a0:	00b68023          	sb	a1,0(a3)
    14a4:	f81ff06f          	j	1424 <qrencode+0x8ac>
    14a8:	f20692e3          	bnez	a3,13cc <qrencode+0x854>
    14ac:	0007c683          	lbu	a3,0(a5)
    14b0:	00ef0733          	add	a4,t5,a4
    14b4:	40c6d633          	sra	a2,a3,a2
    14b8:	00167613          	andi	a2,a2,1
    14bc:	f00618e3          	bnez	a2,13cc <qrencode+0x854>
    14c0:	00074783          	lbu	a5,0(a4)
    14c4:	40b7d5b3          	sra	a1,a5,a1
    14c8:	0015f593          	andi	a1,a1,1
    14cc:	f00590e3          	bnez	a1,13cc <qrencode+0x854>
    14d0:	00398993          	addi	s3,s3,3
    14d4:	ef9ff06f          	j	13cc <qrencode+0x854>
    14d8:	001b8793          	addi	a5,s7,1
    14dc:	0ff7f793          	andi	a5,a5,255
    14e0:	340c8463          	beqz	s9,1828 <qrencode+0xcb0>
    14e4:	320d0263          	beqz	s10,1808 <qrencode+0xc90>
    14e8:	fffd0d13          	addi	s10,s10,-1
    14ec:	0ffd7d13          	andi	s10,s10,255
    14f0:	000d0713          	mv	a4,s10
    14f4:	001c4c13          	xori	s8,s8,1
    14f8:	00078b93          	mv	s7,a5
    14fc:	00e12823          	sw	a4,16(sp)
    1500:	00078d93          	mv	s11,a5
    1504:	0ffc7c13          	andi	s8,s8,255
    1508:	d17d64e3          	bltu	s10,s7,1210 <qrencode+0x698>
    150c:	000d0593          	mv	a1,s10
    1510:	000d0513          	mv	a0,s10
    1514:	591010ef          	jal	ra,32a4 <__mulsi3>
    1518:	01012703          	lw	a4,16(sp)
    151c:	00e50533          	add	a0,a0,a4
    1520:	00155513          	srli	a0,a0,0x1
    1524:	01b50533          	add	a0,a0,s11
    1528:	fff54793          	not	a5,a0
    152c:	0077f793          	andi	a5,a5,7
    1530:	00355513          	srli	a0,a0,0x3
    1534:	d05ff06f          	j	1238 <qrencode+0x6c0>
    1538:	000d0513          	mv	a0,s10
    153c:	c00ff0ef          	jal	ra,93c <badruns>
    1540:	001d8613          	addi	a2,s11,1
    1544:	0ff67d93          	andi	s11,a2,255
    1548:	00a989b3          	add	s3,s3,a0
    154c:	eb2de6e3          	bltu	s11,s2,13f8 <qrencode+0x880>
    1550:	41fcd793          	srai	a5,s9,0x1f
    1554:	0197ccb3          	xor	s9,a5,s9
    1558:	40fc8cb3          	sub	s9,s9,a5
    155c:	002c9793          	slli	a5,s9,0x2
    1560:	00fc8cb3          	add	s9,s9,a5
    1564:	00090593          	mv	a1,s2
    1568:	00090513          	mv	a0,s2
    156c:	001c9c93          	slli	s9,s9,0x1
    1570:	535010ef          	jal	ra,32a4 <__mulsi3>
    1574:	03957263          	bgeu	a0,s9,1598 <qrencode+0xa20>
    1578:	00000713          	li	a4,0
    157c:	40ac8cb3          	sub	s9,s9,a0
    1580:	00170713          	addi	a4,a4,1
    1584:	ff956ce3          	bltu	a0,s9,157c <qrencode+0xa04>
    1588:	00271793          	slli	a5,a4,0x2
    158c:	00e787b3          	add	a5,a5,a4
    1590:	00179793          	slli	a5,a5,0x1
    1594:	00f989b3          	add	s3,s3,a5
    1598:	0c090c63          	beqz	s2,1670 <qrencode+0xaf8>
    159c:	00000c93          	li	s9,0
    15a0:	e50ba783          	lw	a5,-432(s7)
    15a4:	00078023          	sb	zero,0(a5)
    15a8:	e3ca4903          	lbu	s2,-452(s4)
    15ac:	36090063          	beqz	s2,190c <qrencode+0xd94>
    15b0:	fffcc813          	not	a6,s9
    15b4:	003cd893          	srli	a7,s9,0x3
    15b8:	00787813          	andi	a6,a6,7
    15bc:	00000d13          	li	s10,0
    15c0:	00000313          	li	t1,0
    15c4:	00000d93          	li	s11,0
    15c8:	0240006f          	j	15ec <qrencode+0xa74>
    15cc:	0ff5fd13          	andi	s10,a1,255
    15d0:	01a787b3          	add	a5,a5,s10
    15d4:	01878023          	sb	s8,0(a5)
    15d8:	e3ca4903          	lbu	s2,-452(s4)
    15dc:	001d8713          	addi	a4,s11,1
    15e0:	0ff77d93          	andi	s11,a4,255
    15e4:	00068313          	mv	t1,a3
    15e8:	072df863          	bgeu	s11,s2,1658 <qrencode+0xae0>
    15ec:	e55ac503          	lbu	a0,-427(s5)
    15f0:	000d8593          	mv	a1,s11
    15f4:	01012623          	sw	a6,12(sp)
    15f8:	01112423          	sw	a7,8(sp)
    15fc:	00612223          	sw	t1,4(sp)
    1600:	4a5010ef          	jal	ra,32a4 <__mulsi3>
    1604:	e384a683          	lw	a3,-456(s1)
    1608:	00812883          	lw	a7,8(sp)
    160c:	00c12803          	lw	a6,12(sp)
    1610:	00412303          	lw	t1,4(sp)
    1614:	011686b3          	add	a3,a3,a7
    1618:	00a68533          	add	a0,a3,a0
    161c:	00054683          	lbu	a3,0(a0)
    1620:	001d0593          	addi	a1,s10,1
    1624:	e50ba783          	lw	a5,-432(s7)
    1628:	4106d6b3          	sra	a3,a3,a6
    162c:	0016f693          	andi	a3,a3,1
    1630:	f8669ee3          	bne	a3,t1,15cc <qrencode+0xa54>
    1634:	01a787b3          	add	a5,a5,s10
    1638:	0007c583          	lbu	a1,0(a5)
    163c:	001d8713          	addi	a4,s11,1
    1640:	0ff77d93          	andi	s11,a4,255
    1644:	00158593          	addi	a1,a1,1
    1648:	00b78023          	sb	a1,0(a5)
    164c:	e3ca4903          	lbu	s2,-452(s4)
    1650:	00068313          	mv	t1,a3
    1654:	f92dece3          	bltu	s11,s2,15ec <qrencode+0xa74>
    1658:	000d0513          	mv	a0,s10
    165c:	001c8c93          	addi	s9,s9,1
    1660:	adcff0ef          	jal	ra,93c <badruns>
    1664:	0ffcfc93          	andi	s9,s9,255
    1668:	00a989b3          	add	s3,s3,a0
    166c:	f32ceae3          	bltu	s9,s2,15a0 <qrencode+0xa28>
    1670:	01412783          	lw	a5,20(sp)
    1674:	00f9f663          	bgeu	s3,a5,1680 <qrencode+0xb08>
    1678:	01612823          	sw	s6,16(sp)
    167c:	01312a23          	sw	s3,20(sp)
    1680:	01012703          	lw	a4,16(sp)
    1684:	00700793          	li	a5,7
    1688:	2ef70663          	beq	a4,a5,1974 <qrencode+0xdfc>
    168c:	e55ac503          	lbu	a0,-427(s5)
    1690:	00090593          	mv	a1,s2
    1694:	e384a903          	lw	s2,-456(s1)
    1698:	40d010ef          	jal	ra,32a4 <__mulsi3>
    169c:	e4042583          	lw	a1,-448(s0)
    16a0:	00050613          	mv	a2,a0
    16a4:	00090513          	mv	a0,s2
    16a8:	55d010ef          	jal	ra,3404 <memcpy>
    16ac:	001b0b13          	addi	s6,s6,1
    16b0:	0ffb7b13          	andi	s6,s6,255
    16b4:	00800793          	li	a5,8
    16b8:	c2fb1ce3          	bne	s6,a5,12f0 <qrencode+0x778>
    16bc:	01012903          	lw	s2,16(sp)
    16c0:	01012783          	lw	a5,16(sp)
    16c4:	01678663          	beq	a5,s6,16d0 <qrencode+0xb58>
    16c8:	00078513          	mv	a0,a5
    16cc:	9c5fe0ef          	jal	ra,90 <applymask>
    16d0:	00006737          	lui	a4,0x6
    16d4:	e3474783          	lbu	a5,-460(a4) # 5e34 <ECCLEVEL>
    16d8:	02c12703          	lw	a4,44(sp)
    16dc:	00000b93          	li	s7,0
    16e0:	fff78793          	addi	a5,a5,-1
    16e4:	0ff7f793          	andi	a5,a5,255
    16e8:	00379793          	slli	a5,a5,0x3
    16ec:	012787b3          	add	a5,a5,s2
    16f0:	00279793          	slli	a5,a5,0x2
    16f4:	00f707b3          	add	a5,a4,a5
    16f8:	2007ab03          	lw	s6,512(a5)
    16fc:	00700413          	li	s0,7
    1700:	08000993          	li	s3,128
    1704:	001b7793          	andi	a5,s6,1
    1708:	00500913          	li	s2,5
    170c:	001b5b13          	srli	s6,s6,0x1
    1710:	06078a63          	beqz	a5,1784 <qrencode+0xc0c>
    1714:	e3ca4783          	lbu	a5,-452(s4)
    1718:	e55ac703          	lbu	a4,-427(s5)
    171c:	e384a683          	lw	a3,-456(s1)
    1720:	fff78793          	addi	a5,a5,-1
    1724:	417787b3          	sub	a5,a5,s7
    1728:	4037d613          	srai	a2,a5,0x3
    172c:	00371713          	slli	a4,a4,0x3
    1730:	00c70733          	add	a4,a4,a2
    1734:	00e68733          	add	a4,a3,a4
    1738:	00074683          	lbu	a3,0(a4)
    173c:	0077f793          	andi	a5,a5,7
    1740:	40f9d7b3          	sra	a5,s3,a5
    1744:	00d7e7b3          	or	a5,a5,a3
    1748:	00f70023          	sb	a5,0(a4)
    174c:	000b8593          	mv	a1,s7
    1750:	e55ac503          	lbu	a0,-427(s5)
    1754:	1f796663          	bltu	s2,s7,1940 <qrencode+0xdc8>
    1758:	34d010ef          	jal	ra,32a4 <__mulsi3>
    175c:	e384a783          	lw	a5,-456(s1)
    1760:	00150513          	addi	a0,a0,1
    1764:	00a78533          	add	a0,a5,a0
    1768:	00054783          	lbu	a5,0(a0)
    176c:	f807e793          	ori	a5,a5,-128
    1770:	00f50023          	sb	a5,0(a0)
    1774:	001b7793          	andi	a5,s6,1
    1778:	001b8b93          	addi	s7,s7,1
    177c:	001b5b13          	srli	s6,s6,0x1
    1780:	f8079ae3          	bnez	a5,1714 <qrencode+0xb9c>
    1784:	0ffbf793          	andi	a5,s7,255
    1788:	fe8796e3          	bne	a5,s0,1774 <qrencode+0xbfc>
    178c:	00000413          	li	s0,0
    1790:	00600993          	li	s3,6
    1794:	08000913          	li	s2,128
    1798:	001b7793          	andi	a5,s6,1
    179c:	001b5b13          	srli	s6,s6,0x1
    17a0:	04078c63          	beqz	a5,17f8 <qrencode+0xc80>
    17a4:	e3ca4503          	lbu	a0,-452(s4)
    17a8:	e55ac583          	lbu	a1,-427(s5)
    17ac:	ff950513          	addi	a0,a0,-7
    17b0:	00850533          	add	a0,a0,s0
    17b4:	2f1010ef          	jal	ra,32a4 <__mulsi3>
    17b8:	e384a783          	lw	a5,-456(s1)
    17bc:	00150513          	addi	a0,a0,1
    17c0:	40898733          	sub	a4,s3,s0
    17c4:	00a78533          	add	a0,a5,a0
    17c8:	00054783          	lbu	a5,0(a0)
    17cc:	40e95733          	sra	a4,s2,a4
    17d0:	f807e793          	ori	a5,a5,-128
    17d4:	00f50023          	sb	a5,0(a0)
    17d8:	14040263          	beqz	s0,191c <qrencode+0xda4>
    17dc:	e55ac683          	lbu	a3,-427(s5)
    17e0:	e384a783          	lw	a5,-456(s1)
    17e4:	00369693          	slli	a3,a3,0x3
    17e8:	00d787b3          	add	a5,a5,a3
    17ec:	0007c683          	lbu	a3,0(a5)
    17f0:	00d76733          	or	a4,a4,a3
    17f4:	00e78023          	sb	a4,0(a5)
    17f8:	0ff47793          	andi	a5,s0,255
    17fc:	0b378263          	beq	a5,s3,18a0 <qrencode+0xd28>
    1800:	00140413          	addi	s0,s0,1
    1804:	f95ff06f          	j	1798 <qrencode+0xc20>
    1808:	fffb8b93          	addi	s7,s7,-1
    180c:	0ffbfb93          	andi	s7,s7,255
    1810:	00600793          	li	a5,6
    1814:	02fb8a63          	beq	s7,a5,1848 <qrencode+0xcd0>
    1818:	000b8d93          	mv	s11,s7
    181c:	00000c93          	li	s9,0
    1820:	00000713          	li	a4,0
    1824:	9ddff06f          	j	1200 <qrencode+0x688>
    1828:	01812703          	lw	a4,24(sp)
    182c:	02ed0c63          	beq	s10,a4,1864 <qrencode+0xcec>
    1830:	001d0d13          	addi	s10,s10,1
    1834:	0ffd7d13          	andi	s10,s10,255
    1838:	00078d93          	mv	s11,a5
    183c:	000d0713          	mv	a4,s10
    1840:	00078b93          	mv	s7,a5
    1844:	9bdff06f          	j	1200 <qrencode+0x688>
    1848:	000c8c13          	mv	s8,s9
    184c:	00500793          	li	a5,5
    1850:	00000c93          	li	s9,0
    1854:	00600513          	li	a0,6
    1858:	00900d13          	li	s10,9
    185c:	00500b93          	li	s7,5
    1860:	9d9ff06f          	j	1238 <qrencode+0x6c0>
    1864:	fffb8b93          	addi	s7,s7,-1
    1868:	0ffbfb93          	andi	s7,s7,255
    186c:	00600793          	li	a5,6
    1870:	00fb8a63          	beq	s7,a5,1884 <qrencode+0xd0c>
    1874:	000b8d93          	mv	s11,s7
    1878:	000d0713          	mv	a4,s10
    187c:	00100c93          	li	s9,1
    1880:	981ff06f          	j	1200 <qrencode+0x688>
    1884:	ff8d0d13          	addi	s10,s10,-8
    1888:	0ffd7d13          	andi	s10,s10,255
    188c:	000d0713          	mv	a4,s10
    1890:	00500d93          	li	s11,5
    1894:	00100c93          	li	s9,1
    1898:	00500b93          	li	s7,5
    189c:	965ff06f          	j	1200 <qrencode+0x688>
    18a0:	06c12083          	lw	ra,108(sp)
    18a4:	06812403          	lw	s0,104(sp)
    18a8:	06412483          	lw	s1,100(sp)
    18ac:	06012903          	lw	s2,96(sp)
    18b0:	05c12983          	lw	s3,92(sp)
    18b4:	05812a03          	lw	s4,88(sp)
    18b8:	05412a83          	lw	s5,84(sp)
    18bc:	05012b03          	lw	s6,80(sp)
    18c0:	04c12b83          	lw	s7,76(sp)
    18c4:	04812c03          	lw	s8,72(sp)
    18c8:	04412c83          	lw	s9,68(sp)
    18cc:	04012d03          	lw	s10,64(sp)
    18d0:	03c12d83          	lw	s11,60(sp)
    18d4:	07010113          	addi	sp,sp,112
    18d8:	00008067          	ret
    18dc:	00000513          	li	a0,0
    18e0:	85cff0ef          	jal	ra,93c <badruns>
    18e4:	41fcd793          	srai	a5,s9,0x1f
    18e8:	0197ccb3          	xor	s9,a5,s9
    18ec:	40fc8cb3          	sub	s9,s9,a5
    18f0:	002c9793          	slli	a5,s9,0x2
    18f4:	01978cb3          	add	s9,a5,s9
    18f8:	001c9c93          	slli	s9,s9,0x1
    18fc:	00a989b3          	add	s3,s3,a0
    1900:	00000513          	li	a0,0
    1904:	c60c9ae3          	bnez	s9,1578 <qrencode+0xa00>
    1908:	d69ff06f          	j	1670 <qrencode+0xaf8>
    190c:	00000513          	li	a0,0
    1910:	82cff0ef          	jal	ra,93c <badruns>
    1914:	00a989b3          	add	s3,s3,a0
    1918:	d59ff06f          	j	1670 <qrencode+0xaf8>
    191c:	e55ac703          	lbu	a4,-427(s5)
    1920:	e384a783          	lw	a5,-456(s1)
    1924:	00140413          	addi	s0,s0,1
    1928:	00371713          	slli	a4,a4,0x3
    192c:	00e787b3          	add	a5,a5,a4
    1930:	0007c703          	lbu	a4,0(a5)
    1934:	00176713          	ori	a4,a4,1
    1938:	00e78023          	sb	a4,0(a5)
    193c:	e5dff06f          	j	1798 <qrencode+0xc20>
    1940:	001b8593          	addi	a1,s7,1
    1944:	161010ef          	jal	ra,32a4 <__mulsi3>
    1948:	e384a783          	lw	a5,-456(s1)
    194c:	00150513          	addi	a0,a0,1
    1950:	00a78533          	add	a0,a5,a0
    1954:	00054783          	lbu	a5,0(a0)
    1958:	f807e793          	ori	a5,a5,-128
    195c:	00f50023          	sb	a5,0(a0)
    1960:	0ffbf793          	andi	a5,s7,255
    1964:	e08798e3          	bne	a5,s0,1774 <qrencode+0xbfc>
    1968:	e25ff06f          	j	178c <qrencode+0xc14>
    196c:	00000993          	li	s3,0
    1970:	a7dff06f          	j	13ec <qrencode+0x874>
    1974:	00700913          	li	s2,7
    1978:	d49ff06f          	j	16c0 <qrencode+0xb48>
    197c:	00004737          	lui	a4,0x4
    1980:	83870793          	addi	a5,a4,-1992 # 3838 <g0log>
    1984:	00050023          	sb	zero,0(a0)
    1988:	02f12623          	sw	a5,44(sp)
    198c:	cfcff06f          	j	e88 <qrencode+0x310>
    1990:	e469c503          	lbu	a0,-442(s3)
    1994:	00000713          	li	a4,0
    1998:	da0b9663          	bnez	s7,f44 <qrencode+0x3cc>
    199c:	ea4ff06f          	j	1040 <qrencode+0x4c8>
    19a0:	00f12623          	sw	a5,12(sp)
    19a4:	000b8513          	mv	a0,s7
    19a8:	911ff06f          	j	12b8 <qrencode+0x740>

000019ac <benchmark_body>:
    19ac:	0ca05463          	blez	a0,1a74 <benchmark_body+0xc8>
    19b0:	fd010113          	addi	sp,sp,-48
    19b4:	01412c23          	sw	s4,24(sp)
    19b8:	00004a37          	lui	s4,0x4
    19bc:	02812423          	sw	s0,40(sp)
    19c0:	02912223          	sw	s1,36(sp)
    19c4:	03212023          	sw	s2,32(sp)
    19c8:	01312e23          	sw	s3,28(sp)
    19cc:	01512a23          	sw	s5,20(sp)
    19d0:	01612823          	sw	s6,16(sp)
    19d4:	01712623          	sw	s7,12(sp)
    19d8:	02112623          	sw	ra,44(sp)
    19dc:	00050993          	mv	s3,a0
    19e0:	00000493          	li	s1,0
    19e4:	00006937          	lui	s2,0x6
    19e8:	e04a0a13          	addi	s4,s4,-508 # 3e04 <eccblocks+0x280>
    19ec:	00006437          	lui	s0,0x6
    19f0:	00004bb7          	lui	s7,0x4
    19f4:	00006b37          	lui	s6,0x6
    19f8:	01600a93          	li	s5,22
    19fc:	000025b7          	lui	a1,0x2
    1a00:	e34b8513          	addi	a0,s7,-460 # 3e34 <heap>
    1a04:	e7492023          	sw	s4,-416(s2) # 5e60 <encode>
    1a08:	e5542e23          	sw	s5,-420(s0) # 5e5c <size>
    1a0c:	5a8010ef          	jal	ra,2fb4 <init_heap_beebs>
    1a10:	e5c42583          	lw	a1,-420(s0)
    1a14:	00100513          	li	a0,1
    1a18:	00148493          	addi	s1,s1,1
    1a1c:	420010ef          	jal	ra,2e3c <initeccsize>
    1a20:	e5c42603          	lw	a2,-420(s0)
    1a24:	e6092583          	lw	a1,-416(s2)
    1a28:	e40b2503          	lw	a0,-448(s6) # 5e40 <strinbuf>
    1a2c:	1d9010ef          	jal	ra,3404 <memcpy>
    1a30:	42c000ef          	jal	ra,1e5c <initframe>
    1a34:	944ff0ef          	jal	ra,b78 <qrencode>
    1a38:	28c010ef          	jal	ra,2cc4 <freeframe>
    1a3c:	4cc010ef          	jal	ra,2f08 <freeecc>
    1a40:	fa999ee3          	bne	s3,s1,19fc <benchmark_body+0x50>
    1a44:	02c12083          	lw	ra,44(sp)
    1a48:	02812403          	lw	s0,40(sp)
    1a4c:	02412483          	lw	s1,36(sp)
    1a50:	02012903          	lw	s2,32(sp)
    1a54:	01c12983          	lw	s3,28(sp)
    1a58:	01812a03          	lw	s4,24(sp)
    1a5c:	01412a83          	lw	s5,20(sp)
    1a60:	01012b03          	lw	s6,16(sp)
    1a64:	00c12b83          	lw	s7,12(sp)
    1a68:	00000513          	li	a0,0
    1a6c:	03010113          	addi	sp,sp,48
    1a70:	00008067          	ret
    1a74:	00000513          	li	a0,0
    1a78:	00008067          	ret

00001a7c <warm_caches>:
    1a7c:	f31ff06f          	j	19ac <benchmark_body>

00001a80 <benchmark>:
    1a80:	25800513          	li	a0,600
    1a84:	f29ff06f          	j	19ac <benchmark_body>

00001a88 <initialise_benchmark>:
    1a88:	00008067          	ret

00001a8c <verify_benchmark>:
    1a8c:	000047b7          	lui	a5,0x4
    1a90:	ab878793          	addi	a5,a5,-1352 # 3ab8 <fmtword+0x80>
    1a94:	00006637          	lui	a2,0x6
    1a98:	0007a303          	lw	t1,0(a5)
    1a9c:	0047a883          	lw	a7,4(a5)
    1aa0:	0087a803          	lw	a6,8(a5)
    1aa4:	00c7a683          	lw	a3,12(a5)
    1aa8:	0107a703          	lw	a4,16(a5)
    1aac:	e4062503          	lw	a0,-448(a2) # 5e40 <strinbuf>
    1ab0:	0147d783          	lhu	a5,20(a5)
    1ab4:	fd010113          	addi	sp,sp,-48
    1ab8:	01600613          	li	a2,22
    1abc:	00810593          	addi	a1,sp,8
    1ac0:	00f11e23          	sh	a5,28(sp)
    1ac4:	02112623          	sw	ra,44(sp)
    1ac8:	00612423          	sw	t1,8(sp)
    1acc:	01112623          	sw	a7,12(sp)
    1ad0:	01012823          	sw	a6,16(sp)
    1ad4:	00d12a23          	sw	a3,20(sp)
    1ad8:	00e12c23          	sw	a4,24(sp)
    1adc:	0a1010ef          	jal	ra,337c <memcmp>
    1ae0:	00000793          	li	a5,0
    1ae4:	00050a63          	beqz	a0,1af8 <verify_benchmark+0x6c>
    1ae8:	02c12083          	lw	ra,44(sp)
    1aec:	00078513          	mv	a0,a5
    1af0:	03010113          	addi	sp,sp,48
    1af4:	00008067          	ret
    1af8:	00004537          	lui	a0,0x4
    1afc:	e3450513          	addi	a0,a0,-460 # 3e34 <heap>
    1b00:	4d4010ef          	jal	ra,2fd4 <check_heap_beebs>
    1b04:	02c12083          	lw	ra,44(sp)
    1b08:	00a037b3          	snez	a5,a0
    1b0c:	00078513          	mv	a0,a5
    1b10:	03010113          	addi	sp,sp,48
    1b14:	00008067          	ret

00001b18 <putalign>:
    1b18:	fb010113          	addi	sp,sp,-80
    1b1c:	03312e23          	sw	s3,60(sp)
    1b20:	000069b7          	lui	s3,0x6
    1b24:	04812423          	sw	s0,72(sp)
    1b28:	00050413          	mv	s0,a0
    1b2c:	e559c503          	lbu	a0,-427(s3) # 5e55 <WDB>
    1b30:	04912223          	sw	s1,68(sp)
    1b34:	05212023          	sw	s2,64(sp)
    1b38:	03412c23          	sw	s4,56(sp)
    1b3c:	00058913          	mv	s2,a1
    1b40:	03512a23          	sw	s5,52(sp)
    1b44:	03612823          	sw	s6,48(sp)
    1b48:	03712623          	sw	s7,44(sp)
    1b4c:	03812423          	sw	s8,40(sp)
    1b50:	03912223          	sw	s9,36(sp)
    1b54:	03a12023          	sw	s10,32(sp)
    1b58:	01b12e23          	sw	s11,28(sp)
    1b5c:	00b12623          	sw	a1,12(sp)
    1b60:	04112623          	sw	ra,76(sp)
    1b64:	00006db7          	lui	s11,0x6
    1b68:	73c010ef          	jal	ra,32a4 <__mulsi3>
    1b6c:	e48da783          	lw	a5,-440(s11) # 5e48 <framebase>
    1b70:	40345713          	srai	a4,s0,0x3
    1b74:	00e50533          	add	a0,a0,a4
    1b78:	00a78533          	add	a0,a5,a0
    1b7c:	00054583          	lbu	a1,0(a0)
    1b80:	08000a93          	li	s5,128
    1b84:	00747713          	andi	a4,s0,7
    1b88:	40ead733          	sra	a4,s5,a4
    1b8c:	ffe40793          	addi	a5,s0,-2
    1b90:	00240b93          	addi	s7,s0,2
    1b94:	00b76733          	or	a4,a4,a1
    1b98:	0077f493          	andi	s1,a5,7
    1b9c:	007bf613          	andi	a2,s7,7
    1ba0:	00e50023          	sb	a4,0(a0)
    1ba4:	403bd713          	srai	a4,s7,0x3
    1ba8:	409adc33          	sra	s8,s5,s1
    1bac:	00e12023          	sw	a4,0(sp)
    1bb0:	40cadab3          	sra	s5,s5,a2
    1bb4:	ffe90713          	addi	a4,s2,-2
    1bb8:	4037dc93          	srai	s9,a5,0x3
    1bbc:	018c1c13          	slli	s8,s8,0x18
    1bc0:	018a9a93          	slli	s5,s5,0x18
    1bc4:	00e12223          	sw	a4,4(sp)
    1bc8:	00290713          	addi	a4,s2,2
    1bcc:	fff90a13          	addi	s4,s2,-1
    1bd0:	418c5c13          	srai	s8,s8,0x18
    1bd4:	418ada93          	srai	s5,s5,0x18
    1bd8:	00e12423          	sw	a4,8(sp)
    1bdc:	00078d13          	mv	s10,a5
    1be0:	000c8913          	mv	s2,s9
    1be4:	08000b13          	li	s6,128
    1be8:	e559c503          	lbu	a0,-427(s3)
    1bec:	00412583          	lw	a1,4(sp)
    1bf0:	409b54b3          	sra	s1,s6,s1
    1bf4:	001d0d13          	addi	s10,s10,1
    1bf8:	6ac010ef          	jal	ra,32a4 <__mulsi3>
    1bfc:	e48da703          	lw	a4,-440(s11)
    1c00:	01250533          	add	a0,a0,s2
    1c04:	000a0593          	mv	a1,s4
    1c08:	00a70533          	add	a0,a4,a0
    1c0c:	00054703          	lbu	a4,0(a0)
    1c10:	403d5913          	srai	s2,s10,0x3
    1c14:	00e4e4b3          	or	s1,s1,a4
    1c18:	00950023          	sb	s1,0(a0)
    1c1c:	e559c503          	lbu	a0,-427(s3)
    1c20:	007d7493          	andi	s1,s10,7
    1c24:	680010ef          	jal	ra,32a4 <__mulsi3>
    1c28:	e48da703          	lw	a4,-440(s11)
    1c2c:	01950533          	add	a0,a0,s9
    1c30:	fffa0593          	addi	a1,s4,-1
    1c34:	00a70533          	add	a0,a4,a0
    1c38:	00054703          	lbu	a4,0(a0)
    1c3c:	001a0a13          	addi	s4,s4,1
    1c40:	00ec6733          	or	a4,s8,a4
    1c44:	00e50023          	sb	a4,0(a0)
    1c48:	e559c503          	lbu	a0,-427(s3)
    1c4c:	658010ef          	jal	ra,32a4 <__mulsi3>
    1c50:	00012783          	lw	a5,0(sp)
    1c54:	e48da703          	lw	a4,-440(s11)
    1c58:	00812583          	lw	a1,8(sp)
    1c5c:	00f50533          	add	a0,a0,a5
    1c60:	00a70533          	add	a0,a4,a0
    1c64:	00054703          	lbu	a4,0(a0)
    1c68:	00eae733          	or	a4,s5,a4
    1c6c:	00e50023          	sb	a4,0(a0)
    1c70:	e559c503          	lbu	a0,-427(s3)
    1c74:	630010ef          	jal	ra,32a4 <__mulsi3>
    1c78:	e48da703          	lw	a4,-440(s11)
    1c7c:	01250533          	add	a0,a0,s2
    1c80:	409b5633          	sra	a2,s6,s1
    1c84:	00a70533          	add	a0,a4,a0
    1c88:	00054703          	lbu	a4,0(a0)
    1c8c:	00e66633          	or	a2,a2,a4
    1c90:	00c50023          	sb	a2,0(a0)
    1c94:	f5ab9ae3          	bne	s7,s10,1be8 <putalign+0xd0>
    1c98:	00c14783          	lbu	a5,12(sp)
    1c9c:	0ff47413          	andi	s0,s0,255
    1ca0:	fff40a93          	addi	s5,s0,-1
    1ca4:	00278b13          	addi	s6,a5,2
    1ca8:	0ffb7713          	andi	a4,s6,255
    1cac:	00140d13          	addi	s10,s0,1
    1cb0:	fff78a13          	addi	s4,a5,-1
    1cb4:	00178c13          	addi	s8,a5,1
    1cb8:	0ffafa93          	andi	s5,s5,255
    1cbc:	00e12023          	sw	a4,0(sp)
    1cc0:	0ffd7c93          	andi	s9,s10,255
    1cc4:	0ffa7a13          	andi	s4,s4,255
    1cc8:	0ffc7b93          	andi	s7,s8,255
    1ccc:	00078913          	mv	s2,a5
    1cd0:	00040493          	mv	s1,s0
    1cd4:	00006b37          	lui	s6,0x6
    1cd8:	08000993          	li	s3,128
    1cdc:	1357f063          	bgeu	a5,s5,1dfc <putalign+0x2e4>
    1ce0:	000a8513          	mv	a0,s5
    1ce4:	00078d93          	mv	s11,a5
    1ce8:	00150593          	addi	a1,a0,1
    1cec:	5b8010ef          	jal	ra,32a4 <__mulsi3>
    1cf0:	e58b2683          	lw	a3,-424(s6) # 5e58 <framask>
    1cf4:	00155793          	srli	a5,a0,0x1
    1cf8:	00fd87b3          	add	a5,s11,a5
    1cfc:	0037d613          	srli	a2,a5,0x3
    1d00:	00c686b3          	add	a3,a3,a2
    1d04:	0006c603          	lbu	a2,0(a3)
    1d08:	0077f793          	andi	a5,a5,7
    1d0c:	40f9d7b3          	sra	a5,s3,a5
    1d10:	00c7e7b3          	or	a5,a5,a2
    1d14:	00f68023          	sb	a5,0(a3)
    1d18:	13997c63          	bgeu	s2,s9,1e50 <putalign+0x338>
    1d1c:	000c8513          	mv	a0,s9
    1d20:	00090d93          	mv	s11,s2
    1d24:	00150593          	addi	a1,a0,1
    1d28:	57c010ef          	jal	ra,32a4 <__mulsi3>
    1d2c:	e58b2783          	lw	a5,-424(s6)
    1d30:	00155513          	srli	a0,a0,0x1
    1d34:	00ad8533          	add	a0,s11,a0
    1d38:	00355693          	srli	a3,a0,0x3
    1d3c:	00d787b3          	add	a5,a5,a3
    1d40:	0007c683          	lbu	a3,0(a5)
    1d44:	00757513          	andi	a0,a0,7
    1d48:	40a9d533          	sra	a0,s3,a0
    1d4c:	00d56533          	or	a0,a0,a3
    1d50:	00a78023          	sb	a0,0(a5)
    1d54:	0a9a7a63          	bgeu	s4,s1,1e08 <putalign+0x2f0>
    1d58:	00048513          	mv	a0,s1
    1d5c:	000a0d93          	mv	s11,s4
    1d60:	00150593          	addi	a1,a0,1
    1d64:	540010ef          	jal	ra,32a4 <__mulsi3>
    1d68:	e58b2783          	lw	a5,-424(s6)
    1d6c:	00155513          	srli	a0,a0,0x1
    1d70:	00ad8533          	add	a0,s11,a0
    1d74:	00355693          	srli	a3,a0,0x3
    1d78:	00d787b3          	add	a5,a5,a3
    1d7c:	0007c683          	lbu	a3,0(a5)
    1d80:	00757513          	andi	a0,a0,7
    1d84:	40a9d533          	sra	a0,s3,a0
    1d88:	00d56533          	or	a0,a0,a3
    1d8c:	00a78023          	sb	a0,0(a5)
    1d90:	000b8513          	mv	a0,s7
    1d94:	008bf663          	bgeu	s7,s0,1da0 <putalign+0x288>
    1d98:	00040513          	mv	a0,s0
    1d9c:	000b8413          	mv	s0,s7
    1da0:	00150593          	addi	a1,a0,1
    1da4:	500010ef          	jal	ra,32a4 <__mulsi3>
    1da8:	e58b2783          	lw	a5,-424(s6)
    1dac:	00155513          	srli	a0,a0,0x1
    1db0:	00a40433          	add	s0,s0,a0
    1db4:	00345693          	srli	a3,s0,0x3
    1db8:	00d787b3          	add	a5,a5,a3
    1dbc:	0007c683          	lbu	a3,0(a5)
    1dc0:	00747413          	andi	s0,s0,7
    1dc4:	4089d433          	sra	s0,s3,s0
    1dc8:	00012703          	lw	a4,0(sp)
    1dcc:	00d46433          	or	s0,s0,a3
    1dd0:	00878023          	sb	s0,0(a5)
    1dd4:	fff48493          	addi	s1,s1,-1
    1dd8:	fff90913          	addi	s2,s2,-1
    1ddc:	0ffc7793          	andi	a5,s8,255
    1de0:	0ffd7413          	andi	s0,s10,255
    1de4:	0ff4f493          	andi	s1,s1,255
    1de8:	0ff97913          	andi	s2,s2,255
    1dec:	02f70463          	beq	a4,a5,1e14 <putalign+0x2fc>
    1df0:	00140d13          	addi	s10,s0,1
    1df4:	00178c13          	addi	s8,a5,1
    1df8:	ef57e4e3          	bltu	a5,s5,1ce0 <putalign+0x1c8>
    1dfc:	00078513          	mv	a0,a5
    1e00:	000a8d93          	mv	s11,s5
    1e04:	ee5ff06f          	j	1ce8 <putalign+0x1d0>
    1e08:	000a0513          	mv	a0,s4
    1e0c:	00048d93          	mv	s11,s1
    1e10:	f51ff06f          	j	1d60 <putalign+0x248>
    1e14:	04c12083          	lw	ra,76(sp)
    1e18:	04812403          	lw	s0,72(sp)
    1e1c:	04412483          	lw	s1,68(sp)
    1e20:	04012903          	lw	s2,64(sp)
    1e24:	03c12983          	lw	s3,60(sp)
    1e28:	03812a03          	lw	s4,56(sp)
    1e2c:	03412a83          	lw	s5,52(sp)
    1e30:	03012b03          	lw	s6,48(sp)
    1e34:	02c12b83          	lw	s7,44(sp)
    1e38:	02812c03          	lw	s8,40(sp)
    1e3c:	02412c83          	lw	s9,36(sp)
    1e40:	02012d03          	lw	s10,32(sp)
    1e44:	01c12d83          	lw	s11,28(sp)
    1e48:	05010113          	addi	sp,sp,80
    1e4c:	00008067          	ret
    1e50:	00090513          	mv	a0,s2
    1e54:	000c8d93          	mv	s11,s9
    1e58:	ecdff06f          	j	1d24 <putalign+0x20c>

00001e5c <initframe>:
    1e5c:	f5010113          	addi	sp,sp,-176
    1e60:	09912223          	sw	s9,132(sp)
    1e64:	09a12023          	sw	s10,128(sp)
    1e68:	00006cb7          	lui	s9,0x6
    1e6c:	00006d37          	lui	s10,0x6
    1e70:	e3cd4583          	lbu	a1,-452(s10) # 5e3c <WD>
    1e74:	e55cc503          	lbu	a0,-427(s9) # 5e55 <WDB>
    1e78:	0a112623          	sw	ra,172(sp)
    1e7c:	09512a23          	sw	s5,148(sp)
    1e80:	09612823          	sw	s6,144(sp)
    1e84:	09812423          	sw	s8,136(sp)
    1e88:	0a812423          	sw	s0,168(sp)
    1e8c:	0a912223          	sw	s1,164(sp)
    1e90:	0b212023          	sw	s2,160(sp)
    1e94:	09312e23          	sw	s3,156(sp)
    1e98:	09412c23          	sw	s4,152(sp)
    1e9c:	09712623          	sw	s7,140(sp)
    1ea0:	07b12e23          	sw	s11,124(sp)
    1ea4:	400010ef          	jal	ra,32a4 <__mulsi3>
    1ea8:	00100593          	li	a1,1
    1eac:	18c010ef          	jal	ra,3038 <calloc_beebs>
    1eb0:	e3cd4583          	lbu	a1,-452(s10)
    1eb4:	00006b37          	lui	s6,0x6
    1eb8:	e4ab2423          	sw	a0,-440(s6) # 5e48 <framebase>
    1ebc:	00158513          	addi	a0,a1,1 # 2001 <initframe+0x1a5>
    1ec0:	02012e23          	sw	zero,60(sp)
    1ec4:	3e0010ef          	jal	ra,32a4 <__mulsi3>
    1ec8:	40155513          	srai	a0,a0,0x1
    1ecc:	00750513          	addi	a0,a0,7
    1ed0:	00100593          	li	a1,1
    1ed4:	40355513          	srai	a0,a0,0x3
    1ed8:	160010ef          	jal	ra,3038 <calloc_beebs>
    1edc:	e3cd4783          	lbu	a5,-452(s10)
    1ee0:	00006c37          	lui	s8,0x6
    1ee4:	e4ac2c23          	sw	a0,-424(s8) # 5e58 <framask>
    1ee8:	00178513          	addi	a0,a5,1
    1eec:	108010ef          	jal	ra,2ff4 <malloc_beebs>
    1ef0:	000067b7          	lui	a5,0x6
    1ef4:	e4a7a823          	sw	a0,-432(a5) # 5e50 <rlens>
    1ef8:	08000a93          	li	s5,128
    1efc:	03c12783          	lw	a5,60(sp)
    1f00:	00100713          	li	a4,1
    1f04:	4ee78ce3          	beq	a5,a4,2bfc <initframe+0xda0>
    1f08:	03c12783          	lw	a5,60(sp)
    1f0c:	00200713          	li	a4,2
    1f10:	3ee780e3          	beq	a5,a4,2af0 <initframe+0xc94>
    1f14:	00100793          	li	a5,1
    1f18:	02f12c23          	sw	a5,56(sp)
    1f1c:	06f12423          	sw	a5,104(sp)
    1f20:	00500793          	li	a5,5
    1f24:	06f12223          	sw	a5,100(sp)
    1f28:	02f12a23          	sw	a5,52(sp)
    1f2c:	00400793          	li	a5,4
    1f30:	04f12623          	sw	a5,76(sp)
    1f34:	00800793          	li	a5,8
    1f38:	06f12023          	sw	a5,96(sp)
    1f3c:	02000793          	li	a5,32
    1f40:	04f12423          	sw	a5,72(sp)
    1f44:	00200793          	li	a5,2
    1f48:	04f12023          	sw	a5,64(sp)
    1f4c:	00500793          	li	a5,5
    1f50:	02f12823          	sw	a5,48(sp)
    1f54:	02f12623          	sw	a5,44(sp)
    1f58:	00100793          	li	a5,1
    1f5c:	02f12423          	sw	a5,40(sp)
    1f60:	02f12223          	sw	a5,36(sp)
    1f64:	00200793          	li	a5,2
    1f68:	00f12c23          	sw	a5,24(sp)
    1f6c:	f8000793          	li	a5,-128
    1f70:	00f12823          	sw	a5,16(sp)
    1f74:	00200793          	li	a5,2
    1f78:	04012e23          	sw	zero,92(sp)
    1f7c:	04012223          	sw	zero,68(sp)
    1f80:	00600d93          	li	s11,6
    1f84:	00012a23          	sw	zero,20(sp)
    1f88:	00000b93          	li	s7,0
    1f8c:	01000913          	li	s2,16
    1f90:	00300593          	li	a1,3
    1f94:	00000413          	li	s0,0
    1f98:	00000493          	li	s1,0
    1f9c:	04012a23          	sw	zero,84(sp)
    1fa0:	04012c23          	sw	zero,88(sp)
    1fa4:	04012823          	sw	zero,80(sp)
    1fa8:	06f12623          	sw	a5,108(sp)
    1fac:	e55cc503          	lbu	a0,-427(s9)
    1fb0:	00640793          	addi	a5,s0,6
    1fb4:	00f12623          	sw	a5,12(sp)
    1fb8:	2ec010ef          	jal	ra,32a4 <__mulsi3>
    1fbc:	e48b2783          	lw	a5,-440(s6)
    1fc0:	00950533          	add	a0,a0,s1
    1fc4:	05412703          	lw	a4,84(sp)
    1fc8:	00a78533          	add	a0,a5,a0
    1fcc:	00054783          	lbu	a5,0(a0)
    1fd0:	00170493          	addi	s1,a4,1
    1fd4:	40870733          	sub	a4,a4,s0
    1fd8:	00f96933          	or	s2,s2,a5
    1fdc:	05012783          	lw	a5,80(sp)
    1fe0:	01250023          	sb	s2,0(a0)
    1fe4:	00e12e23          	sw	a4,28(sp)
    1fe8:	408787b3          	sub	a5,a5,s0
    1fec:	02f12023          	sw	a5,32(sp)
    1ff0:	408484b3          	sub	s1,s1,s0
    1ff4:	00040913          	mv	s2,s0
    1ff8:	01c12783          	lw	a5,28(sp)
    1ffc:	e55cc503          	lbu	a0,-427(s9)
    2000:	00040593          	mv	a1,s0
    2004:	012787b3          	add	a5,a5,s2
    2008:	4037d993          	srai	s3,a5,0x3
    200c:	298010ef          	jal	ra,32a4 <__mulsi3>
    2010:	e48b2683          	lw	a3,-440(s6)
    2014:	02012783          	lw	a5,32(sp)
    2018:	00a98533          	add	a0,s3,a0
    201c:	00a68533          	add	a0,a3,a0
    2020:	00054683          	lbu	a3,0(a0)
    2024:	012787b3          	add	a5,a5,s2
    2028:	0077f793          	andi	a5,a5,7
    202c:	40fad7b3          	sra	a5,s5,a5
    2030:	00d7e7b3          	or	a5,a5,a3
    2034:	00f50023          	sb	a5,0(a0)
    2038:	e55cc503          	lbu	a0,-427(s9)
    203c:	00190a13          	addi	s4,s2,1
    2040:	000a0593          	mv	a1,s4
    2044:	260010ef          	jal	ra,32a4 <__mulsi3>
    2048:	e48b2783          	lw	a5,-440(s6)
    204c:	01750533          	add	a0,a0,s7
    2050:	00090593          	mv	a1,s2
    2054:	00a78533          	add	a0,a5,a0
    2058:	00054683          	lbu	a3,0(a0)
    205c:	01012783          	lw	a5,16(sp)
    2060:	012489b3          	add	s3,s1,s2
    2064:	000a0913          	mv	s2,s4
    2068:	00d7e6b3          	or	a3,a5,a3
    206c:	00d50023          	sb	a3,0(a0)
    2070:	e55cc503          	lbu	a0,-427(s9)
    2074:	230010ef          	jal	ra,32a4 <__mulsi3>
    2078:	01412783          	lw	a5,20(sp)
    207c:	e48b2683          	lw	a3,-440(s6)
    2080:	000d8593          	mv	a1,s11
    2084:	00f50533          	add	a0,a0,a5
    2088:	00a68533          	add	a0,a3,a0
    208c:	00054683          	lbu	a3,0(a0)
    2090:	01812783          	lw	a5,24(sp)
    2094:	00d7e6b3          	or	a3,a5,a3
    2098:	00d50023          	sb	a3,0(a0)
    209c:	e55cc503          	lbu	a0,-427(s9)
    20a0:	204010ef          	jal	ra,32a4 <__mulsi3>
    20a4:	e48b2683          	lw	a3,-440(s6)
    20a8:	4039d613          	srai	a2,s3,0x3
    20ac:	00c50533          	add	a0,a0,a2
    20b0:	00a68533          	add	a0,a3,a0
    20b4:	00054683          	lbu	a3,0(a0)
    20b8:	0079f793          	andi	a5,s3,7
    20bc:	40fad7b3          	sra	a5,s5,a5
    20c0:	00d7e7b3          	or	a5,a5,a3
    20c4:	00f50023          	sb	a5,0(a0)
    20c8:	00c12783          	lw	a5,12(sp)
    20cc:	f34796e3          	bne	a5,s4,1ff8 <initframe+0x19c>
    20d0:	05012783          	lw	a5,80(sp)
    20d4:	05812703          	lw	a4,88(sp)
    20d8:	06412b83          	lw	s7,100(sp)
    20dc:	00178a13          	addi	s4,a5,1
    20e0:	00578993          	addi	s3,a5,5
    20e4:	06812d83          	lw	s11,104(sp)
    20e8:	0ffa7a13          	andi	s4,s4,255
    20ec:	00170493          	addi	s1,a4,1
    20f0:	0ff9f993          	andi	s3,s3,255
    20f4:	000a0913          	mv	s2,s4
    20f8:	0ff4f493          	andi	s1,s1,255
    20fc:	00098a13          	mv	s4,s3
    2100:	00812623          	sw	s0,12(sp)
    2104:	03812783          	lw	a5,56(sp)
    2108:	02412703          	lw	a4,36(sp)
    210c:	00048413          	mv	s0,s1
    2110:	00090993          	mv	s3,s2
    2114:	00078593          	mv	a1,a5
    2118:	01277663          	bgeu	a4,s2,2124 <initframe+0x2c8>
    211c:	00090593          	mv	a1,s2
    2120:	00078993          	mv	s3,a5
    2124:	00158513          	addi	a0,a1,1
    2128:	17c010ef          	jal	ra,32a4 <__mulsi3>
    212c:	e58c2703          	lw	a4,-424(s8)
    2130:	00155513          	srli	a0,a0,0x1
    2134:	01350533          	add	a0,a0,s3
    2138:	00355693          	srli	a3,a0,0x3
    213c:	00d70733          	add	a4,a4,a3
    2140:	00074683          	lbu	a3,0(a4)
    2144:	00757513          	andi	a0,a0,7
    2148:	40aad533          	sra	a0,s5,a0
    214c:	02812783          	lw	a5,40(sp)
    2150:	00d56533          	or	a0,a0,a3
    2154:	00148493          	addi	s1,s1,1
    2158:	0ff4f493          	andi	s1,s1,255
    215c:	00a70023          	sb	a0,0(a4)
    2160:	00048593          	mv	a1,s1
    2164:	000d8993          	mv	s3,s11
    2168:	00f4f663          	bgeu	s1,a5,2174 <initframe+0x318>
    216c:	000d8593          	mv	a1,s11
    2170:	00048993          	mv	s3,s1
    2174:	00158513          	addi	a0,a1,1
    2178:	12c010ef          	jal	ra,32a4 <__mulsi3>
    217c:	e58c2703          	lw	a4,-424(s8)
    2180:	00155513          	srli	a0,a0,0x1
    2184:	01350533          	add	a0,a0,s3
    2188:	00355693          	srli	a3,a0,0x3
    218c:	00d70733          	add	a4,a4,a3
    2190:	00074683          	lbu	a3,0(a4)
    2194:	00757513          	andi	a0,a0,7
    2198:	40aad533          	sra	a0,s5,a0
    219c:	02c12783          	lw	a5,44(sp)
    21a0:	00d56533          	or	a0,a0,a3
    21a4:	00a70023          	sb	a0,0(a4)
    21a8:	000b8593          	mv	a1,s7
    21ac:	00f46663          	bltu	s0,a5,21b8 <initframe+0x35c>
    21b0:	00040593          	mv	a1,s0
    21b4:	000b8413          	mv	s0,s7
    21b8:	00158513          	addi	a0,a1,1
    21bc:	0e8010ef          	jal	ra,32a4 <__mulsi3>
    21c0:	e58c2703          	lw	a4,-424(s8)
    21c4:	00155513          	srli	a0,a0,0x1
    21c8:	00850433          	add	s0,a0,s0
    21cc:	00345693          	srli	a3,s0,0x3
    21d0:	00d70733          	add	a4,a4,a3
    21d4:	00074683          	lbu	a3,0(a4)
    21d8:	00747413          	andi	s0,s0,7
    21dc:	408ad433          	sra	s0,s5,s0
    21e0:	00d46433          	or	s0,s0,a3
    21e4:	00190793          	addi	a5,s2,1
    21e8:	0ff7f913          	andi	s2,a5,255
    21ec:	00870023          	sb	s0,0(a4)
    21f0:	03412783          	lw	a5,52(sp)
    21f4:	03012703          	lw	a4,48(sp)
    21f8:	00090413          	mv	s0,s2
    21fc:	00078593          	mv	a1,a5
    2200:	01277663          	bgeu	a4,s2,220c <initframe+0x3b0>
    2204:	00090593          	mv	a1,s2
    2208:	00078413          	mv	s0,a5
    220c:	00158513          	addi	a0,a1,1
    2210:	094010ef          	jal	ra,32a4 <__mulsi3>
    2214:	e58c2703          	lw	a4,-424(s8)
    2218:	00155513          	srli	a0,a0,0x1
    221c:	00850533          	add	a0,a0,s0
    2220:	00355693          	srli	a3,a0,0x3
    2224:	00d70733          	add	a4,a4,a3
    2228:	00074683          	lbu	a3,0(a4)
    222c:	00757513          	andi	a0,a0,7
    2230:	40aad533          	sra	a0,s5,a0
    2234:	00d56533          	or	a0,a0,a3
    2238:	00a70023          	sb	a0,0(a4)
    223c:	ed4914e3          	bne	s2,s4,2104 <initframe+0x2a8>
    2240:	05412783          	lw	a5,84(sp)
    2244:	00c12403          	lw	s0,12(sp)
    2248:	06c14903          	lbu	s2,108(sp)
    224c:	05c12b83          	lw	s7,92(sp)
    2250:	06012d83          	lw	s11,96(sp)
    2254:	00278a13          	addi	s4,a5,2
    2258:	00340493          	addi	s1,s0,3
    225c:	403a5993          	srai	s3,s4,0x3
    2260:	00540413          	addi	s0,s0,5
    2264:	e55cc503          	lbu	a0,-427(s9)
    2268:	04012583          	lw	a1,64(sp)
    226c:	001a0a13          	addi	s4,s4,1
    2270:	034010ef          	jal	ra,32a4 <__mulsi3>
    2274:	e48b2703          	lw	a4,-440(s6)
    2278:	01350533          	add	a0,a0,s3
    227c:	00797793          	andi	a5,s2,7
    2280:	00a70533          	add	a0,a4,a0
    2284:	00054703          	lbu	a4,0(a0)
    2288:	40fad7b3          	sra	a5,s5,a5
    228c:	00048593          	mv	a1,s1
    2290:	00e7e7b3          	or	a5,a5,a4
    2294:	00f50023          	sb	a5,0(a0)
    2298:	e55cc503          	lbu	a0,-427(s9)
    229c:	403a5993          	srai	s3,s4,0x3
    22a0:	00190913          	addi	s2,s2,1
    22a4:	000010ef          	jal	ra,32a4 <__mulsi3>
    22a8:	04412703          	lw	a4,68(sp)
    22ac:	e48b2783          	lw	a5,-440(s6)
    22b0:	fff48593          	addi	a1,s1,-1
    22b4:	00e50533          	add	a0,a0,a4
    22b8:	00a78533          	add	a0,a5,a0
    22bc:	00054783          	lbu	a5,0(a0)
    22c0:	04812703          	lw	a4,72(sp)
    22c4:	00148493          	addi	s1,s1,1
    22c8:	0ff97913          	andi	s2,s2,255
    22cc:	00f767b3          	or	a5,a4,a5
    22d0:	00f50023          	sb	a5,0(a0)
    22d4:	e55cc503          	lbu	a0,-427(s9)
    22d8:	7cd000ef          	jal	ra,32a4 <__mulsi3>
    22dc:	e48b2783          	lw	a5,-440(s6)
    22e0:	01750533          	add	a0,a0,s7
    22e4:	04c12583          	lw	a1,76(sp)
    22e8:	00a78533          	add	a0,a5,a0
    22ec:	00054783          	lbu	a5,0(a0)
    22f0:	00fde7b3          	or	a5,s11,a5
    22f4:	00f50023          	sb	a5,0(a0)
    22f8:	e55cc503          	lbu	a0,-427(s9)
    22fc:	7a9000ef          	jal	ra,32a4 <__mulsi3>
    2300:	e48b2703          	lw	a4,-440(s6)
    2304:	01350533          	add	a0,a0,s3
    2308:	007a7793          	andi	a5,s4,7
    230c:	00a70533          	add	a0,a4,a0
    2310:	00054703          	lbu	a4,0(a0)
    2314:	40fad7b3          	sra	a5,s5,a5
    2318:	00e7e7b3          	or	a5,a5,a4
    231c:	00f50023          	sb	a5,0(a0)
    2320:	f49412e3          	bne	s0,s1,2264 <initframe+0x408>
    2324:	03c12783          	lw	a5,60(sp)
    2328:	00300713          	li	a4,3
    232c:	00178793          	addi	a5,a5,1
    2330:	0ff7f793          	andi	a5,a5,255
    2334:	02f12e23          	sw	a5,60(sp)
    2338:	bce792e3          	bne	a5,a4,1efc <initframe+0xa0>
    233c:	00006a37          	lui	s4,0x6
    2340:	e4ca4703          	lbu	a4,-436(s4) # 5e4c <VERSION>
    2344:	00100793          	li	a5,1
    2348:	e3cd4403          	lbu	s0,-452(s10)
    234c:	08e7f063          	bgeu	a5,a4,23cc <initframe+0x570>
    2350:	000047b7          	lui	a5,0x4
    2354:	ad078793          	addi	a5,a5,-1328 # 3ad0 <adelta>
    2358:	00e787b3          	add	a5,a5,a4
    235c:	0007c483          	lbu	s1,0(a5)
    2360:	ff940413          	addi	s0,s0,-7
    2364:	0ff47913          	andi	s2,s0,255
    2368:	00948a93          	addi	s5,s1,9
    236c:	ffd48993          	addi	s3,s1,-3
    2370:	0ff47413          	andi	s0,s0,255
    2374:	0089e863          	bltu	s3,s0,2384 <initframe+0x528>
    2378:	0200006f          	j	2398 <initframe+0x53c>
    237c:	0ff7f413          	andi	s0,a5,255
    2380:	0089fc63          	bgeu	s3,s0,2398 <initframe+0x53c>
    2384:	00040513          	mv	a0,s0
    2388:	00090593          	mv	a1,s2
    238c:	f8cff0ef          	jal	ra,1b18 <putalign>
    2390:	409407b3          	sub	a5,s0,s1
    2394:	fe9474e3          	bgeu	s0,s1,237c <initframe+0x520>
    2398:	032af863          	bgeu	s5,s2,23c8 <initframe+0x56c>
    239c:	40990933          	sub	s2,s2,s1
    23a0:	0ff97913          	andi	s2,s2,255
    23a4:	00090593          	mv	a1,s2
    23a8:	00600513          	li	a0,6
    23ac:	f6cff0ef          	jal	ra,1b18 <putalign>
    23b0:	00600593          	li	a1,6
    23b4:	00090513          	mv	a0,s2
    23b8:	f60ff0ef          	jal	ra,1b18 <putalign>
    23bc:	e3cd4403          	lbu	s0,-452(s10)
    23c0:	ff940413          	addi	s0,s0,-7
    23c4:	fadff06f          	j	2370 <initframe+0x514>
    23c8:	e3cd4403          	lbu	s0,-452(s10)
    23cc:	e55cc583          	lbu	a1,-427(s9)
    23d0:	ff840513          	addi	a0,s0,-8
    23d4:	00000993          	li	s3,0
    23d8:	6cd000ef          	jal	ra,32a4 <__mulsi3>
    23dc:	e48b2783          	lw	a5,-440(s6)
    23e0:	00150513          	addi	a0,a0,1
    23e4:	08000913          	li	s2,128
    23e8:	00a787b3          	add	a5,a5,a0
    23ec:	0007c703          	lbu	a4,0(a5)
    23f0:	00600493          	li	s1,6
    23f4:	00700413          	li	s0,7
    23f8:	f8076713          	ori	a4,a4,-128
    23fc:	00e78023          	sb	a4,0(a5)
    2400:	e58c2703          	lw	a4,-424(s8)
    2404:	01c98793          	addi	a5,s3,28
    2408:	0037d693          	srli	a3,a5,0x3
    240c:	00d70733          	add	a4,a4,a3
    2410:	00074683          	lbu	a3,0(a4)
    2414:	0077f793          	andi	a5,a5,7
    2418:	40f957b3          	sra	a5,s2,a5
    241c:	00d7e7b3          	or	a5,a5,a3
    2420:	00f70023          	sb	a5,0(a4)
    2424:	e3cd4503          	lbu	a0,-452(s10)
    2428:	0ff9fa93          	andi	s5,s3,255
    242c:	00098593          	mv	a1,s3
    2430:	ff850513          	addi	a0,a0,-8
    2434:	0ff57513          	andi	a0,a0,255
    2438:	00050b93          	mv	s7,a0
    243c:	00aaf663          	bgeu	s5,a0,2448 <initframe+0x5ec>
    2440:	00050593          	mv	a1,a0
    2444:	00098b93          	mv	s7,s3
    2448:	00158513          	addi	a0,a1,1
    244c:	659000ef          	jal	ra,32a4 <__mulsi3>
    2450:	e58c2783          	lw	a5,-424(s8)
    2454:	00155513          	srli	a0,a0,0x1
    2458:	01750533          	add	a0,a0,s7
    245c:	00355713          	srli	a4,a0,0x3
    2460:	00e787b3          	add	a5,a5,a4
    2464:	0007c703          	lbu	a4,0(a5)
    2468:	00757513          	andi	a0,a0,7
    246c:	40a95533          	sra	a0,s2,a0
    2470:	00e56533          	or	a0,a0,a4
    2474:	00a78023          	sb	a0,0(a5)
    2478:	e3cd4583          	lbu	a1,-452(s10)
    247c:	00198993          	addi	s3,s3,1
    2480:	01c00793          	li	a5,28
    2484:	ff958593          	addi	a1,a1,-7
    2488:	00ba85b3          	add	a1,s5,a1
    248c:	0ff5f713          	andi	a4,a1,255
    2490:	00070593          	mv	a1,a4
    2494:	00170513          	addi	a0,a4,1
    2498:	00e4f863          	bgeu	s1,a4,24a8 <initframe+0x64c>
    249c:	609000ef          	jal	ra,32a4 <__mulsi3>
    24a0:	00155793          	srli	a5,a0,0x1
    24a4:	00700713          	li	a4,7
    24a8:	e58c2683          	lw	a3,-424(s8)
    24ac:	00e785b3          	add	a1,a5,a4
    24b0:	0035d793          	srli	a5,a1,0x3
    24b4:	00f687b3          	add	a5,a3,a5
    24b8:	0007c703          	lbu	a4,0(a5)
    24bc:	0075f593          	andi	a1,a1,7
    24c0:	40b955b3          	sra	a1,s2,a1
    24c4:	00e5e5b3          	or	a1,a1,a4
    24c8:	00b78023          	sb	a1,0(a5)
    24cc:	f2899ae3          	bne	s3,s0,2400 <initframe+0x5a4>
    24d0:	00000913          	li	s2,0
    24d4:	08000a93          	li	s5,128
    24d8:	00700493          	li	s1,7
    24dc:	00800413          	li	s0,8
    24e0:	0400006f          	j	2520 <initframe+0x6c4>
    24e4:	00078d93          	mv	s11,a5
    24e8:	00158513          	addi	a0,a1,1
    24ec:	5b9000ef          	jal	ra,32a4 <__mulsi3>
    24f0:	e58c2783          	lw	a5,-424(s8)
    24f4:	00155513          	srli	a0,a0,0x1
    24f8:	01b50533          	add	a0,a0,s11
    24fc:	00355713          	srli	a4,a0,0x3
    2500:	00e787b3          	add	a5,a5,a4
    2504:	0007c703          	lbu	a4,0(a5)
    2508:	00757513          	andi	a0,a0,7
    250c:	40aad533          	sra	a0,s5,a0
    2510:	00e56533          	or	a0,a0,a4
    2514:	00a78023          	sb	a0,0(a5)
    2518:	00190913          	addi	s2,s2,1
    251c:	08890e63          	beq	s2,s0,25b8 <initframe+0x75c>
    2520:	e58c2703          	lw	a4,-424(s8)
    2524:	01c90793          	addi	a5,s2,28
    2528:	0037d693          	srli	a3,a5,0x3
    252c:	00d70733          	add	a4,a4,a3
    2530:	00074683          	lbu	a3,0(a4)
    2534:	0077f793          	andi	a5,a5,7
    2538:	40fad7b3          	sra	a5,s5,a5
    253c:	00d7e7b3          	or	a5,a5,a3
    2540:	00f70023          	sb	a5,0(a4)
    2544:	e3cd4583          	lbu	a1,-452(s10)
    2548:	0ff97b93          	andi	s7,s2,255
    254c:	01c00793          	li	a5,28
    2550:	ff858593          	addi	a1,a1,-8
    2554:	00bb85b3          	add	a1,s7,a1
    2558:	0ff5f713          	andi	a4,a1,255
    255c:	00070593          	mv	a1,a4
    2560:	00170513          	addi	a0,a4,1
    2564:	00e4f863          	bgeu	s1,a4,2574 <initframe+0x718>
    2568:	53d000ef          	jal	ra,32a4 <__mulsi3>
    256c:	00155793          	srli	a5,a0,0x1
    2570:	00098713          	mv	a4,s3
    2574:	e58c2683          	lw	a3,-424(s8)
    2578:	00e785b3          	add	a1,a5,a4
    257c:	0035d793          	srli	a5,a1,0x3
    2580:	00f687b3          	add	a5,a3,a5
    2584:	0007c703          	lbu	a4,0(a5)
    2588:	0075f593          	andi	a1,a1,7
    258c:	40bad5b3          	sra	a1,s5,a1
    2590:	00e5e5b3          	or	a1,a1,a4
    2594:	00b78023          	sb	a1,0(a5)
    2598:	e3cd4783          	lbu	a5,-452(s10)
    259c:	00090d93          	mv	s11,s2
    25a0:	00090593          	mv	a1,s2
    25a4:	ff878793          	addi	a5,a5,-8
    25a8:	0ff7f793          	andi	a5,a5,255
    25ac:	f377ece3          	bltu	a5,s7,24e4 <initframe+0x688>
    25b0:	00078593          	mv	a1,a5
    25b4:	f35ff06f          	j	24e8 <initframe+0x68c>
    25b8:	02400713          	li	a4,36
    25bc:	08000513          	li	a0,128
    25c0:	02d00593          	li	a1,45
    25c4:	e58c2683          	lw	a3,-424(s8)
    25c8:	00375613          	srli	a2,a4,0x3
    25cc:	00777793          	andi	a5,a4,7
    25d0:	00c686b3          	add	a3,a3,a2
    25d4:	0006c603          	lbu	a2,0(a3)
    25d8:	40f557b3          	sra	a5,a0,a5
    25dc:	00170713          	addi	a4,a4,1
    25e0:	00c7e7b3          	or	a5,a5,a2
    25e4:	00f68023          	sb	a5,0(a3)
    25e8:	fcb71ee3          	bne	a4,a1,25c4 <initframe+0x768>
    25ec:	00000413          	li	s0,0
    25f0:	00800993          	li	s3,8
    25f4:	08000493          	li	s1,128
    25f8:	e3cd4583          	lbu	a1,-452(s10)
    25fc:	02400793          	li	a5,36
    2600:	ff858593          	addi	a1,a1,-8
    2604:	008585b3          	add	a1,a1,s0
    2608:	0ff5f713          	andi	a4,a1,255
    260c:	00070593          	mv	a1,a4
    2610:	00170513          	addi	a0,a4,1
    2614:	00e9f863          	bgeu	s3,a4,2624 <initframe+0x7c8>
    2618:	48d000ef          	jal	ra,32a4 <__mulsi3>
    261c:	00155793          	srli	a5,a0,0x1
    2620:	00090713          	mv	a4,s2
    2624:	e58c2683          	lw	a3,-424(s8)
    2628:	00e785b3          	add	a1,a5,a4
    262c:	0035d793          	srli	a5,a1,0x3
    2630:	00f687b3          	add	a5,a3,a5
    2634:	0007c703          	lbu	a4,0(a5)
    2638:	0075f593          	andi	a1,a1,7
    263c:	40b4d5b3          	sra	a1,s1,a1
    2640:	00e5e5b3          	or	a1,a1,a4
    2644:	00b78023          	sb	a1,0(a5)
    2648:	e58c2703          	lw	a4,-424(s8)
    264c:	02440793          	addi	a5,s0,36
    2650:	0037d693          	srli	a3,a5,0x3
    2654:	00d70733          	add	a4,a4,a3
    2658:	00074683          	lbu	a3,0(a4)
    265c:	0077f793          	andi	a5,a5,7
    2660:	40f4d7b3          	sra	a5,s1,a5
    2664:	00d7e7b3          	or	a5,a5,a3
    2668:	00f70023          	sb	a5,0(a4)
    266c:	00140413          	addi	s0,s0,1
    2670:	f93414e3          	bne	s0,s3,25f8 <initframe+0x79c>
    2674:	00000493          	li	s1,0
    2678:	00700913          	li	s2,7
    267c:	08000993          	li	s3,128
    2680:	e3cd4583          	lbu	a1,-452(s10)
    2684:	02400793          	li	a5,36
    2688:	ff958593          	addi	a1,a1,-7
    268c:	009585b3          	add	a1,a1,s1
    2690:	0ff5f713          	andi	a4,a1,255
    2694:	00070593          	mv	a1,a4
    2698:	00170513          	addi	a0,a4,1
    269c:	00148493          	addi	s1,s1,1
    26a0:	00e97863          	bgeu	s2,a4,26b0 <initframe+0x854>
    26a4:	401000ef          	jal	ra,32a4 <__mulsi3>
    26a8:	00155793          	srli	a5,a0,0x1
    26ac:	00040713          	mv	a4,s0
    26b0:	e58c2683          	lw	a3,-424(s8)
    26b4:	00e785b3          	add	a1,a5,a4
    26b8:	0035d793          	srli	a5,a1,0x3
    26bc:	00f687b3          	add	a5,a3,a5
    26c0:	0007c703          	lbu	a4,0(a5)
    26c4:	0075f593          	andi	a1,a1,7
    26c8:	40b9d5b3          	sra	a1,s3,a1
    26cc:	00e5e5b3          	or	a1,a1,a4
    26d0:	00b78023          	sb	a1,0(a5)
    26d4:	fb2496e3          	bne	s1,s2,2680 <initframe+0x824>
    26d8:	e3cd4503          	lbu	a0,-452(s10)
    26dc:	00e00793          	li	a5,14
    26e0:	5cf50663          	beq	a0,a5,2cac <initframe+0xe50>
    26e4:	00000913          	li	s2,0
    26e8:	08000993          	li	s3,128
    26ec:	00600493          	li	s1,6
    26f0:	0a00006f          	j	2790 <initframe+0x934>
    26f4:	0ff47a93          	andi	s5,s0,255
    26f8:	015a8793          	addi	a5,s5,21
    26fc:	001a8b93          	addi	s7,s5,1
    2700:	0037d693          	srli	a3,a5,0x3
    2704:	0077f793          	andi	a5,a5,7
    2708:	000a8593          	mv	a1,s5
    270c:	000b8513          	mv	a0,s7
    2710:	40f9d7b3          	sra	a5,s3,a5
    2714:	2ac4f463          	bgeu	s1,a2,29bc <initframe+0xb60>
    2718:	38d000ef          	jal	ra,32a4 <__mulsi3>
    271c:	e58c2703          	lw	a4,-424(s8)
    2720:	00155513          	srli	a0,a0,0x1
    2724:	00650513          	addi	a0,a0,6
    2728:	00355793          	srli	a5,a0,0x3
    272c:	00f70733          	add	a4,a4,a5
    2730:	00074683          	lbu	a3,0(a4)
    2734:	00757793          	andi	a5,a0,7
    2738:	40f9d7b3          	sra	a5,s3,a5
    273c:	00d7e7b3          	or	a5,a5,a3
    2740:	00f70023          	sb	a5,0(a4)
    2744:	000a8593          	mv	a1,s5
    2748:	000b8513          	mv	a0,s7
    274c:	359000ef          	jal	ra,32a4 <__mulsi3>
    2750:	00155513          	srli	a0,a0,0x1
    2754:	00600a93          	li	s5,6
    2758:	e58c2703          	lw	a4,-424(s8)
    275c:	01550533          	add	a0,a0,s5
    2760:	00355793          	srli	a5,a0,0x3
    2764:	00f70733          	add	a4,a4,a5
    2768:	00074683          	lbu	a3,0(a4)
    276c:	00757793          	andi	a5,a0,7
    2770:	40f9d7b3          	sra	a5,s3,a5
    2774:	00d7e7b3          	or	a5,a5,a3
    2778:	00f70023          	sb	a5,0(a4)
    277c:	e3cd4503          	lbu	a0,-452(s10)
    2780:	00190913          	addi	s2,s2,1
    2784:	00140413          	addi	s0,s0,1
    2788:	ff250793          	addi	a5,a0,-14
    278c:	06f97c63          	bgeu	s2,a5,2804 <initframe+0x9a8>
    2790:	00797793          	andi	a5,s2,7
    2794:	00197693          	andi	a3,s2,1
    2798:	00345513          	srli	a0,s0,0x3
    279c:	40f9d7b3          	sra	a5,s3,a5
    27a0:	00040593          	mv	a1,s0
    27a4:	0ff47613          	andi	a2,s0,255
    27a8:	f40696e3          	bnez	a3,26f4 <initframe+0x898>
    27ac:	e55cc603          	lbu	a2,-427(s9)
    27b0:	e48b2683          	lw	a3,-440(s6)
    27b4:	00190913          	addi	s2,s2,1
    27b8:	00161713          	slli	a4,a2,0x1
    27bc:	00c70733          	add	a4,a4,a2
    27c0:	00171713          	slli	a4,a4,0x1
    27c4:	00a70733          	add	a4,a4,a0
    27c8:	00e68733          	add	a4,a3,a4
    27cc:	00074683          	lbu	a3,0(a4)
    27d0:	00140413          	addi	s0,s0,1
    27d4:	00d7e7b3          	or	a5,a5,a3
    27d8:	00f70023          	sb	a5,0(a4)
    27dc:	e55cc503          	lbu	a0,-427(s9)
    27e0:	2c5000ef          	jal	ra,32a4 <__mulsi3>
    27e4:	e48b2783          	lw	a5,-440(s6)
    27e8:	00a78533          	add	a0,a5,a0
    27ec:	00054783          	lbu	a5,0(a0)
    27f0:	0027e793          	ori	a5,a5,2
    27f4:	00f50023          	sb	a5,0(a0)
    27f8:	e3cd4503          	lbu	a0,-452(s10)
    27fc:	ff250793          	addi	a5,a0,-14
    2800:	f8f968e3          	bltu	s2,a5,2790 <initframe+0x934>
    2804:	e4ca4783          	lbu	a5,-436(s4)
    2808:	00078713          	mv	a4,a5
    280c:	00f12c23          	sw	a5,24(sp)
    2810:	00600793          	li	a5,6
    2814:	10e7f263          	bgeu	a5,a4,2918 <initframe+0xabc>
    2818:	01812783          	lw	a5,24(sp)
    281c:	00500993          	li	s3,5
    2820:	01100493          	li	s1,17
    2824:	ff978793          	addi	a5,a5,-7
    2828:	00279713          	slli	a4,a5,0x2
    282c:	000047b7          	lui	a5,0x4
    2830:	ad078793          	addi	a5,a5,-1328 # 3ad0 <adelta>
    2834:	00e787b3          	add	a5,a5,a4
    2838:	02c7a783          	lw	a5,44(a5)
    283c:	08000913          	li	s2,128
    2840:	00b00b93          	li	s7,11
    2844:	00f12e23          	sw	a5,28(sp)
    2848:	41395a33          	sra	s4,s2,s3
    284c:	018a1793          	slli	a5,s4,0x18
    2850:	4187d793          	srai	a5,a5,0x18
    2854:	00f12a23          	sw	a5,20(sp)
    2858:	00048d93          	mv	s11,s1
    285c:	00000a93          	li	s5,0
    2860:	0ff9f413          	andi	s0,s3,255
    2864:	0ffafa13          	andi	s4,s5,255
    2868:	27bbfc63          	bgeu	s7,s11,2ae0 <initframe+0xc84>
    286c:	01812703          	lw	a4,24(sp)
    2870:	ff4d8793          	addi	a5,s11,-12
    2874:	00f757b3          	srl	a5,a4,a5
    2878:	0017f793          	andi	a5,a5,1
    287c:	1a078863          	beqz	a5,2a2c <initframe+0xbd0>
    2880:	00200793          	li	a5,2
    2884:	41578a33          	sub	s4,a5,s5
    2888:	e55cc583          	lbu	a1,-427(s9)
    288c:	01450533          	add	a0,a0,s4
    2890:	ff550513          	addi	a0,a0,-11
    2894:	211000ef          	jal	ra,32a4 <__mulsi3>
    2898:	e48b2603          	lw	a2,-440(s6)
    289c:	01412783          	lw	a5,20(sp)
    28a0:	00098593          	mv	a1,s3
    28a4:	00a60533          	add	a0,a2,a0
    28a8:	00054603          	lbu	a2,0(a0)
    28ac:	00c7e633          	or	a2,a5,a2
    28b0:	00c50023          	sb	a2,0(a0)
    28b4:	e3cd4783          	lbu	a5,-452(s10)
    28b8:	e55cc503          	lbu	a0,-427(s9)
    28bc:	014787b3          	add	a5,a5,s4
    28c0:	ff578a13          	addi	s4,a5,-11
    28c4:	1e1000ef          	jal	ra,32a4 <__mulsi3>
    28c8:	e48b2603          	lw	a2,-440(s6)
    28cc:	403a5593          	srai	a1,s4,0x3
    28d0:	00b50533          	add	a0,a0,a1
    28d4:	00a60533          	add	a0,a2,a0
    28d8:	00054603          	lbu	a2,0(a0)
    28dc:	007a7793          	andi	a5,s4,7
    28e0:	40f957b3          	sra	a5,s2,a5
    28e4:	00c7e7b3          	or	a5,a5,a2
    28e8:	00f50023          	sb	a5,0(a0)
    28ec:	fffd8713          	addi	a4,s11,-1
    28f0:	001a8a93          	addi	s5,s5,1
    28f4:	00300793          	li	a5,3
    28f8:	0ff77d93          	andi	s11,a4,255
    28fc:	e3cd4503          	lbu	a0,-452(s10)
    2900:	f6fa92e3          	bne	s5,a5,2864 <initframe+0xa08>
    2904:	ffd48493          	addi	s1,s1,-3
    2908:	0ff4f493          	andi	s1,s1,255
    290c:	0ff00793          	li	a5,255
    2910:	fff98993          	addi	s3,s3,-1
    2914:	f2f49ae3          	bne	s1,a5,2848 <initframe+0x9ec>
    2918:	0c050c63          	beqz	a0,29f0 <initframe+0xb94>
    291c:	00100913          	li	s2,1
    2920:	00000493          	li	s1,0
    2924:	08000a13          	li	s4,128
    2928:	00000413          	li	s0,0
    292c:	0ff4f993          	andi	s3,s1,255
    2930:	0440006f          	j	2974 <initframe+0xb18>
    2934:	00040a93          	mv	s5,s0
    2938:	00048593          	mv	a1,s1
    293c:	00158513          	addi	a0,a1,1
    2940:	165000ef          	jal	ra,32a4 <__mulsi3>
    2944:	e58c2783          	lw	a5,-424(s8)
    2948:	00155513          	srli	a0,a0,0x1
    294c:	01550533          	add	a0,a0,s5
    2950:	00355713          	srli	a4,a0,0x3
    2954:	00e787b3          	add	a5,a5,a4
    2958:	0007c703          	lbu	a4,0(a5)
    295c:	00757513          	andi	a0,a0,7
    2960:	40aa5533          	sra	a0,s4,a0
    2964:	00e56533          	or	a0,a0,a4
    2968:	00a78023          	sb	a0,0(a5)
    296c:	00140413          	addi	s0,s0,1
    2970:	07240863          	beq	s0,s2,29e0 <initframe+0xb84>
    2974:	e55cc503          	lbu	a0,-427(s9)
    2978:	00048593          	mv	a1,s1
    297c:	129000ef          	jal	ra,32a4 <__mulsi3>
    2980:	e48b2703          	lw	a4,-440(s6)
    2984:	00345693          	srli	a3,s0,0x3
    2988:	fff44793          	not	a5,s0
    298c:	00a70533          	add	a0,a4,a0
    2990:	00d50533          	add	a0,a0,a3
    2994:	00054703          	lbu	a4,0(a0)
    2998:	0077f793          	andi	a5,a5,7
    299c:	0ff47693          	andi	a3,s0,255
    29a0:	40f757b3          	sra	a5,a4,a5
    29a4:	0017f793          	andi	a5,a5,1
    29a8:	fc0782e3          	beqz	a5,296c <initframe+0xb10>
    29ac:	f8d9f4e3          	bgeu	s3,a3,2934 <initframe+0xad8>
    29b0:	00040593          	mv	a1,s0
    29b4:	00048a93          	mv	s5,s1
    29b8:	f85ff06f          	j	293c <initframe+0xae0>
    29bc:	e58c2703          	lw	a4,-424(s8)
    29c0:	01500513          	li	a0,21
    29c4:	00d70733          	add	a4,a4,a3
    29c8:	00074683          	lbu	a3,0(a4)
    29cc:	00d7e7b3          	or	a5,a5,a3
    29d0:	00f70023          	sb	a5,0(a4)
    29d4:	d89612e3          	bne	a2,s1,2758 <initframe+0x8fc>
    29d8:	001a8b93          	addi	s7,s5,1
    29dc:	d69ff06f          	j	2744 <initframe+0x8e8>
    29e0:	e3cd4783          	lbu	a5,-452(s10)
    29e4:	00148493          	addi	s1,s1,1
    29e8:	00190913          	addi	s2,s2,1
    29ec:	f2f4eee3          	bltu	s1,a5,2928 <initframe+0xacc>
    29f0:	0ac12083          	lw	ra,172(sp)
    29f4:	0a812403          	lw	s0,168(sp)
    29f8:	0a412483          	lw	s1,164(sp)
    29fc:	0a012903          	lw	s2,160(sp)
    2a00:	09c12983          	lw	s3,156(sp)
    2a04:	09812a03          	lw	s4,152(sp)
    2a08:	09412a83          	lw	s5,148(sp)
    2a0c:	09012b03          	lw	s6,144(sp)
    2a10:	08c12b83          	lw	s7,140(sp)
    2a14:	08812c03          	lw	s8,136(sp)
    2a18:	08412c83          	lw	s9,132(sp)
    2a1c:	08012d03          	lw	s10,128(sp)
    2a20:	07c12d83          	lw	s11,124(sp)
    2a24:	0b010113          	addi	sp,sp,176
    2a28:	00008067          	ret
    2a2c:	ff750513          	addi	a0,a0,-9
    2a30:	41450533          	sub	a0,a0,s4
    2a34:	0ff57513          	andi	a0,a0,255
    2a38:	00040893          	mv	a7,s0
    2a3c:	00040613          	mv	a2,s0
    2a40:	00857663          	bgeu	a0,s0,2a4c <initframe+0xbf0>
    2a44:	00050613          	mv	a2,a0
    2a48:	00040513          	mv	a0,s0
    2a4c:	00150593          	addi	a1,a0,1
    2a50:	01112823          	sw	a7,16(sp)
    2a54:	00c12623          	sw	a2,12(sp)
    2a58:	04d000ef          	jal	ra,32a4 <__mulsi3>
    2a5c:	00c12603          	lw	a2,12(sp)
    2a60:	e58c2783          	lw	a5,-424(s8)
    2a64:	00155513          	srli	a0,a0,0x1
    2a68:	00a60533          	add	a0,a2,a0
    2a6c:	00355613          	srli	a2,a0,0x3
    2a70:	00c787b3          	add	a5,a5,a2
    2a74:	0007c603          	lbu	a2,0(a5)
    2a78:	00757513          	andi	a0,a0,7
    2a7c:	40a95533          	sra	a0,s2,a0
    2a80:	00c56533          	or	a0,a0,a2
    2a84:	00a78023          	sb	a0,0(a5)
    2a88:	e3cd4783          	lbu	a5,-452(s10)
    2a8c:	01012883          	lw	a7,16(sp)
    2a90:	ff778793          	addi	a5,a5,-9
    2a94:	414787b3          	sub	a5,a5,s4
    2a98:	0ff7fa13          	andi	s4,a5,255
    2a9c:	01447663          	bgeu	s0,s4,2aa8 <initframe+0xc4c>
    2aa0:	000a0893          	mv	a7,s4
    2aa4:	00040a13          	mv	s4,s0
    2aa8:	00188593          	addi	a1,a7,1
    2aac:	00088513          	mv	a0,a7
    2ab0:	7f4000ef          	jal	ra,32a4 <__mulsi3>
    2ab4:	e58c2603          	lw	a2,-424(s8)
    2ab8:	00155513          	srli	a0,a0,0x1
    2abc:	00aa07b3          	add	a5,s4,a0
    2ac0:	0037d593          	srli	a1,a5,0x3
    2ac4:	00b60633          	add	a2,a2,a1
    2ac8:	00064583          	lbu	a1,0(a2)
    2acc:	0077f793          	andi	a5,a5,7
    2ad0:	40f957b3          	sra	a5,s2,a5
    2ad4:	00b7e7b3          	or	a5,a5,a1
    2ad8:	00f60023          	sb	a5,0(a2)
    2adc:	e11ff06f          	j	28ec <initframe+0xa90>
    2ae0:	01c12783          	lw	a5,28(sp)
    2ae4:	01b7d7b3          	srl	a5,a5,s11
    2ae8:	0017f793          	andi	a5,a5,1
    2aec:	d91ff06f          	j	287c <initframe+0xa20>
    2af0:	e3cd4783          	lbu	a5,-452(s10)
    2af4:	00100713          	li	a4,1
    2af8:	02e12c23          	sw	a4,56(sp)
    2afc:	00500713          	li	a4,5
    2b00:	02e12a23          	sw	a4,52(sp)
    2b04:	ff978713          	addi	a4,a5,-7
    2b08:	0ff77313          	andi	t1,a4,255
    2b0c:	00430513          	addi	a0,t1,4
    2b10:	00737593          	andi	a1,t1,7
    2b14:	ffa78893          	addi	a7,a5,-6
    2b18:	00757713          	andi	a4,a0,7
    2b1c:	ffe78793          	addi	a5,a5,-2
    2b20:	40bad5b3          	sra	a1,s5,a1
    2b24:	0ff7fe93          	andi	t4,a5,255
    2b28:	00630813          	addi	a6,t1,6
    2b2c:	40ead7b3          	sra	a5,s5,a4
    2b30:	01859713          	slli	a4,a1,0x18
    2b34:	41875713          	srai	a4,a4,0x18
    2b38:	00787613          	andi	a2,a6,7
    2b3c:	40cad633          	sra	a2,s5,a2
    2b40:	00e12823          	sw	a4,16(sp)
    2b44:	40385713          	srai	a4,a6,0x3
    2b48:	00230e13          	addi	t3,t1,2
    2b4c:	00e12a23          	sw	a4,20(sp)
    2b50:	01879793          	slli	a5,a5,0x18
    2b54:	01861713          	slli	a4,a2,0x18
    2b58:	41875713          	srai	a4,a4,0x18
    2b5c:	4187d793          	srai	a5,a5,0x18
    2b60:	007e7693          	andi	a3,t3,7
    2b64:	00330493          	addi	s1,t1,3
    2b68:	40dad6b3          	sra	a3,s5,a3
    2b6c:	00e12c23          	sw	a4,24(sp)
    2b70:	06f12023          	sw	a5,96(sp)
    2b74:	403e5713          	srai	a4,t3,0x3
    2b78:	00400793          	li	a5,4
    2b7c:	0074f913          	andi	s2,s1,7
    2b80:	04e12223          	sw	a4,68(sp)
    2b84:	04f12623          	sw	a5,76(sp)
    2b88:	01869713          	slli	a4,a3,0x18
    2b8c:	00200793          	li	a5,2
    2b90:	41875713          	srai	a4,a4,0x18
    2b94:	412ad933          	sra	s2,s5,s2
    2b98:	04f12023          	sw	a5,64(sp)
    2b9c:	00500793          	li	a5,5
    2ba0:	0ff8f893          	andi	a7,a7,255
    2ba4:	01891913          	slli	s2,s2,0x18
    2ba8:	04e12423          	sw	a4,72(sp)
    2bac:	02f12823          	sw	a5,48(sp)
    2bb0:	40355713          	srai	a4,a0,0x3
    2bb4:	00100793          	li	a5,1
    2bb8:	04612823          	sw	t1,80(sp)
    2bbc:	07c12623          	sw	t3,108(sp)
    2bc0:	03112423          	sw	a7,40(sp)
    2bc4:	03d12623          	sw	t4,44(sp)
    2bc8:	04612a23          	sw	t1,84(sp)
    2bcc:	4034d493          	srai	s1,s1,0x3
    2bd0:	41895913          	srai	s2,s2,0x18
    2bd4:	00335b93          	srli	s7,t1,0x3
    2bd8:	04e12e23          	sw	a4,92(sp)
    2bdc:	07d12223          	sw	t4,100(sp)
    2be0:	07112423          	sw	a7,104(sp)
    2be4:	02f12223          	sw	a5,36(sp)
    2be8:	00600d93          	li	s11,6
    2bec:	00300593          	li	a1,3
    2bf0:	00000413          	li	s0,0
    2bf4:	04012c23          	sw	zero,88(sp)
    2bf8:	bb4ff06f          	j	1fac <initframe+0x150>
    2bfc:	e3cd4783          	lbu	a5,-452(s10)
    2c00:	02e12423          	sw	a4,40(sp)
    2c04:	06e12423          	sw	a4,104(sp)
    2c08:	ff978693          	addi	a3,a5,-7
    2c0c:	ffa78713          	addi	a4,a5,-6
    2c10:	ffe78793          	addi	a5,a5,-2
    2c14:	0ff7f793          	andi	a5,a5,255
    2c18:	02f12823          	sw	a5,48(sp)
    2c1c:	02f12a23          	sw	a5,52(sp)
    2c20:	00500793          	li	a5,5
    2c24:	06f12223          	sw	a5,100(sp)
    2c28:	00800793          	li	a5,8
    2c2c:	06f12023          	sw	a5,96(sp)
    2c30:	02000793          	li	a5,32
    2c34:	04f12423          	sw	a5,72(sp)
    2c38:	00500793          	li	a5,5
    2c3c:	02f12623          	sw	a5,44(sp)
    2c40:	00200793          	li	a5,2
    2c44:	0ff6f693          	andi	a3,a3,255
    2c48:	00f12c23          	sw	a5,24(sp)
    2c4c:	f8000793          	li	a5,-128
    2c50:	0ff77713          	andi	a4,a4,255
    2c54:	00268613          	addi	a2,a3,2
    2c58:	04d12c23          	sw	a3,88(sp)
    2c5c:	00068413          	mv	s0,a3
    2c60:	00368593          	addi	a1,a3,3
    2c64:	00668d93          	addi	s11,a3,6
    2c68:	00f12823          	sw	a5,16(sp)
    2c6c:	00468693          	addi	a3,a3,4
    2c70:	00200793          	li	a5,2
    2c74:	02e12223          	sw	a4,36(sp)
    2c78:	04c12023          	sw	a2,64(sp)
    2c7c:	04d12623          	sw	a3,76(sp)
    2c80:	02e12c23          	sw	a4,56(sp)
    2c84:	04012e23          	sw	zero,92(sp)
    2c88:	04012223          	sw	zero,68(sp)
    2c8c:	00012a23          	sw	zero,20(sp)
    2c90:	00000b93          	li	s7,0
    2c94:	01000913          	li	s2,16
    2c98:	00000493          	li	s1,0
    2c9c:	04012a23          	sw	zero,84(sp)
    2ca0:	04012823          	sw	zero,80(sp)
    2ca4:	06f12623          	sw	a5,108(sp)
    2ca8:	b04ff06f          	j	1fac <initframe+0x150>
    2cac:	e4ca4783          	lbu	a5,-436(s4)
    2cb0:	00078713          	mv	a4,a5
    2cb4:	00f12c23          	sw	a5,24(sp)
    2cb8:	00600793          	li	a5,6
    2cbc:	b4e7eee3          	bltu	a5,a4,2818 <initframe+0x9bc>
    2cc0:	c5dff06f          	j	291c <initframe+0xac0>

00002cc4 <freeframe>:
    2cc4:	000067b7          	lui	a5,0x6
    2cc8:	e487a503          	lw	a0,-440(a5) # 5e48 <framebase>
    2ccc:	ff010113          	addi	sp,sp,-16
    2cd0:	00112623          	sw	ra,12(sp)
    2cd4:	440000ef          	jal	ra,3114 <free_beebs>
    2cd8:	000067b7          	lui	a5,0x6
    2cdc:	e587a503          	lw	a0,-424(a5) # 5e58 <framask>
    2ce0:	434000ef          	jal	ra,3114 <free_beebs>
    2ce4:	000067b7          	lui	a5,0x6
    2ce8:	00c12083          	lw	ra,12(sp)
    2cec:	e507a503          	lw	a0,-432(a5) # 5e50 <rlens>
    2cf0:	01010113          	addi	sp,sp,16
    2cf4:	4200006f          	j	3114 <free_beebs>

00002cf8 <initecc>:
    2cf8:	00259793          	slli	a5,a1,0x2
    2cfc:	fe010113          	addi	sp,sp,-32
    2d00:	01178793          	addi	a5,a5,17
    2d04:	0ff7f793          	andi	a5,a5,255
    2d08:	00812c23          	sw	s0,24(sp)
    2d0c:	00006737          	lui	a4,0x6
    2d10:	00058413          	mv	s0,a1
    2d14:	e4870623          	sb	s0,-436(a4) # 5e4c <VERSION>
    2d18:	00778593          	addi	a1,a5,7
    2d1c:	00006737          	lui	a4,0x6
    2d20:	e2f70e23          	sb	a5,-452(a4) # 5e3c <WD>
    2d24:	4035d593          	srai	a1,a1,0x3
    2d28:	00006737          	lui	a4,0x6
    2d2c:	01312623          	sw	s3,12(sp)
    2d30:	e4b70aa3          	sb	a1,-427(a4) # 5e55 <WDB>
    2d34:	00050993          	mv	s3,a0
    2d38:	00078513          	mv	a0,a5
    2d3c:	01212823          	sw	s2,16(sp)
    2d40:	00112e23          	sw	ra,28(sp)
    2d44:	00912a23          	sw	s1,20(sp)
    2d48:	01412423          	sw	s4,8(sp)
    2d4c:	01512223          	sw	s5,4(sp)
    2d50:	01612023          	sw	s6,0(sp)
    2d54:	550000ef          	jal	ra,32a4 <__mulsi3>
    2d58:	30000793          	li	a5,768
    2d5c:	30000913          	li	s2,768
    2d60:	00f54463          	blt	a0,a5,2d68 <initecc+0x70>
    2d64:	00050913          	mv	s2,a0
    2d68:	00090513          	mv	a0,s2
    2d6c:	288000ef          	jal	ra,2ff4 <malloc_beebs>
    2d70:	fff40413          	addi	s0,s0,-1
    2d74:	fff98793          	addi	a5,s3,-1
    2d78:	00241413          	slli	s0,s0,0x2
    2d7c:	00f40433          	add	s0,s0,a5
    2d80:	000047b7          	lui	a5,0x4
    2d84:	ad078793          	addi	a5,a5,-1328 # 3ad0 <adelta>
    2d88:	00241413          	slli	s0,s0,0x2
    2d8c:	00878433          	add	s0,a5,s0
    2d90:	0b544a03          	lbu	s4,181(s0)
    2d94:	0b644483          	lbu	s1,182(s0)
    2d98:	0b744783          	lbu	a5,183(s0)
    2d9c:	0b444583          	lbu	a1,180(s0)
    2da0:	00006737          	lui	a4,0x6
    2da4:	e2a72c23          	sw	a0,-456(a4) # 5e38 <qrframe>
    2da8:	00006737          	lui	a4,0x6
    2dac:	e3370a23          	sb	s3,-460(a4) # 5e34 <ECCLEVEL>
    2db0:	00006b37          	lui	s6,0x6
    2db4:	00006737          	lui	a4,0x6
    2db8:	00006437          	lui	s0,0x6
    2dbc:	00006ab7          	lui	s5,0x6
    2dc0:	e4bb0323          	sb	a1,-442(s6) # 5e46 <neccblk1>
    2dc4:	e5440223          	sb	s4,-444(s0) # 5e44 <neccblk2>
    2dc8:	e49a82a3          	sb	s1,-443(s5) # 5e45 <datablkw>
    2dcc:	e4f70a23          	sb	a5,-428(a4) # 5e54 <eccblkwid>
    2dd0:	014585b3          	add	a1,a1,s4
    2dd4:	00978533          	add	a0,a5,s1
    2dd8:	4cc000ef          	jal	ra,32a4 <__mulsi3>
    2ddc:	00950533          	add	a0,a0,s1
    2de0:	01450533          	add	a0,a0,s4
    2de4:	01257463          	bgeu	a0,s2,2dec <initecc+0xf4>
    2de8:	00090513          	mv	a0,s2
    2dec:	208000ef          	jal	ra,2ff4 <malloc_beebs>
    2df0:	e46b4783          	lbu	a5,-442(s6)
    2df4:	e4444403          	lbu	s0,-444(s0)
    2df8:	e45ac583          	lbu	a1,-443(s5)
    2dfc:	00006737          	lui	a4,0x6
    2e00:	e4a72023          	sw	a0,-448(a4) # 5e40 <strinbuf>
    2e04:	00878533          	add	a0,a5,s0
    2e08:	49c000ef          	jal	ra,32a4 <__mulsi3>
    2e0c:	00850533          	add	a0,a0,s0
    2e10:	01c12083          	lw	ra,28(sp)
    2e14:	01812403          	lw	s0,24(sp)
    2e18:	01412483          	lw	s1,20(sp)
    2e1c:	01012903          	lw	s2,16(sp)
    2e20:	00c12983          	lw	s3,12(sp)
    2e24:	00812a03          	lw	s4,8(sp)
    2e28:	00412a83          	lw	s5,4(sp)
    2e2c:	00012b03          	lw	s6,0(sp)
    2e30:	ffd50513          	addi	a0,a0,-3
    2e34:	02010113          	addi	sp,sp,32
    2e38:	00008067          	ret

00002e3c <initeccsize>:
    2e3c:	fd010113          	addi	sp,sp,-48
    2e40:	02812423          	sw	s0,40(sp)
    2e44:	00004437          	lui	s0,0x4
    2e48:	00251793          	slli	a5,a0,0x2
    2e4c:	b8440413          	addi	s0,s0,-1148 # 3b84 <eccblocks>
    2e50:	03212023          	sw	s2,32(sp)
    2e54:	01512a23          	sw	s5,20(sp)
    2e58:	01612823          	sw	s6,16(sp)
    2e5c:	01712623          	sw	s7,12(sp)
    2e60:	02112623          	sw	ra,44(sp)
    2e64:	02912223          	sw	s1,36(sp)
    2e68:	01312e23          	sw	s3,28(sp)
    2e6c:	01412c23          	sw	s4,24(sp)
    2e70:	00050b13          	mv	s6,a0
    2e74:	00058a93          	mv	s5,a1
    2e78:	00f40433          	add	s0,s0,a5
    2e7c:	00100913          	li	s2,1
    2e80:	02800b93          	li	s7,40
    2e84:	00c0006f          	j	2e90 <initeccsize+0x54>
    2e88:	0ff7f913          	andi	s2,a5,255
    2e8c:	03790863          	beq	s2,s7,2ebc <initeccsize+0x80>
    2e90:	ffd44483          	lbu	s1,-3(s0)
    2e94:	ffc44a03          	lbu	s4,-4(s0)
    2e98:	ffe44983          	lbu	s3,-2(s0)
    2e9c:	01040413          	addi	s0,s0,16
    2ea0:	009a0533          	add	a0,s4,s1
    2ea4:	00098593          	mv	a1,s3
    2ea8:	3fc000ef          	jal	ra,32a4 <__mulsi3>
    2eac:	00950533          	add	a0,a0,s1
    2eb0:	ffd50513          	addi	a0,a0,-3
    2eb4:	00190793          	addi	a5,s2,1
    2eb8:	fcaaf8e3          	bgeu	s5,a0,2e88 <initeccsize+0x4c>
    2ebc:	000067b7          	lui	a5,0x6
    2ec0:	e5478323          	sb	s4,-442(a5) # 5e46 <neccblk1>
    2ec4:	000067b7          	lui	a5,0x6
    2ec8:	e4978223          	sb	s1,-444(a5) # 5e44 <neccblk2>
    2ecc:	02812403          	lw	s0,40(sp)
    2ed0:	000067b7          	lui	a5,0x6
    2ed4:	e53782a3          	sb	s3,-443(a5) # 5e45 <datablkw>
    2ed8:	02c12083          	lw	ra,44(sp)
    2edc:	02412483          	lw	s1,36(sp)
    2ee0:	01c12983          	lw	s3,28(sp)
    2ee4:	01812a03          	lw	s4,24(sp)
    2ee8:	01412a83          	lw	s5,20(sp)
    2eec:	00c12b83          	lw	s7,12(sp)
    2ef0:	00090593          	mv	a1,s2
    2ef4:	000b0513          	mv	a0,s6
    2ef8:	02012903          	lw	s2,32(sp)
    2efc:	01012b03          	lw	s6,16(sp)
    2f00:	03010113          	addi	sp,sp,48
    2f04:	df5ff06f          	j	2cf8 <initecc>

00002f08 <freeecc>:
    2f08:	000067b7          	lui	a5,0x6
    2f0c:	e387a503          	lw	a0,-456(a5) # 5e38 <qrframe>
    2f10:	ff010113          	addi	sp,sp,-16
    2f14:	00112623          	sw	ra,12(sp)
    2f18:	1fc000ef          	jal	ra,3114 <free_beebs>
    2f1c:	000067b7          	lui	a5,0x6
    2f20:	00c12083          	lw	ra,12(sp)
    2f24:	e407a503          	lw	a0,-448(a5) # 5e40 <strinbuf>
    2f28:	01010113          	addi	sp,sp,16
    2f2c:	1e80006f          	j	3114 <free_beebs>

00002f30 <initialise_board>:
    2f30:	00000513          	li	a0,0
    2f34:	00008067          	ret

00002f38 <start_trigger>:
    2f38:	00000513          	li	a0,0
    2f3c:	00008067          	ret

00002f40 <stop_trigger>:
    2f40:	00000513          	li	a0,0
    2f44:	00008067          	ret

00002f48 <rand_beebs>:
    2f48:	000066b7          	lui	a3,0x6
    2f4c:	e706a703          	lw	a4,-400(a3) # 5e70 <seed>
    2f50:	00871793          	slli	a5,a4,0x8
    2f54:	40e787b3          	sub	a5,a5,a4
    2f58:	00379793          	slli	a5,a5,0x3
    2f5c:	00e787b3          	add	a5,a5,a4
    2f60:	00779793          	slli	a5,a5,0x7
    2f64:	00e787b3          	add	a5,a5,a4
    2f68:	00379793          	slli	a5,a5,0x3
    2f6c:	40e787b3          	sub	a5,a5,a4
    2f70:	00579513          	slli	a0,a5,0x5
    2f74:	00a78533          	add	a0,a5,a0
    2f78:	00251513          	slli	a0,a0,0x2
    2f7c:	40e50533          	sub	a0,a0,a4
    2f80:	00251513          	slli	a0,a0,0x2
    2f84:	000037b7          	lui	a5,0x3
    2f88:	00e50533          	add	a0,a0,a4
    2f8c:	03978793          	addi	a5,a5,57 # 3039 <calloc_beebs+0x1>
    2f90:	00f50533          	add	a0,a0,a5
    2f94:	00151513          	slli	a0,a0,0x1
    2f98:	00155513          	srli	a0,a0,0x1
    2f9c:	e6a6a823          	sw	a0,-400(a3)
    2fa0:	01055513          	srli	a0,a0,0x10
    2fa4:	00008067          	ret

00002fa8 <srand_beebs>:
    2fa8:	000067b7          	lui	a5,0x6
    2fac:	e6a7a823          	sw	a0,-400(a5) # 5e70 <seed>
    2fb0:	00008067          	ret

00002fb4 <init_heap_beebs>:
    2fb4:	000067b7          	lui	a5,0x6
    2fb8:	00b505b3          	add	a1,a0,a1
    2fbc:	e6a7a623          	sw	a0,-404(a5) # 5e6c <heap_ptr>
    2fc0:	000067b7          	lui	a5,0x6
    2fc4:	e6b7a423          	sw	a1,-408(a5) # 5e68 <heap_end>
    2fc8:	000067b7          	lui	a5,0x6
    2fcc:	e607a223          	sw	zero,-412(a5) # 5e64 <heap_requested>
    2fd0:	00008067          	ret

00002fd4 <check_heap_beebs>:
    2fd4:	000067b7          	lui	a5,0x6
    2fd8:	e647a703          	lw	a4,-412(a5) # 5e64 <heap_requested>
    2fdc:	000067b7          	lui	a5,0x6
    2fe0:	e687a783          	lw	a5,-408(a5) # 5e68 <heap_end>
    2fe4:	00e50533          	add	a0,a0,a4
    2fe8:	00a7b533          	sltu	a0,a5,a0
    2fec:	00154513          	xori	a0,a0,1
    2ff0:	00008067          	ret

00002ff4 <malloc_beebs>:
    2ff4:	000066b7          	lui	a3,0x6
    2ff8:	e646a783          	lw	a5,-412(a3) # 5e64 <heap_requested>
    2ffc:	00006637          	lui	a2,0x6
    3000:	e6c62703          	lw	a4,-404(a2) # 5e6c <heap_ptr>
    3004:	000065b7          	lui	a1,0x6
    3008:	e685a583          	lw	a1,-408(a1) # 5e68 <heap_end>
    300c:	00a787b3          	add	a5,a5,a0
    3010:	e6f6a223          	sw	a5,-412(a3)
    3014:	00a707b3          	add	a5,a4,a0
    3018:	00f5ea63          	bltu	a1,a5,302c <malloc_beebs+0x38>
    301c:	00050863          	beqz	a0,302c <malloc_beebs+0x38>
    3020:	e6f62623          	sw	a5,-404(a2)
    3024:	00070513          	mv	a0,a4
    3028:	00008067          	ret
    302c:	00000713          	li	a4,0
    3030:	00070513          	mv	a0,a4
    3034:	00008067          	ret

00003038 <calloc_beebs>:
    3038:	ff010113          	addi	sp,sp,-16
    303c:	00112623          	sw	ra,12(sp)
    3040:	264000ef          	jal	ra,32a4 <__mulsi3>
    3044:	000066b7          	lui	a3,0x6
    3048:	e646a703          	lw	a4,-412(a3) # 5e64 <heap_requested>
    304c:	00006637          	lui	a2,0x6
    3050:	e6c62783          	lw	a5,-404(a2) # 5e6c <heap_ptr>
    3054:	000065b7          	lui	a1,0x6
    3058:	e685a583          	lw	a1,-408(a1) # 5e68 <heap_end>
    305c:	00a70733          	add	a4,a4,a0
    3060:	e6e6a223          	sw	a4,-412(a3)
    3064:	00a78733          	add	a4,a5,a0
    3068:	02e5ea63          	bltu	a1,a4,309c <calloc_beebs+0x64>
    306c:	02050863          	beqz	a0,309c <calloc_beebs+0x64>
    3070:	e6e62623          	sw	a4,-404(a2)
    3074:	00078c63          	beqz	a5,308c <calloc_beebs+0x54>
    3078:	00050613          	mv	a2,a0
    307c:	00000593          	li	a1,0
    3080:	00078513          	mv	a0,a5
    3084:	5bc000ef          	jal	ra,3640 <memset>
    3088:	00050793          	mv	a5,a0
    308c:	00c12083          	lw	ra,12(sp)
    3090:	00078513          	mv	a0,a5
    3094:	01010113          	addi	sp,sp,16
    3098:	00008067          	ret
    309c:	00c12083          	lw	ra,12(sp)
    30a0:	00000793          	li	a5,0
    30a4:	00078513          	mv	a0,a5
    30a8:	01010113          	addi	sp,sp,16
    30ac:	00008067          	ret

000030b0 <realloc_beebs>:
    30b0:	00006737          	lui	a4,0x6
    30b4:	e6472783          	lw	a5,-412(a4) # 5e64 <heap_requested>
    30b8:	00006637          	lui	a2,0x6
    30bc:	e6c62683          	lw	a3,-404(a2) # 5e6c <heap_ptr>
    30c0:	00006837          	lui	a6,0x6
    30c4:	e6882803          	lw	a6,-408(a6) # 5e68 <heap_end>
    30c8:	00b787b3          	add	a5,a5,a1
    30cc:	e6f72223          	sw	a5,-412(a4)
    30d0:	00b687b3          	add	a5,a3,a1
    30d4:	02f86a63          	bltu	a6,a5,3108 <realloc_beebs+0x58>
    30d8:	02058863          	beqz	a1,3108 <realloc_beebs+0x58>
    30dc:	e6f62623          	sw	a5,-404(a2)
    30e0:	02050063          	beqz	a0,3100 <realloc_beebs+0x50>
    30e4:	00068793          	mv	a5,a3
    30e8:	00b505b3          	add	a1,a0,a1
    30ec:	00054703          	lbu	a4,0(a0)
    30f0:	00178793          	addi	a5,a5,1
    30f4:	00150513          	addi	a0,a0,1
    30f8:	fee78fa3          	sb	a4,-1(a5)
    30fc:	feb518e3          	bne	a0,a1,30ec <realloc_beebs+0x3c>
    3100:	00068513          	mv	a0,a3
    3104:	00008067          	ret
    3108:	00000693          	li	a3,0
    310c:	00068513          	mv	a0,a3
    3110:	00008067          	ret

00003114 <free_beebs>:
    3114:	00008067          	ret

00003118 <simrv_exit>:
    3118:	000067b7          	lui	a5,0x6
    311c:	e747a783          	lw	a5,-396(a5) # 5e74 <TOHOST_ADDR>
    3120:	00020737          	lui	a4,0x20
    3124:	00e7a023          	sw	a4,0(a5)
    3128:	0000006f          	j	3128 <simrv_exit+0x10>

0000312c <simrv_putc>:
    312c:	000067b7          	lui	a5,0x6
    3130:	e747a703          	lw	a4,-396(a5) # 5e74 <TOHOST_ADDR>
    3134:	000107b7          	lui	a5,0x10
    3138:	00f56533          	or	a0,a0,a5
    313c:	00a72023          	sw	a0,0(a4) # 20000 <TOHOST_ADDR+0x1a18c>
    3140:	00008067          	ret

00003144 <simrv_puts>:
    3144:	00054783          	lbu	a5,0(a0)
    3148:	02078263          	beqz	a5,316c <simrv_puts+0x28>
    314c:	00006737          	lui	a4,0x6
    3150:	e7472683          	lw	a3,-396(a4) # 5e74 <TOHOST_ADDR>
    3154:	00010737          	lui	a4,0x10
    3158:	00e7e7b3          	or	a5,a5,a4
    315c:	00f6a023          	sw	a5,0(a3)
    3160:	00150513          	addi	a0,a0,1
    3164:	00054783          	lbu	a5,0(a0)
    3168:	fe0798e3          	bnez	a5,3158 <simrv_puts+0x14>
    316c:	00008067          	ret

00003170 <simrv_puti>:
    3170:	fd010113          	addi	sp,sp,-48
    3174:	02912223          	sw	s1,36(sp)
    3178:	03212023          	sw	s2,32(sp)
    317c:	01412c23          	sw	s4,24(sp)
    3180:	02112623          	sw	ra,44(sp)
    3184:	02812423          	sw	s0,40(sp)
    3188:	01312e23          	sw	s3,28(sp)
    318c:	00050913          	mv	s2,a0
    3190:	00000493          	li	s1,0
    3194:	00410a13          	addi	s4,sp,4
    3198:	0080006f          	j	31a0 <simrv_puti+0x30>
    319c:	00098493          	mv	s1,s3
    31a0:	00a00593          	li	a1,10
    31a4:	00090513          	mv	a0,s2
    31a8:	1a4000ef          	jal	ra,334c <__modsi3>
    31ac:	03050513          	addi	a0,a0,48
    31b0:	00148993          	addi	s3,s1,1
    31b4:	0ff57413          	andi	s0,a0,255
    31b8:	013a07b3          	add	a5,s4,s3
    31bc:	00090513          	mv	a0,s2
    31c0:	00a00593          	li	a1,10
    31c4:	fe878fa3          	sb	s0,-1(a5) # ffff <TOHOST_ADDR+0xa18b>
    31c8:	100000ef          	jal	ra,32c8 <__divsi3>
    31cc:	00050913          	mv	s2,a0
    31d0:	fc0516e3          	bnez	a0,319c <simrv_puti+0x2c>
    31d4:	000067b7          	lui	a5,0x6
    31d8:	e747a603          	lw	a2,-396(a5) # 5e74 <TOHOST_ADDR>
    31dc:	000106b7          	lui	a3,0x10
    31e0:	009a07b3          	add	a5,s4,s1
    31e4:	00c0006f          	j	31f0 <simrv_puti+0x80>
    31e8:	fff7c403          	lbu	s0,-1(a5)
    31ec:	00070793          	mv	a5,a4
    31f0:	00d46433          	or	s0,s0,a3
    31f4:	00862023          	sw	s0,0(a2)
    31f8:	fff78713          	addi	a4,a5,-1
    31fc:	fefa16e3          	bne	s4,a5,31e8 <simrv_puti+0x78>
    3200:	02c12083          	lw	ra,44(sp)
    3204:	02812403          	lw	s0,40(sp)
    3208:	02412483          	lw	s1,36(sp)
    320c:	02012903          	lw	s2,32(sp)
    3210:	01c12983          	lw	s3,28(sp)
    3214:	01812a03          	lw	s4,24(sp)
    3218:	03010113          	addi	sp,sp,48
    321c:	00008067          	ret

00003220 <simrv_puth>:
    3220:	ff010113          	addi	sp,sp,-16
    3224:	00000793          	li	a5,0
    3228:	00810593          	addi	a1,sp,8
    322c:	00900e13          	li	t3,9
    3230:	0140006f          	j	3244 <simrv_puth+0x24>
    3234:	fe688fa3          	sb	t1,-1(a7)
    3238:	00455513          	srli	a0,a0,0x4
    323c:	02050863          	beqz	a0,326c <simrv_puth+0x4c>
    3240:	00060793          	mv	a5,a2
    3244:	00f57713          	andi	a4,a0,15
    3248:	0ff77693          	andi	a3,a4,255
    324c:	00178613          	addi	a2,a5,1
    3250:	03068313          	addi	t1,a3,48 # 10030 <TOHOST_ADDR+0xa1bc>
    3254:	00c588b3          	add	a7,a1,a2
    3258:	03768693          	addi	a3,a3,55
    325c:	fcee7ce3          	bgeu	t3,a4,3234 <simrv_puth+0x14>
    3260:	fed88fa3          	sb	a3,-1(a7)
    3264:	00455513          	srli	a0,a0,0x4
    3268:	fc051ce3          	bnez	a0,3240 <simrv_puth+0x20>
    326c:	0207c863          	bltz	a5,329c <simrv_puth+0x7c>
    3270:	00006737          	lui	a4,0x6
    3274:	e7472503          	lw	a0,-396(a4) # 5e74 <TOHOST_ADDR>
    3278:	00f587b3          	add	a5,a1,a5
    327c:	00010637          	lui	a2,0x10
    3280:	0080006f          	j	3288 <simrv_puth+0x68>
    3284:	00068793          	mv	a5,a3
    3288:	0007c703          	lbu	a4,0(a5)
    328c:	fff78693          	addi	a3,a5,-1
    3290:	00c76733          	or	a4,a4,a2
    3294:	00e52023          	sw	a4,0(a0)
    3298:	fef596e3          	bne	a1,a5,3284 <simrv_puth+0x64>
    329c:	01010113          	addi	sp,sp,16
    32a0:	00008067          	ret

000032a4 <__mulsi3>:
    32a4:	00050613          	mv	a2,a0
    32a8:	00000513          	li	a0,0
    32ac:	0015f693          	andi	a3,a1,1
    32b0:	00068463          	beqz	a3,32b8 <__mulsi3+0x14>
    32b4:	00c50533          	add	a0,a0,a2
    32b8:	0015d593          	srli	a1,a1,0x1
    32bc:	00161613          	slli	a2,a2,0x1
    32c0:	fe0596e3          	bnez	a1,32ac <__mulsi3+0x8>
    32c4:	00008067          	ret

000032c8 <__divsi3>:
    32c8:	06054063          	bltz	a0,3328 <__umodsi3+0x10>
    32cc:	0605c663          	bltz	a1,3338 <__umodsi3+0x20>

000032d0 <__udivsi3>:
    32d0:	00058613          	mv	a2,a1
    32d4:	00050593          	mv	a1,a0
    32d8:	fff00513          	li	a0,-1
    32dc:	02060c63          	beqz	a2,3314 <__udivsi3+0x44>
    32e0:	00100693          	li	a3,1
    32e4:	00b67a63          	bgeu	a2,a1,32f8 <__udivsi3+0x28>
    32e8:	00c05863          	blez	a2,32f8 <__udivsi3+0x28>
    32ec:	00161613          	slli	a2,a2,0x1
    32f0:	00169693          	slli	a3,a3,0x1
    32f4:	feb66ae3          	bltu	a2,a1,32e8 <__udivsi3+0x18>
    32f8:	00000513          	li	a0,0
    32fc:	00c5e663          	bltu	a1,a2,3308 <__udivsi3+0x38>
    3300:	40c585b3          	sub	a1,a1,a2
    3304:	00d56533          	or	a0,a0,a3
    3308:	0016d693          	srli	a3,a3,0x1
    330c:	00165613          	srli	a2,a2,0x1
    3310:	fe0696e3          	bnez	a3,32fc <__udivsi3+0x2c>
    3314:	00008067          	ret

00003318 <__umodsi3>:
    3318:	00008293          	mv	t0,ra
    331c:	fb5ff0ef          	jal	ra,32d0 <__udivsi3>
    3320:	00058513          	mv	a0,a1
    3324:	00028067          	jr	t0
    3328:	40a00533          	neg	a0,a0
    332c:	0005d863          	bgez	a1,333c <__umodsi3+0x24>
    3330:	40b005b3          	neg	a1,a1
    3334:	f9dff06f          	j	32d0 <__udivsi3>
    3338:	40b005b3          	neg	a1,a1
    333c:	00008293          	mv	t0,ra
    3340:	f91ff0ef          	jal	ra,32d0 <__udivsi3>
    3344:	40a00533          	neg	a0,a0
    3348:	00028067          	jr	t0

0000334c <__modsi3>:
    334c:	00008293          	mv	t0,ra
    3350:	0005ca63          	bltz	a1,3364 <__modsi3+0x18>
    3354:	00054c63          	bltz	a0,336c <__modsi3+0x20>
    3358:	f79ff0ef          	jal	ra,32d0 <__udivsi3>
    335c:	00058513          	mv	a0,a1
    3360:	00028067          	jr	t0
    3364:	40b005b3          	neg	a1,a1
    3368:	fe0558e3          	bgez	a0,3358 <__modsi3+0xc>
    336c:	40a00533          	neg	a0,a0
    3370:	f61ff0ef          	jal	ra,32d0 <__udivsi3>
    3374:	40b00533          	neg	a0,a1
    3378:	00028067          	jr	t0

0000337c <memcmp>:
    337c:	00300793          	li	a5,3
    3380:	02c7f863          	bgeu	a5,a2,33b0 <memcmp+0x34>
    3384:	00b567b3          	or	a5,a0,a1
    3388:	0037f793          	andi	a5,a5,3
    338c:	00300693          	li	a3,3
    3390:	06079263          	bnez	a5,33f4 <memcmp+0x78>
    3394:	00052703          	lw	a4,0(a0)
    3398:	0005a783          	lw	a5,0(a1)
    339c:	04f71c63          	bne	a4,a5,33f4 <memcmp+0x78>
    33a0:	ffc60613          	addi	a2,a2,-4 # fffc <TOHOST_ADDR+0xa188>
    33a4:	00450513          	addi	a0,a0,4
    33a8:	00458593          	addi	a1,a1,4
    33ac:	fec6e4e3          	bltu	a3,a2,3394 <memcmp+0x18>
    33b0:	fff60793          	addi	a5,a2,-1
    33b4:	02060c63          	beqz	a2,33ec <memcmp+0x70>
    33b8:	00054703          	lbu	a4,0(a0)
    33bc:	0005c683          	lbu	a3,0(a1)
    33c0:	02d71e63          	bne	a4,a3,33fc <memcmp+0x80>
    33c4:	00178713          	addi	a4,a5,1
    33c8:	00150793          	addi	a5,a0,1
    33cc:	00e50533          	add	a0,a0,a4
    33d0:	0140006f          	j	33e4 <memcmp+0x68>
    33d4:	0007c703          	lbu	a4,0(a5)
    33d8:	0005c683          	lbu	a3,0(a1)
    33dc:	00178793          	addi	a5,a5,1
    33e0:	00d71e63          	bne	a4,a3,33fc <memcmp+0x80>
    33e4:	00158593          	addi	a1,a1,1
    33e8:	fea796e3          	bne	a5,a0,33d4 <memcmp+0x58>
    33ec:	00000513          	li	a0,0
    33f0:	00008067          	ret
    33f4:	fff60793          	addi	a5,a2,-1
    33f8:	fc1ff06f          	j	33b8 <memcmp+0x3c>
    33fc:	40d70533          	sub	a0,a4,a3
    3400:	00008067          	ret

00003404 <memcpy>:
    3404:	00a5c7b3          	xor	a5,a1,a0
    3408:	0037f793          	andi	a5,a5,3
    340c:	00c508b3          	add	a7,a0,a2
    3410:	06079263          	bnez	a5,3474 <memcpy+0x70>
    3414:	00300793          	li	a5,3
    3418:	04c7fe63          	bgeu	a5,a2,3474 <memcpy+0x70>
    341c:	00357793          	andi	a5,a0,3
    3420:	00050713          	mv	a4,a0
    3424:	06079863          	bnez	a5,3494 <memcpy+0x90>
    3428:	ffc8f613          	andi	a2,a7,-4
    342c:	fe060793          	addi	a5,a2,-32
    3430:	08f76c63          	bltu	a4,a5,34c8 <memcpy+0xc4>
    3434:	02c77c63          	bgeu	a4,a2,346c <memcpy+0x68>
    3438:	00058693          	mv	a3,a1
    343c:	00070793          	mv	a5,a4
    3440:	0006a803          	lw	a6,0(a3)
    3444:	00478793          	addi	a5,a5,4
    3448:	00468693          	addi	a3,a3,4
    344c:	ff07ae23          	sw	a6,-4(a5)
    3450:	fec7e8e3          	bltu	a5,a2,3440 <memcpy+0x3c>
    3454:	fff60793          	addi	a5,a2,-1
    3458:	40e787b3          	sub	a5,a5,a4
    345c:	ffc7f793          	andi	a5,a5,-4
    3460:	00478793          	addi	a5,a5,4
    3464:	00f70733          	add	a4,a4,a5
    3468:	00f585b3          	add	a1,a1,a5
    346c:	01176863          	bltu	a4,a7,347c <memcpy+0x78>
    3470:	00008067          	ret
    3474:	00050713          	mv	a4,a0
    3478:	ff157ce3          	bgeu	a0,a7,3470 <memcpy+0x6c>
    347c:	0005c783          	lbu	a5,0(a1)
    3480:	00170713          	addi	a4,a4,1
    3484:	00158593          	addi	a1,a1,1
    3488:	fef70fa3          	sb	a5,-1(a4)
    348c:	ff1768e3          	bltu	a4,a7,347c <memcpy+0x78>
    3490:	00008067          	ret
    3494:	0005c683          	lbu	a3,0(a1)
    3498:	00170713          	addi	a4,a4,1
    349c:	00377793          	andi	a5,a4,3
    34a0:	fed70fa3          	sb	a3,-1(a4)
    34a4:	00158593          	addi	a1,a1,1
    34a8:	f80780e3          	beqz	a5,3428 <memcpy+0x24>
    34ac:	0005c683          	lbu	a3,0(a1)
    34b0:	00170713          	addi	a4,a4,1
    34b4:	00377793          	andi	a5,a4,3
    34b8:	fed70fa3          	sb	a3,-1(a4)
    34bc:	00158593          	addi	a1,a1,1
    34c0:	fc079ae3          	bnez	a5,3494 <memcpy+0x90>
    34c4:	f65ff06f          	j	3428 <memcpy+0x24>
    34c8:	0005a683          	lw	a3,0(a1)
    34cc:	0045a283          	lw	t0,4(a1)
    34d0:	0085af83          	lw	t6,8(a1)
    34d4:	00c5af03          	lw	t5,12(a1)
    34d8:	0105ae83          	lw	t4,16(a1)
    34dc:	0145ae03          	lw	t3,20(a1)
    34e0:	0185a303          	lw	t1,24(a1)
    34e4:	01c5a803          	lw	a6,28(a1)
    34e8:	02458593          	addi	a1,a1,36
    34ec:	00d72023          	sw	a3,0(a4)
    34f0:	ffc5a683          	lw	a3,-4(a1)
    34f4:	00572223          	sw	t0,4(a4)
    34f8:	01f72423          	sw	t6,8(a4)
    34fc:	01e72623          	sw	t5,12(a4)
    3500:	01d72823          	sw	t4,16(a4)
    3504:	01c72a23          	sw	t3,20(a4)
    3508:	00672c23          	sw	t1,24(a4)
    350c:	01072e23          	sw	a6,28(a4)
    3510:	02470713          	addi	a4,a4,36
    3514:	fed72e23          	sw	a3,-4(a4)
    3518:	faf768e3          	bltu	a4,a5,34c8 <memcpy+0xc4>
    351c:	f19ff06f          	j	3434 <memcpy+0x30>

00003520 <memmove>:
    3520:	02a5f663          	bgeu	a1,a0,354c <memmove+0x2c>
    3524:	00c587b3          	add	a5,a1,a2
    3528:	02f57263          	bgeu	a0,a5,354c <memmove+0x2c>
    352c:	00c50733          	add	a4,a0,a2
    3530:	0e060a63          	beqz	a2,3624 <memmove+0x104>
    3534:	fff78793          	addi	a5,a5,-1
    3538:	0007c683          	lbu	a3,0(a5)
    353c:	fff70713          	addi	a4,a4,-1
    3540:	00d70023          	sb	a3,0(a4)
    3544:	fef598e3          	bne	a1,a5,3534 <memmove+0x14>
    3548:	00008067          	ret
    354c:	00f00793          	li	a5,15
    3550:	02c7e863          	bltu	a5,a2,3580 <memmove+0x60>
    3554:	00050793          	mv	a5,a0
    3558:	fff60693          	addi	a3,a2,-1
    355c:	0c060c63          	beqz	a2,3634 <memmove+0x114>
    3560:	00168693          	addi	a3,a3,1
    3564:	00d786b3          	add	a3,a5,a3
    3568:	00158593          	addi	a1,a1,1
    356c:	fff5c703          	lbu	a4,-1(a1)
    3570:	00178793          	addi	a5,a5,1
    3574:	fee78fa3          	sb	a4,-1(a5)
    3578:	fed798e3          	bne	a5,a3,3568 <memmove+0x48>
    357c:	00008067          	ret
    3580:	00a5e7b3          	or	a5,a1,a0
    3584:	0037f793          	andi	a5,a5,3
    3588:	0a079063          	bnez	a5,3628 <memmove+0x108>
    358c:	ff060893          	addi	a7,a2,-16
    3590:	ff08f893          	andi	a7,a7,-16
    3594:	01088893          	addi	a7,a7,16
    3598:	01150833          	add	a6,a0,a7
    359c:	00058713          	mv	a4,a1
    35a0:	00050793          	mv	a5,a0
    35a4:	00072683          	lw	a3,0(a4)
    35a8:	01078793          	addi	a5,a5,16
    35ac:	01070713          	addi	a4,a4,16
    35b0:	fed7a823          	sw	a3,-16(a5)
    35b4:	ff472683          	lw	a3,-12(a4)
    35b8:	fed7aa23          	sw	a3,-12(a5)
    35bc:	ff872683          	lw	a3,-8(a4)
    35c0:	fed7ac23          	sw	a3,-8(a5)
    35c4:	ffc72683          	lw	a3,-4(a4)
    35c8:	fed7ae23          	sw	a3,-4(a5)
    35cc:	fcf81ce3          	bne	a6,a5,35a4 <memmove+0x84>
    35d0:	00c67713          	andi	a4,a2,12
    35d4:	011585b3          	add	a1,a1,a7
    35d8:	00f67813          	andi	a6,a2,15
    35dc:	04070e63          	beqz	a4,3638 <memmove+0x118>
    35e0:	00058713          	mv	a4,a1
    35e4:	00078893          	mv	a7,a5
    35e8:	00300e13          	li	t3,3
    35ec:	00470713          	addi	a4,a4,4
    35f0:	ffc72303          	lw	t1,-4(a4)
    35f4:	00488893          	addi	a7,a7,4
    35f8:	40e806b3          	sub	a3,a6,a4
    35fc:	fe68ae23          	sw	t1,-4(a7)
    3600:	00d586b3          	add	a3,a1,a3
    3604:	fede64e3          	bltu	t3,a3,35ec <memmove+0xcc>
    3608:	ffc80713          	addi	a4,a6,-4
    360c:	ffc77713          	andi	a4,a4,-4
    3610:	00470713          	addi	a4,a4,4
    3614:	00367613          	andi	a2,a2,3
    3618:	00e787b3          	add	a5,a5,a4
    361c:	00e585b3          	add	a1,a1,a4
    3620:	f39ff06f          	j	3558 <memmove+0x38>
    3624:	00008067          	ret
    3628:	fff60693          	addi	a3,a2,-1
    362c:	00050793          	mv	a5,a0
    3630:	f31ff06f          	j	3560 <memmove+0x40>
    3634:	00008067          	ret
    3638:	00080613          	mv	a2,a6
    363c:	f1dff06f          	j	3558 <memmove+0x38>

00003640 <memset>:
    3640:	00f00313          	li	t1,15
    3644:	00050713          	mv	a4,a0
    3648:	02c37e63          	bgeu	t1,a2,3684 <memset+0x44>
    364c:	00f77793          	andi	a5,a4,15
    3650:	0a079063          	bnez	a5,36f0 <memset+0xb0>
    3654:	08059263          	bnez	a1,36d8 <memset+0x98>
    3658:	ff067693          	andi	a3,a2,-16
    365c:	00f67613          	andi	a2,a2,15
    3660:	00e686b3          	add	a3,a3,a4
    3664:	00b72023          	sw	a1,0(a4)
    3668:	00b72223          	sw	a1,4(a4)
    366c:	00b72423          	sw	a1,8(a4)
    3670:	00b72623          	sw	a1,12(a4)
    3674:	01070713          	addi	a4,a4,16
    3678:	fed766e3          	bltu	a4,a3,3664 <memset+0x24>
    367c:	00061463          	bnez	a2,3684 <memset+0x44>
    3680:	00008067          	ret
    3684:	40c306b3          	sub	a3,t1,a2
    3688:	00269693          	slli	a3,a3,0x2
    368c:	00000297          	auipc	t0,0x0
    3690:	005686b3          	add	a3,a3,t0
    3694:	00c68067          	jr	12(a3)
    3698:	00b70723          	sb	a1,14(a4)
    369c:	00b706a3          	sb	a1,13(a4)
    36a0:	00b70623          	sb	a1,12(a4)
    36a4:	00b705a3          	sb	a1,11(a4)
    36a8:	00b70523          	sb	a1,10(a4)
    36ac:	00b704a3          	sb	a1,9(a4)
    36b0:	00b70423          	sb	a1,8(a4)
    36b4:	00b703a3          	sb	a1,7(a4)
    36b8:	00b70323          	sb	a1,6(a4)
    36bc:	00b702a3          	sb	a1,5(a4)
    36c0:	00b70223          	sb	a1,4(a4)
    36c4:	00b701a3          	sb	a1,3(a4)
    36c8:	00b70123          	sb	a1,2(a4)
    36cc:	00b700a3          	sb	a1,1(a4)
    36d0:	00b70023          	sb	a1,0(a4)
    36d4:	00008067          	ret
    36d8:	0ff5f593          	andi	a1,a1,255
    36dc:	00859693          	slli	a3,a1,0x8
    36e0:	00d5e5b3          	or	a1,a1,a3
    36e4:	01059693          	slli	a3,a1,0x10
    36e8:	00d5e5b3          	or	a1,a1,a3
    36ec:	f6dff06f          	j	3658 <memset+0x18>
    36f0:	00279693          	slli	a3,a5,0x2
    36f4:	00000297          	auipc	t0,0x0
    36f8:	005686b3          	add	a3,a3,t0
    36fc:	00008293          	mv	t0,ra
    3700:	fa0680e7          	jalr	-96(a3)
    3704:	00028093          	mv	ra,t0
    3708:	ff078793          	addi	a5,a5,-16
    370c:	40f70733          	sub	a4,a4,a5
    3710:	00f60633          	add	a2,a2,a5
    3714:	f6c378e3          	bgeu	t1,a2,3684 <memset+0x44>
    3718:	f3dff06f          	j	3654 <memset+0x14>

0000371c <strlen>:
    371c:	00357793          	andi	a5,a0,3
    3720:	00050713          	mv	a4,a0
    3724:	04079c63          	bnez	a5,377c <strlen+0x60>
    3728:	7f7f86b7          	lui	a3,0x7f7f8
    372c:	f7f68693          	addi	a3,a3,-129 # 7f7f7f7f <TOHOST_ADDR+0x7f7f210b>
    3730:	fff00593          	li	a1,-1
    3734:	00470713          	addi	a4,a4,4
    3738:	ffc72603          	lw	a2,-4(a4)
    373c:	00d677b3          	and	a5,a2,a3
    3740:	00d787b3          	add	a5,a5,a3
    3744:	00c7e7b3          	or	a5,a5,a2
    3748:	00d7e7b3          	or	a5,a5,a3
    374c:	feb784e3          	beq	a5,a1,3734 <strlen+0x18>
    3750:	ffc74683          	lbu	a3,-4(a4)
    3754:	40a707b3          	sub	a5,a4,a0
    3758:	ffd74603          	lbu	a2,-3(a4)
    375c:	ffe74503          	lbu	a0,-2(a4)
    3760:	04068063          	beqz	a3,37a0 <strlen+0x84>
    3764:	02060a63          	beqz	a2,3798 <strlen+0x7c>
    3768:	00a03533          	snez	a0,a0
    376c:	00f50533          	add	a0,a0,a5
    3770:	ffe50513          	addi	a0,a0,-2
    3774:	00008067          	ret
    3778:	fa0688e3          	beqz	a3,3728 <strlen+0xc>
    377c:	00074783          	lbu	a5,0(a4)
    3780:	00170713          	addi	a4,a4,1
    3784:	00377693          	andi	a3,a4,3
    3788:	fe0798e3          	bnez	a5,3778 <strlen+0x5c>
    378c:	40a70733          	sub	a4,a4,a0
    3790:	fff70513          	addi	a0,a4,-1
    3794:	00008067          	ret
    3798:	ffd78513          	addi	a0,a5,-3
    379c:	00008067          	ret
    37a0:	ffc78513          	addi	a0,a5,-4
    37a4:	00008067          	ret

Disassembly of section .text.startup:

000037a8 <main>:
    37a8:	fe010113          	addi	sp,sp,-32
    37ac:	00112e23          	sw	ra,28(sp)
    37b0:	00812c23          	sw	s0,24(sp)
    37b4:	f7cff0ef          	jal	ra,2f30 <initialise_board>
    37b8:	ad0fe0ef          	jal	ra,1a88 <initialise_benchmark>
    37bc:	00100513          	li	a0,1
    37c0:	abcfe0ef          	jal	ra,1a7c <warm_caches>
    37c4:	f74ff0ef          	jal	ra,2f38 <start_trigger>
    37c8:	ab8fe0ef          	jal	ra,1a80 <benchmark>
    37cc:	00a12623          	sw	a0,12(sp)
    37d0:	f70ff0ef          	jal	ra,2f40 <stop_trigger>
    37d4:	00c12503          	lw	a0,12(sp)
    37d8:	ab4fe0ef          	jal	ra,1a8c <verify_benchmark>
    37dc:	00050413          	mv	s0,a0
    37e0:	02050463          	beqz	a0,3808 <main+0x60>
    37e4:	00004537          	lui	a0,0x4
    37e8:	e1c50513          	addi	a0,a0,-484 # 3e1c <eccblocks+0x298>
    37ec:	959ff0ef          	jal	ra,3144 <simrv_puts>
    37f0:	929ff0ef          	jal	ra,3118 <simrv_exit>
    37f4:	00143513          	seqz	a0,s0
    37f8:	01c12083          	lw	ra,28(sp)
    37fc:	01812403          	lw	s0,24(sp)
    3800:	02010113          	addi	sp,sp,32
    3804:	00008067          	ret
    3808:	00004537          	lui	a0,0x4
    380c:	e2850513          	addi	a0,a0,-472 # 3e28 <eccblocks+0x2a4>
    3810:	935ff0ef          	jal	ra,3144 <simrv_puts>
    3814:	fddff06f          	j	37f0 <main+0x48>
