
bd/src/ud/ud:     file format elf32-littleriscv


Disassembly of section .init:

00000000 <_start>:
   0:	00000013          	nop
   4:	00000033          	add	zero,zero,zero
   8:	000000b3          	add	ra,zero,zero
   c:	00000133          	add	sp,zero,zero
  10:	000001b3          	add	gp,zero,zero
  14:	00000233          	add	tp,zero,zero
  18:	000002b3          	add	t0,zero,zero
  1c:	00000333          	add	t1,zero,zero
  20:	000003b3          	add	t2,zero,zero
  24:	00000433          	add	s0,zero,zero
  28:	000004b3          	add	s1,zero,zero
  2c:	00000533          	add	a0,zero,zero
  30:	000005b3          	add	a1,zero,zero
  34:	00000633          	add	a2,zero,zero
  38:	000006b3          	add	a3,zero,zero
  3c:	00000733          	add	a4,zero,zero
  40:	000007b3          	add	a5,zero,zero
  44:	00000833          	add	a6,zero,zero
  48:	000008b3          	add	a7,zero,zero
  4c:	00000933          	add	s2,zero,zero
  50:	000009b3          	add	s3,zero,zero
  54:	00000a33          	add	s4,zero,zero
  58:	00000ab3          	add	s5,zero,zero
  5c:	00000b33          	add	s6,zero,zero
  60:	00000bb3          	add	s7,zero,zero
  64:	00000c33          	add	s8,zero,zero
  68:	00000cb3          	add	s9,zero,zero
  6c:	00000d33          	add	s10,zero,zero
  70:	00000db3          	add	s11,zero,zero
  74:	00000e33          	add	t3,zero,zero
  78:	00000eb3          	add	t4,zero,zero
  7c:	00000f33          	add	t5,zero,zero
  80:	00000fb3          	add	t6,zero,zero
  84:	00010137          	lui	sp,0x10
  88:	4600106f          	j	14e8 <main>
  8c:	00000013          	nop

Disassembly of section .text:

00000090 <verify_benchmark>:
      90:	000017b7          	lui	a5,0x1
      94:	fa010113          	addi	sp,sp,-96 # ffa0 <TOHOST_ADDR+0xe1ec>
      98:	55878793          	addi	a5,a5,1368 # 1558 <main+0x70>
      9c:	04812c23          	sw	s0,88(sp)
      a0:	04112e23          	sw	ra,92(sp)
      a4:	00050413          	mv	s0,a0
      a8:	00010713          	mv	a4,sp
      ac:	05078693          	addi	a3,a5,80
      b0:	0007a803          	lw	a6,0(a5)
      b4:	0047a503          	lw	a0,4(a5)
      b8:	0087a583          	lw	a1,8(a5)
      bc:	00c7a603          	lw	a2,12(a5)
      c0:	01072023          	sw	a6,0(a4)
      c4:	00a72223          	sw	a0,4(a4)
      c8:	00b72423          	sw	a1,8(a4)
      cc:	00c72623          	sw	a2,12(a4)
      d0:	01078793          	addi	a5,a5,16
      d4:	01070713          	addi	a4,a4,16
      d8:	fcd79ce3          	bne	a5,a3,b0 <verify_benchmark+0x20>
      dc:	00001537          	lui	a0,0x1
      e0:	00010593          	mv	a1,sp
      e4:	05000613          	li	a2,80
      e8:	71050513          	addi	a0,a0,1808 # 1710 <x>
      ec:	298010ef          	jal	ra,1384 <memcmp>
      f0:	00856533          	or	a0,a0,s0
      f4:	05c12083          	lw	ra,92(sp)
      f8:	05812403          	lw	s0,88(sp)
      fc:	00153513          	seqz	a0,a0
     100:	06010113          	addi	sp,sp,96
     104:	00008067          	ret

00000108 <initialise_benchmark>:
     108:	00008067          	ret

0000010c <ludcmp>:
     10c:	e0010113          	addi	sp,sp,-512
     110:	1f212823          	sw	s2,496(sp)
     114:	1d812c23          	sw	s8,472(sp)
     118:	000017b7          	lui	a5,0x1
     11c:	1e112e23          	sw	ra,508(sp)
     120:	1e812c23          	sw	s0,504(sp)
     124:	1e912a23          	sw	s1,500(sp)
     128:	1f312623          	sw	s3,492(sp)
     12c:	1f412423          	sw	s4,488(sp)
     130:	1f512223          	sw	s5,484(sp)
     134:	1f612023          	sw	s6,480(sp)
     138:	1d712e23          	sw	s7,476(sp)
     13c:	1d912a23          	sw	s9,468(sp)
     140:	1da12823          	sw	s10,464(sp)
     144:	1db12623          	sw	s11,460(sp)
     148:	00b12823          	sw	a1,16(sp)
     14c:	fff58c13          	addi	s8,a1,-1
     150:	6c07a903          	lw	s2,1728(a5) # 16c0 <b>
     154:	30b05663          	blez	a1,460 <ludcmp+0x354>
     158:	00001bb7          	lui	s7,0x1
     15c:	01458793          	addi	a5,a1,20
     160:	764b8413          	addi	s0,s7,1892 # 1764 <a>
     164:	00279793          	slli	a5,a5,0x2
     168:	00001ab7          	lui	s5,0x1
     16c:	00259693          	slli	a3,a1,0x2
     170:	02f12423          	sw	a5,40(sp)
     174:	00878b33          	add	s6,a5,s0
     178:	7b4a8793          	addi	a5,s5,1972 # 17b4 <a+0x50>
     17c:	00b68a33          	add	s4,a3,a1
     180:	00f12a23          	sw	a5,20(sp)
     184:	764b8793          	addi	a5,s7,1892
     188:	004a1a13          	slli	s4,s4,0x4
     18c:	02f12223          	sw	a5,36(sp)
     190:	fb000793          	li	a5,-80
     194:	02d12623          	sw	a3,44(sp)
     198:	008a0a33          	add	s4,s4,s0
     19c:	764b8b93          	addi	s7,s7,1892
     1a0:	7b4a8a93          	addi	s5,s5,1972
     1a4:	00012c23          	sw	zero,24(sp)
     1a8:	00f12e23          	sw	a5,28(sp)
     1ac:	00000993          	li	s3,0
     1b0:	01812703          	lw	a4,24(sp)
     1b4:	00198793          	addi	a5,s3,1
     1b8:	02f12023          	sw	a5,32(sp)
     1bc:	05070713          	addi	a4,a4,80
     1c0:	00e12623          	sw	a4,12(sp)
     1c4:	01012703          	lw	a4,16(sp)
     1c8:	00040493          	mv	s1,s0
     1cc:	02f75063          	bge	a4,a5,1ec <ludcmp+0xe0>
     1d0:	1600006f          	j	330 <ludcmp+0x224>
     1d4:	00042583          	lw	a1,0(s0)
     1d8:	000d0513          	mv	a0,s10
     1dc:	05048493          	addi	s1,s1,80
     1e0:	0a4010ef          	jal	ra,1284 <__divsi3>
     1e4:	00a4a023          	sw	a0,0(s1)
     1e8:	05448663          	beq	s1,s4,234 <ludcmp+0x128>
     1ec:	0504ad03          	lw	s10,80(s1)
     1f0:	fe0982e3          	beqz	s3,1d4 <ludcmp+0xc8>
     1f4:	00c12783          	lw	a5,12(sp)
     1f8:	000b8d93          	mv	s11,s7
     1fc:	00978cb3          	add	s9,a5,s1
     200:	000da583          	lw	a1,0(s11)
     204:	000ca503          	lw	a0,0(s9)
     208:	050d8d93          	addi	s11,s11,80
     20c:	004c8c93          	addi	s9,s9,4
     210:	050010ef          	jal	ra,1260 <__mulsi3>
     214:	40ad0d33          	sub	s10,s10,a0
     218:	fe8d94e3          	bne	s11,s0,200 <ludcmp+0xf4>
     21c:	00042583          	lw	a1,0(s0)
     220:	000d0513          	mv	a0,s10
     224:	05048493          	addi	s1,s1,80
     228:	05c010ef          	jal	ra,1284 <__divsi3>
     22c:	00a4a023          	sw	a0,0(s1)
     230:	fb449ee3          	bne	s1,s4,1ec <ludcmp+0xe0>
     234:	01c12783          	lw	a5,28(sp)
     238:	05440493          	addi	s1,s0,84
     23c:	00912623          	sw	s1,12(sp)
     240:	05040413          	addi	s0,s0,80
     244:	00478993          	addi	s3,a5,4
     248:	00442c83          	lw	s9,4(s0)
     24c:	00898d33          	add	s10,s3,s0
     250:	000a8d93          	mv	s11,s5
     254:	000d2583          	lw	a1,0(s10)
     258:	000da503          	lw	a0,0(s11)
     25c:	050d0d13          	addi	s10,s10,80
     260:	004d8d93          	addi	s11,s11,4
     264:	7fd000ef          	jal	ra,1260 <__mulsi3>
     268:	40ac8cb3          	sub	s9,s9,a0
     26c:	fe9d14e3          	bne	s10,s1,254 <ludcmp+0x148>
     270:	01942223          	sw	s9,4(s0)
     274:	00440413          	addi	s0,s0,4
     278:	00448493          	addi	s1,s1,4
     27c:	fd6416e3          	bne	s0,s6,248 <ludcmp+0x13c>
     280:	01c12783          	lw	a5,28(sp)
     284:	02012983          	lw	s3,32(sp)
     288:	050b0b13          	addi	s6,s6,80
     28c:	fb078793          	addi	a5,a5,-80
     290:	00f12e23          	sw	a5,28(sp)
     294:	01812783          	lw	a5,24(sp)
     298:	050a8a93          	addi	s5,s5,80
     29c:	00c12403          	lw	s0,12(sp)
     2a0:	ffc78793          	addi	a5,a5,-4
     2a4:	00f12c23          	sw	a5,24(sp)
     2a8:	01012783          	lw	a5,16(sp)
     2ac:	004a0a13          	addi	s4,s4,4
     2b0:	004b8b93          	addi	s7,s7,4
     2b4:	ef379ee3          	bne	a5,s3,1b0 <ludcmp+0xa4>
     2b8:	02812783          	lw	a5,40(sp)
     2bc:	03410993          	addi	s3,sp,52
     2c0:	00001b37          	lui	s6,0x1
     2c4:	fb078a13          	addi	s4,a5,-80
     2c8:	03212823          	sw	s2,48(sp)
     2cc:	03010a93          	addi	s5,sp,48
     2d0:	013a0a33          	add	s4,s4,s3
     2d4:	6c0b0b13          	addi	s6,s6,1728 # 16c0 <b>
     2d8:	415987b3          	sub	a5,s3,s5
     2dc:	00fb07b3          	add	a5,s6,a5
     2e0:	0007ab83          	lw	s7,0(a5)
     2e4:	03410413          	addi	s0,sp,52
     2e8:	01412483          	lw	s1,20(sp)
     2ec:	00c0006f          	j	2f8 <ludcmp+0x1ec>
     2f0:	00042903          	lw	s2,0(s0)
     2f4:	00440413          	addi	s0,s0,4
     2f8:	0004a583          	lw	a1,0(s1)
     2fc:	00090513          	mv	a0,s2
     300:	00448493          	addi	s1,s1,4
     304:	75d000ef          	jal	ra,1260 <__mulsi3>
     308:	40ab8bb3          	sub	s7,s7,a0
     30c:	ff3412e3          	bne	s0,s3,2f0 <ludcmp+0x1e4>
     310:	01412783          	lw	a5,20(sp)
     314:	01742023          	sw	s7,0(s0)
     318:	00440993          	addi	s3,s0,4
     31c:	05078793          	addi	a5,a5,80
     320:	00f12a23          	sw	a5,20(sp)
     324:	01498c63          	beq	s3,s4,33c <ludcmp+0x230>
     328:	03012903          	lw	s2,48(sp)
     32c:	fadff06f          	j	2d8 <ludcmp+0x1cc>
     330:	05440793          	addi	a5,s0,84
     334:	00f12623          	sw	a5,12(sp)
     338:	f49ff06f          	j	280 <ludcmp+0x174>
     33c:	02c12703          	lw	a4,44(sp)
     340:	01012683          	lw	a3,16(sp)
     344:	1c010613          	addi	a2,sp,448
     348:	00001437          	lui	s0,0x1
     34c:	00d707b3          	add	a5,a4,a3
     350:	00279793          	slli	a5,a5,0x2
     354:	00d787b3          	add	a5,a5,a3
     358:	02412683          	lw	a3,36(sp)
     35c:	00279793          	slli	a5,a5,0x2
     360:	71040413          	addi	s0,s0,1808 # 1710 <x>
     364:	00f687b3          	add	a5,a3,a5
     368:	00070693          	mv	a3,a4
     36c:	00e60733          	add	a4,a2,a4
     370:	0007a583          	lw	a1,0(a5)
     374:	e7072503          	lw	a0,-400(a4)
     378:	00d404b3          	add	s1,s0,a3
     37c:	709000ef          	jal	ra,1284 <__divsi3>
     380:	00a4a023          	sw	a0,0(s1)
     384:	002c1a13          	slli	s4,s8,0x2
     388:	01012783          	lw	a5,16(sp)
     38c:	018a0a33          	add	s4,s4,s8
     390:	002a1a13          	slli	s4,s4,0x2
     394:	018a0a33          	add	s4,s4,s8
     398:	02412703          	lw	a4,36(sp)
     39c:	00279b13          	slli	s6,a5,0x2
     3a0:	002a1a13          	slli	s4,s4,0x2
     3a4:	000b0793          	mv	a5,s6
     3a8:	004a0a13          	addi	s4,s4,4
     3ac:	ffcb0b13          	addi	s6,s6,-4
     3b0:	00440993          	addi	s3,s0,4
     3b4:	016a8b33          	add	s6,s5,s6
     3b8:	01470a33          	add	s4,a4,s4
     3bc:	00f40ab3          	add	s5,s0,a5
     3c0:	00f989b3          	add	s3,s3,a5
     3c4:	fff00b93          	li	s7,-1
     3c8:	01012703          	lw	a4,16(sp)
     3cc:	001c0793          	addi	a5,s8,1
     3d0:	000b2903          	lw	s2,0(s6)
     3d4:	02f74463          	blt	a4,a5,3fc <ludcmp+0x2f0>
     3d8:	000a8413          	mv	s0,s5
     3dc:	000a0493          	mv	s1,s4
     3e0:	00042583          	lw	a1,0(s0)
     3e4:	0004a503          	lw	a0,0(s1)
     3e8:	00440413          	addi	s0,s0,4
     3ec:	00448493          	addi	s1,s1,4
     3f0:	671000ef          	jal	ra,1260 <__mulsi3>
     3f4:	40a90933          	sub	s2,s2,a0
     3f8:	fe8994e3          	bne	s3,s0,3e0 <ludcmp+0x2d4>
     3fc:	ffca2583          	lw	a1,-4(s4)
     400:	00090513          	mv	a0,s2
     404:	fffc0c13          	addi	s8,s8,-1
     408:	67d000ef          	jal	ra,1284 <__divsi3>
     40c:	feaaae23          	sw	a0,-4(s5)
     410:	ffcb0b13          	addi	s6,s6,-4
     414:	ffca8a93          	addi	s5,s5,-4
     418:	faca0a13          	addi	s4,s4,-84
     41c:	fb7c16e3          	bne	s8,s7,3c8 <ludcmp+0x2bc>
     420:	1fc12083          	lw	ra,508(sp)
     424:	1f812403          	lw	s0,504(sp)
     428:	1f412483          	lw	s1,500(sp)
     42c:	1f012903          	lw	s2,496(sp)
     430:	1ec12983          	lw	s3,492(sp)
     434:	1e812a03          	lw	s4,488(sp)
     438:	1e412a83          	lw	s5,484(sp)
     43c:	1e012b03          	lw	s6,480(sp)
     440:	1dc12b83          	lw	s7,476(sp)
     444:	1d812c03          	lw	s8,472(sp)
     448:	1d412c83          	lw	s9,468(sp)
     44c:	1d012d03          	lw	s10,464(sp)
     450:	1cc12d83          	lw	s11,460(sp)
     454:	00000513          	li	a0,0
     458:	20010113          	addi	sp,sp,512
     45c:	00008067          	ret
     460:	01012683          	lw	a3,16(sp)
     464:	00001bb7          	lui	s7,0x1
     468:	764b8613          	addi	a2,s7,1892 # 1764 <a>
     46c:	00269713          	slli	a4,a3,0x2
     470:	00d707b3          	add	a5,a4,a3
     474:	00279793          	slli	a5,a5,0x2
     478:	00d787b3          	add	a5,a5,a3
     47c:	00279793          	slli	a5,a5,0x2
     480:	1c010693          	addi	a3,sp,448
     484:	03212823          	sw	s2,48(sp)
     488:	00e686b3          	add	a3,a3,a4
     48c:	00f607b3          	add	a5,a2,a5
     490:	0007a583          	lw	a1,0(a5)
     494:	e706a503          	lw	a0,-400(a3)
     498:	00001437          	lui	s0,0x1
     49c:	71040413          	addi	s0,s0,1808 # 1710 <x>
     4a0:	00e404b3          	add	s1,s0,a4
     4a4:	02c12223          	sw	a2,36(sp)
     4a8:	5dd000ef          	jal	ra,1284 <__divsi3>
     4ac:	00a4a023          	sw	a0,0(s1)
     4b0:	03010a93          	addi	s5,sp,48
     4b4:	f60c46e3          	bltz	s8,420 <ludcmp+0x314>
     4b8:	ecdff06f          	j	384 <ludcmp+0x278>

000004bc <benchmark_body>:
     4bc:	fb010113          	addi	sp,sp,-80
     4c0:	03a12023          	sw	s10,32(sp)
     4c4:	04112623          	sw	ra,76(sp)
     4c8:	04812423          	sw	s0,72(sp)
     4cc:	04912223          	sw	s1,68(sp)
     4d0:	05212023          	sw	s2,64(sp)
     4d4:	03312e23          	sw	s3,60(sp)
     4d8:	03412c23          	sw	s4,56(sp)
     4dc:	03512a23          	sw	s5,52(sp)
     4e0:	03612823          	sw	s6,48(sp)
     4e4:	03712623          	sw	s7,44(sp)
     4e8:	03812423          	sw	s8,40(sp)
     4ec:	03912223          	sw	s9,36(sp)
     4f0:	01b12e23          	sw	s11,28(sp)
     4f4:	00001d37          	lui	s10,0x1
     4f8:	0aa05c63          	blez	a0,5b0 <benchmark_body+0xf4>
     4fc:	00001cb7          	lui	s9,0x1
     500:	00001c37          	lui	s8,0x1
     504:	00a12623          	sw	a0,12(sp)
     508:	00000b13          	li	s6,0
     50c:	00001d37          	lui	s10,0x1
     510:	6c0c8c93          	addi	s9,s9,1728 # 16c0 <b>
     514:	764c0c13          	addi	s8,s8,1892 # 1764 <a>
     518:	00600a13          	li	s4,6
     51c:	000c8b93          	mv	s7,s9
     520:	000c0d93          	mv	s11,s8
     524:	00000993          	li	s3,0
     528:	000d8493          	mv	s1,s11
     52c:	00000413          	li	s0,0
     530:	00000913          	li	s2,0
     534:	00298a93          	addi	s5,s3,2
     538:	0180006f          	j	550 <benchmark_body+0x94>
     53c:	00a4a023          	sw	a0,0(s1)
     540:	00140413          	addi	s0,s0,1
     544:	00a90933          	add	s2,s2,a0
     548:	00448493          	addi	s1,s1,4
     54c:	03440a63          	beq	s0,s4,580 <benchmark_body+0xc4>
     550:	008a8533          	add	a0,s5,s0
     554:	ff3414e3          	bne	s0,s3,53c <benchmark_body+0x80>
     558:	45d000ef          	jal	ra,11b4 <__floatsidf>
     55c:	00050613          	mv	a2,a0
     560:	00058693          	mv	a3,a1
     564:	410000ef          	jal	ra,974 <__adddf3>
     568:	3cd000ef          	jal	ra,1134 <__fixdfsi>
     56c:	00a4a023          	sw	a0,0(s1)
     570:	00140413          	addi	s0,s0,1
     574:	00a90933          	add	s2,s2,a0
     578:	00448493          	addi	s1,s1,4
     57c:	fd441ae3          	bne	s0,s4,550 <benchmark_body+0x94>
     580:	012ba023          	sw	s2,0(s7)
     584:	00198993          	addi	s3,s3,1
     588:	004b8b93          	addi	s7,s7,4
     58c:	050d8d93          	addi	s11,s11,80
     590:	f9499ce3          	bne	s3,s4,528 <benchmark_body+0x6c>
     594:	00500593          	li	a1,5
     598:	01400513          	li	a0,20
     59c:	b71ff0ef          	jal	ra,10c <ludcmp>
     5a0:	00c12783          	lw	a5,12(sp)
     5a4:	76ad2023          	sw	a0,1888(s10) # 1760 <chkerr>
     5a8:	001b0b13          	addi	s6,s6,1
     5ac:	f76798e3          	bne	a5,s6,51c <benchmark_body+0x60>
     5b0:	04c12083          	lw	ra,76(sp)
     5b4:	04812403          	lw	s0,72(sp)
     5b8:	760d2503          	lw	a0,1888(s10)
     5bc:	04412483          	lw	s1,68(sp)
     5c0:	04012903          	lw	s2,64(sp)
     5c4:	03c12983          	lw	s3,60(sp)
     5c8:	03812a03          	lw	s4,56(sp)
     5cc:	03412a83          	lw	s5,52(sp)
     5d0:	03012b03          	lw	s6,48(sp)
     5d4:	02c12b83          	lw	s7,44(sp)
     5d8:	02812c03          	lw	s8,40(sp)
     5dc:	02412c83          	lw	s9,36(sp)
     5e0:	02012d03          	lw	s10,32(sp)
     5e4:	01c12d83          	lw	s11,28(sp)
     5e8:	05010113          	addi	sp,sp,80
     5ec:	00008067          	ret

000005f0 <warm_caches>:
     5f0:	ecdff06f          	j	4bc <benchmark_body>

000005f4 <benchmark>:
     5f4:	0001d537          	lui	a0,0x1d
     5f8:	a9850513          	addi	a0,a0,-1384 # 1ca98 <TOHOST_ADDR+0x1ace4>
     5fc:	ec1ff06f          	j	4bc <benchmark_body>

00000600 <initialise_board>:
     600:	00000513          	li	a0,0
     604:	00008067          	ret

00000608 <start_trigger>:
     608:	00000513          	li	a0,0
     60c:	00008067          	ret

00000610 <stop_trigger>:
     610:	00000513          	li	a0,0
     614:	00008067          	ret

00000618 <rand_beebs>:
     618:	000026b7          	lui	a3,0x2
     61c:	db06a703          	lw	a4,-592(a3) # 1db0 <seed>
     620:	00871793          	slli	a5,a4,0x8
     624:	40e787b3          	sub	a5,a5,a4
     628:	00379793          	slli	a5,a5,0x3
     62c:	00e787b3          	add	a5,a5,a4
     630:	00779793          	slli	a5,a5,0x7
     634:	00e787b3          	add	a5,a5,a4
     638:	00379793          	slli	a5,a5,0x3
     63c:	40e787b3          	sub	a5,a5,a4
     640:	00579513          	slli	a0,a5,0x5
     644:	00a78533          	add	a0,a5,a0
     648:	00251513          	slli	a0,a0,0x2
     64c:	40e50533          	sub	a0,a0,a4
     650:	00251513          	slli	a0,a0,0x2
     654:	000037b7          	lui	a5,0x3
     658:	00e50533          	add	a0,a0,a4
     65c:	03978793          	addi	a5,a5,57 # 3039 <TOHOST_ADDR+0x1285>
     660:	00f50533          	add	a0,a0,a5
     664:	00151513          	slli	a0,a0,0x1
     668:	00155513          	srli	a0,a0,0x1
     66c:	daa6a823          	sw	a0,-592(a3)
     670:	01055513          	srli	a0,a0,0x10
     674:	00008067          	ret

00000678 <srand_beebs>:
     678:	000027b7          	lui	a5,0x2
     67c:	daa7a823          	sw	a0,-592(a5) # 1db0 <seed>
     680:	00008067          	ret

00000684 <init_heap_beebs>:
     684:	000027b7          	lui	a5,0x2
     688:	00b505b3          	add	a1,a0,a1
     68c:	daa7a623          	sw	a0,-596(a5) # 1dac <heap_ptr>
     690:	000027b7          	lui	a5,0x2
     694:	dab7a423          	sw	a1,-600(a5) # 1da8 <heap_end>
     698:	000027b7          	lui	a5,0x2
     69c:	da07a223          	sw	zero,-604(a5) # 1da4 <heap_requested>
     6a0:	00008067          	ret

000006a4 <check_heap_beebs>:
     6a4:	000027b7          	lui	a5,0x2
     6a8:	da47a703          	lw	a4,-604(a5) # 1da4 <heap_requested>
     6ac:	000027b7          	lui	a5,0x2
     6b0:	da87a783          	lw	a5,-600(a5) # 1da8 <heap_end>
     6b4:	00e50533          	add	a0,a0,a4
     6b8:	00a7b533          	sltu	a0,a5,a0
     6bc:	00154513          	xori	a0,a0,1
     6c0:	00008067          	ret

000006c4 <malloc_beebs>:
     6c4:	000026b7          	lui	a3,0x2
     6c8:	da46a783          	lw	a5,-604(a3) # 1da4 <heap_requested>
     6cc:	00002637          	lui	a2,0x2
     6d0:	dac62703          	lw	a4,-596(a2) # 1dac <heap_ptr>
     6d4:	000025b7          	lui	a1,0x2
     6d8:	da85a583          	lw	a1,-600(a1) # 1da8 <heap_end>
     6dc:	00a787b3          	add	a5,a5,a0
     6e0:	daf6a223          	sw	a5,-604(a3)
     6e4:	00a707b3          	add	a5,a4,a0
     6e8:	00f5ea63          	bltu	a1,a5,6fc <malloc_beebs+0x38>
     6ec:	00050863          	beqz	a0,6fc <malloc_beebs+0x38>
     6f0:	daf62623          	sw	a5,-596(a2)
     6f4:	00070513          	mv	a0,a4
     6f8:	00008067          	ret
     6fc:	00000713          	li	a4,0
     700:	00070513          	mv	a0,a4
     704:	00008067          	ret

00000708 <calloc_beebs>:
     708:	ff010113          	addi	sp,sp,-16
     70c:	00112623          	sw	ra,12(sp)
     710:	351000ef          	jal	ra,1260 <__mulsi3>
     714:	000026b7          	lui	a3,0x2
     718:	da46a703          	lw	a4,-604(a3) # 1da4 <heap_requested>
     71c:	00002637          	lui	a2,0x2
     720:	dac62783          	lw	a5,-596(a2) # 1dac <heap_ptr>
     724:	000025b7          	lui	a1,0x2
     728:	da85a583          	lw	a1,-600(a1) # 1da8 <heap_end>
     72c:	00a70733          	add	a4,a4,a0
     730:	dae6a223          	sw	a4,-604(a3)
     734:	00a78733          	add	a4,a5,a0
     738:	02e5ea63          	bltu	a1,a4,76c <calloc_beebs+0x64>
     73c:	02050863          	beqz	a0,76c <calloc_beebs+0x64>
     740:	dae62623          	sw	a4,-596(a2)
     744:	00078c63          	beqz	a5,75c <calloc_beebs+0x54>
     748:	00050613          	mv	a2,a0
     74c:	00000593          	li	a1,0
     750:	00078513          	mv	a0,a5
     754:	4b9000ef          	jal	ra,140c <memset>
     758:	00050793          	mv	a5,a0
     75c:	00c12083          	lw	ra,12(sp)
     760:	00078513          	mv	a0,a5
     764:	01010113          	addi	sp,sp,16
     768:	00008067          	ret
     76c:	00c12083          	lw	ra,12(sp)
     770:	00000793          	li	a5,0
     774:	00078513          	mv	a0,a5
     778:	01010113          	addi	sp,sp,16
     77c:	00008067          	ret

00000780 <realloc_beebs>:
     780:	00002737          	lui	a4,0x2
     784:	da472783          	lw	a5,-604(a4) # 1da4 <heap_requested>
     788:	00002637          	lui	a2,0x2
     78c:	dac62683          	lw	a3,-596(a2) # 1dac <heap_ptr>
     790:	00002837          	lui	a6,0x2
     794:	da882803          	lw	a6,-600(a6) # 1da8 <heap_end>
     798:	00b787b3          	add	a5,a5,a1
     79c:	daf72223          	sw	a5,-604(a4)
     7a0:	00b687b3          	add	a5,a3,a1
     7a4:	02f86a63          	bltu	a6,a5,7d8 <realloc_beebs+0x58>
     7a8:	02058863          	beqz	a1,7d8 <realloc_beebs+0x58>
     7ac:	daf62623          	sw	a5,-596(a2)
     7b0:	02050063          	beqz	a0,7d0 <realloc_beebs+0x50>
     7b4:	00068793          	mv	a5,a3
     7b8:	00b505b3          	add	a1,a0,a1
     7bc:	00054703          	lbu	a4,0(a0)
     7c0:	00178793          	addi	a5,a5,1
     7c4:	00150513          	addi	a0,a0,1
     7c8:	fee78fa3          	sb	a4,-1(a5)
     7cc:	feb518e3          	bne	a0,a1,7bc <realloc_beebs+0x3c>
     7d0:	00068513          	mv	a0,a3
     7d4:	00008067          	ret
     7d8:	00000693          	li	a3,0
     7dc:	00068513          	mv	a0,a3
     7e0:	00008067          	ret

000007e4 <free_beebs>:
     7e4:	00008067          	ret

000007e8 <simrv_exit>:
     7e8:	000027b7          	lui	a5,0x2
     7ec:	db47a783          	lw	a5,-588(a5) # 1db4 <TOHOST_ADDR>
     7f0:	00020737          	lui	a4,0x20
     7f4:	00e7a023          	sw	a4,0(a5)
     7f8:	0000006f          	j	7f8 <simrv_exit+0x10>

000007fc <simrv_putc>:
     7fc:	000027b7          	lui	a5,0x2
     800:	db47a703          	lw	a4,-588(a5) # 1db4 <TOHOST_ADDR>
     804:	000107b7          	lui	a5,0x10
     808:	00f56533          	or	a0,a0,a5
     80c:	00a72023          	sw	a0,0(a4) # 20000 <TOHOST_ADDR+0x1e24c>
     810:	00008067          	ret

00000814 <simrv_puts>:
     814:	00054783          	lbu	a5,0(a0)
     818:	02078263          	beqz	a5,83c <simrv_puts+0x28>
     81c:	00002737          	lui	a4,0x2
     820:	db472683          	lw	a3,-588(a4) # 1db4 <TOHOST_ADDR>
     824:	00010737          	lui	a4,0x10
     828:	00e7e7b3          	or	a5,a5,a4
     82c:	00f6a023          	sw	a5,0(a3)
     830:	00150513          	addi	a0,a0,1
     834:	00054783          	lbu	a5,0(a0)
     838:	fe0798e3          	bnez	a5,828 <simrv_puts+0x14>
     83c:	00008067          	ret

00000840 <simrv_puti>:
     840:	fd010113          	addi	sp,sp,-48
     844:	02912223          	sw	s1,36(sp)
     848:	03212023          	sw	s2,32(sp)
     84c:	01412c23          	sw	s4,24(sp)
     850:	02112623          	sw	ra,44(sp)
     854:	02812423          	sw	s0,40(sp)
     858:	01312e23          	sw	s3,28(sp)
     85c:	00050913          	mv	s2,a0
     860:	00000493          	li	s1,0
     864:	00410a13          	addi	s4,sp,4
     868:	0080006f          	j	870 <simrv_puti+0x30>
     86c:	00098493          	mv	s1,s3
     870:	00a00593          	li	a1,10
     874:	00090513          	mv	a0,s2
     878:	291000ef          	jal	ra,1308 <__modsi3>
     87c:	03050513          	addi	a0,a0,48
     880:	00148993          	addi	s3,s1,1
     884:	0ff57413          	andi	s0,a0,255
     888:	013a07b3          	add	a5,s4,s3
     88c:	00090513          	mv	a0,s2
     890:	00a00593          	li	a1,10
     894:	fe878fa3          	sb	s0,-1(a5) # ffff <TOHOST_ADDR+0xe24b>
     898:	1ed000ef          	jal	ra,1284 <__divsi3>
     89c:	00050913          	mv	s2,a0
     8a0:	fc0516e3          	bnez	a0,86c <simrv_puti+0x2c>
     8a4:	000027b7          	lui	a5,0x2
     8a8:	db47a603          	lw	a2,-588(a5) # 1db4 <TOHOST_ADDR>
     8ac:	000106b7          	lui	a3,0x10
     8b0:	009a07b3          	add	a5,s4,s1
     8b4:	00c0006f          	j	8c0 <simrv_puti+0x80>
     8b8:	fff7c403          	lbu	s0,-1(a5)
     8bc:	00070793          	mv	a5,a4
     8c0:	00d46433          	or	s0,s0,a3
     8c4:	00862023          	sw	s0,0(a2)
     8c8:	fff78713          	addi	a4,a5,-1
     8cc:	fefa16e3          	bne	s4,a5,8b8 <simrv_puti+0x78>
     8d0:	02c12083          	lw	ra,44(sp)
     8d4:	02812403          	lw	s0,40(sp)
     8d8:	02412483          	lw	s1,36(sp)
     8dc:	02012903          	lw	s2,32(sp)
     8e0:	01c12983          	lw	s3,28(sp)
     8e4:	01812a03          	lw	s4,24(sp)
     8e8:	03010113          	addi	sp,sp,48
     8ec:	00008067          	ret

000008f0 <simrv_puth>:
     8f0:	ff010113          	addi	sp,sp,-16
     8f4:	00000793          	li	a5,0
     8f8:	00810593          	addi	a1,sp,8
     8fc:	00900e13          	li	t3,9
     900:	0140006f          	j	914 <simrv_puth+0x24>
     904:	fe688fa3          	sb	t1,-1(a7)
     908:	00455513          	srli	a0,a0,0x4
     90c:	02050863          	beqz	a0,93c <simrv_puth+0x4c>
     910:	00060793          	mv	a5,a2
     914:	00f57713          	andi	a4,a0,15
     918:	0ff77693          	andi	a3,a4,255
     91c:	00178613          	addi	a2,a5,1
     920:	03068313          	addi	t1,a3,48 # 10030 <TOHOST_ADDR+0xe27c>
     924:	00c588b3          	add	a7,a1,a2
     928:	03768693          	addi	a3,a3,55
     92c:	fcee7ce3          	bgeu	t3,a4,904 <simrv_puth+0x14>
     930:	fed88fa3          	sb	a3,-1(a7)
     934:	00455513          	srli	a0,a0,0x4
     938:	fc051ce3          	bnez	a0,910 <simrv_puth+0x20>
     93c:	0207c863          	bltz	a5,96c <simrv_puth+0x7c>
     940:	00002737          	lui	a4,0x2
     944:	db472503          	lw	a0,-588(a4) # 1db4 <TOHOST_ADDR>
     948:	00f587b3          	add	a5,a1,a5
     94c:	00010637          	lui	a2,0x10
     950:	0080006f          	j	958 <simrv_puth+0x68>
     954:	00068793          	mv	a5,a3
     958:	0007c703          	lbu	a4,0(a5)
     95c:	fff78693          	addi	a3,a5,-1
     960:	00c76733          	or	a4,a4,a2
     964:	00e52023          	sw	a4,0(a0)
     968:	fef596e3          	bne	a1,a5,954 <simrv_puth+0x64>
     96c:	01010113          	addi	sp,sp,16
     970:	00008067          	ret

00000974 <__adddf3>:
     974:	00100837          	lui	a6,0x100
     978:	fff80813          	addi	a6,a6,-1 # fffff <TOHOST_ADDR+0xfe24b>
     97c:	00b878b3          	and	a7,a6,a1
     980:	00389893          	slli	a7,a7,0x3
     984:	01d55793          	srli	a5,a0,0x1d
     988:	fe010113          	addi	sp,sp,-32
     98c:	0145d713          	srli	a4,a1,0x14
     990:	00d87833          	and	a6,a6,a3
     994:	0117e7b3          	or	a5,a5,a7
     998:	0146d893          	srli	a7,a3,0x14
     99c:	00381813          	slli	a6,a6,0x3
     9a0:	00912a23          	sw	s1,20(sp)
     9a4:	01212823          	sw	s2,16(sp)
     9a8:	7ff77493          	andi	s1,a4,2047
     9ac:	7ff8f893          	andi	a7,a7,2047
     9b0:	01d65713          	srli	a4,a2,0x1d
     9b4:	00112e23          	sw	ra,28(sp)
     9b8:	00812c23          	sw	s0,24(sp)
     9bc:	01312623          	sw	s3,12(sp)
     9c0:	01f5d913          	srli	s2,a1,0x1f
     9c4:	01f6d693          	srli	a3,a3,0x1f
     9c8:	01076733          	or	a4,a4,a6
     9cc:	00351513          	slli	a0,a0,0x3
     9d0:	00361613          	slli	a2,a2,0x3
     9d4:	41148833          	sub	a6,s1,a7
     9d8:	2cd91463          	bne	s2,a3,ca0 <__adddf3+0x32c>
     9dc:	11005e63          	blez	a6,af8 <__adddf3+0x184>
     9e0:	04089063          	bnez	a7,a20 <__adddf3+0xac>
     9e4:	00c766b3          	or	a3,a4,a2
     9e8:	70068063          	beqz	a3,10e8 <__adddf3+0x774>
     9ec:	fff80593          	addi	a1,a6,-1
     9f0:	02059063          	bnez	a1,a10 <__adddf3+0x9c>
     9f4:	00c50633          	add	a2,a0,a2
     9f8:	00a63533          	sltu	a0,a2,a0
     9fc:	00e787b3          	add	a5,a5,a4
     a00:	00a787b3          	add	a5,a5,a0
     a04:	00060513          	mv	a0,a2
     a08:	00100493          	li	s1,1
     a0c:	0700006f          	j	a7c <__adddf3+0x108>
     a10:	7ff00693          	li	a3,2047
     a14:	02d81063          	bne	a6,a3,a34 <__adddf3+0xc0>
     a18:	7ff00493          	li	s1,2047
     a1c:	20c0006f          	j	c28 <__adddf3+0x2b4>
     a20:	7ff00693          	li	a3,2047
     a24:	20d48263          	beq	s1,a3,c28 <__adddf3+0x2b4>
     a28:	008006b7          	lui	a3,0x800
     a2c:	00d76733          	or	a4,a4,a3
     a30:	00080593          	mv	a1,a6
     a34:	03800693          	li	a3,56
     a38:	0ab6ca63          	blt	a3,a1,aec <__adddf3+0x178>
     a3c:	01f00693          	li	a3,31
     a40:	06b6cc63          	blt	a3,a1,ab8 <__adddf3+0x144>
     a44:	02000813          	li	a6,32
     a48:	40b80833          	sub	a6,a6,a1
     a4c:	010716b3          	sll	a3,a4,a6
     a50:	00b658b3          	srl	a7,a2,a1
     a54:	01061633          	sll	a2,a2,a6
     a58:	0116e6b3          	or	a3,a3,a7
     a5c:	00c03633          	snez	a2,a2
     a60:	00c6e633          	or	a2,a3,a2
     a64:	00b75733          	srl	a4,a4,a1
     a68:	00a60633          	add	a2,a2,a0
     a6c:	00f70733          	add	a4,a4,a5
     a70:	00a637b3          	sltu	a5,a2,a0
     a74:	00f707b3          	add	a5,a4,a5
     a78:	00060513          	mv	a0,a2
     a7c:	00879713          	slli	a4,a5,0x8
     a80:	1a075463          	bgez	a4,c28 <__adddf3+0x2b4>
     a84:	00148493          	addi	s1,s1,1
     a88:	7ff00713          	li	a4,2047
     a8c:	5ce48463          	beq	s1,a4,1054 <__adddf3+0x6e0>
     a90:	ff8006b7          	lui	a3,0xff800
     a94:	fff68693          	addi	a3,a3,-1 # ff7fffff <TOHOST_ADDR+0xff7fe24b>
     a98:	00d7f6b3          	and	a3,a5,a3
     a9c:	00155593          	srli	a1,a0,0x1
     aa0:	00157513          	andi	a0,a0,1
     aa4:	01f69793          	slli	a5,a3,0x1f
     aa8:	00a5e533          	or	a0,a1,a0
     aac:	00a7e533          	or	a0,a5,a0
     ab0:	0016d793          	srli	a5,a3,0x1
     ab4:	1740006f          	j	c28 <__adddf3+0x2b4>
     ab8:	fe058693          	addi	a3,a1,-32
     abc:	02000893          	li	a7,32
     ac0:	00d756b3          	srl	a3,a4,a3
     ac4:	00000813          	li	a6,0
     ac8:	01158863          	beq	a1,a7,ad8 <__adddf3+0x164>
     acc:	04000813          	li	a6,64
     ad0:	40b805b3          	sub	a1,a6,a1
     ad4:	00b71833          	sll	a6,a4,a1
     ad8:	00c86633          	or	a2,a6,a2
     adc:	00c03633          	snez	a2,a2
     ae0:	00c6e633          	or	a2,a3,a2
     ae4:	00000713          	li	a4,0
     ae8:	f81ff06f          	j	a68 <__adddf3+0xf4>
     aec:	00c76633          	or	a2,a4,a2
     af0:	00c03633          	snez	a2,a2
     af4:	ff1ff06f          	j	ae4 <__adddf3+0x170>
     af8:	0e080263          	beqz	a6,bdc <__adddf3+0x268>
     afc:	409885b3          	sub	a1,a7,s1
     b00:	02049e63          	bnez	s1,b3c <__adddf3+0x1c8>
     b04:	00a7e6b3          	or	a3,a5,a0
     b08:	52068663          	beqz	a3,1034 <__adddf3+0x6c0>
     b0c:	fff58693          	addi	a3,a1,-1
     b10:	00069c63          	bnez	a3,b28 <__adddf3+0x1b4>
     b14:	00c50533          	add	a0,a0,a2
     b18:	00e787b3          	add	a5,a5,a4
     b1c:	00c53633          	sltu	a2,a0,a2
     b20:	00c787b3          	add	a5,a5,a2
     b24:	ee5ff06f          	j	a08 <__adddf3+0x94>
     b28:	7ff00813          	li	a6,2047
     b2c:	03059263          	bne	a1,a6,b50 <__adddf3+0x1dc>
     b30:	00070793          	mv	a5,a4
     b34:	00060513          	mv	a0,a2
     b38:	ee1ff06f          	j	a18 <__adddf3+0xa4>
     b3c:	7ff00693          	li	a3,2047
     b40:	fed888e3          	beq	a7,a3,b30 <__adddf3+0x1bc>
     b44:	008006b7          	lui	a3,0x800
     b48:	00d7e7b3          	or	a5,a5,a3
     b4c:	00058693          	mv	a3,a1
     b50:	03800593          	li	a1,56
     b54:	06d5ce63          	blt	a1,a3,bd0 <__adddf3+0x25c>
     b58:	01f00593          	li	a1,31
     b5c:	04d5c063          	blt	a1,a3,b9c <__adddf3+0x228>
     b60:	02000813          	li	a6,32
     b64:	40d80833          	sub	a6,a6,a3
     b68:	00d55333          	srl	t1,a0,a3
     b6c:	010795b3          	sll	a1,a5,a6
     b70:	01051533          	sll	a0,a0,a6
     b74:	0065e5b3          	or	a1,a1,t1
     b78:	00a03533          	snez	a0,a0
     b7c:	00a5e533          	or	a0,a1,a0
     b80:	00d7d6b3          	srl	a3,a5,a3
     b84:	00c50533          	add	a0,a0,a2
     b88:	00e687b3          	add	a5,a3,a4
     b8c:	00c53633          	sltu	a2,a0,a2
     b90:	00c787b3          	add	a5,a5,a2
     b94:	00088493          	mv	s1,a7
     b98:	ee5ff06f          	j	a7c <__adddf3+0x108>
     b9c:	fe068593          	addi	a1,a3,-32 # 7fffe0 <TOHOST_ADDR+0x7fe22c>
     ba0:	02000313          	li	t1,32
     ba4:	00b7d5b3          	srl	a1,a5,a1
     ba8:	00000813          	li	a6,0
     bac:	00668863          	beq	a3,t1,bbc <__adddf3+0x248>
     bb0:	04000813          	li	a6,64
     bb4:	40d806b3          	sub	a3,a6,a3
     bb8:	00d79833          	sll	a6,a5,a3
     bbc:	00a86533          	or	a0,a6,a0
     bc0:	00a03533          	snez	a0,a0
     bc4:	00a5e533          	or	a0,a1,a0
     bc8:	00000693          	li	a3,0
     bcc:	fb9ff06f          	j	b84 <__adddf3+0x210>
     bd0:	00a7e533          	or	a0,a5,a0
     bd4:	00a03533          	snez	a0,a0
     bd8:	ff1ff06f          	j	bc8 <__adddf3+0x254>
     bdc:	00148693          	addi	a3,s1,1
     be0:	7fe6f593          	andi	a1,a3,2046
     be4:	08059663          	bnez	a1,c70 <__adddf3+0x2fc>
     be8:	00a7e6b3          	or	a3,a5,a0
     bec:	06049263          	bnez	s1,c50 <__adddf3+0x2dc>
     bf0:	44068a63          	beqz	a3,1044 <__adddf3+0x6d0>
     bf4:	00c766b3          	or	a3,a4,a2
     bf8:	02068863          	beqz	a3,c28 <__adddf3+0x2b4>
     bfc:	00c50633          	add	a2,a0,a2
     c00:	00e787b3          	add	a5,a5,a4
     c04:	00a63533          	sltu	a0,a2,a0
     c08:	00a787b3          	add	a5,a5,a0
     c0c:	00879713          	slli	a4,a5,0x8
     c10:	00060513          	mv	a0,a2
     c14:	00075a63          	bgez	a4,c28 <__adddf3+0x2b4>
     c18:	ff800737          	lui	a4,0xff800
     c1c:	fff70713          	addi	a4,a4,-1 # ff7fffff <TOHOST_ADDR+0xff7fe24b>
     c20:	00e7f7b3          	and	a5,a5,a4
     c24:	00100493          	li	s1,1
     c28:	00757713          	andi	a4,a0,7
     c2c:	42070863          	beqz	a4,105c <__adddf3+0x6e8>
     c30:	00f57713          	andi	a4,a0,15
     c34:	00400693          	li	a3,4
     c38:	42d70263          	beq	a4,a3,105c <__adddf3+0x6e8>
     c3c:	00450693          	addi	a3,a0,4
     c40:	00a6b533          	sltu	a0,a3,a0
     c44:	00a787b3          	add	a5,a5,a0
     c48:	00068513          	mv	a0,a3
     c4c:	4100006f          	j	105c <__adddf3+0x6e8>
     c50:	ee0680e3          	beqz	a3,b30 <__adddf3+0x1bc>
     c54:	00c76633          	or	a2,a4,a2
     c58:	dc0600e3          	beqz	a2,a18 <__adddf3+0xa4>
     c5c:	00000913          	li	s2,0
     c60:	004007b7          	lui	a5,0x400
     c64:	00000513          	li	a0,0
     c68:	7ff00493          	li	s1,2047
     c6c:	3f00006f          	j	105c <__adddf3+0x6e8>
     c70:	7ff00593          	li	a1,2047
     c74:	3cb68e63          	beq	a3,a1,1050 <__adddf3+0x6dc>
     c78:	00c50633          	add	a2,a0,a2
     c7c:	00e78733          	add	a4,a5,a4
     c80:	00a637b3          	sltu	a5,a2,a0
     c84:	00f70733          	add	a4,a4,a5
     c88:	01f71513          	slli	a0,a4,0x1f
     c8c:	00165613          	srli	a2,a2,0x1
     c90:	00c56533          	or	a0,a0,a2
     c94:	00175793          	srli	a5,a4,0x1
     c98:	00068493          	mv	s1,a3
     c9c:	f8dff06f          	j	c28 <__adddf3+0x2b4>
     ca0:	0f005c63          	blez	a6,d98 <__adddf3+0x424>
     ca4:	08089e63          	bnez	a7,d40 <__adddf3+0x3cc>
     ca8:	00c766b3          	or	a3,a4,a2
     cac:	42068e63          	beqz	a3,10e8 <__adddf3+0x774>
     cb0:	fff80593          	addi	a1,a6,-1
     cb4:	02059063          	bnez	a1,cd4 <__adddf3+0x360>
     cb8:	40c50633          	sub	a2,a0,a2
     cbc:	00c53533          	sltu	a0,a0,a2
     cc0:	40e787b3          	sub	a5,a5,a4
     cc4:	40a787b3          	sub	a5,a5,a0
     cc8:	00060513          	mv	a0,a2
     ccc:	00100493          	li	s1,1
     cd0:	0540006f          	j	d24 <__adddf3+0x3b0>
     cd4:	7ff00693          	li	a3,2047
     cd8:	d4d800e3          	beq	a6,a3,a18 <__adddf3+0xa4>
     cdc:	03800693          	li	a3,56
     ce0:	0ab6c663          	blt	a3,a1,d8c <__adddf3+0x418>
     ce4:	01f00693          	li	a3,31
     ce8:	06b6c863          	blt	a3,a1,d58 <__adddf3+0x3e4>
     cec:	02000813          	li	a6,32
     cf0:	40b80833          	sub	a6,a6,a1
     cf4:	010716b3          	sll	a3,a4,a6
     cf8:	00b658b3          	srl	a7,a2,a1
     cfc:	01061633          	sll	a2,a2,a6
     d00:	0116e6b3          	or	a3,a3,a7
     d04:	00c03633          	snez	a2,a2
     d08:	00c6e633          	or	a2,a3,a2
     d0c:	00b75733          	srl	a4,a4,a1
     d10:	40c50633          	sub	a2,a0,a2
     d14:	40e78733          	sub	a4,a5,a4
     d18:	00c537b3          	sltu	a5,a0,a2
     d1c:	40f707b3          	sub	a5,a4,a5
     d20:	00060513          	mv	a0,a2
     d24:	00879713          	slli	a4,a5,0x8
     d28:	f00750e3          	bgez	a4,c28 <__adddf3+0x2b4>
     d2c:	00800437          	lui	s0,0x800
     d30:	fff40413          	addi	s0,s0,-1 # 7fffff <TOHOST_ADDR+0x7fe24b>
     d34:	0087f433          	and	s0,a5,s0
     d38:	00050993          	mv	s3,a0
     d3c:	20c0006f          	j	f48 <__adddf3+0x5d4>
     d40:	7ff00693          	li	a3,2047
     d44:	eed482e3          	beq	s1,a3,c28 <__adddf3+0x2b4>
     d48:	008006b7          	lui	a3,0x800
     d4c:	00d76733          	or	a4,a4,a3
     d50:	00080593          	mv	a1,a6
     d54:	f89ff06f          	j	cdc <__adddf3+0x368>
     d58:	fe058693          	addi	a3,a1,-32
     d5c:	02000893          	li	a7,32
     d60:	00d756b3          	srl	a3,a4,a3
     d64:	00000813          	li	a6,0
     d68:	01158863          	beq	a1,a7,d78 <__adddf3+0x404>
     d6c:	04000813          	li	a6,64
     d70:	40b805b3          	sub	a1,a6,a1
     d74:	00b71833          	sll	a6,a4,a1
     d78:	00c86633          	or	a2,a6,a2
     d7c:	00c03633          	snez	a2,a2
     d80:	00c6e633          	or	a2,a3,a2
     d84:	00000713          	li	a4,0
     d88:	f89ff06f          	j	d10 <__adddf3+0x39c>
     d8c:	00c76633          	or	a2,a4,a2
     d90:	00c03633          	snez	a2,a2
     d94:	ff1ff06f          	j	d84 <__adddf3+0x410>
     d98:	0e080863          	beqz	a6,e88 <__adddf3+0x514>
     d9c:	40988833          	sub	a6,a7,s1
     da0:	04049263          	bnez	s1,de4 <__adddf3+0x470>
     da4:	00a7e5b3          	or	a1,a5,a0
     da8:	34058463          	beqz	a1,10f0 <__adddf3+0x77c>
     dac:	fff80593          	addi	a1,a6,-1
     db0:	00059e63          	bnez	a1,dcc <__adddf3+0x458>
     db4:	40a60533          	sub	a0,a2,a0
     db8:	40f707b3          	sub	a5,a4,a5
     dbc:	00a63633          	sltu	a2,a2,a0
     dc0:	40c787b3          	sub	a5,a5,a2
     dc4:	00068913          	mv	s2,a3
     dc8:	f05ff06f          	j	ccc <__adddf3+0x358>
     dcc:	7ff00313          	li	t1,2047
     dd0:	02681463          	bne	a6,t1,df8 <__adddf3+0x484>
     dd4:	00070793          	mv	a5,a4
     dd8:	00060513          	mv	a0,a2
     ddc:	7ff00493          	li	s1,2047
     de0:	0d00006f          	j	eb0 <__adddf3+0x53c>
     de4:	7ff00593          	li	a1,2047
     de8:	feb886e3          	beq	a7,a1,dd4 <__adddf3+0x460>
     dec:	008005b7          	lui	a1,0x800
     df0:	00b7e7b3          	or	a5,a5,a1
     df4:	00080593          	mv	a1,a6
     df8:	03800813          	li	a6,56
     dfc:	08b84063          	blt	a6,a1,e7c <__adddf3+0x508>
     e00:	01f00813          	li	a6,31
     e04:	04b84263          	blt	a6,a1,e48 <__adddf3+0x4d4>
     e08:	02000313          	li	t1,32
     e0c:	40b30333          	sub	t1,t1,a1
     e10:	00b55e33          	srl	t3,a0,a1
     e14:	00679833          	sll	a6,a5,t1
     e18:	00651533          	sll	a0,a0,t1
     e1c:	01c86833          	or	a6,a6,t3
     e20:	00a03533          	snez	a0,a0
     e24:	00a86533          	or	a0,a6,a0
     e28:	00b7d5b3          	srl	a1,a5,a1
     e2c:	40a60533          	sub	a0,a2,a0
     e30:	40b707b3          	sub	a5,a4,a1
     e34:	00a63633          	sltu	a2,a2,a0
     e38:	40c787b3          	sub	a5,a5,a2
     e3c:	00088493          	mv	s1,a7
     e40:	00068913          	mv	s2,a3
     e44:	ee1ff06f          	j	d24 <__adddf3+0x3b0>
     e48:	fe058813          	addi	a6,a1,-32 # 7fffe0 <TOHOST_ADDR+0x7fe22c>
     e4c:	02000e13          	li	t3,32
     e50:	0107d833          	srl	a6,a5,a6
     e54:	00000313          	li	t1,0
     e58:	01c58863          	beq	a1,t3,e68 <__adddf3+0x4f4>
     e5c:	04000313          	li	t1,64
     e60:	40b305b3          	sub	a1,t1,a1
     e64:	00b79333          	sll	t1,a5,a1
     e68:	00a36533          	or	a0,t1,a0
     e6c:	00a03533          	snez	a0,a0
     e70:	00a86533          	or	a0,a6,a0
     e74:	00000593          	li	a1,0
     e78:	fb5ff06f          	j	e2c <__adddf3+0x4b8>
     e7c:	00a7e533          	or	a0,a5,a0
     e80:	00a03533          	snez	a0,a0
     e84:	ff1ff06f          	j	e74 <__adddf3+0x500>
     e88:	00148593          	addi	a1,s1,1
     e8c:	7fe5f593          	andi	a1,a1,2046
     e90:	08059663          	bnez	a1,f1c <__adddf3+0x5a8>
     e94:	00a7e833          	or	a6,a5,a0
     e98:	00c765b3          	or	a1,a4,a2
     e9c:	06049063          	bnez	s1,efc <__adddf3+0x588>
     ea0:	00081c63          	bnez	a6,eb8 <__adddf3+0x544>
     ea4:	24058e63          	beqz	a1,1100 <__adddf3+0x78c>
     ea8:	00070793          	mv	a5,a4
     eac:	00060513          	mv	a0,a2
     eb0:	00068913          	mv	s2,a3
     eb4:	d75ff06f          	j	c28 <__adddf3+0x2b4>
     eb8:	d60588e3          	beqz	a1,c28 <__adddf3+0x2b4>
     ebc:	40c50833          	sub	a6,a0,a2
     ec0:	010538b3          	sltu	a7,a0,a6
     ec4:	40e785b3          	sub	a1,a5,a4
     ec8:	411585b3          	sub	a1,a1,a7
     ecc:	00859893          	slli	a7,a1,0x8
     ed0:	0008dc63          	bgez	a7,ee8 <__adddf3+0x574>
     ed4:	40a60533          	sub	a0,a2,a0
     ed8:	40f707b3          	sub	a5,a4,a5
     edc:	00a63633          	sltu	a2,a2,a0
     ee0:	40c787b3          	sub	a5,a5,a2
     ee4:	fcdff06f          	j	eb0 <__adddf3+0x53c>
     ee8:	00b86533          	or	a0,a6,a1
     eec:	22050263          	beqz	a0,1110 <__adddf3+0x79c>
     ef0:	00058793          	mv	a5,a1
     ef4:	00080513          	mv	a0,a6
     ef8:	d31ff06f          	j	c28 <__adddf3+0x2b4>
     efc:	00081c63          	bnez	a6,f14 <__adddf3+0x5a0>
     f00:	20058c63          	beqz	a1,1118 <__adddf3+0x7a4>
     f04:	00070793          	mv	a5,a4
     f08:	00060513          	mv	a0,a2
     f0c:	00068913          	mv	s2,a3
     f10:	b09ff06f          	j	a18 <__adddf3+0xa4>
     f14:	b00582e3          	beqz	a1,a18 <__adddf3+0xa4>
     f18:	d45ff06f          	j	c5c <__adddf3+0x2e8>
     f1c:	40c509b3          	sub	s3,a0,a2
     f20:	013535b3          	sltu	a1,a0,s3
     f24:	40e78433          	sub	s0,a5,a4
     f28:	40b40433          	sub	s0,s0,a1
     f2c:	00841593          	slli	a1,s0,0x8
     f30:	0805d463          	bgez	a1,fb8 <__adddf3+0x644>
     f34:	40a609b3          	sub	s3,a2,a0
     f38:	40f707b3          	sub	a5,a4,a5
     f3c:	01363633          	sltu	a2,a2,s3
     f40:	40c78433          	sub	s0,a5,a2
     f44:	00068913          	mv	s2,a3
     f48:	08040263          	beqz	s0,fcc <__adddf3+0x658>
     f4c:	00040513          	mv	a0,s0
     f50:	3e8000ef          	jal	ra,1338 <__clzsi2>
     f54:	ff850713          	addi	a4,a0,-8
     f58:	01f00793          	li	a5,31
     f5c:	08e7c063          	blt	a5,a4,fdc <__adddf3+0x668>
     f60:	02000793          	li	a5,32
     f64:	40e787b3          	sub	a5,a5,a4
     f68:	00e41433          	sll	s0,s0,a4
     f6c:	00f9d7b3          	srl	a5,s3,a5
     f70:	0087e433          	or	s0,a5,s0
     f74:	00e99533          	sll	a0,s3,a4
     f78:	0a974463          	blt	a4,s1,1020 <__adddf3+0x6ac>
     f7c:	40970733          	sub	a4,a4,s1
     f80:	00170793          	addi	a5,a4,1
     f84:	01f00693          	li	a3,31
     f88:	06f6c263          	blt	a3,a5,fec <__adddf3+0x678>
     f8c:	02000713          	li	a4,32
     f90:	40f70733          	sub	a4,a4,a5
     f94:	00f55633          	srl	a2,a0,a5
     f98:	00e416b3          	sll	a3,s0,a4
     f9c:	00e51533          	sll	a0,a0,a4
     fa0:	00c6e6b3          	or	a3,a3,a2
     fa4:	00a03533          	snez	a0,a0
     fa8:	00a6e533          	or	a0,a3,a0
     fac:	00f457b3          	srl	a5,s0,a5
     fb0:	00000493          	li	s1,0
     fb4:	c75ff06f          	j	c28 <__adddf3+0x2b4>
     fb8:	0089e533          	or	a0,s3,s0
     fbc:	f80516e3          	bnez	a0,f48 <__adddf3+0x5d4>
     fc0:	00000793          	li	a5,0
     fc4:	00000493          	li	s1,0
     fc8:	1400006f          	j	1108 <__adddf3+0x794>
     fcc:	00098513          	mv	a0,s3
     fd0:	368000ef          	jal	ra,1338 <__clzsi2>
     fd4:	02050513          	addi	a0,a0,32
     fd8:	f7dff06f          	j	f54 <__adddf3+0x5e0>
     fdc:	fd850413          	addi	s0,a0,-40
     fe0:	00899433          	sll	s0,s3,s0
     fe4:	00000513          	li	a0,0
     fe8:	f91ff06f          	j	f78 <__adddf3+0x604>
     fec:	fe170713          	addi	a4,a4,-31
     ff0:	02000613          	li	a2,32
     ff4:	00e45733          	srl	a4,s0,a4
     ff8:	00000693          	li	a3,0
     ffc:	00c78863          	beq	a5,a2,100c <__adddf3+0x698>
    1000:	04000693          	li	a3,64
    1004:	40f686b3          	sub	a3,a3,a5
    1008:	00d416b3          	sll	a3,s0,a3
    100c:	00d56533          	or	a0,a0,a3
    1010:	00a03533          	snez	a0,a0
    1014:	00a76533          	or	a0,a4,a0
    1018:	00000793          	li	a5,0
    101c:	f95ff06f          	j	fb0 <__adddf3+0x63c>
    1020:	ff8007b7          	lui	a5,0xff800
    1024:	fff78793          	addi	a5,a5,-1 # ff7fffff <TOHOST_ADDR+0xff7fe24b>
    1028:	40e484b3          	sub	s1,s1,a4
    102c:	00f477b3          	and	a5,s0,a5
    1030:	bf9ff06f          	j	c28 <__adddf3+0x2b4>
    1034:	00070793          	mv	a5,a4
    1038:	00060513          	mv	a0,a2
    103c:	00058493          	mv	s1,a1
    1040:	be9ff06f          	j	c28 <__adddf3+0x2b4>
    1044:	00070793          	mv	a5,a4
    1048:	00060513          	mv	a0,a2
    104c:	bddff06f          	j	c28 <__adddf3+0x2b4>
    1050:	7ff00493          	li	s1,2047
    1054:	00000793          	li	a5,0
    1058:	00000513          	li	a0,0
    105c:	00879713          	slli	a4,a5,0x8
    1060:	00075e63          	bgez	a4,107c <__adddf3+0x708>
    1064:	00148493          	addi	s1,s1,1
    1068:	7ff00713          	li	a4,2047
    106c:	0ae48e63          	beq	s1,a4,1128 <__adddf3+0x7b4>
    1070:	ff800737          	lui	a4,0xff800
    1074:	fff70713          	addi	a4,a4,-1 # ff7fffff <TOHOST_ADDR+0xff7fe24b>
    1078:	00e7f7b3          	and	a5,a5,a4
    107c:	01d79713          	slli	a4,a5,0x1d
    1080:	00355513          	srli	a0,a0,0x3
    1084:	00a76533          	or	a0,a4,a0
    1088:	7ff00713          	li	a4,2047
    108c:	0037d793          	srli	a5,a5,0x3
    1090:	00e49e63          	bne	s1,a4,10ac <__adddf3+0x738>
    1094:	00f56533          	or	a0,a0,a5
    1098:	00000793          	li	a5,0
    109c:	00050863          	beqz	a0,10ac <__adddf3+0x738>
    10a0:	000807b7          	lui	a5,0x80
    10a4:	00000513          	li	a0,0
    10a8:	00000913          	li	s2,0
    10ac:	7ff4f713          	andi	a4,s1,2047
    10b0:	00c79793          	slli	a5,a5,0xc
    10b4:	01471713          	slli	a4,a4,0x14
    10b8:	01c12083          	lw	ra,28(sp)
    10bc:	01812403          	lw	s0,24(sp)
    10c0:	00c7d793          	srli	a5,a5,0xc
    10c4:	01f91593          	slli	a1,s2,0x1f
    10c8:	00e7e7b3          	or	a5,a5,a4
    10cc:	00b7e733          	or	a4,a5,a1
    10d0:	01412483          	lw	s1,20(sp)
    10d4:	01012903          	lw	s2,16(sp)
    10d8:	00c12983          	lw	s3,12(sp)
    10dc:	00070593          	mv	a1,a4
    10e0:	02010113          	addi	sp,sp,32
    10e4:	00008067          	ret
    10e8:	00080493          	mv	s1,a6
    10ec:	b3dff06f          	j	c28 <__adddf3+0x2b4>
    10f0:	00070793          	mv	a5,a4
    10f4:	00060513          	mv	a0,a2
    10f8:	00080493          	mv	s1,a6
    10fc:	db5ff06f          	j	eb0 <__adddf3+0x53c>
    1100:	00000793          	li	a5,0
    1104:	00000513          	li	a0,0
    1108:	00000913          	li	s2,0
    110c:	f51ff06f          	j	105c <__adddf3+0x6e8>
    1110:	00000793          	li	a5,0
    1114:	ff5ff06f          	j	1108 <__adddf3+0x794>
    1118:	00000513          	li	a0,0
    111c:	00000913          	li	s2,0
    1120:	004007b7          	lui	a5,0x400
    1124:	b45ff06f          	j	c68 <__adddf3+0x2f4>
    1128:	00000793          	li	a5,0
    112c:	00000513          	li	a0,0
    1130:	f4dff06f          	j	107c <__adddf3+0x708>

00001134 <__fixdfsi>:
    1134:	0145d713          	srli	a4,a1,0x14
    1138:	001006b7          	lui	a3,0x100
    113c:	fff68793          	addi	a5,a3,-1 # fffff <TOHOST_ADDR+0xfe24b>
    1140:	7ff77713          	andi	a4,a4,2047
    1144:	3fe00613          	li	a2,1022
    1148:	00b7f7b3          	and	a5,a5,a1
    114c:	01f5d593          	srli	a1,a1,0x1f
    1150:	04e65e63          	bge	a2,a4,11ac <__fixdfsi+0x78>
    1154:	41d00613          	li	a2,1053
    1158:	00e65a63          	bge	a2,a4,116c <__fixdfsi+0x38>
    115c:	80000537          	lui	a0,0x80000
    1160:	fff54513          	not	a0,a0
    1164:	00a58533          	add	a0,a1,a0
    1168:	00008067          	ret
    116c:	00d7e7b3          	or	a5,a5,a3
    1170:	43300693          	li	a3,1075
    1174:	40e686b3          	sub	a3,a3,a4
    1178:	01f00613          	li	a2,31
    117c:	02d64063          	blt	a2,a3,119c <__fixdfsi+0x68>
    1180:	bed70713          	addi	a4,a4,-1043
    1184:	00e797b3          	sll	a5,a5,a4
    1188:	00d55533          	srl	a0,a0,a3
    118c:	00a7e533          	or	a0,a5,a0
    1190:	02058063          	beqz	a1,11b0 <__fixdfsi+0x7c>
    1194:	40a00533          	neg	a0,a0
    1198:	00008067          	ret
    119c:	41300513          	li	a0,1043
    11a0:	40e50533          	sub	a0,a0,a4
    11a4:	00a7d533          	srl	a0,a5,a0
    11a8:	fe9ff06f          	j	1190 <__fixdfsi+0x5c>
    11ac:	00000513          	li	a0,0
    11b0:	00008067          	ret

000011b4 <__floatsidf>:
    11b4:	ff010113          	addi	sp,sp,-16
    11b8:	00112623          	sw	ra,12(sp)
    11bc:	00812423          	sw	s0,8(sp)
    11c0:	00912223          	sw	s1,4(sp)
    11c4:	08050863          	beqz	a0,1254 <__floatsidf+0xa0>
    11c8:	41f55793          	srai	a5,a0,0x1f
    11cc:	00a7c433          	xor	s0,a5,a0
    11d0:	40f40433          	sub	s0,s0,a5
    11d4:	01f55493          	srli	s1,a0,0x1f
    11d8:	00040513          	mv	a0,s0
    11dc:	15c000ef          	jal	ra,1338 <__clzsi2>
    11e0:	41e00713          	li	a4,1054
    11e4:	00a00793          	li	a5,10
    11e8:	40a70733          	sub	a4,a4,a0
    11ec:	04a7ca63          	blt	a5,a0,1240 <__floatsidf+0x8c>
    11f0:	00b00793          	li	a5,11
    11f4:	40a787b3          	sub	a5,a5,a0
    11f8:	01550513          	addi	a0,a0,21 # 80000015 <TOHOST_ADDR+0x7fffe261>
    11fc:	00f457b3          	srl	a5,s0,a5
    1200:	00a41433          	sll	s0,s0,a0
    1204:	00048513          	mv	a0,s1
    1208:	00c79793          	slli	a5,a5,0xc
    120c:	7ff77713          	andi	a4,a4,2047
    1210:	01471713          	slli	a4,a4,0x14
    1214:	00c7d793          	srli	a5,a5,0xc
    1218:	01f51513          	slli	a0,a0,0x1f
    121c:	00e7e7b3          	or	a5,a5,a4
    1220:	00a7e733          	or	a4,a5,a0
    1224:	00c12083          	lw	ra,12(sp)
    1228:	00040513          	mv	a0,s0
    122c:	00812403          	lw	s0,8(sp)
    1230:	00412483          	lw	s1,4(sp)
    1234:	00070593          	mv	a1,a4
    1238:	01010113          	addi	sp,sp,16
    123c:	00008067          	ret
    1240:	ff550513          	addi	a0,a0,-11
    1244:	00a417b3          	sll	a5,s0,a0
    1248:	00048513          	mv	a0,s1
    124c:	00000413          	li	s0,0
    1250:	fb9ff06f          	j	1208 <__floatsidf+0x54>
    1254:	00000713          	li	a4,0
    1258:	00000793          	li	a5,0
    125c:	ff1ff06f          	j	124c <__floatsidf+0x98>

00001260 <__mulsi3>:
    1260:	00050613          	mv	a2,a0
    1264:	00000513          	li	a0,0
    1268:	0015f693          	andi	a3,a1,1
    126c:	00068463          	beqz	a3,1274 <__mulsi3+0x14>
    1270:	00c50533          	add	a0,a0,a2
    1274:	0015d593          	srli	a1,a1,0x1
    1278:	00161613          	slli	a2,a2,0x1
    127c:	fe0596e3          	bnez	a1,1268 <__mulsi3+0x8>
    1280:	00008067          	ret

00001284 <__divsi3>:
    1284:	06054063          	bltz	a0,12e4 <__umodsi3+0x10>
    1288:	0605c663          	bltz	a1,12f4 <__umodsi3+0x20>

0000128c <__udivsi3>:
    128c:	00058613          	mv	a2,a1
    1290:	00050593          	mv	a1,a0
    1294:	fff00513          	li	a0,-1
    1298:	02060c63          	beqz	a2,12d0 <__udivsi3+0x44>
    129c:	00100693          	li	a3,1
    12a0:	00b67a63          	bgeu	a2,a1,12b4 <__udivsi3+0x28>
    12a4:	00c05863          	blez	a2,12b4 <__udivsi3+0x28>
    12a8:	00161613          	slli	a2,a2,0x1
    12ac:	00169693          	slli	a3,a3,0x1
    12b0:	feb66ae3          	bltu	a2,a1,12a4 <__udivsi3+0x18>
    12b4:	00000513          	li	a0,0
    12b8:	00c5e663          	bltu	a1,a2,12c4 <__udivsi3+0x38>
    12bc:	40c585b3          	sub	a1,a1,a2
    12c0:	00d56533          	or	a0,a0,a3
    12c4:	0016d693          	srli	a3,a3,0x1
    12c8:	00165613          	srli	a2,a2,0x1
    12cc:	fe0696e3          	bnez	a3,12b8 <__udivsi3+0x2c>
    12d0:	00008067          	ret

000012d4 <__umodsi3>:
    12d4:	00008293          	mv	t0,ra
    12d8:	fb5ff0ef          	jal	ra,128c <__udivsi3>
    12dc:	00058513          	mv	a0,a1
    12e0:	00028067          	jr	t0
    12e4:	40a00533          	neg	a0,a0
    12e8:	0005d863          	bgez	a1,12f8 <__umodsi3+0x24>
    12ec:	40b005b3          	neg	a1,a1
    12f0:	f9dff06f          	j	128c <__udivsi3>
    12f4:	40b005b3          	neg	a1,a1
    12f8:	00008293          	mv	t0,ra
    12fc:	f91ff0ef          	jal	ra,128c <__udivsi3>
    1300:	40a00533          	neg	a0,a0
    1304:	00028067          	jr	t0

00001308 <__modsi3>:
    1308:	00008293          	mv	t0,ra
    130c:	0005ca63          	bltz	a1,1320 <__modsi3+0x18>
    1310:	00054c63          	bltz	a0,1328 <__modsi3+0x20>
    1314:	f79ff0ef          	jal	ra,128c <__udivsi3>
    1318:	00058513          	mv	a0,a1
    131c:	00028067          	jr	t0
    1320:	40b005b3          	neg	a1,a1
    1324:	fe0558e3          	bgez	a0,1314 <__modsi3+0xc>
    1328:	40a00533          	neg	a0,a0
    132c:	f61ff0ef          	jal	ra,128c <__udivsi3>
    1330:	40b00533          	neg	a0,a1
    1334:	00028067          	jr	t0

00001338 <__clzsi2>:
    1338:	000107b7          	lui	a5,0x10
    133c:	02f57a63          	bgeu	a0,a5,1370 <__clzsi2+0x38>
    1340:	0ff00793          	li	a5,255
    1344:	00a7b7b3          	sltu	a5,a5,a0
    1348:	00379793          	slli	a5,a5,0x3
    134c:	02000713          	li	a4,32
    1350:	40f70733          	sub	a4,a4,a5
    1354:	00f557b3          	srl	a5,a0,a5
    1358:	00001537          	lui	a0,0x1
    135c:	5a850513          	addi	a0,a0,1448 # 15a8 <__clz_tab>
    1360:	00a787b3          	add	a5,a5,a0
    1364:	0007c503          	lbu	a0,0(a5) # 10000 <TOHOST_ADDR+0xe24c>
    1368:	40a70533          	sub	a0,a4,a0
    136c:	00008067          	ret
    1370:	01000737          	lui	a4,0x1000
    1374:	01000793          	li	a5,16
    1378:	fce56ae3          	bltu	a0,a4,134c <__clzsi2+0x14>
    137c:	01800793          	li	a5,24
    1380:	fcdff06f          	j	134c <__clzsi2+0x14>

00001384 <memcmp>:
    1384:	00300793          	li	a5,3
    1388:	02c7f863          	bgeu	a5,a2,13b8 <memcmp+0x34>
    138c:	00b567b3          	or	a5,a0,a1
    1390:	0037f793          	andi	a5,a5,3
    1394:	00300693          	li	a3,3
    1398:	06079263          	bnez	a5,13fc <memcmp+0x78>
    139c:	00052703          	lw	a4,0(a0)
    13a0:	0005a783          	lw	a5,0(a1)
    13a4:	04f71c63          	bne	a4,a5,13fc <memcmp+0x78>
    13a8:	ffc60613          	addi	a2,a2,-4 # fffc <TOHOST_ADDR+0xe248>
    13ac:	00450513          	addi	a0,a0,4
    13b0:	00458593          	addi	a1,a1,4
    13b4:	fec6e4e3          	bltu	a3,a2,139c <memcmp+0x18>
    13b8:	fff60793          	addi	a5,a2,-1
    13bc:	02060c63          	beqz	a2,13f4 <memcmp+0x70>
    13c0:	00054703          	lbu	a4,0(a0)
    13c4:	0005c683          	lbu	a3,0(a1)
    13c8:	02d71e63          	bne	a4,a3,1404 <memcmp+0x80>
    13cc:	00178713          	addi	a4,a5,1
    13d0:	00150793          	addi	a5,a0,1
    13d4:	00e50533          	add	a0,a0,a4
    13d8:	0140006f          	j	13ec <memcmp+0x68>
    13dc:	0007c703          	lbu	a4,0(a5)
    13e0:	0005c683          	lbu	a3,0(a1)
    13e4:	00178793          	addi	a5,a5,1
    13e8:	00d71e63          	bne	a4,a3,1404 <memcmp+0x80>
    13ec:	00158593          	addi	a1,a1,1
    13f0:	fea796e3          	bne	a5,a0,13dc <memcmp+0x58>
    13f4:	00000513          	li	a0,0
    13f8:	00008067          	ret
    13fc:	fff60793          	addi	a5,a2,-1
    1400:	fc1ff06f          	j	13c0 <memcmp+0x3c>
    1404:	40d70533          	sub	a0,a4,a3
    1408:	00008067          	ret

0000140c <memset>:
    140c:	00f00313          	li	t1,15
    1410:	00050713          	mv	a4,a0
    1414:	02c37e63          	bgeu	t1,a2,1450 <memset+0x44>
    1418:	00f77793          	andi	a5,a4,15
    141c:	0a079063          	bnez	a5,14bc <memset+0xb0>
    1420:	08059263          	bnez	a1,14a4 <memset+0x98>
    1424:	ff067693          	andi	a3,a2,-16
    1428:	00f67613          	andi	a2,a2,15
    142c:	00e686b3          	add	a3,a3,a4
    1430:	00b72023          	sw	a1,0(a4) # 1000000 <TOHOST_ADDR+0xffe24c>
    1434:	00b72223          	sw	a1,4(a4)
    1438:	00b72423          	sw	a1,8(a4)
    143c:	00b72623          	sw	a1,12(a4)
    1440:	01070713          	addi	a4,a4,16
    1444:	fed766e3          	bltu	a4,a3,1430 <memset+0x24>
    1448:	00061463          	bnez	a2,1450 <memset+0x44>
    144c:	00008067          	ret
    1450:	40c306b3          	sub	a3,t1,a2
    1454:	00269693          	slli	a3,a3,0x2
    1458:	00000297          	auipc	t0,0x0
    145c:	005686b3          	add	a3,a3,t0
    1460:	00c68067          	jr	12(a3)
    1464:	00b70723          	sb	a1,14(a4)
    1468:	00b706a3          	sb	a1,13(a4)
    146c:	00b70623          	sb	a1,12(a4)
    1470:	00b705a3          	sb	a1,11(a4)
    1474:	00b70523          	sb	a1,10(a4)
    1478:	00b704a3          	sb	a1,9(a4)
    147c:	00b70423          	sb	a1,8(a4)
    1480:	00b703a3          	sb	a1,7(a4)
    1484:	00b70323          	sb	a1,6(a4)
    1488:	00b702a3          	sb	a1,5(a4)
    148c:	00b70223          	sb	a1,4(a4)
    1490:	00b701a3          	sb	a1,3(a4)
    1494:	00b70123          	sb	a1,2(a4)
    1498:	00b700a3          	sb	a1,1(a4)
    149c:	00b70023          	sb	a1,0(a4)
    14a0:	00008067          	ret
    14a4:	0ff5f593          	andi	a1,a1,255
    14a8:	00859693          	slli	a3,a1,0x8
    14ac:	00d5e5b3          	or	a1,a1,a3
    14b0:	01059693          	slli	a3,a1,0x10
    14b4:	00d5e5b3          	or	a1,a1,a3
    14b8:	f6dff06f          	j	1424 <memset+0x18>
    14bc:	00279693          	slli	a3,a5,0x2
    14c0:	00000297          	auipc	t0,0x0
    14c4:	005686b3          	add	a3,a3,t0
    14c8:	00008293          	mv	t0,ra
    14cc:	fa0680e7          	jalr	-96(a3)
    14d0:	00028093          	mv	ra,t0
    14d4:	ff078793          	addi	a5,a5,-16
    14d8:	40f70733          	sub	a4,a4,a5
    14dc:	00f60633          	add	a2,a2,a5
    14e0:	f6c378e3          	bgeu	t1,a2,1450 <memset+0x44>
    14e4:	f3dff06f          	j	1420 <memset+0x14>

Disassembly of section .text.startup:

000014e8 <main>:
    14e8:	fe010113          	addi	sp,sp,-32
    14ec:	00112e23          	sw	ra,28(sp)
    14f0:	00812c23          	sw	s0,24(sp)
    14f4:	90cff0ef          	jal	ra,600 <initialise_board>
    14f8:	c11fe0ef          	jal	ra,108 <initialise_benchmark>
    14fc:	00100513          	li	a0,1
    1500:	8f0ff0ef          	jal	ra,5f0 <warm_caches>
    1504:	904ff0ef          	jal	ra,608 <start_trigger>
    1508:	8ecff0ef          	jal	ra,5f4 <benchmark>
    150c:	00a12623          	sw	a0,12(sp)
    1510:	900ff0ef          	jal	ra,610 <stop_trigger>
    1514:	00c12503          	lw	a0,12(sp)
    1518:	b79fe0ef          	jal	ra,90 <verify_benchmark>
    151c:	00050413          	mv	s0,a0
    1520:	02050463          	beqz	a0,1548 <main+0x60>
    1524:	00001537          	lui	a0,0x1
    1528:	6a850513          	addi	a0,a0,1704 # 16a8 <__clz_tab+0x100>
    152c:	ae8ff0ef          	jal	ra,814 <simrv_puts>
    1530:	ab8ff0ef          	jal	ra,7e8 <simrv_exit>
    1534:	00143513          	seqz	a0,s0
    1538:	01c12083          	lw	ra,28(sp)
    153c:	01812403          	lw	s0,24(sp)
    1540:	02010113          	addi	sp,sp,32
    1544:	00008067          	ret
    1548:	00001537          	lui	a0,0x1
    154c:	6b450513          	addi	a0,a0,1716 # 16b4 <__clz_tab+0x10c>
    1550:	ac4ff0ef          	jal	ra,814 <simrv_puts>
    1554:	fddff06f          	j	1530 <main+0x48>
