
bd/src/ud/ud:     file format elf32-littleriscv


Disassembly of section .init:

00000000 <_start>:
   0:	00000013          	nop
   4:	00000033          	add	zero,zero,zero
   8:	000000b3          	add	ra,zero,zero
   c:	00000133          	add	sp,zero,zero
  10:	000001b3          	add	gp,zero,zero
  14:	00000233          	add	tp,zero,zero
  18:	000002b3          	add	t0,zero,zero
  1c:	00000333          	add	t1,zero,zero
  20:	000003b3          	add	t2,zero,zero
  24:	00000433          	add	s0,zero,zero
  28:	000004b3          	add	s1,zero,zero
  2c:	00000533          	add	a0,zero,zero
  30:	000005b3          	add	a1,zero,zero
  34:	00000633          	add	a2,zero,zero
  38:	000006b3          	add	a3,zero,zero
  3c:	00000733          	add	a4,zero,zero
  40:	000007b3          	add	a5,zero,zero
  44:	00000833          	add	a6,zero,zero
  48:	000008b3          	add	a7,zero,zero
  4c:	00000933          	add	s2,zero,zero
  50:	000009b3          	add	s3,zero,zero
  54:	00000a33          	add	s4,zero,zero
  58:	00000ab3          	add	s5,zero,zero
  5c:	00000b33          	add	s6,zero,zero
  60:	00000bb3          	add	s7,zero,zero
  64:	00000c33          	add	s8,zero,zero
  68:	00000cb3          	add	s9,zero,zero
  6c:	00000d33          	add	s10,zero,zero
  70:	00000db3          	add	s11,zero,zero
  74:	00000e33          	add	t3,zero,zero
  78:	00000eb3          	add	t4,zero,zero
  7c:	00000f33          	add	t5,zero,zero
  80:	00000fb3          	add	t6,zero,zero
  84:	00010137          	lui	sp,0x10
  88:	4600106f          	j	14e8 <main>
  8c:	00000013          	nop

Disassembly of section .text:

00000090 <verify_benchmark>:
      90:	000017b7          	lui	a5,0x1
      94:	fa010113          	addi	sp,sp,-96 # ffa0 <TOHOST_ADDR+0xe1ec>
      98:	55878793          	addi	a5,a5,1368 # 1558 <main+0x70>
      9c:	04812c23          	sw	s0,88(sp)
      a0:	04112e23          	sw	ra,92(sp)
      a4:	00050413          	mv	s0,a0
      a8:	00010713          	mv	a4,sp
      ac:	05078693          	addi	a3,a5,80
      b0:	0007a803          	lw	a6,0(a5)
      b4:	0047a503          	lw	a0,4(a5)
      b8:	0087a583          	lw	a1,8(a5)
      bc:	00c7a603          	lw	a2,12(a5)
      c0:	01072023          	sw	a6,0(a4)
      c4:	00a72223          	sw	a0,4(a4)
      c8:	00b72423          	sw	a1,8(a4)
      cc:	00c72623          	sw	a2,12(a4)
      d0:	01078793          	addi	a5,a5,16
      d4:	01070713          	addi	a4,a4,16
      d8:	fcd79ce3          	bne	a5,a3,b0 <verify_benchmark+0x20>
      dc:	00001537          	lui	a0,0x1
      e0:	00010593          	mv	a1,sp
      e4:	05000613          	li	a2,80
      e8:	71050513          	addi	a0,a0,1808 # 1710 <x>
      ec:	298010ef          	jal	ra,1384 <memcmp>
      f0:	00856533          	or	a0,a0,s0
      f4:	05c12083          	lw	ra,92(sp)
      f8:	05812403          	lw	s0,88(sp)
      fc:	00153513          	seqz	a0,a0
     100:	06010113          	addi	sp,sp,96
     104:	00008067          	ret

00000108 <initialise_benchmark>:
     108:	00008067          	ret

0000010c <ludcmp>:
     10c:	e0010113          	addi	sp,sp,-512
     110:	1f212823          	sw	s2,496(sp)
     114:	1d812c23          	sw	s8,472(sp)
     118:	000017b7          	lui	a5,0x1
     11c:	1e112e23          	sw	ra,508(sp)
     120:	1e812c23          	sw	s0,504(sp)
     124:	1e912a23          	sw	s1,500(sp)
     128:	1f312623          	sw	s3,492(sp)
     12c:	1f412423          	sw	s4,488(sp)
     130:	1f512223          	sw	s5,484(sp)
     134:	1f612023          	sw	s6,480(sp)
     138:	1d712e23          	sw	s7,476(sp)
     13c:	1d912a23          	sw	s9,468(sp)
     140:	1da12823          	sw	s10,464(sp)
     144:	1db12623          	sw	s11,460(sp)
     148:	00b12823          	sw	a1,16(sp)
     14c:	fff58c13          	addi	s8,a1,-1
     150:	6c07a903          	lw	s2,1728(a5) # 16c0 <b>
     154:	30b05663          	blez	a1,460 <ludcmp+0x354>
     158:	00001bb7          	lui	s7,0x1
     15c:	01458793          	addi	a5,a1,20
     160:	764b8413          	addi	s0,s7,1892 # 1764 <a>
     164:	00279793          	slli	a5,a5,0x2
     168:	00001ab7          	lui	s5,0x1
     16c:	00259693          	slli	a3,a1,0x2
     170:	02f12423          	sw	a5,40(sp)
     174:	00878b33          	add	s6,a5,s0
     178:	7b4a8793          	addi	a5,s5,1972 # 17b4 <a+0x50>
     17c:	00b68a33          	add	s4,a3,a1
     180:	00f12a23          	sw	a5,20(sp)
     184:	764b8793          	addi	a5,s7,1892
     188:	004a1a13          	slli	s4,s4,0x4
     18c:	02f12223          	sw	a5,36(sp)
     190:	fb000793          	li	a5,-80
     194:	02d12623          	sw	a3,44(sp)
     198:	008a0a33          	add	s4,s4,s0
     19c:	764b8b93          	addi	s7,s7,1892
     1a0:	7b4a8a93          	addi	s5,s5,1972
     1a4:	00012c23          	sw	zero,24(sp)
     1a8:	00f12e23          	sw	a5,28(sp)
     1ac:	00000993          	li	s3,0
     1b0:	01812703          	lw	a4,24(sp)
     1b4:	00198793          	addi	a5,s3,1
     1b8:	02f12023          	sw	a5,32(sp)
     1bc:	05070713          	addi	a4,a4,80
     1c0:	00e12623          	sw	a4,12(sp)
     1c4:	01012703          	lw	a4,16(sp)
     1c8:	00040493          	mv	s1,s0
     1cc:	02f75063          	bge	a4,a5,1ec <ludcmp+0xe0>
     1d0:	1600006f          	j	330 <ludcmp+0x224>
     1d4:	00042583          	lw	a1,0(s0)
     1d8:	000d0513          	mv	a0,s10
     1dc:	05048493          	addi	s1,s1,80
     1e0:	0a4010ef          	jal	ra,1284 <__divsi3>
     1e4:	00a4a023          	sw	a0,0(s1)
     1e8:	05448663          	beq	s1,s4,234 <ludcmp+0x128>
     1ec:	0504ad03          	lw	s10,80(s1)
     1f0:	fe0982e3          	beqz	s3,1d4 <ludcmp+0xc8>
     1f4:	00c12783          	lw	a5,12(sp)
     1f8:	000b8d93          	mv	s11,s7
     1fc:	00978cb3          	add	s9,a5,s1
     200:	000da583          	lw	a1,0(s11)
     204:	000ca503          	lw	a0,0(s9)
     208:	050d8d93          	addi	s11,s11,80
     20c:	004c8c93          	addi	s9,s9,4
     210:	050010ef          	jal	ra,1260 <__mulsi3>
     214:	40ad0d33          	sub	s10,s10,a0
     218:	fe8d94e3          	bne	s11,s0,200 <ludcmp+0xf4>
     21c:	00042583          	lw	a1,0(s0)
     220:	000d0513          	mv	a0,s10
     224:	05048493          	addi	s1,s1,80
     228:	05c010ef          	jal	ra,1284 <__divsi3>
     22c:	00a4a023          	sw	a0,0(s1)
     230:	fb449ee3          	bne	s1,s4,1ec <ludcmp+0xe0>
     234:	01c12783          	lw	a5,28(sp)
     238:	05440493          	addi	s1,s0,84
     23c:	00912623          	sw	s1,12(sp)
     240:	05040413          	addi	s0,s0,80
     244:	00478993          	addi	s3,a5,4
     248:	00442c83          	lw	s9,4(s0)
     24c:	00898d33          	add	s10,s3,s0
     250:	000a8d93          	mv	s11,s5
     254:	000d2583          	lw	a1,0(s10)
     258:	000da503          	lw	a0,0(s11)
     25c:	050d0d13          	addi	s10,s10,80
     260:	004d8d93          	addi	s11,s11,4
     264:	7fd000ef          	jal	ra,1260 <__mulsi3>
     268:	40ac8cb3          	sub	s9,s9,a0
     26c:	fe9d14e3          	bne	s10,s1,254 <ludcmp+0x148>
     270:	01942223          	sw	s9,4(s0)
     274:	00440413          	addi	s0,s0,4
     278:	00448493          	addi	s1,s1,4
     27c:	fd6416e3          	bne	s0,s6,248 <ludcmp+0x13c>
     280:	01c12783          	lw	a5,28(sp)
     284:	02012983          	lw	s3,32(sp)
     288:	050b0b13          	addi	s6,s6,80
     28c:	fb078793          	addi	a5,a5,-80
     290:	00f12e23          	sw	a5,28(sp)
     294:	01812783          	lw	a5,24(sp)
     298:	050a8a93          	addi	s5,s5,80
     29c:	00c12403          	lw	s0,12(sp)
     2a0:	ffc78793          	addi	a5,a5,-4
     2a4:	00f12c23          	sw	a5,24(sp)
     2a8:	01012783          	lw	a5,16(sp)
     2ac:	004a0a13          	addi	s4,s4,4
     2b0:	004b8b93          	addi	s7,s7,4
     2b4:	ef379ee3          	bne	a5,s3,1b0 <ludcmp+0xa4>
     2b8:	02812783          	lw	a5,40(sp)
     2bc:	03410993          	addi	s3,sp,52
     2c0:	00001b37          	lui	s6,0x1
     2c4:	fb078a13          	addi	s4,a5,-80
     2c8:	03212823          	sw	s2,48(sp)
     2cc:	03010a93          	addi	s5,sp,48
     2d0:	013a0a33          	add	s4,s4,s3
     2d4:	6c0b0b13          	addi	s6,s6,1728 # 16c0 <b>
     2d8:	415987b3          	sub	a5,s3,s5
     2dc:	00fb07b3          	add	a5,s6,a5
     2e0:	0007ab83          	lw	s7,0(a5)
     2e4:	03410413          	addi	s0,sp,52
     2e8:	01412483          	lw	s1,20(sp)
     2ec:	00c0006f          	j	2f8 <ludcmp+0x1ec>
     2f0:	00042903          	lw	s2,0(s0)
     2f4:	00440413          	addi	s0,s0,4
     2f8:	0004a583          	lw	a1,0(s1)
     2fc:	00090513          	mv	a0,s2
     300:	00448493          	addi	s1,s1,4
     304:	75d000ef          	jal	ra,1260 <__mulsi3>
     308:	40ab8bb3          	sub	s7,s7,a0
     30c:	ff3412e3          	bne	s0,s3,2f0 <ludcmp+0x1e4>
     310:	01412783          	lw	a5,20(sp)
     314:	01742023          	sw	s7,0(s0)
     318:	00440993          	addi	s3,s0,4
     31c:	05078793          	addi	a5,a5,80
     320:	00f12a23          	sw	a5,20(sp)
     324:	01498c63          	beq	s3,s4,33c <ludcmp+0x230>
     328:	03012903          	lw	s2,48(sp)
     32c:	fadff06f          	j	2d8 <ludcmp+0x1cc>
     330:	05440793          	addi	a5,s0,84
     334:	00f12623          	sw	a5,12(sp)
     338:	f49ff06f          	j	280 <ludcmp+0x174>
     33c:	02c12703          	lw	a4,44(sp)
     340:	01012683          	lw	a3,16(sp)
     344:	1c010613          	addi	a2,sp,448
     348:	00001437          	lui	s0,0x1
     34c:	00d707b3          	add	a5,a4,a3
     350:	00279793          	slli	a5,a5,0x2
     354:	00d787b3          	add	a5,a5,a3
     358:	02412683          	lw	a3,36(sp)
     35c:	00279793          	slli	a5,a5,0x2
     360:	71040413          	addi	s0,s0,1808 # 1710 <x>
     364:	00f687b3          	add	a5,a3,a5
     368:	00070693          	mv	a3,a4
     36c:	00e60733          	add	a4,a2,a4
     370:	0007a583          	lw	a1,0(a5)
     374:	e7072503          	lw	a0,-400(a4)
     378:	00d404b3          	add	s1,s0,a3
     37c:	709000ef          	jal	ra,1284 <__divsi3>
     380:	00a4a023          	sw	a0,0(s1)
     384:	002c1a13          	slli	s4,s8,0x2
     388:	01012783          	lw	a5,16(sp)
     38c:	018a0a33          	add	s4,s4,s8
     390:	002a1a13          	slli	s4,s4,0x2
     394:	018a0a33          	add	s4,s4,s8
     398:	02412703          	lw	a4,36(sp)
     39c:	00279b13          	slli	s6,a5,0x2
     3a0:	002a1a13          	slli	s4,s4,0x2
     3a4:	000b0793          	mv	a5,s6
     3a8:	004a0a13          	addi	s4,s4,4
     3ac:	ffcb0b13          	addi	s6,s6,-4
     3b0:	00440993          	addi	s3,s0,4
     3b4:	016a8b33          	add	s6,s5,s6
     3b8:	01470a33          	add	s4,a4,s4
     3bc:	00f40ab3          	add	s5,s0,a5
     3c0:	00f989b3          	add	s3,s3,a5
     3c4:	fff00b93          	li	s7,-1
     3c8:	01012703          	lw	a4,16(sp)
     3cc:	001c0793          	addi	a5,s8,1
     3d0:	000b2903          	lw	s2,0(s6)
     3d4:	02f74463          	blt	a4,a5,3fc <ludcmp+0x2f0>
     3d8:	000a8413          	mv	s0,s5
     3dc:	000a0493          	mv	s1,s4
     3e0:	00042583          	lw	a1,0(s0)
     3e4:	0004a503          	lw	a0,0(s1)
     3e8:	00440413          	addi	s0,s0,4
     3ec:	00448493          	addi	s1,s1,4
     3f0:	671000ef          	jal	ra,1260 <__mulsi3>
     3f4:	40a90933          	sub	s2,s2,a0
     3f8:	fe8994e3          	bne	s3,s0,3e0 <ludcmp+0x2d4>
     3fc:	ffca2583          	lw	a1,-4(s4)
     400:	00090513          	mv	a0,s2
     404:	fffc0c13          	addi	s8,s8,-1
     408:	67d000ef          	jal	ra,1284 <__divsi3>
     40c:	feaaae23          	sw	a0,-4(s5)
     410:	ffcb0b13          	addi	s6,s6,-4
     414:	ffca8a93          	addi	s5,s5,-4
     418:	faca0a13          	addi	s4,s4,-84
     41c:	fb7c16e3          	bne	s8,s7,3c8 <ludcmp+0x2bc>
     420:	1fc12083          	lw	ra,508(sp)
     424:	1f812403          	lw	s0,504(sp)
     428:	1f412483          	lw	s1,500(sp)
     42c:	1f012903          	lw	s2,496(sp)
     430:	1ec12983          	lw	s3,492(sp)
     434:	1e812a03          	lw	s4,488(sp)
     438:	1e412a83          	lw	s5,484(sp)
     43c:	1e012b03          	lw	s6,480(sp)
     440:	1dc12b83          	lw	s7,476(sp)
     444:	1d812c03          	lw	s8,472(sp)
     448:	1d412c83          	lw	s9,468(sp)
     44c:	1d012d03          	lw	s10,464(sp)
     450:	1cc12d83          	lw	s11,460(sp)
     454:	00000513          	li	a0,0
     458:	20010113          	addi	sp,sp,512
     45c:	00008067          	ret
     460:	01012683          	lw	a3,16(sp)
     464:	00001bb7          	lui	s7,0x1
     468:	764b8613          	addi	a2,s7,1892 # 1764 <a>
     46c:	00269713          	slli	a4,a3,0x2
     470:	00d707b3          	add	a5,a4,a3
     474:	00279793          	slli	a5,a5,0x2
     478:	00d787b3          	add	a5,a5,a3
     47c:	00279793          	slli	a5,a5,0x2
     480:	1c010693          	addi	a3,sp,448
     484:	03212823          	sw	s2,48(sp)
     488:	00e686b3          	add	a3,a3,a4
     48c:	00f607b3          	add	a5,a2,a5
     490:	0007a583          	lw	a1,0(a5)
     494:	e706a503          	lw	a0,-400(a3)
     498:	00001437          	lui	s0,0x1
     49c:	71040413          	addi	s0,s0,1808 # 1710 <x>
     4a0:	00e404b3          	add	s1,s0,a4
     4a4:	02c12223          	sw	a2,36(sp)
     4a8:	5dd000ef          	jal	ra,1284 <__divsi3>
     4ac:	00a4a023          	sw	a0,0(s1)
     4b0:	03010a93          	addi	s5,sp,48
     4b4:	f60c46e3          	bltz	s8,420 <ludcmp+0x314>
     4b8:	ecdff06f          	j	384 <ludcmp+0x278>

000004bc <benchmark_body>:
     4bc:	fb010113          	addi	sp,sp,-80
     4c0:	03a12023          	sw	s10,32(sp)
     4c4:	04112623          	sw	ra,76(sp)
     4c8:	04812423          	sw	s0,72(sp)
     4cc:	04912223          	sw	s1,68(sp)
     4d0:	05212023          	sw	s2,64(sp)
     4d4:	03312e23          	sw	s3,60(sp)
     4d8:	03412c23          	sw	s4,56(sp)
     4dc:	03512a23          	sw	s5,52(sp)
     4e0:	03612823          	sw	s6,48(sp)
     4e4:	03712623          	sw	s7,44(sp)
     4e8:	03812423          	sw	s8,40(sp)
     4ec:	03912223          	sw	s9,36(sp)
     4f0:	01b12e23          	sw	s11,28(sp)
     4f4:	00001d37          	lui	s10,0x1
     4f8:	0aa05c63          	blez	a0,5b0 <benchmark_body+0xf4>
     4fc:	00001cb7          	lui	s9,0x1
     500:	00001c37          	lui	s8,0x1
     504:	00a12623          	sw	a0,12(sp)
     508:	00000b13          	li	s6,0
     50c:	00001d37          	lui	s10,0x1
     510:	6c0c8c93          	addi	s9,s9,1728 # 16c0 <b>
     514:	764c0c13          	addi	s8,s8,1892 # 1764 <a>
     518:	00600a13          	li	s4,6
     51c:	000c8b93          	mv	s7,s9
     520:	000c0d93          	mv	s11,s8
     524:	00000993          	li	s3,0
     528:	000d8493          	mv	s1,s11
     52c:	00000413          	li	s0,0
     530:	00000913          	li	s2,0
     534:	00298a93          	addi	s5,s3,2
     538:	0180006f          	j	550 <benchmark_body+0x94>
     53c:	00a4a023          	sw	a0,0(s1)
     540:	00140413          	addi	s0,s0,1
     544:	00a90933          	add	s2,s2,a0
     548:	00448493          	addi	s1,s1,4
     54c:	03440a63          	beq	s0,s4,580 <benchmark_body+0xc4>
     550:	008a8533          	add	a0,s5,s0
     554:	ff3414e3          	bne	s0,s3,53c <benchmark_body+0x80>
     558:	45d000ef          	jal	ra,11b4 <__floatsidf>
     55c:	00050613          	mv	a2,a0
     560:	00058693          	mv	a3,a1
     564:	410000ef          	jal	ra,974 <__adddf3>
     568:	3cd000ef          	jal	ra,1134 <__fixdfsi>
     56c:	00a4a023          	sw	a0,0(s1)
     570:	00140413          	addi	s0,s0,1
     574:	00a90933          	add	s2,s2,a0
     578:	00448493          	addi	s1,s1,4
     57c:	fd441ae3          	bne	s0,s4,550 <benchmark_body+0x94>
     580:	012ba023          	sw	s2,0(s7)
     584:	00198993          	addi	s3,s3,1
     588:	004b8b93          	addi	s7,s7,4
     58c:	050d8d93          	addi	s11,s11,80
     590:	f9499ce3          	bne	s3,s4,528 <benchmark_body+0x6c>
     594:	00500593          	li	a1,5
     598:	01400513          	li	a0,20
     59c:	b71ff0ef          	jal	ra,10c <ludcmp>
     5a0:	00c12783          	lw	a5,12(sp)
     5a4:	76ad2023          	sw	a0,1888(s10) # 1760 <chkerr>
     5a8:	001b0b13          	addi	s6,s6,1
     5ac:	f76798e3          	bne	a5,s6,51c <benchmark_body+0x60>
     5b0:	04c12083          	lw	ra,76(sp)
     5b4:	04812403          	lw	s0,72(sp)
     5b8:	760d2503          	lw	a0,1888(s10)
     5bc:	04412483          	lw	s1,68(sp)
     5c0:	04012903          	lw	s2,64(sp)
     5c4:	03c12983          	lw	s3,60(sp)
     5c8:	03812a03          	lw	s4,56(sp)
     5cc:	03412a83          	lw	s5,52(sp)
     5d0:	03012b03          	lw	s6,48(sp)
     5d4:	02c12b83          	lw	s7,44(sp)
     5d8:	02812c03          	lw	s8,40(sp)
     5dc:	02412c83          	lw	s9,36(sp)
     5e0:	02012d03          	lw	s10,32(sp)
     5e4:	01c12d83          	lw	s11,28(sp)
     5e8:	05010113          	addi	sp,sp,80
     5ec:	00008067          	ret

000005f0 <warm_caches>:
     5f0:	ecdff06f          	j	4bc <benchmark_body>

000005f4 <benchmark>:
     5f4:	0001d537          	lui	a0,0x1d
     5f8:	a9850513          	addi	a0,a0,-1384 # 1ca98 <TOHOST_ADDR+0x1ace4>
     5fc:	ec1ff06f          	j	4bc <benchmark_body>

00000600 <initialise_board>:
     600:	00000513          	li	a0,0
     604:	00008067          	ret

00000608 <start_trigger>:
     608:	00000513          	li	a0,0
     60c:	00008067          	ret

00000610 <stop_trigger>:
     610:	00000513          	li	a0,0
     614:	00008067          	ret

00000618 <rand_beebs>:
     618:	000026b7          	lui	a3,0x2
     61c:	db06a703          	lw	a4,-592(a3) # 1db0 <seed>
     620:	00871793          	slli	a5,a4,0x8
     624:	40e787b3          	sub	a5,a5,a4
     628:	00379793          	slli	a5,a5,0x3
     62c:	00e787b3          	add	a5,a5,a4
     630:	00779793          	slli	a5,a5,0x7
     634:	00e787b3          	add	a5,a5,a4
     638:	00379793          	slli	a5,a5,0x3
     63c:	40e787b3          	sub	a5,a5,a4
     640:	00579513          	slli	a0,a5,0x5
     644:	00a78533          	add	a0,a5,a0
     648:	00251513          	slli	a0,a0,0x2
     64c:	40e50533          	sub	a0,a0,a4
     650:	00251513          	slli	a0,a0,0x2
     654:	000037b7          	lui	a5,0x3
     658:	00e50533          	add	a0,a0,a4
     65c:	03978793          	addi	a5,a5,57 # 3039 <TOHOST_ADDR+0x1285>
     660:	00f50533          	add	a0,a0,a5
     664:	00151513          	slli	a0,a0,0x1
     668:	00155513          	srli	a0,a0,0x1
     66c:	daa6a823          	sw	a0,-592(a3)
     670:	01055513          	srli	a0,a0,0x10
     674:	00008067          	ret

00000678 <srand_beebs>:
     678:	000027b7          	lui	a5,0x2
     67c:	daa7a823          	sw	a0,-592(a5) # 1db0 <seed>
     680:	00008067          	ret

00000684 <init_heap_beebs>:
     684:	000027b7          	lui	a5,0x2
     688:	00b505b3          	add	a1,a0,a1
     68c:	daa7a623          	sw	a0,-596(a5) # 1dac <heap_ptr>
     690:	000027b7          	lui	a5,0x2
     694:	dab7a423          	sw	a1,-600(a5) # 1da8 <heap_end>
     698:	000027b7          	lui	a5,0x2
     69c:	da07a223          	sw	zero,-604(a5) # 1da4 <heap_requested>
     6a0:	00008067          	ret

000006a4 <check_heap_beebs>:
     6a4:	000027b7          	lui	a5,0x2
     6a8:	da47a703          	lw	a4,-604(a5) # 1da4 <heap_requested>
     6ac:	000027b7          	lui	a5,0x2
     6b0:	da87a783          	lw	a5,-600(a5) # 1da8 <heap_end>
     6b4:	00e50533          	add	a0,a0,a4
     6b8:	00a7b533          	sltu	a0,a5,a0
     6bc:	00154513          	xori	a0,a0,1
     6c0:	00008067          	ret

000006c4 <malloc_beebs>:
     6c4:	000026b7          	lui	a3,0x2
     6c8:	da46a783          	lw	a5,-604(a3) # 1da4 <heap_requested>
     6cc:	00002637          	lui	a2,0x2
     6d0:	dac62703          	lw	a4,-596(a2) # 1dac <heap_ptr>
     6d4:	000025b7          	lui	a1,0x2
     6d8:	da85a583          	lw	a1,-600(a1) # 1da8 <heap_end>
     6dc:	00a787b3          	add	a5,a5,a0
     6e0:	daf6a223          	sw	a5,-604(a3)
     6e4:	00a707b3          	add	a5,a4,a0
     6e8:	00f5ea63          	bltu	a1,a5,6fc <malloc_beebs+0x38>
     6ec:	00050863          	beqz	a0,6fc <malloc_beebs+0x38>
     6f0:	daf62623          	sw	a5,-596(a2)
     6f4:	00070513          	mv	a0,a4
     6f8:	00008067          	ret
     6fc:	00000713          	li	a4,0
     700:	00070513          	mv	a0,a4
     704:	00008067          	ret

00000708 <calloc_beebs>:
     708:	ff010113          	addi	sp,sp,-16
     70c:	00112623          	sw	ra,12(sp)
     710:	351000ef          	jal	ra,1260 <__mulsi3>
     714:	000026b7          	lui	a3,0x2
     718:	da46a703          	lw	a4,-604(a3) # 1da4 <heap_requested>
     71c:	00002637          	lui	a2,0x2
     720:	dac62783          	lw	a5,-596(a2) # 1dac <heap_ptr>
     724:	000025b7          	lui	a1,0x2
     728:	da85a583          	lw	a1,-600(a1) # 1da8 <heap_end>
     72c:	00a70733          	add	a4,a4,a0
     730:	dae6a223          	sw	a4,-604(a3)
     734:	00a78733          	add	a4,a5,a0
     738:	02e5ea63          	bltu	a1,a4,76c <calloc_beebs+0x64>
     73c:	02050863          	beqz	a0,76c <calloc_beebs+0x64>
     740:	dae62623          	sw	a4,-596(a2)
     744:	00078c63          	beqz	a5,75c <calloc_beebs+0x54>
     748:	00050613          	mv	a2,a0
     74c:	00000593          	li	a1,0
     750:	00078513          	mv	a0,a5
     754:	4b9000ef          	jal	ra,140c <memset>
     758:	00050793          	mv	a5,a0
     75c:	00c12083          	lw	ra,12(sp)
     760:	00078513          	mv	a0,a5
     764:	01010113          	addi	sp,sp,16
     768:	00008067          	ret
     76c:	00c12083          	lw	ra,12(sp)
     770:	00000793          	li	a5,0
     774:	00078513          	mv	a0,a5
     778:	01010113          	addi	sp,sp,16
     77c:	00008067          	ret

00000780 <realloc_beebs>:
     780:	00002737          	lui	a4,0x2
     784:	da472783          	lw	a5,-604(a4) # 1da4 <heap_requested>
     788:	00002637          	lui	a2,0x2
     78c:	dac62683          	lw	a3,-596(a2) # 1dac <heap_ptr>
     790:	00002837          	lui	a6,0x2
     794:	da882803          	lw	a6,-600(a6) # 1da8 <heap_end>
     798:	00b787b3          	add	a5,a5,a1
     79c:	daf72223          	sw	a5,-604(a4)
     7a0:	00b687b3          	add	a5,a3,a1
     7a4:	02f86a63          	bltu	a6,a5,7d8 <realloc_beebs+0x58>
     7a8:	02058863          	beqz	a1,7d8 <realloc_beebs+0x58>
     7ac:	daf62623          	sw	a5,-596(a2)
     7b0:	02050063          	beqz	a0,7d0 <realloc_beebs+0x50>
     7b4:	00068793          	mv	a5,a3
     7b8:	00b505b3          	add	a1,a0,a1
     7bc:	00054703          	lbu	a4,0(a0)
     7c0:	00178793          	addi	a5,a5,1
     7c4:	00150513          	addi	a0,a0,1
     7c8:	fee78fa3          	sb	a4,-1(a5)
     7cc:	feb518e3          	bne	a0,a1,7bc <realloc_beebs+0x3c>
     7d0:	00068513          	mv	a0,a3
     7d4:	00008067          	ret
     7d8:	00000693          	li	a3,0
     7dc:	00068513          	mv	a0,a3
     7e0:	00008067          	ret

000007e4 <free_beebs>:
     7e4:	00008067          	ret

000007e8 <simrv_exit>:
     7e8:	000027b7          	lui	a5,0x2
     7ec:	db47a783          	lw	a5,-588(a5) # 1db4 <TOHOST_ADDR>
     7f0:	00020737          	lui	a4,0x20
     7f4:	00e7a023          	sw	a4,0(a5)
     7f8:	0000006f          	j	7f8 <simrv_exit+0x10>

000007fc <simrv_putc>:
     7fc:	000027b7          	lui	a5,0x2
     800:	db47a703          	lw	a4,-588(a5) # 1db4 <TOHOST_ADDR>
     804:	000107b7          	lui	a5,0x10
     808:	00f56533          	or	a0,a0,a5
     80c:	00a72023          	sw	a0,0(a4) # 20000 <TOHOST_ADDR+0x1e24c>
     810:	00008067          	ret

00000814 <simrv_puts>:
     814:	00054783          	lbu	a5,0(a0)
     818:	02078263          	beqz	a5,83c <simrv_puts+0x28>
     81c:	00002737          	lui	a4,0x2
     820:	db472683          	lw	a3,-588(a4) # 1db4 <TOHOST_ADDR>
     824:	00010737          	lui	a4,0x10
     828:	00e7e7b3          	or	a5,a5,a4
     82c:	00f6a023          	sw	a5,0(a3)
     830:	00150513          	addi	a0,a0,1
     834:	00054783          	lbu	a5,0(a0)
     838:	fe0798e3          	bnez	a5,828 <simrv_puts+0x14>
     83c:	00008067          	ret

00000840 <simrv_puti>:
     840:	fd010113          	addi	sp,sp,-48
     844:	02912223          	sw	s1,36(sp)
     848:	03212023          	sw	s2,32(sp)
     84c:	01412c23          	sw	s4,24(sp)
     850:	02112623          	sw	ra,44(sp)
     854:	02812423          	sw	s0,40(sp)
     858:	01312e23          	sw	s3,28(sp)
     85c:	00050913          	mv	s2,a0
     860:	00000493          	li	s1,0
     864:	00410a13          	addi	s4,sp,4
     868:	0080006f          	j	870 <simrv_puti+0x30>
     86c:	00098493          	mv	s1,s3
     870:	00a00593          	li	a1,10
     874:	00090513          	mv	a0,s2
     878:	291000ef          	jal	ra,1308 <__modsi3>
     87c:	03050513          	addi	a0,a0,48
     880:	00148993          	addi	s3,s1,1
     884:	0ff57413          	andi	s0,a0,255
     888:	013a07b3          	add	a5,s4,s3
     88c:	00090513          	mv	a0,s2
     890:	00a00593          	li	a1,10
     894:	fe878fa3          	sb	s0,-1(a5) # ffff <TOHOST_ADDR+0xe24b>
     898:	1ed000ef          	jal	ra,1284 <__divsi3>
     89c:	00050913          	mv	s2,a0
     8a0:	fc0516e3          	bnez	a0,86c <simrv_puti+0x2c>
     8a4:	000027b7          	lui	a5,0x2
     8a8:	db47a603          	lw	a2,-588(a5) # 1db4 <TOHOST_ADDR>
     8ac:	000106b7          	lui	a3,0x10
     8b0:	009a07b3          	add	a5,s4,s1
     8b4:	00c0006f          	j	8c0 <simrv_puti+0x80>
     8b8:	fff7c403          	lbu	s0,-1(a5)
     8bc:	00070793          	mv	a5,a4
     8c0:	00d46433          	or	s0,s0,a3
     8c4:	00862023          	sw	s0,0(a2)
     8c8:	fff78713          	addi	a4,a5,-1
     8cc:	fefa16e3          	bne	s4,a5,8b8 <simrv_puti+0x78>
     8d0:	02c12083          	lw	ra,44(sp)
     8d4:	02812403          	lw	s0,40(sp)
     8d8:	02412483          	lw	s1,36(sp)
     8dc:	02012903          	lw	s2,32(sp)
     8e0:	01c12983          	lw	s3,28(sp)
     8e4:	01812a03          	lw	s4,24(sp)
     8e8:	03010113          	addi	sp,sp,48
     8ec:	00008067          	ret

000008f0 <simrv_puth>:
     8f0:	ff010113          	addi	sp,sp,-16
     8f4:	00000793          	li	a5,0
     8f8:	00810593          	addi	a1,sp,8
     8fc:	00900e13          	li	t3,9
     900:	0140006f          	j	914 <simrv_puth+0x24>
     904:	fe688fa3          	sb	t1,-1(a7)
     908:	00455513          	srli	a0,a0,0x4
     90c:	02050863          	beqz	a0,93c <simrv_puth+0x4c>
     910:	00060793          	mv	a5,a2
     914:	00f57713          	andi	a4,a0,15
     918:	0ff77693          	andi	a3,a4,255
     91c:	00178613          	addi	a2,a5,1
     920:	03068313          	addi	t1,a3,48 # 10030 <TOHOST_ADDR+0xe27c>
     924:	00c588b3          	add	a7,a1,a2
     928:	03768693          	addi	a3,a3,55
     92c:	fcee7ce3          	bgeu	t3,a4,904 <simrv_puth+0x14>
     930:	fed88fa3          	sb	a3,-1(a7)
     934:	00455513          	srli	a0,a0,0x4
     938:	fc051ce3          	bnez	a0,910 <simrv_puth+0x20>
     93c:	0207c863          	bltz	a5,96c <simrv_puth+0x7c>
     940:	00002737          	lui	a4,0x2
     944:	db472503          	lw	a0,-588(a4) # 1db4 <TOHOST_ADDR>
     948:	00f587b3          	add	a5,a1,a5
     94c:	00010637          	lui	a2,0x10
     950:	0080006f          	j	958 <simrv_puth+0x68>
     954:	00068793          	mv	a5,a3
     958:	0007c703          	lbu	a4,0(a5)
     95c:	fff78693          	addi	a3,a5,-1
     960:	00c76733          	or	a4,a4,a2
     964:	00e52023          	sw	a4,0(a0)
     968:	fef596e3          	bne	a1,a5,954 <simrv_puth+0x64>
     96c:	01010113          	addi	sp,sp,16
     970:	00008067          	ret

00000974 <__adddf3>:
     974:	00100837          	lui	a6,0x100
     978:	fff80813          	addi	a6,a6,-1 # fffff <TOHOST_ADDR+0xfe24b>
     97c:	00b878b3          	and	a7,a6,a1
     980:	00389893          	slli	a7,a7,0x3
     984:	01d55793          	srli	a5,a0,0x1d
     988:	fe010113          	addi	sp,sp,-32
     98c:	0145d713          	srli	a4,a1,0x14
     990:	00d87833          	and	a6,a6,a3
     994:	0117e7b3          	or	a5,a5,a7
     998:	0146d893          	srli	a7,a3,0x14
     99c:	00381813          	slli	a6,a6,0x3
     9a0:	00912a23          	sw	s1,20(sp)
     9a4:	01212823          	sw	s2,16(sp)
     9a8:	7ff77493          	andi	s1,a4,2047
     9ac:	7ff8f893          	andi	a7,a7,2047
     9b0:	01d65713          	srli	a4,a2,0x1d
     9b4:	00112e23          	sw	ra,28(sp)
     9b8:	00812c23          	sw	s0,24(sp)
     9bc:	01312623          	sw	s3,12(sp)
     9c0:	01f5d913          	srli	s2,a1,0x1f
     9c4:	01f6d693          	srli	a3,a3,0x1f
     9c8:	01076733          	or	a4,a4,a6
     9cc:	00351513          	slli	a0,a0,0x3
     9d0:	00361613          	slli	a2,a2,0x3
     9d4:	41148833          	sub	a6,s1,a7
     9d8:	2cd91463          	bne	s2,a3,ca0 <__adddf3+0x32c>
     9dc:	11005e63          	blez	a6,af8 <__adddf3+0x184>
     9e0:	04089063          	bnez	a7,a20 <__adddf3+0xac>
     9e4:	00c766b3          	or	a3,a4,a2
     9e8:	70068063          	beqz	a3,10e8 <__adddf3+0x774>
     9ec:	fff80593          	addi	a1,a6,-1
     9f0:	02059063          	bnez	a1,a10 <__adddf3+0x9c>
     9f4:	00c50633          	add	a2,a0,a2
     9f8:	00a63533          	sltu	a0,a2,a0
     9fc:	00e787b3          	add	a5,a5,a4
     a00:	00a787b3          	add	a5,a5,a0
     a04:	00060513          	mv	a0,a2
     a08:	00100493          	li	s1,1
     a0c:	0700006f          	j	a7c <__adddf3+0x108>
     a10:	7ff00693          	li	a3,2047
     a14:	02d81063          	bne	a6,a3,a34 <__adddf3+0xc0>
     a18:	7ff00493          	li	s1,2047
     a1c:	20c0006f          	j	c28 <__adddf3+0x2b4>
     a20:	7ff00693          	li	a3,2047
     a24:	20d48263          	beq	s1,a3,c28 <__adddf3+0x2b4>
     a28:	008006b7          	lui	a3,0x800
     a2c:	00d76733          	or	a4,a4,a3
     a30:	00080593          	mv	a1,a6
     a34:	03800693          	li	a3,56
     a38:	0ab6ca63          	blt	a3,a1,aec <__adddf3+0x178>
     a3c:	01f00693          	li	a3,31
     a40:	06b6cc63          	blt	a3,a1,ab8 <__adddf3+0x144>
     a44:	02000813          	li	a6,32
     a48:	40b80833          	sub	a6,a6,a1
     a4c:	010716b3          	sll	a3,a4,a6
     a50:	00b658b3          	srl	a7,a2,a1
     a54:	01061633          	sll	a2,a2,a6
     a58:	0116e6b3          	or	a3,a3,a7
     a5c:	00c03633          	snez	a2,a2
     a60:	00c6e633          	or	a2,a3,a2
     a64:	00b75733          	srl	a4,a4,a1
     a68:	00a60633          	add	a2,a2,a0
     a6c:	00f70733          	add	a4,a4,a5
     a70:	00a637b3          	sltu	a5,a2,a0
     a74:	00f707b3          	add	a5,a4,a5
     a78:	00060513          	mv	a0,a2
     a7c:	00879713          	slli	a4,a5,0x8
     a80:	1a075463          	bgez	a4,c28 <__adddf3+0x2b4>
     a84:	00148493          	addi	s1,s1,1
     a88:	7ff00713          	li	a4,2047
     a8c:	5ce48463          	beq	s1,a4,1054 <__adddf3+0x6e0>
     a90:	ff8006b7          	lui	a3,0xff800
     a94:	fff68693          	addi	a3,a3,-1 # ff7fffff <TOHOST_ADDR+0xff7fe24b>
     a98:	00d7f6b3          	and	a3,a5,a3
     a9c:	00155593          	srli	a1,a0,0x1
     aa0:	00157513          	andi	a0,a0,1
     aa4:	01f69793          	slli	a5,a3,0x1f
     aa8:	00a5e533          	or	a0,a1,a0
     aac:	00a7e533          	or	a0,a5,a0
     ab0:	0016d793          	srli	a5,a3,0x1
     ab4:	1740006f          	j	c28 <__adddf3+0x2b4>
     ab8:	fe058693          	addi	a3,a1,-32
     abc:	02000893          	li	a7,32
     ac0:	00d756b3          	srl	a3,a4,a3
     ac4:	00000813          	li	a6,0
     ac8:	01158863          	beq	a1,a7,ad8 <__adddf3+0x164>
     acc:	04000813          	li	a6,64
     ad0:	40b805b3          	sub	a1,a6,a1
     ad4:	00b71833          	sll	a6,a4,a1
     ad8:	00c86633          	or	a2,a6,a2
     adc:	00c03633          	snez	a2,a2
     ae0:	00c6e633          	or	a2,a3,a2
     ae4:	00000713          	li	a4,0
     ae8:	f81ff06f          	j	a68 <__adddf3+0xf4>
     aec:	00c76633          	or	a2,a4,a2
     af0:	00c03633          	snez	a2,a2
     af4:	ff1ff06f          	j	ae4 <__adddf3+0x170>
     af8:	0e080263          	beqz	a6,bdc <__adddf3+0x268>
     afc:	409885b3          	sub	a1,a7,s1
     b00:	02049e63          	bnez	s1,b3c <__adddf3+0x1c8>
     b04:	00a7e6b3          	or	a3,a5,a0
     b08:	52068663          	beqz	a3,1034 <__adddf3+0x6c0>
     b0c:	fff58693          	addi	a3,a1,-1
     b10:	00069c63          	bnez	a3,b28 <__adddf3+0x1b4>
     b14:	00c50533          	add	a0,a0,a2
     b18:	00e787b3          	add	a5,a5,a4
     b1c:	00c53633          	sltu	a2,a0,a2
     b20:	00c787b3          	add	a5,a5,a2
     b24:	ee5ff06f          	j	a08 <__adddf3+0x94>
     b28:	7ff00813          	li	a6,2047
     b2c:	03059263          	bne	a1,a6,b50 <__adddf3+0x1dc>
     b30:	00070793          	mv	a5,a4
     b34:	00060513          	mv	a0,a2
     b38:	ee1ff06f          	j	a18 <__adddf3+0xa4>
     b3c:	7ff00693          	li	a3,2047
     b40:	fed888e3          	beq	a7,a3,b30 <__adddf3+0x1bc>
     b44:	008006b7          	lui	a3,0x800
     b48:	00d7e7b3          	or	a5,a5,a3
     b4c:	00058693          	mv	a3,a1
     b50:	03800593          	li	a1,56
     b54:	06d5ce63          	blt	a1,a3,bd0 <__adddf3+0x25c>
     b58:	01f00593          	li	a1,31
     b5c:	04d5c063          	blt	a1,a3,b9c <__adddf3+0x228>
     b60:	02000813          	li	a6,32
     b64:	40d80833          	sub	a6,a6,a3
     b68:	00d55333          	srl	t1,a0,a3
     b6c:	010795b3          	sll	a1,a5,a6
     b70:	01051533          	sll	a0,a0,a6
     b74:	0065e5b3          	or	a1,a1,t1
     b78:	00a03533          	snez	a0,a0
     b7c:	00a5e533          	or	a0,a1,a0
     b80:	00d7d6b3          	srl	a3,a5,a3
     b84:	00c50533          	add	a0,a0,a2
     b88:	00e687b3          	add	a5,a3,a4
     b8c:	00c53633          	sltu	a2,a0,a2
     b90:	00c787b3          	add	a5,a5,a2
     b94:	00088493          	mv	s1,a7
     b98:	ee5ff06f          	j	a7c <__adddf3+0x108>
     b9c:	fe068593          	addi	a1,a3,-32 # 7fffe0 <TOHOST_ADDR+0x7fe22c>
     ba0:	02000313          	li	t1,32
     ba4:	00b7d5b3          	srl	a1,a5,a1
     ba8:	00000813          	li	a6,0
     bac:	00668863          	beq	a3,t1,bbc <__adddf3+0x248>
     bb0:	04000813          	li	a6,64
     bb4:	40d806b3          	sub	a3,a6,a3
     bb8:	00d79833          	sll	a6,a5,a3
     bbc:	00a86533          	or	a0,a6,a0
     bc0:	00a03533          	snez	a0,a0
     bc4:	00a5e533          	or	a0,a1,a0
     bc8:	00000693          	li	a3,0
     bcc:	fb9ff06f          	j	b84 <__adddf3+0x210>
     bd0:	00a7e533          	or	a0,a5,a0
     bd4:	00a03533          	snez	a0,a0
     bd8:	ff1ff06f          	j	bc8 <__adddf3+0x254>
     bdc:	00148693          	addi	a3,s1,1
     be0:	7fe6f593          	andi	a1,a3,2046
     be4:	08059663          	bnez	a1,c70 <__adddf3+0x2fc>
     be8:	00a7e6b3          	or	a3,a5,a0
     bec:	06049263          	bnez	s1,c50 <__adddf3+0x2dc>
     bf0:	44068a63          	beqz	a3,1044 <__adddf3+0x6d0>
     bf4:	00c766b3          	or	a3,a4,a2
     bf8:	02068863          	beqz	a3,c28 <__adddf3+0x2b4>
     bfc:	00c50633          	add	a2,a0,a2
     c00:	00e787b3          	add	a5,a5,a4
     c04:	00a63533          	sltu	a0,a2,a0
     c08:	00a787b3          	add	a5,a5,a0
     c0c:	00879713          	slli	a4,a5,0x8
     c10:	00060513          	mv	a0,a2
     c14:	00075a63          	bgez	a4,c28 <__adddf3+0x2b4>
     c18:	ff800737          	lui	a4,0xff800
     c1c:	fff70713          	addi	a4,a4,-1 # ff7fffff <TOHOST_ADDR+0xff7fe24b>
     c20:	00e7f7b3          	and	a5,a5,a4
     c24:	00100493          	li	s1,1
     c28:	00757713          	andi	a4,a0,7
     c2c:	42070863          	beqz	a4,105c <__adddf3+0x6e8>
     c30:	00f57713          	andi	a4,a0,15
     c34:	00400693          	li	a3,4
     c38:	42d70263          	beq	a4,a3,105c <__adddf3+0x6e8>
     c3c:	00450693          	addi	a3,a0,4
     c40:	00a6b533          	sltu	a0,a3,a0
     c44:	00a787b3          	add	a5,a5,a0
     c48:	00068513          	mv	a0,a3
     c4c:	4100006f          	j	105c <__adddf3+0x6e8>
     c50:	ee0680e3          	beqz	a3,b30 <__adddf3+0x1bc>
     c54:	00c76633          	or	a2,a4,a2
     c58:	dc0600e3          	beqz	a2,a18 <__adddf3+0xa4>
     c5c:	00000913          	li	s2,0
     c60:	004007b7          	lui	a5,0x400
     c64:	00000513          	li	a0,0
     c68:	7ff00493          	li	s1,2047
     c6c:	3f00006f          	j	105c <__adddf3+0x6e8>
     c70:	7ff00593          	li	a1,2047
     c74:	3cb68e63          	beq	a3,a1,1050 <__adddf3+0x6dc>
     c78:	00c50633          	add	a2,a0,a2
     c7c:	00e78733          	add	a4,a5,a4
     c80:	00a637b3          	sltu	a5,a2,a0
     c84:	00f70733          	add	a4,a4,a5
     c88:	01f71513          	slli	a0,a4,0x1f
     c8c:	00165613          	srli	a2,a2,0x1
     c90:	00c56533          	or	a0,a0,a2
     c94:	00175793          	srli	a5,a4,0x1
     c98:	00068493          	mv	s1,a3
     c9c:	f8dff06f          	j	c28 <__adddf3+0x2b4>
     ca0:	0f005c63          	blez	a6,d98 <__adddf3+0x424>
     ca4:	08089e63          	bnez	a7,d40 <__adddf3+0x3cc>
     ca8:	00c766b3          	or	a3,a4,a2
     cac:	42068e63          	beqz	a3,10e8 <__adddf3+0x774>
     cb0:	fff80593          	addi	a1,a6,-1
     cb4:	02059063          	bnez	a1,cd4 <__adddf3+0x360>
     cb8:	40c50633          	sub	a2,a0,a2
     cbc:	00c53533          	sltu	a0,a0,a2
     cc0:	40e787b3          	sub	a5,a5,a4
     cc4:	40a787b3          	sub	a5,a5,a0
     cc8:	00060513          	mv	a0,a2
     ccc:	00100493          	li	s1,1
     cd0:	0540006f          	j	d24 <__adddf3+0x3b0>
     cd4:	7ff00693          	li	a3,2047
     cd8:	d4d800e3          	beq	a6,a3,a18 <__adddf3+0xa4>
     cdc:	03800693          	li	a3,56
     ce0:	0ab6c663          	blt	a3,a1,d8c <__adddf3+0x418>
     ce4:	01f00693          	li	a3,31
     ce8:	06b6c863          	blt	a3,a1,d58 <__adddf3+0x3e4>
     cec:	02000813          	li	a6,32
     cf0:	40b80833          	sub	a6,a6,a1
     cf4:	010716b3          	sll	a3,a4,a6
     cf8:	00b658b3          	srl	a7,a2,a1
     cfc:	01061633          	sll	a2,a2,a6
     d00:	0116e6b3          	or	a3,a3,a7
     d04:	00c03633          	snez	a2,a2
     d08:	00c6e633          	or	a2,a3,a2
     d0c:	00b75733          	srl	a4,a4,a1
     d10:	40c50633          	sub	a2,a0,a2
     d14:	40e78733          	sub	a4,a5,a4
     d18:	00c537b3          	sltu	a5,a0,a2
     d1c:	40f707b3          	sub	a5,a4,a5
     d20:	00060513          	mv	a0,a2
     d24:	00879713          	slli	a4,a5,0x8
     d28:	f00750e3          	bgez	a4,c28 <__adddf3+0x2b4>
     d2c:	00800437          	lui	s0,0x800
     d30:	fff40413          	addi	s0,s0,-1 # 7fffff <TOHOST_ADDR+0x7fe24b>
     d34:	0087f433          	and	s0,a5,s0
     d38:	00050993          	mv	s3,a0
     d3c:	20c0006f          	j	f48 <__adddf3+0x5d4>
     d40:	7ff00693          	li	a3,2047
     d44:	eed482e3          	beq	s1,a3,c28 <__adddf3+0x2b4>
     d48:	008006b7          	lui	a3,0x800
     d4c:	00d76733          	or	a4,a4,a3
     d50:	00080593          	mv	a1,a6
     d54:	f89ff06f          	j	cdc <__adddf3+0x368>
     d58:	fe058693          	addi	a3,a1,-32
     d5c:	02000893          	li	a7,32
     d60:	00d756b3          	srl	a3,a4,a3
     d64:	00000813          	li	a6,0
     d68:	01158863          	beq	a1,a7,d78 <__adddf3+0x404>
     d6c:	04000813          	li	a6,64
     d70:	40b805b3          	sub	a1,a6,a1
     d74:	00b71833          	sll	a6,a4,a1
     d78:	00c86633          	or	a2,a6,a2
     d7c:	00c03633          	snez	a2,a2
     d80:	00c6e633          	or	a2,a3,a2
     d84:	00000713          	li	a4,0
     d88:	f89ff06f          	j	d10 <__adddf3+0x39c>
     d8c:	00c76633          	or	a2,a4,a2
     d90:	00c03633          	snez	a2,a2
     d94:	ff1ff06f          	j	d84 <__adddf3+0x410>
     d98:	0e080863          	beqz	a6,e88 <__adddf3+0x514>
     d9c:	40988833          	sub	a6,a7,s1
     da0:	04049263          	bnez	s1,de4 <__adddf3+0x470>
     da4:	00a7e5b3          	or	a1,a5,a0
     da8:	34058463          	beqz	a1,10f0 <__adddf3+0x77c>
     dac:	fff80593          	addi	a1,a6,-1
     db0:	00059e63          	bnez	a1,dcc <__adddf3+0x458>
     db4:	40a60533          	sub	a0,a2,a0
     db8:	40f707b3          	sub	a5,a4,a5
     dbc:	00a63633          	sltu	a2,a2,a0
     dc0:	40c787b3          	sub	a5,a5,a2
     dc4:	00068913          	mv	s2,a3
     dc8:	f05ff06f          	j	ccc <__adddf3+0x358>
     dcc:	7ff00313          	li	t1,2047
     dd0:	02681463          	bne	a6,t1,df8 <__adddf3+0x484>
     dd4:	00070793          	mv	a5,a4
     dd8:	00060513          	mv	a0,a2
     ddc:	7ff00493          	li	s1,2047
     de0:	0d00006f          	j	eb0 <__adddf3+0x53c>
     de4:	7ff00593          	li	a1,2047
     de8:	feb886e3          	beq	a7,a1,dd4 <__adddf3+0x460>
     dec:	008005b7          	lui	a1,0x800
     df0:	00b7e7b3          	or	a5,a5,a1
     df4:	00080593          	mv	a1,a6
     df8:	03800813          	li	a6,56
     dfc:	08b84063          	blt	a6,a1,e7c <__adddf3+0x508>
     e00:	01f00813          	li	a6,31
     e04:	04b84263          	blt	a6,a1,e48 <__adddf3+0x4d4>
     e08:	02000313          	li	t1,32
     e0c:	40b30333          	sub	t1,t1,a1
     e10:	00b55e33          	srl	t3,a0,a1
     e14:	00679833          	sll	a6,a5,t1
     e18:	00651533          	sll	a0,a0,t1
     e1c:	01c86833          	or	a6,a6,t3
     e20:	00a03533          	snez	a0,a0
     e24:	00a86533          	or	a0,a6,a0
     e28:	00b7d5b3          	srl	a1,a5,a1
     e2c:	40a60533          	sub	a0,a2,a0
     e30:	40b707b3          	sub	a5,a4,a1
     e34:	00a63633          	sltu	a2,a2,a0
     e38:	40c787b3          	sub	a5,a5,a2
     e3c:	00088493          	mv	s1,a7
     e40:	00068913          	mv	s2,a3
     e44:	ee1ff06f          	j	d24 <__adddf3+0x3b0>
     e48:	fe058813          	addi	a6,a1,-32 # 7fffe0 <TOHOST_ADDR+0x7fe22c>
     e4c:	02000e13          	li	t3,32
     e50:	0107d833          	srl	a6,a5,a6
     e54:	00000313          	li	t1,0
     e58:	01c58863          	beq	a1,t3,e68 <__adddf3+0x4f4>
     e5c:	04000313          	li	t1,64
     e60:	40b305b3          	sub	a1,t1,a1
     e64:	00b79333          	sll	t1,a5,a1
     e68:	00a36533          	or	a0,t1,a0
     e6c:	00a03533          	snez	a0,a0
     e70:	00a86533          	or	a0,a6,a0
     e74:	00000593          	li	a1,0
     e78:	fb5ff06f          	j	e2c <__adddf3+0x4b8>
     e7c:	00a7e533          	or	a0,a5,a0
     e80:	00a03533          	snez	a0,a0
     e84:	ff1ff06f          	j	e74 <__adddf3+0x500>
     e88:	00148593          	addi	a1,s1,1
     e8c:	7fe5f593          	andi	a1,a1,2046
     e90:	08059663          	bnez	a1,f1c <__adddf3+0x5a8>
     e94:	00a7e833          	or	a6,a5,a0
     e98:	00c765b3          	or	a1,a4,a2
     e9c:	06049063          	bnez	s1,efc <__adddf3+0x588>
     ea0:	00081c63          	bnez	a6,eb8 <__adddf3+0x544>
     ea4:	24058e63          	beqz	a1,1100 <__adddf3+0x78c>
     ea8:	00070793          	mv	a5,a4
     eac:	00060513          	mv	a0,a2
     eb0:	00068913          	mv	s2,a3
     eb4:	d75ff06f          	j	c28 <__adddf3+0x2b4>
     eb8:	d60588e3          	beqz	a1,c28 <__adddf3+0x2b4>
     ebc:	40c50833          	sub	a6,a0,a2
     ec0:	010538b3          	sltu	a7,a0,a6
     ec4:	40e785b3          	sub	a1,a5,a4
     ec8:	411585b3          	sub	a1,a1,a7
     ecc:	00859893          	slli	a7,a1,0x8
     ed0:	0008dc63          	bgez	a7,ee8 <__adddf3+0x574>
     ed4:	40a60533          	sub	a0,a2,a0
     ed8:	40f707b3          	sub	a5,a4,a5
     edc:	00a63633          	sltu	a2,a2,a0
     ee0:	40c787b3          	sub	a5,a5,a2
     ee4:	fcdff06f          	j	eb0 <__adddf3+0x53c>
     ee8:	00b86533          	or	a0,a6,a1
     eec:	22050263          	beqz	a0,1110 <__adddf3+0x79c>
     ef0:	00058793          	mv	a5,a1
     ef4:	00080513          	mv	a0,a6
     ef8:	d31ff06f          	j	c28 <__adddf3+0x2b4>
     efc:	00081c63          	bnez	a6,f14 <__adddf3+0x5a0>
     f00:	20058c63          	beqz	a1,1118 <__adddf3+0x7a4>
     f04:	00070793          	mv	a5,a4
     f08:	00060513          	mv	a0,a2
     f0c:	00068913          	mv	s2,a3
     f10:	b09ff06f          	j	a18 <__adddf3+0xa4>
     f14:	b00582e3          	beqz	a1,a18 <__adddf3+0xa4>
     f18:	d45ff06f          	j	c5c <__adddf3+0x2e8>
     f1c:	40c509b3          	sub	s3,a0,a2
     f20:	013535b3          	sltu	a1,a0,s3
     f24:	40e78433          	sub	s0,a5,a4
     f28:	40b40433          	sub	s0,s0,a1
     f2c:	00841593          	slli	a1,s0,0x8
     f30:	0805d463          	bgez	a1,fb8 <__adddf3+0x644>
     f34:	40a609b3          	sub	s3,a2,a0
     f38:	40f707b3          	sub	a5,a4,a5
     f3c:	01363633          	sltu	a2,a2,s3
     f40:	40c78433          	sub	s0,a5,a2
     f44:	00068913          	mv	s2,a3
     f48:	08040263          	beqz	s0,fcc <__adddf3+0x658>
     f4c:	00040513          	mv	a0,s0
     f50:	3e8000ef          	jal	ra,1338 <__clzsi2>
     f54:	ff850713          	addi	a4,a0,-8
     f58:	01f00793          	li	a5,31
     f5c:	08e7c063          	blt	a5,a4,fdc <__adddf3+0x668>
     f60:	02000793          	li	a5,32
     f64:	40e787b3          	sub	a5,a5,a4
     f68:	00e41433          	sll	s0,s0,a4
     f6c:	00f9d7b3          	srl	a5,s3,a5
     f70:	0087e433          	or	s0,a5,s0
     f74:	00e99533          	sll	a0,s3,a4
     f78:	0a974463          	blt	a4,s1,1020 <__adddf3+0x6ac>
     f7c:	40970733          	sub	a4,a4,s1
     f80:	00170793          	addi	a5,a4,1
     f84:	01f00693          	li	a3,31
     f88:	06f6c263          	blt	a3,a5,fec <__adddf3+0x678>
     f8c:	02000713          	li	a4,32
     f90:	40f70733          	sub	a4,a4,a5
     f94:	00f55633          	srl	a2,a0,a5
     f98:	00e416b3          	sll	a3,s0,a4
     f9c:	00e51533          	sll	a0,a0,a4
     fa0:	00c6e6b3          	or	a3,a3,a2
     fa4:	00a03533          	snez	a0,a0
     fa8:	00a6e533          	or	a0,a3,a0
     fac:	00f457b3          	srl	a5,s0,a5
     fb0:	00000493          	li	s1,0
     fb4:	c75ff06f          	j	c28 <__adddf3+0x2b4>
     fb8:	0089e533          	or	a0,s3,s0
     fbc:	f80516e3          	bnez	a0,f48 <__adddf3+0x5d4>
     fc0:	00000793          	li	a5,0
     fc4:	00000493          	li	s1,0
     fc8:	1400006f          	j	1108 <__adddf3+0x794>
     fcc:	00098513          	mv	a0,s3
     fd0:	368000ef          	jal	ra,1338 <__clzsi2>
     fd4:	02050513          	addi	a0,a0,32
     fd8:	f7dff06f          	j	f54 <__adddf3+0x5e0>
     fdc:	fd850413          	addi	s0,a0,-40
     fe0:	00899433          	sll	s0,s3,s0
     fe4:	00000513          	li	a0,0
     fe8:	f91ff06f          	j	f78 <__adddf3+0x604>
     fec:	fe170713          	addi	a4,a4,-31
     ff0:	02000613          	li	a2,32
     ff4:	00e45733          	srl	a4,s0,a4
     ff8:	00000693          	li	a3,0
     ffc:	00c78863          	beq	a5,a2,100c <__adddf3+0x698>
    1000:	04000693          	li	a3,64
    1004:	40f686b3          	sub	a3,a3,a5
    1008:	00d416b3          	sll	a3,s0,a3
    100c:	00d56533          	or	a0,a0,a3
    1010:	00a03533          	snez	a0,a0
    1014:	00a76533          	or	a0,a4,a0
    1018:	00000793          	li	a5,0
    101c:	f95ff06f          	j	fb0 <__adddf3+0x63c>
    1020:	ff8007b7          	lui	a5,0xff800
    1024:	fff78793          	addi	a5,a5,-1 # ff7fffff <TOHOST_ADDR+0xff7fe24b>
    1028:	40e484b3          	sub	s1,s1,a4
    102c:	00f477b3          	and	a5,s0,a5
    1030:	bf9ff06f          	j	c28 <__adddf3+0x2b4>
    1034:	00070793          	mv	a5,a4
    1038:	00060513          	mv	a0,a2
    103c:	00058493          	mv	s1,a1
    1040:	be9ff06f          	j	c28 <__adddf3+0x2b4>
    1044:	00070793          	mv	a5,a4
    1048:	00060513          	mv	a0,a2
    104c:	bddff06f          	j	c28 <__adddf3+0x2b4>
    1050:	7ff00493          	li	s1,2047
    1054:	00000793          	li	a5,0
    1058:	00000513          	li	a0,0
    105c:	00879713          	slli	a4,a5,0x8
    1060:	00075e63          	bgez	a4,107c <__adddf3+0x708>
    1064:	00148493          	addi	s1,s1,1
    1068:	7ff00713          	li	a4,2047
    106c:	0ae48e63          	beq	s1,a4,1128 <__adddf3+0x7b4>
    1070:	ff800737          	lui	a4,0xff800
    1074:	fff70713          	addi	a4,a4,-1 # ff7fffff <TOHOST_ADDR+0xff7fe24b>
    1078:	00e7f7b3          	and	a5,a5,a4
    107c:	01d79713          	slli	a4,a5,0x1d
    1080:	00355513          	srli	a0,a0,0x3
    1084:	00a76533          	or	a0,a4,a0
    1088:	7ff00713          	li	a4,2047
    108c:	0037d793          	srli	a5,a5,0x3
    1090:	00e49e63          	bne	s1,a4,10ac <__adddf3+0x738>
    1094:	00f56533          	or	a0,a0,a5
    1098:	00000793          	li	a5,0
    109c:	00050863          	beqz	a0,10ac <__adddf3+0x738>
    10a0:	000807b7          	lui	a5,0x80
    10a4:	00000513          	li	a0,0
    10a8:	00000913          	li	s2,0
    10ac:	7ff4f713          	andi	a4,s1,2047
    10b0:	00c79793          	slli	a5,a5,0xc
    10b4:	01471713          	slli	a4,a4,0x14
    10b8:	01c12083          	lw	ra,28(sp)
    10bc:	01812403          	lw	s0,24(sp)
    10c0:	00c7d793          	srli	a5,a5,0xc
    10c4:	01f91593          	slli	a1,s2,0x1f
    10c8:	00e7e7b3          	or	a5,a5,a4
    10cc:	00b7e733          	or	a4,a5,a1
    10d0:	01412483          	lw	s1,20(sp)
    10d4:	01012903          	lw	s2,16(sp)
    10d8:	00c12983          	lw	s3,12(sp)
    10dc:	00070593          	mv	a1,a4
    10e0:	02010113          	addi	sp,sp,32
    10e4:	00008067          	ret
    10e8:	00080493          	mv	s1,a6
    10ec:	b3dff06f          	j	c28 <__adddf3+0x2b4>
    10f0:	00070793          	mv	a5,a4
    10f4:	00060513          	mv	a0,a2
    10f8:	00080493          	mv	s1,a6
    10fc:	db5ff06f          	j	eb0 <__adddf3+0x53c>
    1100:	00000793          	li	a5,0
    1104:	00000513          	li	a0,0
    1108:	00000913          	li	s2,0
    110c:	f51ff06f          	j	105c <__adddf3+0x6e8>
    1110:	00000793          	li	a5,0
    1114:	ff5ff06f          	j	1108 <__adddf3+0x794>
    1118:	00000513          	li	a0,0
    111c:	00000913          	li	s2,0
    1120:	004007b7          	lui	a5,0x400
    1124:	b45ff06f          	j	c68 <__adddf3+0x2f4>
    1128:	00000793          	li	a5,0
    112c:	00000513          	li	a0,0
    1130:	f4dff06f          	j	107c <__adddf3+0x708>

00001134 <__fixdfsi>:
    1134:	0145d713          	srli	a4,a1,0x14
    1138:	001006b7          	lui	a3,0x100
    113c:	fff68793          	addi	a5,a3,-1 # fffff <TOHOST_ADDR+0xfe24b>
    1140:	7ff77713          	andi	a4,a4,2047
    1144:	3fe00613          	li	a2,1022
    1148:	00b7f7b3          	and	a5,a5,a1
    114c:	01f5d593          	srli	a1,a1,0x1f
    1150:	04e65e63          	bge	a2,a4,11ac <__fixdfsi+0x78>
    1154:	41d00613          	li	a2,1053
    1158:	00e65a63          	bge	a2,a4,116c <__fixdfsi+0x38>
    115c:	80000537          	lui	a0,0x80000
    1160:	fff54513          	not	a0,a0
    1164:	00a58533          	add	a0,a1,a0
    1168:	00008067          	ret
    116c:	00d7e7b3          	or	a5,a5,a3
    1170:	43300693          	li	a3,1075
    1174:	40e686b3          	sub	a3,a3,a4
    1178:	01f00613          	li	a2,31
    117c:	02d64063          	blt	a2,a3,119c <__fixdfsi+0x68>
    1180:	bed70713          	addi	a4,a4,-1043
    1184:	00e797b3          	sll	a5,a5,a4
    1188:	00d55533          	srl	a0,a0,a3
    118c:	00a7e533          	or	a0,a5,a0
    1190:	02058063          	beqz	a1,11b0 <__fixdfsi+0x7c>
    1194:	40a00533          	neg	a0,a0
    1198:	00008067          	ret
    119c:	41300513          	li	a0,1043
    11a0:	40e50533          	sub	a0,a0,a4
    11a4:	00a7d533          	srl	a0,a5,a0
    11a8:	fe9ff06f          	j	1190 <__fixdfsi+0x5c>
    11ac:	00000513          	li	a0,0
    11b0:	00008067          	ret

000011b4 <__floatsidf>:
    11b4:	ff010113          	addi	sp,sp,-16
    11b8:	00112623          	sw	ra,12(sp)
    11bc:	00812423          	sw	s0,8(sp)
    11c0:	00912223          	sw	s1,4(sp)
    11c4:	08050863          	beqz	a0,1254 <__floatsidf+0xa0>
    11c8:	41f55793          	srai	a5,a0,0x1f
    11cc:	00a7c433          	xor	s0,a5,a0
    11d0:	40f40433          	sub	s0,s0,a5
    11d4:	01f55493          	srli	s1,a0,0x1f
    11d8:	00040513          	mv	a0,s0
    11dc:	15c000ef          	jal	ra,1338 <__clzsi2>
    11e0:	41e00713          	li	a4,1054
    11e4:	00a00793          	li	a5,10
    11e8:	40a70733          	sub	a4,a4,a0
    11ec:	04a7ca63          	blt	a5,a0,1240 <__floatsidf+0x8c>
    11f0:	00b00793          	li	a5,11
    11f4:	40a787b3          	sub	a5,a5,a0
    11f8:	01550513          	addi	a0,a0,21 # 80000015 <TOHOST_ADDR+0x7fffe261>
    11fc:	00f457b3          	srl	a5,s0,a5
    1200:	00a41433          	sll	s0,s0,a0
    1204:	00048513          	mv	a0,s1
    1208:	00c79793          	slli	a5,a5,0xc
    120c:	7ff77713          	andi	a4,a4,2047
    1210:	01471713          	slli	a4,a4,0x14
    1214:	00c7d793          	srli	a5,a5,0xc
    1218:	01f51513          	slli	a0,a0,0x1f
    121c:	00e7e7b3          	or	a5,a5,a4
    1220:	00a7e733          	or	a4,a5,a0
    1224:	00c12083          	lw	ra,12(sp)
    1228:	00040513          	mv	a0,s0
    122c:	00812403          	lw	s0,8(sp)
    1230:	00412483          	lw	s1,4(sp)
    1234:	00070593          	mv	a1,a4
    1238:	01010113          	addi	sp,sp,16
    123c:	00008067          	ret
    1240:	ff550513          	addi	a0,a0,-11
    1244:	00a417b3          	sll	a5,s0,a0
    1248:	00048513          	mv	a0,s1
    124c:	00000413          	li	s0,0
    1250:	fb9ff06f          	j	1208 <__floatsidf+0x54>
    1254:	00000713          	li	a4,0
    1258:	00000793          	li	a5,0
    125c:	ff1ff06f          	j	124c <__floatsidf+0x98>

00001260 <__mulsi3>:
    1260:	00050613          	mv	a2,a0
    1264:	00000513          	li	a0,0
    1268:	0015f693          	andi	a3,a1,1
    126c:	00068463          	beqz	a3,1274 <__mulsi3+0x14>
    1270:	00c50533          	add	a0,a0,a2
    1274:	0015d593          	srli	a1,a1,0x1
    1278:	00161613          	slli	a2,a2,0x1
    127c:	fe0596e3          	bnez	a1,1268 <__mulsi3+0x8>
    1280:	00008067          	ret

00001284 <__divsi3>:
    1284:	06054063          	bltz	a0,12e4 <__umodsi3+0x10>
    1288:	0605c663          	bltz	a1,12f4 <__umodsi3+0x20>

0000128c <__udivsi3>:
    128c:	00058613          	mv	a2,a1
    1290:	00050593          	mv	a1,a0
    1294:	fff00513          	li	a0,-1
    1298:	02060c63          	beqz	a2,12d0 <__udivsi3+0x44>
    129c:	00100693          	li	a3,1
    12a0:	00b67a63          	bgeu	a2,a1,12b4 <__udivsi3+0x28>
    12a4:	00c05863          	blez	a2,12b4 <__udivsi3+0x28>
    12a8:	00161613          	slli	a2,a2,0x1
    12ac:	00169693          	slli	a3,a3,0x1
    12b0:	feb66ae3          	bltu	a2,a1,12a4 <__udivsi3+0x18>
    12b4:	00000513          	li	a0,0
    12b8:	00c5e663          	bltu	a1,a2,12c4 <__udivsi3+0x38>
    12bc:	40c585b3          	sub	a1,a1,a2
    12c0:	00d56533          	or	a0,a0,a3
    12c4:	0016d693          	srli	a3,a3,0x1
    12c8:	00165613          	srli	a2,a2,0x1
    12cc:	fe0696e3          	bnez	a3,12b8 <__udivsi3+0x2c>
    12d0:	00008067          	ret

000012d4 <__umodsi3>:
    12d4:	00008293          	mv	t0,ra
    12d8:	fb5ff0ef          	jal	ra,128c <__udivsi3>
    12dc:	00058513          	mv	a0,a1
    12e0:	00028067          	jr	t0
    12e4:	40a00533          	neg	a0,a0
    12e8:	0005d863          	bgez	a1,12f8 <__umodsi3+0x24>
    12ec:	40b005b3          	neg	a1,a1
    12f0:	f9dff06f          	j	128c <__udivsi3>
    12f4:	40b005b3          	neg	a1,a1
    12f8:	00008293          	mv	t0,ra
    12fc:	f91ff0ef          	jal	ra,128c <__udivsi3>
    1300:	40a00533          	neg	a0,a0
    1304:	00028067          	jr	t0

00001308 <__modsi3>:
    1308:	00008293          	mv	t0,ra
    130c:	0005ca63          	bltz	a1,1320 <__modsi3+0x18>
    1310:	00054c63          	bltz	a0,1328 <__modsi3+0x20>
    1314:	f79ff0ef          	jal	ra,128c <__udivsi3>
    1318:	00058513          	mv	a0,a1
    131c:	00028067          	jr	t0
    1320:	40b005b3          	neg	a1,a1
    1324:	fe0558e3          	bgez	a0,1314 <__modsi3+0xc>
    1328:	40a00533          	neg	a0,a0
    132c:	f61ff0ef          	jal	ra,128c <__udivsi3>
    1330:	40b00533          	neg	a0,a1
    1334:	00028067          	jr	t0

00001338 <__clzsi2>:
    1338:	000107b7          	lui	a5,0x10
    133c:	02f57a63          	bgeu	a0,a5,1370 <__clzsi2+0x38>
    1340:	0ff00793          	li	a5,255
    1344:	00a7b7b3          	sltu	a5,a5,a0
    1348:	00379793          	slli	a5,a5,0x3
    134c:	02000713          	li	a4,32
    1350:	40f70733          	sub	a4,a4,a5
    1354:	00f557b3          	srl	a5,a0,a5
    1358:	00001537          	lui	a0,0x1
    135c:	5a850513          	addi	a0,a0,1448 # 15a8 <__clz_tab>
    1360:	00a787b3          	add	a5,a5,a0
    1364:	0007c503          	lbu	a0,0(a5) # 10000 <TOHOST_ADDR+0xe24c>
    1368:	40a70533          	sub	a0,a4,a0
    136c:	00008067          	ret
    1370:	01000737          	lui	a4,0x1000
    1374:	01000793          	li	a5,16
    1378:	fce56ae3          	bltu	a0,a4,134c <__clzsi2+0x14>
    137c:	01800793          	li	a5,24
    1380:	fcdff06f          	j	134c <__clzsi2+0x14>

00001384 <memcmp>:
    1384:	00300793          	li	a5,3
    1388:	02c7f863          	bgeu	a5,a2,13b8 <memcmp+0x34>
    138c:	00b567b3          	or	a5,a0,a1
    1390:	0037f793          	andi	a5,a5,3
    1394:	00300693          	li	a3,3
    1398:	06079263          	bnez	a5,13fc <memcmp+0x78>
    139c:	00052703          	lw	a4,0(a0)
    13a0:	0005a783          	lw	a5,0(a1)
    13a4:	04f71c63          	bne	a4,a5,13fc <memcmp+0x78>
    13a8:	ffc60613          	addi	a2,a2,-4 # fffc <TOHOST_ADDR+0xe248>
    13ac:	00450513          	addi	a0,a0,4
    13b0:	00458593          	addi	a1,a1,4
    13b4:	fec6e4e3          	bltu	a3,a2,139c <memcmp+0x18>
    13b8:	fff60793          	addi	a5,a2,-1
    13bc:	02060c63          	beqz	a2,13f4 <memcmp+0x70>
    13c0:	00054703          	lbu	a4,0(a0)
    13c4:	0005c683          	lbu	a3,0(a1)
    13c8:	02d71e63          	bne	a4,a3,1404 <memcmp+0x80>
    13cc:	00178713          	addi	a4,a5,1
    13d0:	00150793          	addi	a5,a0,1
    13d4:	00e50533          	add	a0,a0,a4
    13d8:	0140006f          	j	13ec <memcmp+0x68>
    13dc:	0007c703          	lbu	a4,0(a5)
    13e0:	0005c683          	lbu	a3,0(a1)
    13e4:	00178793          	addi	a5,a5,1
    13e8:	00d71e63          	bne	a4,a3,1404 <memcmp+0x80>
    13ec:	00158593          	addi	a1,a1,1
    13f0:	fea796e3          	bne	a5,a0,13dc <memcmp+0x58>
    13f4:	00000513          	li	a0,0
    13f8:	00008067          	ret
    13fc:	fff60793          	addi	a5,a2,-1
    1400:	fc1ff06f          	j	13c0 <memcmp+0x3c>
    1404:	40d70533          	sub	a0,a4,a3
    1408:	00008067          	ret

0000140c <memset>:
    140c:	00f00313          	li	t1,15
    1410:	00050713          	mv	a4,a0
    1414:	02c37e63          	bgeu	t1,a2,1450 <memset+0x44>
    1418:	00f77793          	andi	a5,a4,15
    141c:	0a079063          	bnez	a5,14bc <memset+0xb0>
    1420:	08059263          	bnez	a1,14a4 <memset+0x98>
    1424:	ff067693          	andi	a3,a2,-16
    1428:	00f67613          	andi	a2,a2,15
    142c:	00e686b3          	add	a3,a3,a4
    1430:	00b72023          	sw	a1,0(a4) # 1000000 <TOHOST_ADDR+0xffe24c>
    1434:	00b72223          	sw	a1,4(a4)
    1438:	00b72423          	sw	a1,8(a4)
    143c:	00b72623          	sw	a1,12(a4)
    1440:	01070713          	addi	a4,a4,16
    1444:	fed766e3          	bltu	a4,a3,1430 <memset+0x24>
    1448:	00061463          	bnez	a2,1450 <memset+0x44>
    144c:	00008067          	ret
    1450:	40c306b3          	sub	a3,t1,a2
    1454:	00269693          	slli	a3,a3,0x2
    1458:	00000297          	auipc	t0,0x0
    145c:	005686b3          	add	a3,a3,t0
    1460:	00c68067          	jr	12(a3)
    1464:	00b70723          	sb	a1,14(a4)
    1468:	00b706a3          	sb	a1,13(a4)
    146c:	00b70623          	sb	a1,12(a4)
    1470:	00b705a3          	sb	a1,11(a4)
    1474:	00b70523          	sb	a1,10(a4)
    1478:	00b704a3          	sb	a1,9(a4)
    147c:	00b70423          	sb	a1,8(a4)
    1480:	00b703a3          	sb	a1,7(a4)
    1484:	00b70323          	sb	a1,6(a4)
    1488:	00b702a3          	sb	a1,5(a4)
    148c:	00b70223          	sb	a1,4(a4)
    1490:	00b701a3          	sb	a1,3(a4)
    1494:	00b70123          	sb	a1,2(a4)
    1498:	00b700a3          	sb	a1,1(a4)
    149c:	00b70023          	sb	a1,0(a4)
    14a0:	00008067          	ret
    14a4:	0ff5f593          	andi	a1,a1,255
    14a8:	00859693          	slli	a3,a1,0x8
    14ac:	00d5e5b3          	or	a1,a1,a3
    14b0:	01059693          	slli	a3,a1,0x10
    14b4:	00d5e5b3          	or	a1,a1,a3
    14b8:	f6dff06f          	j	1424 <memset+0x18>
    14bc:	00279693          	slli	a3,a5,0x2
    14c0:	00000297          	auipc	t0,0x0
    14c4:	005686b3          	add	a3,a3,t0
    14c8:	00008293          	mv	t0,ra
    14cc:	fa0680e7          	jalr	-96(a3)
    14d0:	00028093          	mv	ra,t0
    14d4:	ff078793          	addi	a5,a5,-16
    14d8:	40f70733          	sub	a4,a4,a5
    14dc:	00f60633          	add	a2,a2,a5
    14e0:	f6c378e3          	bgeu	t1,a2,1450 <memset+0x44>
    14e4:	f3dff06f          	j	1420 <memset+0x14>

Disassembly of section .text.startup:

000014e8 <main>:
    14e8:	fe010113          	addi	sp,sp,-32
    14ec:	00112e23          	sw	ra,28(sp)
    14f0:	00812c23          	sw	s0,24(sp)
    14f4:	90cff0ef          	jal	ra,600 <initialise_board>
    14f8:	c11fe0ef          	jal	ra,108 <initialise_benchmark>
    14fc:	00100513          	li	a0,1
    1500:	8f0ff0ef          	jal	ra,5f0 <warm_caches>
    1504:	904ff0ef          	jal	ra,608 <start_trigger>
    1508:	8ecff0ef          	jal	ra,5f4 <benchmark>
    150c:	00a12623          	sw	a0,12(sp)
    1510:	900ff0ef          	jal	ra,610 <stop_trigger>
    1514:	00c12503          	lw	a0,12(sp)
    1518:	b79fe0ef          	jal	ra,90 <verify_benchmark>
    151c:	00050413          	mv	s0,a0
    1520:	02050463          	beqz	a0,1548 <main+0x60>
    1524:	00001537          	lui	a0,0x1
    1528:	6a850513          	addi	a0,a0,1704 # 16a8 <__clz_tab+0x100>
    152c:	ae8ff0ef          	jal	ra,814 <simrv_puts>
    1530:	ab8ff0ef          	jal	ra,7e8 <simrv_exit>
    1534:	00143513          	seqz	a0,s0
    1538:	01c12083          	lw	ra,28(sp)
    153c:	01812403          	lw	s0,24(sp)
    1540:	02010113          	addi	sp,sp,32
    1544:	00008067          	ret
    1548:	00001537          	lui	a0,0x1
    154c:	6b450513          	addi	a0,a0,1716 # 16b4 <__clz_tab+0x10c>
    1550:	ac4ff0ef          	jal	ra,814 <simrv_puts>
    1554:	fddff06f          	j	1530 <main+0x48>

Disassembly of section .rodata:

00001558 <__clz_tab-0x50>:
	...
    1560:	0001                	nop
    1562:	0000                	unimp
    1564:	0001                	nop
    1566:	0000                	unimp
    1568:	0001                	nop
    156a:	0000                	unimp
    156c:	0002                	c.slli64	zero
	...

000015a8 <__clz_tab>:
    15a8:	0100                	addi	s0,sp,128
    15aa:	0202                	c.slli64	tp
    15ac:	03030303          	lb	t1,48(t1)
    15b0:	0404                	addi	s1,sp,512
    15b2:	0404                	addi	s1,sp,512
    15b4:	0404                	addi	s1,sp,512
    15b6:	0404                	addi	s1,sp,512
    15b8:	0505                	addi	a0,a0,1
    15ba:	0505                	addi	a0,a0,1
    15bc:	0505                	addi	a0,a0,1
    15be:	0505                	addi	a0,a0,1
    15c0:	0505                	addi	a0,a0,1
    15c2:	0505                	addi	a0,a0,1
    15c4:	0505                	addi	a0,a0,1
    15c6:	0505                	addi	a0,a0,1
    15c8:	0606                	slli	a2,a2,0x1
    15ca:	0606                	slli	a2,a2,0x1
    15cc:	0606                	slli	a2,a2,0x1
    15ce:	0606                	slli	a2,a2,0x1
    15d0:	0606                	slli	a2,a2,0x1
    15d2:	0606                	slli	a2,a2,0x1
    15d4:	0606                	slli	a2,a2,0x1
    15d6:	0606                	slli	a2,a2,0x1
    15d8:	0606                	slli	a2,a2,0x1
    15da:	0606                	slli	a2,a2,0x1
    15dc:	0606                	slli	a2,a2,0x1
    15de:	0606                	slli	a2,a2,0x1
    15e0:	0606                	slli	a2,a2,0x1
    15e2:	0606                	slli	a2,a2,0x1
    15e4:	0606                	slli	a2,a2,0x1
    15e6:	0606                	slli	a2,a2,0x1
    15e8:	07070707          	0x7070707
    15ec:	07070707          	0x7070707
    15f0:	07070707          	0x7070707
    15f4:	07070707          	0x7070707
    15f8:	07070707          	0x7070707
    15fc:	07070707          	0x7070707
    1600:	07070707          	0x7070707
    1604:	07070707          	0x7070707
    1608:	07070707          	0x7070707
    160c:	07070707          	0x7070707
    1610:	07070707          	0x7070707
    1614:	07070707          	0x7070707
    1618:	07070707          	0x7070707
    161c:	07070707          	0x7070707
    1620:	07070707          	0x7070707
    1624:	07070707          	0x7070707
    1628:	0808                	addi	a0,sp,16
    162a:	0808                	addi	a0,sp,16
    162c:	0808                	addi	a0,sp,16
    162e:	0808                	addi	a0,sp,16
    1630:	0808                	addi	a0,sp,16
    1632:	0808                	addi	a0,sp,16
    1634:	0808                	addi	a0,sp,16
    1636:	0808                	addi	a0,sp,16
    1638:	0808                	addi	a0,sp,16
    163a:	0808                	addi	a0,sp,16
    163c:	0808                	addi	a0,sp,16
    163e:	0808                	addi	a0,sp,16
    1640:	0808                	addi	a0,sp,16
    1642:	0808                	addi	a0,sp,16
    1644:	0808                	addi	a0,sp,16
    1646:	0808                	addi	a0,sp,16
    1648:	0808                	addi	a0,sp,16
    164a:	0808                	addi	a0,sp,16
    164c:	0808                	addi	a0,sp,16
    164e:	0808                	addi	a0,sp,16
    1650:	0808                	addi	a0,sp,16
    1652:	0808                	addi	a0,sp,16
    1654:	0808                	addi	a0,sp,16
    1656:	0808                	addi	a0,sp,16
    1658:	0808                	addi	a0,sp,16
    165a:	0808                	addi	a0,sp,16
    165c:	0808                	addi	a0,sp,16
    165e:	0808                	addi	a0,sp,16
    1660:	0808                	addi	a0,sp,16
    1662:	0808                	addi	a0,sp,16
    1664:	0808                	addi	a0,sp,16
    1666:	0808                	addi	a0,sp,16
    1668:	0808                	addi	a0,sp,16
    166a:	0808                	addi	a0,sp,16
    166c:	0808                	addi	a0,sp,16
    166e:	0808                	addi	a0,sp,16
    1670:	0808                	addi	a0,sp,16
    1672:	0808                	addi	a0,sp,16
    1674:	0808                	addi	a0,sp,16
    1676:	0808                	addi	a0,sp,16
    1678:	0808                	addi	a0,sp,16
    167a:	0808                	addi	a0,sp,16
    167c:	0808                	addi	a0,sp,16
    167e:	0808                	addi	a0,sp,16
    1680:	0808                	addi	a0,sp,16
    1682:	0808                	addi	a0,sp,16
    1684:	0808                	addi	a0,sp,16
    1686:	0808                	addi	a0,sp,16
    1688:	0808                	addi	a0,sp,16
    168a:	0808                	addi	a0,sp,16
    168c:	0808                	addi	a0,sp,16
    168e:	0808                	addi	a0,sp,16
    1690:	0808                	addi	a0,sp,16
    1692:	0808                	addi	a0,sp,16
    1694:	0808                	addi	a0,sp,16
    1696:	0808                	addi	a0,sp,16
    1698:	0808                	addi	a0,sp,16
    169a:	0808                	addi	a0,sp,16
    169c:	0808                	addi	a0,sp,16
    169e:	0808                	addi	a0,sp,16
    16a0:	0808                	addi	a0,sp,16
    16a2:	0808                	addi	a0,sp,16
    16a4:	0808                	addi	a0,sp,16
    16a6:	0808                	addi	a0,sp,16

Disassembly of section .rodata.str1.4:

000016a8 <.rodata.str1.4>:
    16a8:	72726f63          	bltu	tp,t2,1de6 <TOHOST_ADDR+0x32>
    16ac:	6365                	lui	t1,0x19
    16ae:	2174                	fld	fa3,192(a0)
    16b0:	000a                	c.slli	zero,0x2
    16b2:	0000                	unimp
    16b4:	696d                	lui	s2,0x1b
    16b6:	6b617473          	csrrci	s0,0x6b6,2
    16ba:	2e65                	jal	1a72 <a+0x30e>
    16bc:	2e2e                	fld	ft8,200(sp)
    16be:	000a                	c.slli	zero,0x2

Disassembly of section .bss:

000016c0 <b>:
	...

00001710 <x>:
	...

00001760 <chkerr>:
    1760:	0000                	unimp
	...

00001764 <a>:
	...

Disassembly of section .sbss:

00001da4 <heap_requested>:
    1da4:	0000                	unimp
	...

00001da8 <heap_end>:
    1da8:	0000                	unimp
	...

00001dac <heap_ptr>:
    1dac:	0000                	unimp
	...

00001db0 <seed>:
    1db0:	0000                	unimp
	...

Disassembly of section .sdata:

00001db4 <TOHOST_ADDR>:
    1db4:	8000                	0x8000
    1db6:	4000                	lw	s0,0(s0)

Disassembly of section .riscv.attributes:

00000000 <.riscv.attributes>:
   0:	1941                	addi	s2,s2,-16
   2:	0000                	unimp
   4:	7200                	flw	fs0,32(a2)
   6:	7369                	lui	t1,0xffffa
   8:	01007663          	bgeu	zero,a6,14 <_start+0x14>
   c:	0000000f          	fence	unknown,unknown
  10:	7205                	lui	tp,0xfffe1
  12:	3376                	fld	ft6,376(sp)
  14:	6932                	flw	fs2,12(sp)
  16:	7032                	flw	ft0,44(sp)
  18:	0030                	addi	a2,sp,8

Disassembly of section .comment:

00000000 <.comment>:
   0:	3a434347          	fmsub.d	ft6,ft6,ft4,ft7,rmm
   4:	2820                	fld	fs0,80(s0)
   6:	29554e47          	fmsub.s	ft8,fa0,fs5,ft5,rmm
   a:	3820                	fld	fs0,112(s0)
   c:	332e                	fld	ft6,232(sp)
   e:	302e                	fld	ft0,232(sp)
	...

Disassembly of section .debug_info:

00000000 <.debug_info>:
       0:	05a1                	addi	a1,a1,8
       2:	0000                	unimp
       4:	0004                	0x4
       6:	0000                	unimp
       8:	0000                	unimp
       a:	0104                	addi	s1,sp,128
       c:	0000014f          	fnmadd.s	ft2,ft0,ft0,ft0,rne
      10:	d20c                	sw	a1,32(a2)
      12:	0000                	unimp
      14:	3f00                	fld	fs0,56(a4)
      16:	0002                	c.slli64	zero
      18:	7400                	flw	fs0,40(s0)
      1a:	0009                	c.nop	2
      1c:	c000                	sw	s0,0(s0)
      1e:	00000007          	0x7
      22:	0000                	unimp
      24:	0200                	addi	s0,sp,256
      26:	0408                	addi	a0,sp,512
      28:	049e                	slli	s1,s1,0x7
      2a:	0000                	unimp
      2c:	69050403          	lb	s0,1680(a0)
      30:	746e                	flw	fs0,248(sp)
      32:	0200                	addi	s0,sp,256
      34:	0601                	addi	a2,a2,0
      36:	0044                	addi	s1,sp,4
      38:	0000                	unimp
      3a:	0802                	c.slli64	a6
      3c:	0405                	addi	s0,s0,1
      3e:	0002                	c.slli64	zero
      40:	0400                	addi	s0,sp,512
      42:	00c0                	addi	s0,sp,68
      44:	0000                	unimp
      46:	4a02                	lw	s4,0(sp)
      48:	1601                	addi	a2,a2,-32
      4a:	00000053          	fadd.s	ft0,ft0,ft0,rne
      4e:	4105                	li	sp,1
      50:	0000                	unimp
      52:	0200                	addi	s0,sp,256
      54:	0801                	addi	a6,a6,0
      56:	0042                	c.slli	zero,0x10
      58:	0000                	unimp
      5a:	0402                	c.slli64	s0
      5c:	00011307          	0x11307
      60:	0200                	addi	s0,sp,256
      62:	0708                	addi	a0,sp,896
      64:	0109                	addi	sp,sp,2
      66:	0000                	unimp
      68:	0202                	c.slli64	tp
      6a:	00007a07          	0x7a07
      6e:	0600                	addi	s0,sp,768
      70:	004e                	c.slli	zero,0x13
      72:	0000                	unimp
      74:	007f                	0x7f
      76:	0000                	unimp
      78:	00005a07          	0x5a07
      7c:	ff00                	fsw	fs0,56(a4)
      7e:	0500                	addi	s0,sp,640
      80:	0000006f          	j	80 <_start+0x80>
      84:	c808                	sw	a0,16(s0)
      86:	0000                	unimp
      88:	0400                	addi	s0,sp,512
      8a:	163c                	addi	a5,sp,808
      8c:	007f                	0x7f
      8e:	0000                	unimp
      90:	2d09                	jal	6a2 <init_heap_beebs+0x1e>
      92:	0000                	unimp
      94:	0300                	addi	s0,sp,384
      96:	0f48                	addi	a0,sp,916
      98:	0025                	c.nop	9
      9a:	0000                	unimp
      9c:	080a                	slli	a6,a6,0x2
      9e:	e6034f03          	lbu	t5,-416(t1) # ffff9e60 <TOHOST_ADDR+0xffff80ac>
      a2:	0000                	unimp
      a4:	0b00                	addi	s0,sp,400
      a6:	000e                	c.slli	zero,0x3
      a8:	0000                	unimp
      aa:	5a0e5703          	lhu	a4,1440(t3)
      ae:	0000                	unimp
      b0:	0400                	addi	s0,sp,512
      b2:	0020                	addi	s0,sp,8
      b4:	0b00                	addi	s0,sp,400
      b6:	0014                	0x14
      b8:	0000                	unimp
      ba:	5a0e5803          	lhu	a6,1440(t3)
      be:	0000                	unimp
      c0:	0400                	addi	s0,sp,512
      c2:	0c14                	addi	a3,sp,528
      c4:	0c04                	addi	s1,sp,528
      c6:	7865                	lui	a6,0xffff9
      c8:	0070                	addi	a2,sp,12
      ca:	5a0e5903          	lhu	s2,1440(t3)
      ce:	0000                	unimp
      d0:	0400                	addi	s0,sp,512
      d2:	0b04010b          	0xb04010b
      d6:	05ac                	addi	a1,sp,712
      d8:	0000                	unimp
      da:	5a0e5a03          	lhu	s4,1440(t3)
      de:	0000                	unimp
      e0:	0400                	addi	s0,sp,512
      e2:	0001                	nop
      e4:	0004                	0x4
      e6:	ce0d                	beqz	a2,120 <ludcmp+0x14>
      e8:	0002                	c.slli64	zero
      ea:	0800                	addi	s0,sp,16
      ec:	0c074c03          	lbu	s8,192(a4)
      f0:	0001                	nop
      f2:	0e00                	addi	s0,sp,784
      f4:	6c66                	flw	fs8,88(sp)
      f6:	0074                	addi	a3,sp,12
      f8:	900a4e03          	lbu	t3,-1792(s4)
      fc:	0000                	unimp
      fe:	0f00                	addi	s0,sp,912
     100:	02c9                	addi	t0,t0,18
     102:	0000                	unimp
     104:	9c055c03          	lhu	s8,-1600(a0)
     108:	0000                	unimp
     10a:	0000                	unimp
     10c:	0510                	addi	a2,sp,640
     10e:	0000                	unimp
     110:	0100                	addi	s0,sp,128
     112:	00900123          	sb	s1,2(zero) # 2 <_start+0x2>
     116:	0000                	unimp
     118:	0974                	addi	a3,sp,156
     11a:	0000                	unimp
     11c:	07c0                	addi	s0,sp,964
     11e:	0000                	unimp
     120:	9c01                	0x9c01
     122:	0596                	slli	a1,a1,0x5
     124:	0000                	unimp
     126:	6111                	addi	sp,sp,256
     128:	0100                	addi	s0,sp,128
     12a:	00901223          	sh	s1,4(zero) # 4 <_start+0x4>
     12e:	0000                	unimp
     130:	0000                	unimp
     132:	0000                	unimp
     134:	6211                	lui	tp,0x4
     136:	0100                	addi	s0,sp,128
     138:	00901c23          	sh	s1,24(zero) # 18 <_start+0x18>
     13c:	0000                	unimp
     13e:	0028                	addi	a0,sp,8
     140:	0000                	unimp
     142:	9712                	add	a4,a4,tp
     144:	0000                	unimp
     146:	0100                	addi	s0,sp,128
     148:	0325                	addi	t1,t1,9
     14a:	002c                	addi	a1,sp,8
     14c:	0000                	unimp
     14e:	0050                	addi	a2,sp,4
     150:	0000                	unimp
     152:	0002da13          	srli	s4,t0,0x0
     156:	0100                	addi	s0,sp,128
     158:	0325                	addi	t1,t1,9
     15a:	002c                	addi	a1,sp,8
     15c:	0000                	unimp
     15e:	1400                	addi	s0,sp,544
     160:	5f41                	li	t5,-16
     162:	26010063          	beqz	sp,3c2 <ludcmp+0x2b6>
     166:	00059603          	lh	a2,0(a1)
     16a:	1500                	addi	s0,sp,672
     16c:	5f41                	li	t5,-16
     16e:	26010073          	0x26010073
     172:	00059603          	lh	a2,0(a1)
     176:	a000                	fsd	fs0,0(s0)
     178:	0000                	unimp
     17a:	1500                	addi	s0,sp,672
     17c:	5f41                	li	t5,-16
     17e:	0065                	c.nop	25
     180:	2601                	jal	480 <ludcmp+0x374>
     182:	00059603          	lh	a2,0(a1)
     186:	4200                	lw	s0,0(a2)
     188:	0001                	nop
     18a:	1200                	addi	s0,sp,288
     18c:	000000bb          	0xbb
     190:	2601                	jal	490 <ludcmp+0x384>
     192:	00059d03          	lh	s10,0(a1)
     196:	4600                	lw	s0,8(a2)
     198:	0002                	c.slli64	zero
     19a:	1200                	addi	s0,sp,288
     19c:	008d                	addi	ra,ra,3
     19e:	0000                	unimp
     1a0:	2601                	jal	4a0 <ludcmp+0x394>
     1a2:	00059d03          	lh	s10,0(a1)
     1a6:	ae00                	fsd	fs0,24(a2)
     1a8:	14000003          	lb	zero,320(zero) # 140 <ludcmp+0x34>
     1ac:	5f42                	lw	t5,48(sp)
     1ae:	27010063          	beq	sp,a6,40e <ludcmp+0x302>
     1b2:	00059603          	lh	a2,0(a1)
     1b6:	1500                	addi	s0,sp,672
     1b8:	5f42                	lw	t5,48(sp)
     1ba:	27010073          	0x27010073
     1be:	00059603          	lh	a2,0(a1)
     1c2:	3900                	fld	fs0,48(a0)
     1c4:	0005                	c.nop	1
     1c6:	1500                	addi	s0,sp,672
     1c8:	5f42                	lw	t5,48(sp)
     1ca:	0065                	c.nop	25
     1cc:	2701                	jal	8cc <simrv_puti+0x8c>
     1ce:	00059603          	lh	a2,0(a1)
     1d2:	af00                	fsd	fs0,24(a4)
     1d4:	0005                	c.nop	1
     1d6:	1200                	addi	s0,sp,288
     1d8:	00ff                	0xff
     1da:	0000                	unimp
     1dc:	2701                	jal	8dc <simrv_puti+0x9c>
     1de:	00059d03          	lh	s10,0(a1)
     1e2:	3b00                	fld	fs0,48(a4)
     1e4:	0006                	c.slli	zero,0x1
     1e6:	1200                	addi	s0,sp,288
     1e8:	0104                	addi	s1,sp,128
     1ea:	0000                	unimp
     1ec:	2701                	jal	8ec <simrv_puti+0xac>
     1ee:	00059d03          	lh	s10,0(a1)
     1f2:	4b00                	lw	s0,16(a4)
     1f4:	14000007          	0x14000007
     1f8:	5f52                	lw	t5,52(sp)
     1fa:	28010063          	beqz	sp,47a <ludcmp+0x36e>
     1fe:	00059603          	lh	a2,0(a1)
     202:	1500                	addi	s0,sp,672
     204:	5f52                	lw	t5,52(sp)
     206:	28010073          	0x28010073
     20a:	00059603          	lh	a2,0(a1)
     20e:	c100                	sw	s0,0(a0)
     210:	15000007          	0x15000007
     214:	5f52                	lw	t5,52(sp)
     216:	0065                	c.nop	25
     218:	2801                	jal	228 <ludcmp+0x11c>
     21a:	00059603          	lh	a2,0(a1)
     21e:	6e00                	flw	fs0,24(a2)
     220:	0008                	0x8
     222:	1200                	addi	s0,sp,288
     224:	003d                	c.nop	15
     226:	0000                	unimp
     228:	2801                	jal	238 <ludcmp+0x12c>
     22a:	00059d03          	lh	s10,0(a1)
     22e:	e600                	fsw	fs0,8(a2)
     230:	0009                	c.nop	2
     232:	1200                	addi	s0,sp,288
     234:	02df 0000 2801      	0x2801000002df
     23a:	00059d03          	lh	s10,0(a1)
     23e:	6c00                	flw	fs0,24(s0)
     240:	000c                	0xc
     242:	1400                	addi	s0,sp,544
     244:	0072                	c.slli	zero,0x1c
     246:	2901                	jal	656 <rand_beebs+0x3e>
     248:	900a                	c.add	zero,sp
     24a:	0000                	unimp
     24c:	1600                	addi	s0,sp,800
     24e:	0000                	unimp
     250:	0000                	unimp
     252:	00000263          	beqz	zero,256 <ludcmp+0x14a>
     256:	00005017          	auipc	zero,0x5
     25a:	0100                	addi	s0,sp,128
     25c:	032c                	addi	a1,sp,392
     25e:	00e6                	slli	ra,ra,0x19
     260:	0000                	unimp
     262:	1600                	addi	s0,sp,800
     264:	0028                	addi	a0,sp,8
     266:	0000                	unimp
     268:	0279                	addi	tp,tp,30
     26a:	0000                	unimp
     26c:	00005017          	auipc	zero,0x5
     270:	0100                	addi	s0,sp,128
     272:	032d                	addi	t1,t1,11
     274:	00e6                	slli	ra,ra,0x19
     276:	0000                	unimp
     278:	1600                	addi	s0,sp,800
     27a:	0078                	addi	a4,sp,12
     27c:	0000                	unimp
     27e:	00000363          	beqz	zero,284 <ludcmp+0x178>
     282:	ba18                	fsd	fa4,48(a2)
     284:	0002                	c.slli64	zero
     286:	0100                	addi	s0,sp,128
     288:	032e                	slli	t1,t1,0xb
     28a:	0a34                	addi	a3,sp,280
     28c:	0000                	unimp
     28e:	bf18                	fsd	fa4,56(a4)
     290:	0002                	c.slli64	zero
     292:	0100                	addi	s0,sp,128
     294:	032e                	slli	t1,t1,0xb
     296:	0b50                	addi	a2,sp,404
     298:	0000                	unimp
     29a:	c418                	sw	a4,8(s0)
     29c:	0002                	c.slli64	zero
     29e:	0100                	addi	s0,sp,128
     2a0:	032e                	slli	t1,t1,0xb
     2a2:	0a7c                	addi	a5,sp,284
     2a4:	0000                	unimp
     2a6:	3418                	fld	fa4,40(s0)
     2a8:	0000                	unimp
     2aa:	0100                	addi	s0,sp,128
     2ac:	032e                	slli	t1,t1,0xb
     2ae:	0c28                	addi	a0,sp,536
     2b0:	0000                	unimp
     2b2:	2812                	fld	fa6,256(sp)
     2b4:	0002                	c.slli64	zero
     2b6:	0100                	addi	s0,sp,128
     2b8:	032e                	slli	t1,t1,0xb
     2ba:	002c                	addi	a1,sp,8
     2bc:	0000                	unimp
     2be:	0e65                	addi	t3,t3,25
     2c0:	0000                	unimp
     2c2:	c816                	sw	t0,16(sp)
     2c4:	0000                	unimp
     2c6:	dc00                	sw	s0,56(s0)
     2c8:	0002                	c.slli64	zero
     2ca:	1500                	addi	s0,sp,672
     2cc:	5f5f 0078 2e01      	0x2e0100785f5f
     2d2:	00059d03          	lh	s10,0(a1)
     2d6:	3e00                	fld	fs0,56(a2)
     2d8:	0000000f          	fence	unknown,unknown
     2dc:	6819                	lui	a6,0x6
     2de:	000a                	c.slli	zero,0x2
     2e0:	1400                	addi	s0,sp,544
     2e2:	0000                	unimp
     2e4:	fa00                	fsw	fs0,48(a2)
     2e6:	0002                	c.slli64	zero
     2e8:	1500                	addi	s0,sp,672
     2ea:	5f5f 0078 2e01      	0x2e0100785f5f
     2f0:	00059d03          	lh	s10,0(a1)
     2f4:	5100                	lw	s0,32(a0)
     2f6:	0000000f          	fence	unknown,unknown
     2fa:	e016                	fsw	ft5,0(sp)
     2fc:	0000                	unimp
     2fe:	1400                	addi	s0,sp,544
     300:	15000003          	lb	zero,336(zero) # 150 <ludcmp+0x44>
     304:	5f5f 0078 2e01      	0x2e0100785f5f
     30a:	00059d03          	lh	s10,0(a1)
     30e:	6400                	flw	fs0,8(s0)
     310:	0000000f          	fence	unknown,unknown
     314:	8419                	srai	s0,s0,0x6
     316:	1000000b          	0x1000000b
     31a:	0000                	unimp
     31c:	3200                	fld	fs0,32(a2)
     31e:	15000003          	lb	zero,336(zero) # 150 <ludcmp+0x44>
     322:	5f5f 0078 2e01      	0x2e0100785f5f
     328:	00059d03          	lh	s10,0(a1)
     32c:	7700                	flw	fs0,40(a4)
     32e:	0000000f          	fence	unknown,unknown
     332:	f816                	fsw	ft5,48(sp)
     334:	0000                	unimp
     336:	4c00                	lw	s0,24(s0)
     338:	15000003          	lb	zero,336(zero) # 150 <ludcmp+0x44>
     33c:	5f5f 0078 2e01      	0x2e0100785f5f
     342:	00059d03          	lh	s10,0(a1)
     346:	8a00                	0x8a00
     348:	0000000f          	fence	unknown,unknown
     34c:	101a                	c.slli	zero,0x26
     34e:	0001                	nop
     350:	1500                	addi	s0,sp,672
     352:	5f5f 0078 2e01      	0x2e0100785f5f
     358:	00059d03          	lh	s10,0(a1)
     35c:	9d00                	0x9d00
     35e:	0000000f          	fence	unknown,unknown
     362:	1600                	addi	s0,sp,800
     364:	0128                	addi	a0,sp,136
     366:	0000                	unimp
     368:	000004b7          	lui	s1,0x0
     36c:	9218                	0x9218
     36e:	0000                	unimp
     370:	0100                	addi	s0,sp,128
     372:	032e                	slli	t1,t1,0xb
     374:	0cdc                	addi	a5,sp,596
     376:	0000                	unimp
     378:	0018                	0x18
     37a:	0000                	unimp
     37c:	0100                	addi	s0,sp,128
     37e:	032e                	slli	t1,t1,0xb
     380:	0df8                	addi	a4,sp,732
     382:	0000                	unimp
     384:	9c18                	0x9c18
     386:	0000                	unimp
     388:	0100                	addi	s0,sp,128
     38a:	032e                	slli	t1,t1,0xb
     38c:	0d24                	addi	s1,sp,664
     38e:	0000                	unimp
     390:	b618                	fsd	fa4,40(a2)
     392:	0000                	unimp
     394:	0100                	addi	s0,sp,128
     396:	032e                	slli	t1,t1,0xb
     398:	0f48                	addi	a0,sp,916
     39a:	0000                	unimp
     39c:	b118                	fsd	fa4,32(a0)
     39e:	0002                	c.slli64	zero
     3a0:	0100                	addi	s0,sp,128
     3a2:	032e                	slli	t1,t1,0xb
     3a4:	0c28                	addi	a0,sp,536
     3a6:	0000                	unimp
     3a8:	2812                	fld	fa6,256(sp)
     3aa:	0002                	c.slli64	zero
     3ac:	0100                	addi	s0,sp,128
     3ae:	032e                	slli	t1,t1,0xb
     3b0:	002c                	addi	a1,sp,8
     3b2:	0000                	unimp
     3b4:	0fd0                	addi	a2,sp,980
     3b6:	0000                	unimp
     3b8:	8816                	mv	a6,t0
     3ba:	0001                	nop
     3bc:	d200                	sw	s0,32(a2)
     3be:	15000003          	lb	zero,336(zero) # 150 <ludcmp+0x44>
     3c2:	5f5f 0078 2e01      	0x2e0100785f5f
     3c8:	00059d03          	lh	s10,0(a1)
     3cc:	cd00                	sw	s0,24(a0)
     3ce:	0010                	0x10
     3d0:	0000                	unimp
     3d2:	1019                	c.nop	-26
     3d4:	000d                	c.nop	3
     3d6:	1400                	addi	s0,sp,544
     3d8:	0000                	unimp
     3da:	f000                	fsw	fs0,32(s0)
     3dc:	15000003          	lb	zero,336(zero) # 150 <ludcmp+0x44>
     3e0:	5f5f 0078 2e01      	0x2e0100785f5f
     3e6:	00059d03          	lh	s10,0(a1)
     3ea:	e000                	fsw	fs0,0(s0)
     3ec:	0010                	0x10
     3ee:	0000                	unimp
     3f0:	b419                	j	fffffdf6 <TOHOST_ADDR+0xffffe042>
     3f2:	000d                	c.nop	3
     3f4:	1000                	addi	s0,sp,32
     3f6:	0000                	unimp
     3f8:	0e00                	addi	s0,sp,784
     3fa:	0004                	0x4
     3fc:	1500                	addi	s0,sp,672
     3fe:	5f5f 0078 2e01      	0x2e0100785f5f
     404:	00059d03          	lh	s10,0(a1)
     408:	f300                	fsw	fs0,32(a4)
     40a:	0010                	0x10
     40c:	0000                	unimp
     40e:	2c19                	jal	624 <rand_beebs+0xc>
     410:	000e                	c.slli	zero,0x3
     412:	1000                	addi	s0,sp,32
     414:	0000                	unimp
     416:	2c00                	fld	fs0,24(s0)
     418:	0004                	0x4
     41a:	1500                	addi	s0,sp,672
     41c:	5f5f 0078 2e01      	0x2e0100785f5f
     422:	00059d03          	lh	s10,0(a1)
     426:	0600                	addi	s0,sp,768
     428:	0011                	c.nop	4
     42a:	0000                	unimp
     42c:	c016                	sw	t0,0(sp)
     42e:	0001                	nop
     430:	4600                	lw	s0,8(a2)
     432:	0004                	0x4
     434:	1500                	addi	s0,sp,672
     436:	5f5f 0078 2e01      	0x2e0100785f5f
     43c:	00059d03          	lh	s10,0(a1)
     440:	1900                	addi	s0,sp,176
     442:	0011                	c.nop	4
     444:	0000                	unimp
     446:	d419                	beqz	s0,354 <ludcmp+0x248>
     448:	000e                	c.slli	zero,0x3
     44a:	1000                	addi	s0,sp,32
     44c:	0000                	unimp
     44e:	6400                	flw	fs0,8(s0)
     450:	0004                	0x4
     452:	1500                	addi	s0,sp,672
     454:	5f5f 0078 2e01      	0x2e0100785f5f
     45a:	00059d03          	lh	s10,0(a1)
     45e:	3700                	fld	fs0,40(a4)
     460:	0011                	c.nop	4
     462:	0000                	unimp
     464:	1c19                	addi	s8,s8,-26
     466:	1000000f          	0x1000000f
     46a:	0000                	unimp
     46c:	8200                	0x8200
     46e:	0004                	0x4
     470:	1500                	addi	s0,sp,672
     472:	5f5f 0078 2e01      	0x2e0100785f5f
     478:	00059d03          	lh	s10,0(a1)
     47c:	4a00                	lw	s0,16(a2)
     47e:	0011                	c.nop	4
     480:	0000                	unimp
     482:	3419                	jal	fffffe88 <TOHOST_ADDR+0xffffe0d4>
     484:	1000000f          	0x1000000f
     488:	0000                	unimp
     48a:	a000                	fsd	fs0,0(s0)
     48c:	0004                	0x4
     48e:	1500                	addi	s0,sp,672
     490:	5f5f 0078 2e01      	0x2e0100785f5f
     496:	00059d03          	lh	s10,0(a1)
     49a:	7800                	flw	fs0,48(s0)
     49c:	0011                	c.nop	4
     49e:	0000                	unimp
     4a0:	a01a                	fsd	ft6,0(sp)
     4a2:	0001                	nop
     4a4:	1200                	addi	s0,sp,288
     4a6:	0120                	addi	s0,sp,136
     4a8:	0000                	unimp
     4aa:	2e01                	jal	7ba <realloc_beebs+0x3a>
     4ac:	00002c03          	lw	s8,0(zero) # 0 <_start>
     4b0:	8b00                	0x8b00
     4b2:	0011                	c.nop	4
     4b4:	0000                	unimp
     4b6:	1600                	addi	s0,sp,800
     4b8:	01d8                	addi	a4,sp,196
     4ba:	0000                	unimp
     4bc:	00000583          	lb	a1,0(zero) # 0 <_start>
     4c0:	3612                	fld	fa2,288(sp)
     4c2:	0001                	nop
     4c4:	0100                	addi	s0,sp,128
     4c6:	002c032f          	0x2c032f
     4ca:	0000                	unimp
     4cc:	11e0                	addi	s0,sp,236
     4ce:	0000                	unimp
     4d0:	0005441b          	0x5441b
     4d4:	1700                	addi	s0,sp,928
     4d6:	029c                	addi	a5,sp,320
     4d8:	0000                	unimp
     4da:	2f01                	jal	bea <__adddf3+0x276>
     4dc:	00059603          	lh	a2,0(a1)
     4e0:	1700                	addi	s0,sp,928
     4e2:	0065                	c.nop	25
     4e4:	0000                	unimp
     4e6:	2f01                	jal	bf6 <__adddf3+0x282>
     4e8:	00059603          	lh	a2,0(a1)
     4ec:	1700                	addi	s0,sp,928
     4ee:	00a1                	addi	ra,ra,8
     4f0:	0000                	unimp
     4f2:	2f01                	jal	c02 <__adddf3+0x28e>
     4f4:	00059603          	lh	a2,0(a1)
     4f8:	1700                	addi	s0,sp,928
     4fa:	01ee                	slli	gp,gp,0x1b
     4fc:	0000                	unimp
     4fe:	2f01                	jal	c0e <__adddf3+0x29a>
     500:	00059d03          	lh	s10,0(a1)
     504:	1700                	addi	s0,sp,928
     506:	0212                	slli	tp,tp,0x4
     508:	0000                	unimp
     50a:	2f01                	jal	c1a <__adddf3+0x2a6>
     50c:	00059d03          	lh	s10,0(a1)
     510:	1b00                	addi	s0,sp,432
     512:	00000523          	sb	zero,10(zero) # a <_start+0xa>
     516:	5f14                	lw	a3,56(a4)
     518:	785f 0100 032f      	0x32f0100785f
     51e:	059d                	addi	a1,a1,7
     520:	0000                	unimp
     522:	1b00                	addi	s0,sp,432
     524:	0535                	addi	a0,a0,13
     526:	0000                	unimp
     528:	5f14                	lw	a3,56(a4)
     52a:	785f 0100 032f      	0x32f0100785f
     530:	059d                	addi	a1,a1,7
     532:	0000                	unimp
     534:	1c00                	addi	s0,sp,560
     536:	5f14                	lw	a3,56(a4)
     538:	785f 0100 032f      	0x32f0100785f
     53e:	059d                	addi	a1,a1,7
     540:	0000                	unimp
     542:	0000                	unimp
     544:	3c19                	jal	ffffff5a <TOHOST_ADDR+0xffffe1a6>
     546:	000c                	0xc
     548:	1400                	addi	s0,sp,544
     54a:	0000                	unimp
     54c:	6200                	flw	fs0,0(a2)
     54e:	0005                	c.nop	1
     550:	1500                	addi	s0,sp,672
     552:	5f5f 0078 2f01      	0x2f0100785f5f
     558:	00059d03          	lh	s10,0(a1)
     55c:	f400                	fsw	fs0,40(s0)
     55e:	0011                	c.nop	4
     560:	0000                	unimp
     562:	0005741b          	0x5741b
     566:	1400                	addi	s0,sp,544
     568:	5f5f 0078 2f01      	0x2f0100785f5f
     56e:	00059d03          	lh	s10,0(a1)
     572:	0000                	unimp
     574:	141c                	addi	a5,sp,544
     576:	5f5f 0078 2f01      	0x2f0100785f5f
     57c:	00059d03          	lh	s10,0(a1)
     580:	0000                	unimp
     582:	1a00                	addi	s0,sp,304
     584:	01f8                	addi	a4,sp,204
     586:	0000                	unimp
     588:	00001a17          	auipc	s4,0x1
     58c:	0100                	addi	s0,sp,128
     58e:	00e6032f          	0xe6032f
     592:	0000                	unimp
     594:	0000                	unimp
     596:	0402                	c.slli64	s0
     598:	0905                	addi	s2,s2,1
     59a:	0002                	c.slli64	zero
     59c:	0200                	addi	s0,sp,256
     59e:	0704                	addi	s1,sp,896
     5a0:	010e                	slli	sp,sp,0x3
     5a2:	0000                	unimp
     5a4:	1300                	addi	s0,sp,416
     5a6:	0002                	c.slli64	zero
     5a8:	0400                	addi	s0,sp,512
     5aa:	9600                	0x9600
     5ac:	0001                	nop
     5ae:	0400                	addi	s0,sp,512
     5b0:	4f01                	li	t5,0
     5b2:	0001                	nop
     5b4:	0c00                	addi	s0,sp,528
     5b6:	02e4                	addi	s1,sp,332
     5b8:	0000                	unimp
     5ba:	0000023f 00001134 	0x11340000023f
     5c2:	0080                	addi	s0,sp,64
     5c4:	0000                	unimp
     5c6:	0ef2                	slli	t4,t4,0x1c
     5c8:	0000                	unimp
     5ca:	0802                	c.slli64	a6
     5cc:	9e04                	0x9e04
     5ce:	0004                	0x4
     5d0:	0300                	addi	s0,sp,384
     5d2:	0504                	addi	s1,sp,640
     5d4:	6e69                	lui	t3,0x1a
     5d6:	0074                	addi	a3,sp,12
     5d8:	0102                	c.slli64	sp
     5da:	4406                	lw	s0,64(sp)
     5dc:	0000                	unimp
     5de:	0400                	addi	s0,sp,512
     5e0:	0330                	addi	a2,sp,392
     5e2:	0000                	unimp
     5e4:	4802                	lw	a6,0(sp)
     5e6:	0d01                	addi	s10,s10,0
     5e8:	002c                	addi	a1,sp,8
     5ea:	0000                	unimp
     5ec:	0802                	c.slli64	a6
     5ee:	0405                	addi	s0,s0,1
     5f0:	0002                	c.slli64	zero
     5f2:	0400                	addi	s0,sp,512
     5f4:	00c0                	addi	s0,sp,68
     5f6:	0000                	unimp
     5f8:	4a02                	lw	s4,0(sp)
     5fa:	1601                	addi	a2,a2,-32
     5fc:	0060                	addi	s0,sp,12
     5fe:	0000                	unimp
     600:	4e05                	li	t3,1
     602:	0000                	unimp
     604:	0200                	addi	s0,sp,256
     606:	0801                	addi	a6,a6,0
     608:	0042                	c.slli	zero,0x10
     60a:	0000                	unimp
     60c:	2f04                	fld	fs1,24(a4)
     60e:	02000003          	lb	zero,32(zero) # 20 <_start+0x20>
     612:	7416014b          	0x7416014b
     616:	0000                	unimp
     618:	0200                	addi	s0,sp,256
     61a:	0704                	addi	s1,sp,896
     61c:	00000113          	li	sp,0
     620:	0802                	c.slli64	a6
     622:	00010907          	0x10907
     626:	0200                	addi	s0,sp,256
     628:	0702                	c.slli64	a4
     62a:	007a                	c.slli	zero,0x1e
     62c:	0000                	unimp
     62e:	5b06                	lw	s6,96(sp)
     630:	0000                	unimp
     632:	9900                	0x9900
     634:	0000                	unimp
     636:	0700                	addi	s0,sp,896
     638:	0074                	addi	a3,sp,12
     63a:	0000                	unimp
     63c:	00ff                	0xff
     63e:	8905                	andi	a0,a0,1
     640:	0000                	unimp
     642:	0800                	addi	s0,sp,16
     644:	00c8                	addi	a0,sp,68
     646:	0000                	unimp
     648:	3c04                	fld	fs1,56(s0)
     64a:	9916                	add	s2,s2,t0
     64c:	0000                	unimp
     64e:	0900                	addi	s0,sp,144
     650:	002d                	c.nop	11
     652:	0000                	unimp
     654:	250f4803          	lbu	a6,592(t5)
     658:	0000                	unimp
     65a:	0a00                	addi	s0,sp,272
     65c:	0308                	addi	a0,sp,384
     65e:	0100034f          	fnmadd.s	ft6,ft0,fa6,ft0,rne
     662:	0000                	unimp
     664:	00000e0b          	0xe0b
     668:	0300                	addi	s0,sp,384
     66a:	00740e57          	0x740e57
     66e:	0000                	unimp
     670:	2004                	fld	fs1,0(s0)
     672:	0000                	unimp
     674:	0000140b          	0x140b
     678:	0300                	addi	s0,sp,384
     67a:	0e58                	addi	a4,sp,788
     67c:	0074                	addi	a3,sp,12
     67e:	0000                	unimp
     680:	1404                	addi	s1,sp,544
     682:	040c                	addi	a1,sp,512
     684:	650c                	flw	fa1,8(a0)
     686:	7078                	flw	fa4,100(s0)
     688:	0300                	addi	s0,sp,384
     68a:	0e59                	addi	t3,t3,22
     68c:	0074                	addi	a3,sp,12
     68e:	0000                	unimp
     690:	0b04                	addi	s1,sp,400
     692:	0401                	addi	s0,s0,0
     694:	0005ac0b          	0x5ac0b
     698:	0300                	addi	s0,sp,384
     69a:	0e5a                	slli	t3,t3,0x16
     69c:	0074                	addi	a3,sp,12
     69e:	0000                	unimp
     6a0:	0104                	addi	s1,sp,128
     6a2:	0400                	addi	s0,sp,512
     6a4:	0d00                	addi	s0,sp,656
     6a6:	02ce                	slli	t0,t0,0x13
     6a8:	0000                	unimp
     6aa:	0308                	addi	a0,sp,384
     6ac:	074c                	addi	a1,sp,900
     6ae:	0126                	slli	sp,sp,0x9
     6b0:	0000                	unimp
     6b2:	660e                	flw	fa2,192(sp)
     6b4:	746c                	flw	fa1,108(s0)
     6b6:	0300                	addi	s0,sp,384
     6b8:	0a4e                	slli	s4,s4,0x13
     6ba:	00aa                	slli	ra,ra,0xa
     6bc:	0000                	unimp
     6be:	0002c90f          	0x2c90f
     6c2:	0300                	addi	s0,sp,384
     6c4:	055c                	addi	a5,sp,644
     6c6:	00b6                	slli	ra,ra,0xd
     6c8:	0000                	unimp
     6ca:	1000                	addi	s0,sp,32
     6cc:	0325                	addi	t1,t1,9
     6ce:	0000                	unimp
     6d0:	2301                	jal	bd0 <__adddf3+0x25c>
     6d2:	3a01                	jal	ffffffe2 <TOHOST_ADDR+0xffffe22e>
     6d4:	0000                	unimp
     6d6:	3400                	fld	fs0,40(s0)
     6d8:	0011                	c.nop	4
     6da:	8000                	0x8000
     6dc:	0000                	unimp
     6de:	0100                	addi	s0,sp,128
     6e0:	089c                	addi	a5,sp,80
     6e2:	0002                	c.slli64	zero
     6e4:	1100                	addi	s0,sp,160
     6e6:	0061                	c.nop	24
     6e8:	2301                	jal	be8 <__adddf3+0x274>
     6ea:	0000aa13          	slti	s4,ra,0
     6ee:	0700                	addi	s0,sp,896
     6f0:	0012                	c.slli	zero,0x4
     6f2:	1200                	addi	s0,sp,288
     6f4:	00000097          	auipc	ra,0x0
     6f8:	2501                	jal	cf8 <__adddf3+0x384>
     6fa:	00002c03          	lw	s8,0(zero) # 0 <_start>
     6fe:	0000                	unimp
     700:	da12                	sw	tp,52(sp)
     702:	0002                	c.slli64	zero
     704:	0100                	addi	s0,sp,128
     706:	0325                	addi	t1,t1,9
     708:	002c                	addi	a1,sp,8
     70a:	0000                	unimp
     70c:	1300                	addi	s0,sp,416
     70e:	5f41                	li	t5,-16
     710:	26010063          	beqz	sp,970 <simrv_puth+0x80>
     714:	00020803          	lb	a6,0(tp) # 4000 <TOHOST_ADDR+0x224c>
     718:	1400                	addi	s0,sp,544
     71a:	5f41                	li	t5,-16
     71c:	26010073          	0x26010073
     720:	00020803          	lb	a6,0(tp) # 0 <_start>
     724:	0600                	addi	s0,sp,768
     726:	ff08007b          	0xff08007b
     72a:	9f1a                	add	t5,t5,t1
     72c:	4115                	li	sp,5
     72e:	655f 0100 0326      	0x3260100655f
     734:	0208                	addi	a0,sp,256
     736:	0000                	unimp
     738:	0000128f          	0x128f
     73c:	bb16                	fsd	ft5,432(sp)
     73e:	0000                	unimp
     740:	0100                	addi	s0,sp,128
     742:	0326                	slli	t1,t1,0x9
     744:	0000020f          	0x20f
     748:	000012bb          	0x12bb
     74c:	8d16                	mv	s10,t0
     74e:	0000                	unimp
     750:	0100                	addi	s0,sp,128
     752:	0326                	slli	t1,t1,0x9
     754:	0000020f          	0x20f
     758:	000012e7          	0x12e7
     75c:	7215                	lui	tp,0xfffe5
     75e:	0100                	addi	s0,sp,128
     760:	00670b27          	0x670b27
     764:	0000                	unimp
     766:	1328                	addi	a0,sp,424
     768:	0000                	unimp
     76a:	00021017          	auipc	zero,0x21
     76e:	db00                	sw	s0,48(a4)
     770:	0001                	nop
     772:	1800                	addi	s0,sp,48
     774:	0050                	addi	a2,sp,4
     776:	0000                	unimp
     778:	2a01                	jal	888 <simrv_puti+0x48>
     77a:	00010003          	lb	zero,0(sp)
     77e:	0000                	unimp
     780:	ed19                	bnez	a0,79e <realloc_beebs+0x1e>
     782:	0001                	nop
     784:	1800                	addi	s0,sp,48
     786:	0312                	slli	t1,t1,0x4
     788:	0000                	unimp
     78a:	2b01                	jal	c9a <__adddf3+0x326>
     78c:	00002c03          	lw	s8,0(zero) # 0 <_start>
     790:	0000                	unimp
     792:	6c1a                	flw	fs8,132(sp)
     794:	0011                	c.nop	4
     796:	4000                	lw	s0,0(s0)
     798:	0000                	unimp
     79a:	1600                	addi	s0,sp,800
     79c:	0312                	slli	t1,t1,0x4
     79e:	0000                	unimp
     7a0:	2b01                	jal	cb0 <__adddf3+0x33c>
     7a2:	00002c03          	lw	s8,0(zero) # 0 <_start>
     7a6:	6000                	flw	fs0,0(s0)
     7a8:	00000013          	nop
     7ac:	0200                	addi	s0,sp,256
     7ae:	0504                	addi	s1,sp,640
     7b0:	0209                	addi	tp,tp,2
     7b2:	0000                	unimp
     7b4:	0402                	c.slli64	s0
     7b6:	00010e07          	0x10e07
     7ba:	0000                	unimp
     7bc:	02bc                	addi	a5,sp,328
     7be:	0000                	unimp
     7c0:	0004                	0x4
     7c2:	0320                	addi	s0,sp,392
     7c4:	0000                	unimp
     7c6:	0104                	addi	s1,sp,128
     7c8:	0000014f          	fnmadd.s	ft2,ft0,ft0,ft0,rne
     7cc:	370c                	fld	fa1,40(a4)
     7ce:	3f000003          	lb	zero,1008(zero) # 3f0 <ludcmp+0x2e4>
     7d2:	0002                	c.slli64	zero
     7d4:	b400                	fsd	fs0,40(s0)
     7d6:	0011                	c.nop	4
     7d8:	ac00                	fsd	fs0,24(s0)
     7da:	0000                	unimp
     7dc:	0b00                	addi	s0,sp,400
     7de:	0011                	c.nop	4
     7e0:	0200                	addi	s0,sp,256
     7e2:	0504                	addi	s1,sp,640
     7e4:	6e69                	lui	t3,0x1a
     7e6:	0074                	addi	a3,sp,12
     7e8:	44060103          	lb	sp,1088(a2)
     7ec:	0000                	unimp
     7ee:	0400                	addi	s0,sp,512
     7f0:	0330                	addi	a2,sp,392
     7f2:	0000                	unimp
     7f4:	4802                	lw	a6,0(sp)
     7f6:	0d01                	addi	s10,s10,0
     7f8:	0025                	c.nop	9
     7fa:	0000                	unimp
     7fc:	04050803          	lb	a6,64(a0)
     800:	0002                	c.slli64	zero
     802:	0400                	addi	s0,sp,512
     804:	00c0                	addi	s0,sp,68
     806:	0000                	unimp
     808:	4a02                	lw	s4,0(sp)
     80a:	1601                	addi	a2,a2,-32
     80c:	0059                	c.nop	22
     80e:	0000                	unimp
     810:	4705                	li	a4,1
     812:	0000                	unimp
     814:	0300                	addi	s0,sp,384
     816:	0801                	addi	a6,a6,0
     818:	0042                	c.slli	zero,0x10
     81a:	0000                	unimp
     81c:	2f04                	fld	fs1,24(a4)
     81e:	02000003          	lb	zero,32(zero) # 20 <_start+0x20>
     822:	6d16014b          	0x6d16014b
     826:	0000                	unimp
     828:	0300                	addi	s0,sp,384
     82a:	0704                	addi	s1,sp,896
     82c:	00000113          	li	sp,0
     830:	09070803          	lb	a6,144(a4)
     834:	0001                	nop
     836:	0300                	addi	s0,sp,384
     838:	0702                	c.slli64	a4
     83a:	007a                	c.slli	zero,0x1e
     83c:	0000                	unimp
     83e:	5406                	lw	s0,96(sp)
     840:	0000                	unimp
     842:	9200                	0x9200
     844:	0000                	unimp
     846:	0700                	addi	s0,sp,896
     848:	006d                	c.nop	27
     84a:	0000                	unimp
     84c:	00ff                	0xff
     84e:	8205                	srli	a2,a2,0x1
     850:	0000                	unimp
     852:	0800                	addi	s0,sp,16
     854:	00c8                	addi	a0,sp,68
     856:	0000                	unimp
     858:	3c04                	fld	fs1,56(s0)
     85a:	9216                	add	tp,tp,t0
     85c:	0000                	unimp
     85e:	0900                	addi	s0,sp,144
     860:	002d                	c.nop	11
     862:	0000                	unimp
     864:	af0f4803          	lbu	a6,-1296(t5)
     868:	0000                	unimp
     86a:	0300                	addi	s0,sp,384
     86c:	0408                	addi	a0,sp,512
     86e:	049e                	slli	s1,s1,0x7
     870:	0000                	unimp
     872:	080a                	slli	a6,a6,0x2
     874:	00034f03          	lbu	t5,0(t1)
     878:	0001                	nop
     87a:	0b00                	addi	s0,sp,400
     87c:	000e                	c.slli	zero,0x3
     87e:	0000                	unimp
     880:	6d0e5703          	lhu	a4,1744(t3) # 1a6d0 <TOHOST_ADDR+0x1891c>
     884:	0000                	unimp
     886:	0400                	addi	s0,sp,512
     888:	0020                	addi	s0,sp,8
     88a:	0b00                	addi	s0,sp,400
     88c:	0014                	0x14
     88e:	0000                	unimp
     890:	6d0e5803          	lhu	a6,1744(t3)
     894:	0000                	unimp
     896:	0400                	addi	s0,sp,512
     898:	0c14                	addi	a3,sp,528
     89a:	0c04                	addi	s1,sp,528
     89c:	7865                	lui	a6,0xffff9
     89e:	0070                	addi	a2,sp,12
     8a0:	6d0e5903          	lhu	s2,1744(t3)
     8a4:	0000                	unimp
     8a6:	0400                	addi	s0,sp,512
     8a8:	0b04010b          	0xb04010b
     8ac:	05ac                	addi	a1,sp,712
     8ae:	0000                	unimp
     8b0:	6d0e5a03          	lhu	s4,1744(t3)
     8b4:	0000                	unimp
     8b6:	0400                	addi	s0,sp,512
     8b8:	0001                	nop
     8ba:	0004                	0x4
     8bc:	ce0d                	beqz	a2,8f6 <simrv_puth+0x6>
     8be:	0002                	c.slli64	zero
     8c0:	0800                	addi	s0,sp,16
     8c2:	26074c03          	lbu	s8,608(a4)
     8c6:	0001                	nop
     8c8:	0e00                	addi	s0,sp,784
     8ca:	6c66                	flw	fs8,88(sp)
     8cc:	0074                	addi	a3,sp,12
     8ce:	a30a4e03          	lbu	t3,-1488(s4) # fb8 <__adddf3+0x644>
     8d2:	0000                	unimp
     8d4:	0f00                	addi	s0,sp,912
     8d6:	02c9                	addi	t0,t0,18
     8d8:	0000                	unimp
     8da:	b6055c03          	lhu	s8,-1184(a0)
     8de:	0000                	unimp
     8e0:	0000                	unimp
     8e2:	9410                	0x9410
     8e4:	01000003          	lb	zero,16(zero) # 10 <_start+0x10>
     8e8:	0124                	addi	s1,sp,136
     8ea:	000000a3          	sb	zero,1(zero) # 1 <_start+0x1>
     8ee:	11b4                	addi	a3,sp,232
     8f0:	0000                	unimp
     8f2:	00ac                	addi	a1,sp,72
     8f4:	0000                	unimp
     8f6:	9c01                	0x9c01
     8f8:	02b1                	addi	t0,t0,12
     8fa:	0000                	unimp
     8fc:	6911                	lui	s2,0x4
     8fe:	0100                	addi	s0,sp,128
     900:	1524                	addi	s1,sp,680
     902:	00000033          	add	zero,zero,zero
     906:	1374                	addi	a3,sp,428
     908:	0000                	unimp
     90a:	4112                	lw	sp,4(sp)
     90c:	635f 0100 0326      	0x3260100635f
     912:	02b1                	addi	t0,t0,12
     914:	0000                	unimp
     916:	735f4113          	xori	sp,t5,1845
     91a:	0100                	addi	s0,sp,128
     91c:	0326                	slli	t1,t1,0x9
     91e:	02b1                	addi	t0,t0,12
     920:	0000                	unimp
     922:	13a0                	addi	s0,sp,488
     924:	0000                	unimp
     926:	655f4113          	xori	sp,t5,1621
     92a:	0100                	addi	s0,sp,128
     92c:	0326                	slli	t1,t1,0x9
     92e:	02b1                	addi	t0,t0,12
     930:	0000                	unimp
     932:	13c9                	addi	t2,t2,-14
     934:	0000                	unimp
     936:	bb14                	fsd	fa3,48(a4)
     938:	0000                	unimp
     93a:	0100                	addi	s0,sp,128
     93c:	0326                	slli	t1,t1,0x9
     93e:	02b8                	addi	a4,sp,328
     940:	0000                	unimp
     942:	000013e7          	0x13e7
     946:	8d14                	0x8d14
     948:	0000                	unimp
     94a:	0100                	addi	s0,sp,128
     94c:	0326                	slli	t1,t1,0x9
     94e:	02b8                	addi	a4,sp,328
     950:	0000                	unimp
     952:	141c                	addi	a5,sp,544
     954:	0000                	unimp
     956:	6112                	flw	ft2,4(sp)
     958:	0100                	addi	s0,sp,128
     95a:	00a30a27          	0xa30a27
     95e:	0000                	unimp
     960:	2815                	jal	994 <__adddf3+0x20>
     962:	0002                	c.slli64	zero
     964:	9a00                	0x9a00
     966:	0002                	c.slli64	zero
     968:	1600                	addi	s0,sp,800
     96a:	00000367          	jalr	t1,zero # 0 <_start>
     96e:	2901                	jal	d7e <__adddf3+0x40a>
     970:	02481703          	lh	a4,36(a6) # ffff9024 <TOHOST_ADDR+0xffff7270>
     974:	0000                	unimp
     976:	7414                	flw	fa3,40(s0)
     978:	01000003          	lb	zero,16(zero) # 10 <_start+0x10>
     97c:	0329                	addi	t1,t1,10
     97e:	0060                	addi	s0,sp,12
     980:	0000                	unimp
     982:	1452                	slli	s0,s0,0x34
     984:	0000                	unimp
     986:	6015                	c.lui	zero,0x5
     988:	0002                	c.slli64	zero
     98a:	e400                	fsw	fs0,8(s0)
     98c:	0001                	nop
     98e:	1400                	addi	s0,sp,544
     990:	0384                	addi	s1,sp,448
     992:	0000                	unimp
     994:	2901                	jal	da4 <__adddf3+0x430>
     996:	00002503          	lw	a0,0(zero) # 0 <_start>
     99a:	9500                	0x9500
     99c:	0014                	0x14
     99e:	0000                	unimp
     9a0:	1918                	addi	a4,sp,176
     9a2:	0136                	slli	sp,sp,0xd
     9a4:	0000                	unimp
     9a6:	2901                	jal	db6 <__adddf3+0x442>
     9a8:	00002503          	lw	a0,0(zero) # 0 <_start>
     9ac:	1a00                	addi	s0,sp,304
     9ae:	0265                	addi	tp,tp,25
     9b0:	0000                	unimp
     9b2:	9c19                	0x9c19
     9b4:	0002                	c.slli64	zero
     9b6:	0100                	addi	s0,sp,128
     9b8:	0329                	addi	t1,t1,10
     9ba:	02b1                	addi	t0,t0,12
     9bc:	0000                	unimp
     9be:	6519                	lui	a0,0x6
     9c0:	0000                	unimp
     9c2:	0100                	addi	s0,sp,128
     9c4:	0329                	addi	t1,t1,10
     9c6:	02b1                	addi	t0,t0,12
     9c8:	0000                	unimp
     9ca:	a119                	j	dd0 <__adddf3+0x45c>
     9cc:	0000                	unimp
     9ce:	0100                	addi	s0,sp,128
     9d0:	0329                	addi	t1,t1,10
     9d2:	02b1                	addi	t0,t0,12
     9d4:	0000                	unimp
     9d6:	ee19                	bnez	a2,9f4 <__adddf3+0x80>
     9d8:	0001                	nop
     9da:	0100                	addi	s0,sp,128
     9dc:	0329                	addi	t1,t1,10
     9de:	02b8                	addi	a4,sp,328
     9e0:	0000                	unimp
     9e2:	1219                	addi	tp,tp,-26
     9e4:	0002                	c.slli64	zero
     9e6:	0100                	addi	s0,sp,128
     9e8:	0329                	addi	t1,t1,10
     9ea:	02b8                	addi	a4,sp,328
     9ec:	0000                	unimp
     9ee:	441a                	lw	s0,132(sp)
     9f0:	0002                	c.slli64	zero
     9f2:	1200                	addi	s0,sp,288
     9f4:	5f5f 0078 2901      	0x290100785f5f
     9fa:	0002b803          	0x2b803
     9fe:	0000                	unimp
     a00:	561a                	lw	a2,164(sp)
     a02:	0002                	c.slli64	zero
     a04:	1200                	addi	s0,sp,288
     a06:	5f5f 0078 2901      	0x290100785f5f
     a0c:	0002b803          	0x2b803
     a10:	0000                	unimp
     a12:	1218                	addi	a4,sp,288
     a14:	5f5f 0078 2901      	0x290100785f5f
     a1a:	0002b803          	0x2b803
     a1e:	0000                	unimp
     a20:	1a00                	addi	s0,sp,304
     a22:	00000277          	0x277
     a26:	5f12                	lw	t5,36(sp)
     a28:	785f 0100 0329      	0x3290100785f
     a2e:	02b8                	addi	a4,sp,328
     a30:	0000                	unimp
     a32:	1a00                	addi	s0,sp,304
     a34:	0289                	addi	t0,t0,2
     a36:	0000                	unimp
     a38:	5f12                	lw	t5,36(sp)
     a3a:	785f 0100 0329      	0x3290100785f
     a40:	02b8                	addi	a4,sp,328
     a42:	0000                	unimp
     a44:	1800                	addi	s0,sp,48
     a46:	5f12                	lw	t5,36(sp)
     a48:	785f 0100 0329      	0x3290100785f
     a4e:	02b8                	addi	a4,sp,328
     a50:	0000                	unimp
     a52:	0000                	unimp
     a54:	0000                	unimp
     a56:	0012081b          	0x12081b
     a5a:	1c00                	addi	s0,sp,560
     a5c:	0000                	unimp
     a5e:	1900                	addi	s0,sp,176
     a60:	001a                	c.slli	zero,0x6
     a62:	0000                	unimp
     a64:	2a01                	jal	b74 <__adddf3+0x200>
     a66:	00010003          	lb	zero,0(sp)
     a6a:	0000                	unimp
     a6c:	0300                	addi	s0,sp,384
     a6e:	0504                	addi	s1,sp,640
     a70:	0209                	addi	tp,tp,2
     a72:	0000                	unimp
     a74:	0e070403          	lb	s0,224(a4)
     a78:	0001                	nop
     a7a:	0000                	unimp
     a7c:	0022                	c.slli	zero,0x8
     a7e:	0000                	unimp
     a80:	0002                	c.slli64	zero
     a82:	04a1                	addi	s1,s1,8
     a84:	0000                	unimp
     a86:	0104                	addi	s1,sp,128
     a88:	1322                	slli	t1,t1,0x28
     a8a:	0000                	unimp
     a8c:	1260                	addi	s0,sp,300
     a8e:	0000                	unimp
     a90:	1284                	addi	s1,sp,352
     a92:	0000                	unimp
     a94:	03a0                	addi	s0,sp,456
     a96:	0000                	unimp
     a98:	0000023f 000003d2 	0x3d20000023f
     aa0:	8001                	c.srli64	s0
     aa2:	0022                	c.slli	zero,0x8
     aa4:	0000                	unimp
     aa6:	0002                	c.slli64	zero
     aa8:	04b5                	addi	s1,s1,13
     aaa:	0000                	unimp
     aac:	0104                	addi	s1,sp,128
     aae:	13b4                	addi	a3,sp,488
     ab0:	0000                	unimp
     ab2:	1284                	addi	s1,sp,352
     ab4:	0000                	unimp
     ab6:	1338                	addi	a4,sp,424
     ab8:	0000                	unimp
     aba:	03de                	slli	t2,t2,0x17
     abc:	0000                	unimp
     abe:	0000023f 000003d2 	0x3d20000023f
     ac6:	8001                	c.srli64	s0
     ac8:	0ba8                	addi	a0,sp,472
     aca:	0000                	unimp
     acc:	0004                	0x4
     ace:	04c9                	addi	s1,s1,18
     ad0:	0000                	unimp
     ad2:	0104                	addi	s1,sp,128
     ad4:	0000014f          	fnmadd.s	ft2,ft0,ft0,ft0,rne
     ad8:	7c0c                	flw	fa1,56(s0)
     ada:	0009                	c.nop	2
     adc:	3f00                	fld	fs0,56(a4)
     ade:	0002                	c.slli64	zero
     ae0:	3800                	fld	fs0,48(s0)
     ae2:	4c000013          	li	zero,1216
     ae6:	0000                	unimp
     ae8:	1c00                	addi	s0,sp,560
     aea:	0015                	c.nop	5
     aec:	0200                	addi	s0,sp,256
     aee:	0504                	addi	s1,sp,640
     af0:	6e69                	lui	t3,0x1a
     af2:	0074                	addi	a3,sp,12
     af4:	13070403          	lb	s0,304(a4)
     af8:	0001                	nop
     afa:	0300                	addi	s0,sp,384
     afc:	0508                	addi	a0,sp,640
     afe:	0204                	addi	s1,sp,256
     b00:	0000                	unimp
     b02:	99041003          	lh	zero,-1648(s0)
     b06:	0004                	0x4
     b08:	0300                	addi	s0,sp,384
     b0a:	0601                	addi	a2,a2,0
     b0c:	0044                	addi	s1,sp,4
     b0e:	0000                	unimp
     b10:	42080103          	lb	sp,1056(a6)
     b14:	0000                	unimp
     b16:	0300                	addi	s0,sp,384
     b18:	0502                	c.slli64	a0
     b1a:	040d                	addi	s0,s0,3
     b1c:	0000                	unimp
     b1e:	7a070203          	lb	tp,1952(a4)
     b22:	0000                	unimp
     b24:	0300                	addi	s0,sp,384
     b26:	0504                	addi	s1,sp,640
     b28:	0209                	addi	tp,tp,2
     b2a:	0000                	unimp
     b2c:	0e070403          	lb	s0,224(a4)
     b30:	0001                	nop
     b32:	0300                	addi	s0,sp,384
     b34:	0708                	addi	a0,sp,896
     b36:	0109                	addi	sp,sp,2
     b38:	0000                	unimp
     b3a:	4804                	lw	s1,16(s0)
     b3c:	02000007          	0x2000007
     b40:	0d0c                	addi	a1,sp,656
     b42:	0025                	c.nop	9
     b44:	0000                	unimp
     b46:	2204                	fld	fs1,0(a2)
     b48:	03000007          	0x3000007
     b4c:	0e2c                	addi	a1,sp,792
     b4e:	005d                	c.nop	23
     b50:	0000                	unimp
     b52:	5d04                	lw	s1,56(a0)
     b54:	0008                	0x8
     b56:	0300                	addi	s0,sp,384
     b58:	0e72                	slli	t3,t3,0x1c
     b5a:	005d                	c.nop	23
     b5c:	0000                	unimp
     b5e:	ec04                	fsw	fs1,24(s0)
     b60:	0008                	0x8
     b62:	0300                	addi	s0,sp,384
     b64:	1791                	addi	a5,a5,-28
     b66:	0025                	c.nop	9
     b68:	0000                	unimp
     b6a:	6805                	lui	a6,0x1
     b6c:	0006                	c.slli	zero,0x1
     b6e:	0400                	addi	s0,sp,512
     b70:	0165                	addi	sp,sp,25
     b72:	00002c17          	auipc	s8,0x2
     b76:	0600                	addi	s0,sp,768
     b78:	0304                	addi	s1,sp,384
     b7a:	03a6                	slli	t2,t2,0x9
     b7c:	00d1                	addi	ra,ra,20
     b7e:	0000                	unimp
     b80:	00064f07          	flq	ft10,0(a2)
     b84:	0300                	addi	s0,sp,384
     b86:	0ca8                	addi	a0,sp,600
     b88:	00a2                	slli	ra,ra,0x8
     b8a:	0000                	unimp
     b8c:	0005f607          	0x5f607
     b90:	0300                	addi	s0,sp,384
     b92:	13a9                	addi	t2,t2,-22
     b94:	00d1                	addi	ra,ra,20
     b96:	0000                	unimp
     b98:	0800                	addi	s0,sp,16
     b9a:	0048                	addi	a0,sp,4
     b9c:	0000                	unimp
     b9e:	00e1                	addi	ra,ra,24
     ba0:	0000                	unimp
     ba2:	2c09                	jal	db4 <__adddf3+0x440>
     ba4:	0000                	unimp
     ba6:	0300                	addi	s0,sp,384
     ba8:	0a00                	addi	s0,sp,272
     baa:	0308                	addi	a0,sp,384
     bac:	010509a3          	sb	a6,19(a0) # 6013 <TOHOST_ADDR+0x425f>
     bb0:	0000                	unimp
     bb2:	0008470b          	0x8470b
     bb6:	0300                	addi	s0,sp,384
     bb8:	07a5                	addi	a5,a5,9
     bba:	0025                	c.nop	9
     bbc:	0000                	unimp
     bbe:	0b00                	addi	s0,sp,400
     bc0:	0000084f          	fnmadd.s	fa6,ft0,ft0,ft0,rne
     bc4:	af05aa03          	lw	s4,-1296(a1)
     bc8:	0000                	unimp
     bca:	0400                	addi	s0,sp,512
     bcc:	0400                	addi	s0,sp,512
     bce:	073d                	addi	a4,a4,15
     bd0:	0000                	unimp
     bd2:	e103ab03          	lw	s6,-496(t2)
     bd6:	0000                	unimp
     bd8:	0400                	addi	s0,sp,512
     bda:	00000797          	auipc	a5,0x0
     bde:	721baf03          	lw	t5,1825(s7)
     be2:	0000                	unimp
     be4:	0c00                	addi	s0,sp,528
     be6:	0404                	addi	s1,sp,512
     be8:	089d                	addi	a7,a7,7
     bea:	0000                	unimp
     bec:	1605                	addi	a2,a2,-31
     bee:	6419                	lui	s0,0x6
     bf0:	0000                	unimp
     bf2:	0d00                	addi	s0,sp,656
     bf4:	05b9                	addi	a1,a1,14
     bf6:	0000                	unimp
     bf8:	0518                	addi	a4,sp,640
     bfa:	0185082f          	0x185082f
     bfe:	0000                	unimp
     c00:	0007ea0b          	0x7ea0b
     c04:	0500                	addi	s0,sp,640
     c06:	1331                	addi	t1,t1,-20
     c08:	0185                	addi	gp,gp,1
     c0a:	0000                	unimp
     c0c:	0e00                	addi	s0,sp,784
     c0e:	6b5f 0500 0732      	0x73205006b5f
     c14:	0025                	c.nop	9
     c16:	0000                	unimp
     c18:	0b04                	addi	s1,sp,400
     c1a:	0832                	slli	a6,a6,0xc
     c1c:	0000                	unimp
     c1e:	3205                	jal	53e <benchmark_body+0x82>
     c20:	0000250b          	0x250b
     c24:	0800                	addi	s0,sp,16
     c26:	0005ab0b          	0x5ab0b
     c2a:	0500                	addi	s0,sp,640
     c2c:	1432                	slli	s0,s0,0x2c
     c2e:	0025                	c.nop	9
     c30:	0000                	unimp
     c32:	0b0c                	addi	a1,sp,400
     c34:	00000547          	fmsub.s	fa0,ft0,ft0,ft0,rne
     c38:	3205                	jal	558 <benchmark_body+0x9c>
     c3a:	0000251b          	0x251b
     c3e:	1000                	addi	s0,sp,32
     c40:	5f0e                	lw	t5,224(sp)
     c42:	0078                	addi	a4,sp,12
     c44:	3305                	jal	964 <simrv_puth+0x74>
     c46:	00018b0b          	0x18b0b
     c4a:	1400                	addi	s0,sp,544
     c4c:	0f00                	addi	s0,sp,912
     c4e:	2b04                	fld	fs1,16(a4)
     c50:	0001                	nop
     c52:	0800                	addi	s0,sp,16
     c54:	011f 0000 019b      	0x19b0000011f
     c5a:	0000                	unimp
     c5c:	2c09                	jal	e6e <__adddf3+0x4fa>
     c5e:	0000                	unimp
     c60:	0000                	unimp
     c62:	0d00                	addi	s0,sp,656
     c64:	05d9                	addi	a1,a1,22
     c66:	0000                	unimp
     c68:	0524                	addi	s1,sp,648
     c6a:	021e0837          	lui	a6,0x21e0
     c6e:	0000                	unimp
     c70:	0004df0b          	0x4df0b
     c74:	0500                	addi	s0,sp,640
     c76:	0939                	addi	s2,s2,14
     c78:	0025                	c.nop	9
     c7a:	0000                	unimp
     c7c:	0b00                	addi	s0,sp,400
     c7e:	0940                	addi	s0,sp,148
     c80:	0000                	unimp
     c82:	3a05                	jal	5b2 <benchmark_body+0xf6>
     c84:	2509                	jal	1286 <__divsi3+0x2>
     c86:	0000                	unimp
     c88:	0400                	addi	s0,sp,512
     c8a:	0004fb0b          	0x4fb0b
     c8e:	0500                	addi	s0,sp,640
     c90:	0025093b          	0x25093b
     c94:	0000                	unimp
     c96:	0b08                	addi	a0,sp,400
     c98:	09a2                	slli	s3,s3,0x8
     c9a:	0000                	unimp
     c9c:	3c05                	jal	6cc <malloc_beebs+0x8>
     c9e:	2509                	jal	12a0 <__udivsi3+0x14>
     ca0:	0000                	unimp
     ca2:	0c00                	addi	s0,sp,528
     ca4:	0006fc0b          	0x6fc0b
     ca8:	0500                	addi	s0,sp,640
     caa:	093d                	addi	s2,s2,15
     cac:	0025                	c.nop	9
     cae:	0000                	unimp
     cb0:	0b10                	addi	a2,sp,400
     cb2:	06b0                	addi	a2,sp,840
     cb4:	0000                	unimp
     cb6:	3e05                	jal	7e6 <free_beebs+0x2>
     cb8:	2509                	jal	12ba <__udivsi3+0x2e>
     cba:	0000                	unimp
     cbc:	1400                	addi	s0,sp,544
     cbe:	0008d50b          	0x8d50b
     cc2:	0500                	addi	s0,sp,640
     cc4:	0025093f 0b180000 	0xb1800000025093f
     ccc:	07a0                	addi	s0,sp,968
     cce:	0000                	unimp
     cd0:	4005                	c.li	zero,1
     cd2:	2509                	jal	12d4 <__umodsi3>
     cd4:	0000                	unimp
     cd6:	1c00                	addi	s0,sp,560
     cd8:	0009260b          	0x9260b
     cdc:	0500                	addi	s0,sp,640
     cde:	0941                	addi	s2,s2,16
     ce0:	0025                	c.nop	9
     ce2:	0000                	unimp
     ce4:	0020                	addi	s0,sp,8
     ce6:	1a10                	addi	a2,sp,304
     ce8:	0005                	c.nop	1
     cea:	0800                	addi	s0,sp,16
     cec:	0501                	addi	a0,a0,0
     cee:	084a                	slli	a6,a6,0x12
     cf0:	00000263          	beqz	zero,cf4 <__adddf3+0x380>
     cf4:	00059e0b          	0x59e0b
     cf8:	0500                	addi	s0,sp,640
     cfa:	02630a4b          	fnmsub.d	fs4,ft6,ft6,ft0,rne
     cfe:	0000                	unimp
     d00:	0b00                	addi	s0,sp,400
     d02:	00000773          	0x773
     d06:	4c05                	li	s8,1
     d08:	6309                	lui	t1,0x2
     d0a:	0002                	c.slli64	zero
     d0c:	8000                	0x8000
     d0e:	8f11                	sub	a4,a4,a2
     d10:	0008                	0x8
     d12:	0500                	addi	s0,sp,640
     d14:	0a4e                	slli	s4,s4,0x13
     d16:	011f 0000 0100      	0x1000000011f
     d1c:	3f11                	jal	c30 <__adddf3+0x2bc>
     d1e:	0005                	c.nop	1
     d20:	0500                	addi	s0,sp,640
     d22:	0a51                	addi	s4,s4,20
     d24:	011f 0000 0104      	0x1040000011f
     d2a:	0800                	addi	s0,sp,16
     d2c:	011d                	addi	sp,sp,7
     d2e:	0000                	unimp
     d30:	00000273          	0x273
     d34:	2c09                	jal	f46 <__adddf3+0x5d2>
     d36:	0000                	unimp
     d38:	1f00                	addi	s0,sp,944
     d3a:	1000                	addi	s0,sp,32
     d3c:	0705                	addi	a4,a4,1
     d3e:	0000                	unimp
     d40:	0190                	addi	a2,sp,192
     d42:	5d05                	li	s10,-31
     d44:	b608                	fsd	fa0,40(a2)
     d46:	0002                	c.slli64	zero
     d48:	0b00                	addi	s0,sp,400
     d4a:	07ea                	slli	a5,a5,0x1a
     d4c:	0000                	unimp
     d4e:	5e05                	li	t3,-31
     d50:	b612                	fsd	ft4,296(sp)
     d52:	0002                	c.slli64	zero
     d54:	0000                	unimp
     d56:	0008020b          	0x8020b
     d5a:	0500                	addi	s0,sp,640
     d5c:	065f 0025 0000      	0x25065f
     d62:	0b04                	addi	s1,sp,400
     d64:	05a6                	slli	a1,a1,0x9
     d66:	0000                	unimp
     d68:	6105                	addi	sp,sp,32
     d6a:	bc09                	j	77c <calloc_beebs+0x74>
     d6c:	0002                	c.slli64	zero
     d6e:	0800                	addi	s0,sp,16
     d70:	00051a0b          	0x51a0b
     d74:	0500                	addi	s0,sp,640
     d76:	1e62                	slli	t3,t3,0x38
     d78:	021e                	slli	tp,tp,0x7
     d7a:	0000                	unimp
     d7c:	0088                	addi	a0,sp,64
     d7e:	0273040f          	0x273040f
     d82:	0000                	unimp
     d84:	cc08                	sw	a0,24(s0)
     d86:	0002                	c.slli64	zero
     d88:	cc00                	sw	s0,24(s0)
     d8a:	0002                	c.slli64	zero
     d8c:	0900                	addi	s0,sp,144
     d8e:	002c                	addi	a1,sp,8
     d90:	0000                	unimp
     d92:	001f 040f 02d2      	0x2d2040f001f
     d98:	0000                	unimp
     d9a:	0d12                	slli	s10,s10,0x4
     d9c:	07aa                	slli	a5,a5,0xa
     d9e:	0000                	unimp
     da0:	0508                	addi	a0,sp,640
     da2:	0875                	addi	a6,a6,29
     da4:	000002fb          	0x2fb
     da8:	0004f50b          	0x4f50b
     dac:	0500                	addi	s0,sp,640
     dae:	1176                	slli	sp,sp,0x3d
     db0:	000002fb          	0x2fb
     db4:	0b00                	addi	s0,sp,400
     db6:	086e                	slli	a6,a6,0x1b
     db8:	0000                	unimp
     dba:	7705                	lui	a4,0xfffe1
     dbc:	2506                	fld	fa0,64(sp)
     dbe:	0000                	unimp
     dc0:	0400                	addi	s0,sp,512
     dc2:	0f00                	addi	s0,sp,912
     dc4:	4804                	lw	s1,16(s0)
     dc6:	0000                	unimp
     dc8:	0d00                	addi	s0,sp,656
     dca:	000007d3          	fadd.s	fa5,ft0,ft0,rne
     dce:	0568                	addi	a0,sp,652
     dd0:	08b5                	addi	a7,a7,13
     dd2:	0444                	addi	s1,sp,516
     dd4:	0000                	unimp
     dd6:	5f0e                	lw	t5,224(sp)
     dd8:	0070                	addi	a2,sp,12
     dda:	b605                	j	8fa <simrv_puth+0xa>
     ddc:	fb12                	fsw	ft4,180(sp)
     dde:	0002                	c.slli64	zero
     de0:	0000                	unimp
     de2:	5f0e                	lw	t5,224(sp)
     de4:	0072                	c.slli	zero,0x1c
     de6:	b705                	j	d06 <__adddf3+0x392>
     de8:	00002507          	flw	fa0,0(zero) # 0 <_start>
     dec:	0400                	addi	s0,sp,512
     dee:	5f0e                	lw	t5,224(sp)
     df0:	b8050077          	0xb8050077
     df4:	00002507          	flw	fa0,0(zero) # 0 <_start>
     df8:	0800                	addi	s0,sp,16
     dfa:	0005380b          	0x5380b
     dfe:	0500                	addi	s0,sp,640
     e00:	09b9                	addi	s3,s3,14
     e02:	0000004f          	fnmadd.s	ft0,ft0,ft0,ft0,rne
     e06:	0b0c                	addi	a1,sp,400
     e08:	0605                	addi	a2,a2,1
     e0a:	0000                	unimp
     e0c:	ba05                	j	73c <calloc_beebs+0x34>
     e0e:	4f09                	li	t5,2
     e10:	0000                	unimp
     e12:	0e00                	addi	s0,sp,784
     e14:	5f0e                	lw	t5,224(sp)
     e16:	6662                	flw	fa2,24(sp)
     e18:	0500                	addi	s0,sp,640
     e1a:	02d311bb          	0x2d311bb
     e1e:	0000                	unimp
     e20:	0b10                	addi	a2,sp,400
     e22:	0488                	addi	a0,sp,576
     e24:	0000                	unimp
     e26:	bc05                	j	856 <simrv_puti+0x16>
     e28:	00002507          	flw	fa0,0(zero) # 0 <_start>
     e2c:	1800                	addi	s0,sp,48
     e2e:	0005280b          	0x5280b
     e32:	0500                	addi	s0,sp,640
     e34:	011d0ac3          	fmadd.s	fs5,fs10,fa7,ft0,rne
     e38:	0000                	unimp
     e3a:	0b1c                	addi	a5,sp,400
     e3c:	075a                	slli	a4,a4,0x16
     e3e:	0000                	unimp
     e40:	c505                	beqz	a0,e68 <__adddf3+0x4f4>
     e42:	c81d                	beqz	s0,e78 <__adddf3+0x504>
     e44:	0005                	c.nop	1
     e46:	2000                	fld	fs0,0(s0)
     e48:	0006a90b          	0x6a90b
     e4c:	0500                	addi	s0,sp,640
     e4e:	05f71dc7          	0x5f71dc7
     e52:	0000                	unimp
     e54:	0b24                	addi	s1,sp,408
     e56:	00000857          	0x857
     e5a:	ca05                	beqz	a2,e8a <__adddf3+0x516>
     e5c:	1b0d                	addi	s6,s6,-29
     e5e:	0006                	c.slli	zero,0x1
     e60:	2800                	fld	fs0,16(s0)
     e62:	0004e80b          	0x4e80b
     e66:	0500                	addi	s0,sp,640
     e68:	063509cb          	fnmsub.q	fs3,fa0,ft3,ft0,rne
     e6c:	0000                	unimp
     e6e:	0e2c                	addi	a1,sp,792
     e70:	755f 0062 ce05      	0xce050062755f
     e76:	d311                	beqz	a4,d7a <__adddf3+0x406>
     e78:	0002                	c.slli64	zero
     e7a:	3000                	fld	fs0,32(s0)
     e7c:	5f0e                	lw	t5,224(sp)
     e7e:	7075                	c.lui	zero,0xffffd
     e80:	0500                	addi	s0,sp,640
     e82:	02fb12cf          	fnmadd.d	ft5,fs6,fa5,ft0,rtz
     e86:	0000                	unimp
     e88:	0e38                	addi	a4,sp,792
     e8a:	755f 0072 d005      	0xd0050072755f
     e90:	00002507          	flw	fa0,0(zero) # 0 <_start>
     e94:	3c00                	fld	fs0,56(s0)
     e96:	0004ef0b          	0x4ef0b
     e9a:	0500                	addi	s0,sp,640
     e9c:	063b11d3          	fadd.q	ft3,fs6,ft3,rtz
     ea0:	0000                	unimp
     ea2:	0b40                	addi	s0,sp,404
     ea4:	0918                	addi	a4,sp,144
     ea6:	0000                	unimp
     ea8:	d405                	beqz	s0,dd0 <__adddf3+0x45c>
     eaa:	4b11                	li	s6,4
     eac:	0006                	c.slli	zero,0x1
     eae:	4300                	lw	s0,0(a4)
     eb0:	5f0e                	lw	t5,224(sp)
     eb2:	626c                	flw	fa1,68(a2)
     eb4:	0500                	addi	s0,sp,640
     eb6:	02d311d7          	0x2d311d7
     eba:	0000                	unimp
     ebc:	0b44                	addi	s1,sp,404
     ebe:	0865                	addi	a6,a6,25
     ec0:	0000                	unimp
     ec2:	da05                	beqz	a2,df2 <__adddf3+0x47e>
     ec4:	00002507          	flw	fa0,0(zero) # 0 <_start>
     ec8:	4c00                	lw	s0,24(s0)
     eca:	0006d80b          	0x6d80b
     ece:	0500                	addi	s0,sp,640
     ed0:	007e0adb          	0x7e0adb
     ed4:	0000                	unimp
     ed6:	0b50                	addi	a2,sp,404
     ed8:	0462                	slli	s0,s0,0x18
     eda:	0000                	unimp
     edc:	de05                	beqz	a2,e14 <__adddf3+0x4a0>
     ede:	6212                	flw	ft4,4(sp)
     ee0:	0004                	0x4
     ee2:	5400                	lw	s0,40(s0)
     ee4:	00066f0b          	0x66f0b
     ee8:	0500                	addi	s0,sp,640
     eea:	0ce2                	slli	s9,s9,0x18
     eec:	0111                	addi	sp,sp,4
     eee:	0000                	unimp
     ef0:	0b58                	addi	a4,sp,404
     ef2:	05ed                	addi	a1,a1,27
     ef4:	0000                	unimp
     ef6:	e405                	bnez	s0,f1e <__adddf3+0x5aa>
     ef8:	050e                	slli	a0,a0,0x3
     efa:	0001                	nop
     efc:	5c00                	lw	s0,56(s0)
     efe:	0007b10b          	0x7b10b
     f02:	0500                	addi	s0,sp,640
     f04:	09e5                	addi	s3,s3,25
     f06:	0025                	c.nop	9
     f08:	0000                	unimp
     f0a:	0064                	addi	s1,sp,12
     f0c:	00009613          	slli	a2,ra,0x0
     f10:	6200                	flw	fs0,0(a2)
     f12:	0004                	0x4
     f14:	1400                	addi	s0,sp,544
     f16:	0462                	slli	s0,s0,0x18
     f18:	0000                	unimp
     f1a:	1d14                	addi	a3,sp,688
     f1c:	0001                	nop
     f1e:	1400                	addi	s0,sp,544
     f20:	05b6                	slli	a1,a1,0xd
     f22:	0000                	unimp
     f24:	2514                	fld	fa3,8(a0)
     f26:	0000                	unimp
     f28:	0000                	unimp
     f2a:	046d040f          	0x46d040f
     f2e:	0000                	unimp
     f30:	6215                	lui	tp,0x5
     f32:	0004                	0x4
     f34:	1600                	addi	s0,sp,800
     f36:	083a                	slli	a6,a6,0xe
     f38:	0000                	unimp
     f3a:	0428                	addi	a0,sp,520
     f3c:	6005                	c.lui	zero,0x1
     f3e:	0802                	c.slli64	a6
     f40:	05b6                	slli	a1,a1,0xd
     f42:	0000                	unimp
     f44:	00079017          	auipc	zero,0x79
     f48:	0500                	addi	s0,sp,640
     f4a:	0262                	slli	tp,tp,0x18
     f4c:	00002507          	flw	fa0,0(zero) # 0 <_start>
     f50:	0000                	unimp
     f52:	0008e517          	auipc	a0,0x8e
     f56:	0500                	addi	s0,sp,640
     f58:	a70b0267          	jalr	tp,-1424(s6)
     f5c:	0006                	c.slli	zero,0x1
     f5e:	0400                	addi	s0,sp,512
     f60:	0008cd17          	auipc	s10,0x8c
     f64:	0500                	addi	s0,sp,640
     f66:	a7140267          	jalr	tp,-1423(s0) # 5a71 <TOHOST_ADDR+0x3cbd>
     f6a:	0006                	c.slli	zero,0x1
     f6c:	0800                	addi	s0,sp,16
     f6e:	0005b117          	auipc	sp,0x5b
     f72:	0500                	addi	s0,sp,640
     f74:	a71e0267          	jalr	tp,-1423(t3) # 19a71 <TOHOST_ADDR+0x17cbd>
     f78:	0006                	c.slli	zero,0x1
     f7a:	0c00                	addi	s0,sp,528
     f7c:	0007fd17          	auipc	s10,0x7f
     f80:	0500                	addi	s0,sp,640
     f82:	0269                	addi	tp,tp,26
     f84:	2508                	fld	fa0,8(a0)
     f86:	0000                	unimp
     f88:	1000                	addi	s0,sp,32
     f8a:	00043117          	auipc	sp,0x43
     f8e:	0500                	addi	s0,sp,640
     f90:	026a                	slli	tp,tp,0x1a
     f92:	a708                	fsd	fa0,8(a4)
     f94:	0008                	0x8
     f96:	1400                	addi	s0,sp,544
     f98:	00081917          	auipc	s2,0x81
     f9c:	0500                	addi	s0,sp,640
     f9e:	026d                	addi	tp,tp,27
     fa0:	00002507          	flw	fa0,0(zero) # 0 <_start>
     fa4:	3000                	fld	fs0,32(s0)
     fa6:	00080717          	auipc	a4,0x80
     faa:	0500                	addi	s0,sp,640
     fac:	026e                	slli	tp,tp,0x1b
     fae:	bc16                	fsd	ft5,56(sp)
     fb0:	0008                	0x8
     fb2:	3400                	fld	fs0,40(s0)
     fb4:	00071717          	auipc	a4,0x71
     fb8:	0500                	addi	s0,sp,640
     fba:	0270                	addi	a2,sp,268
     fbc:	00002507          	flw	fa0,0(zero) # 0 <_start>
     fc0:	3800                	fld	fs0,48(s0)
     fc2:	00080f17          	auipc	t5,0x80
     fc6:	0500                	addi	s0,sp,640
     fc8:	0272                	slli	tp,tp,0x1c
     fca:	cd0a                	sw	sp,152(sp)
     fcc:	0008                	0x8
     fce:	3c00                	fld	fs0,56(s0)
     fd0:	00064717          	auipc	a4,0x64
     fd4:	0500                	addi	s0,sp,640
     fd6:	0275                	addi	tp,tp,29
     fd8:	00018513          	mv	a0,gp
     fdc:	4000                	lw	s0,0(s0)
     fde:	00055317          	auipc	t1,0x55
     fe2:	0500                	addi	s0,sp,640
     fe4:	0276                	slli	tp,tp,0x1d
     fe6:	00002507          	flw	fa0,0(zero) # 0 <_start>
     fea:	4400                	lw	s0,8(s0)
     fec:	00097717          	auipc	a4,0x97
     ff0:	0500                	addi	s0,sp,640
     ff2:	85130277          	0x85130277
     ff6:	0001                	nop
     ff8:	4800                	lw	s0,16(s0)
     ffa:	00072917          	auipc	s2,0x72
     ffe:	0500                	addi	s0,sp,640
    1000:	0278                	addi	a4,sp,268
    1002:	d314                	sw	a3,32(a4)
    1004:	0008                	0x8
    1006:	4c00                	lw	s0,24(s0)
    1008:	0005fd17          	auipc	s10,0x5f
    100c:	0500                	addi	s0,sp,640
    100e:	2507027b          	0x2507027b
    1012:	0000                	unimp
    1014:	5000                	lw	s0,32(s0)
    1016:	00056a17          	auipc	s4,0x56
    101a:	0500                	addi	s0,sp,640
    101c:	027c                	addi	a5,sp,268
    101e:	b609                	j	b20 <__adddf3+0x1ac>
    1020:	0005                	c.nop	1
    1022:	5400                	lw	s0,40(s0)
    1024:	00078917          	auipc	s2,0x78
    1028:	0500                	addi	s0,sp,640
    102a:	029f 8207 0008      	0x88207029f
    1030:	5800                	lw	s0,48(s0)
    1032:	0518                	addi	a4,sp,640
    1034:	05000007          	0x5000007
    1038:	b61302a3          	sb	ra,-1179(t1) # 55b43 <TOHOST_ADDR+0x53d8f>
    103c:	0002                	c.slli64	zero
    103e:	4800                	lw	s0,16(s0)
    1040:	1801                	addi	a6,a6,-32
    1042:	0625                	addi	a2,a2,9
    1044:	0000                	unimp
    1046:	a405                	j	1266 <__mulsi3+0x6>
    1048:	1202                	slli	tp,tp,0x20
    104a:	00000273          	0x273
    104e:	014c                	addi	a1,sp,132
    1050:	ff18                	fsw	fa4,56(a4)
    1052:	0008                	0x8
    1054:	0500                	addi	s0,sp,640
    1056:	02a8                	addi	a0,sp,328
    1058:	e40c                	fsw	fa1,8(s0)
    105a:	0008                	0x8
    105c:	dc00                	sw	s0,56(s0)
    105e:	1802                	slli	a6,a6,0x20
    1060:	0530                	addi	a2,sp,648
    1062:	0000                	unimp
    1064:	ad05                	j	1694 <__clz_tab+0xec>
    1066:	1002                	c.slli	zero,0x20
    1068:	0668                	addi	a0,sp,780
    106a:	0000                	unimp
    106c:	02e0                	addi	s0,sp,332
    106e:	1518                	addi	a4,sp,672
    1070:	0005                	c.nop	1
    1072:	0500                	addi	s0,sp,640
    1074:	f00a02af          	0xf00a02af
    1078:	0008                	0x8
    107a:	ec00                	fsw	fs0,24(s0)
    107c:	0002                	c.slli64	zero
    107e:	05bc040f          	0x5bc040f
    1082:	0000                	unimp
    1084:	4b080103          	lb	sp,1200(a6) # 21e04b0 <TOHOST_ADDR+0x21de6fc>
    1088:	0000                	unimp
    108a:	1500                	addi	s0,sp,672
    108c:	05bc                	addi	a5,sp,712
    108e:	0000                	unimp
    1090:	0444040f          	0x444040f
    1094:	0000                	unimp
    1096:	00009613          	slli	a2,ra,0x0
    109a:	ec00                	fsw	fs0,24(s0)
    109c:	0005                	c.nop	1
    109e:	1400                	addi	s0,sp,544
    10a0:	0462                	slli	s0,s0,0x18
    10a2:	0000                	unimp
    10a4:	1d14                	addi	a3,sp,688
    10a6:	0001                	nop
    10a8:	1400                	addi	s0,sp,544
    10aa:	05ec                	addi	a1,sp,716
    10ac:	0000                	unimp
    10ae:	2514                	fld	fa3,8(a0)
    10b0:	0000                	unimp
    10b2:	0000                	unimp
    10b4:	05c3040f          	0x5c3040f
    10b8:	0000                	unimp
    10ba:	ec15                	bnez	s0,10f6 <__adddf3+0x782>
    10bc:	0005                	c.nop	1
    10be:	0f00                	addi	s0,sp,912
    10c0:	ce04                	sw	s1,24(a2)
    10c2:	0005                	c.nop	1
    10c4:	1300                	addi	s0,sp,416
    10c6:	008a                	slli	ra,ra,0x2
    10c8:	0000                	unimp
    10ca:	0000061b          	0x61b
    10ce:	6214                	flw	fa3,0(a2)
    10d0:	0004                	0x4
    10d2:	1400                	addi	s0,sp,544
    10d4:	011d                	addi	sp,sp,7
    10d6:	0000                	unimp
    10d8:	8a14                	0x8a14
    10da:	0000                	unimp
    10dc:	1400                	addi	s0,sp,544
    10de:	0025                	c.nop	9
    10e0:	0000                	unimp
    10e2:	0f00                	addi	s0,sp,912
    10e4:	fd04                	fsw	fs1,56(a0)
    10e6:	0005                	c.nop	1
    10e8:	1300                	addi	s0,sp,416
    10ea:	0025                	c.nop	9
    10ec:	0000                	unimp
    10ee:	0635                	addi	a2,a2,13
    10f0:	0000                	unimp
    10f2:	6214                	flw	fa3,0(a2)
    10f4:	0004                	0x4
    10f6:	1400                	addi	s0,sp,544
    10f8:	011d                	addi	sp,sp,7
    10fa:	0000                	unimp
    10fc:	0f00                	addi	s0,sp,912
    10fe:	2104                	fld	fs1,0(a0)
    1100:	0006                	c.slli	zero,0x1
    1102:	0800                	addi	s0,sp,16
    1104:	0048                	addi	a0,sp,4
    1106:	0000                	unimp
    1108:	0000064b          	fnmsub.s	fa2,ft0,ft0,ft0,rne
    110c:	2c09                	jal	131e <__modsi3+0x16>
    110e:	0000                	unimp
    1110:	0200                	addi	s0,sp,256
    1112:	0800                	addi	s0,sp,16
    1114:	0048                	addi	a0,sp,4
    1116:	0000                	unimp
    1118:	0000065b          	0x65b
    111c:	2c09                	jal	132e <__modsi3+0x26>
    111e:	0000                	unimp
    1120:	0000                	unimp
    1122:	0500                	addi	s0,sp,640
    1124:	054c                	addi	a1,sp,644
    1126:	0000                	unimp
    1128:	1f05                	addi	t5,t5,-31
    112a:	1a01                	addi	s4,s4,-32
    112c:	0301                	addi	t1,t1,0
    112e:	0000                	unimp
    1130:	df19                	beqz	a4,104e <__adddf3+0x6da>
    1132:	0008                	0x8
    1134:	0c00                	addi	s0,sp,528
    1136:	2305                	jal	1656 <__clz_tab+0xae>
    1138:	0801                	addi	a6,a6,0
    113a:	06a1                	addi	a3,a3,8
    113c:	0000                	unimp
    113e:	0007ea17          	auipc	s4,0x7e
    1142:	0500                	addi	s0,sp,640
    1144:	0125                	addi	sp,sp,9
    1146:	a111                	j	154a <main+0x62>
    1148:	0006                	c.slli	zero,0x1
    114a:	0000                	unimp
    114c:	00061517          	auipc	a0,0x61
    1150:	0500                	addi	s0,sp,640
    1152:	0126                	slli	sp,sp,0x9
    1154:	00002507          	flw	fa0,0(zero) # 0 <_start>
    1158:	0400                	addi	s0,sp,512
    115a:	0007b917          	auipc	s2,0x7b
    115e:	0500                	addi	s0,sp,640
    1160:	a70b0127          	0xa70b0127
    1164:	0006                	c.slli	zero,0x1
    1166:	0800                	addi	s0,sp,16
    1168:	0f00                	addi	s0,sp,912
    116a:	6804                	flw	fs1,16(s0)
    116c:	0006                	c.slli	zero,0x1
    116e:	0f00                	addi	s0,sp,912
    1170:	5b04                	lw	s1,48(a4)
    1172:	0006                	c.slli	zero,0x1
    1174:	1900                	addi	s0,sp,176
    1176:	0429                	addi	s0,s0,10
    1178:	0000                	unimp
    117a:	050e                	slli	a0,a0,0x3
    117c:	e608013f 17000006 	0x17000006e608013f
    1184:	0841                	addi	a6,a6,16
    1186:	0000                	unimp
    1188:	4005                	c.li	zero,1
    118a:	1201                	addi	tp,tp,-32
    118c:	06e6                	slli	a3,a3,0x19
    118e:	0000                	unimp
    1190:	1700                	addi	s0,sp,928
    1192:	0000068b          	0x68b
    1196:	4105                	li	sp,1
    1198:	1201                	addi	tp,tp,-32
    119a:	06e6                	slli	a3,a3,0x19
    119c:	0000                	unimp
    119e:	1706                	slli	a4,a4,0x21
    11a0:	0898                	addi	a4,sp,80
    11a2:	0000                	unimp
    11a4:	4205                	li	tp,1
    11a6:	1201                	addi	tp,tp,-32
    11a8:	0056                	c.slli	zero,0x15
    11aa:	0000                	unimp
    11ac:	000c                	0xc
    11ae:	5608                	lw	a0,40(a2)
    11b0:	0000                	unimp
    11b2:	f600                	fsw	fs0,40(a2)
    11b4:	0006                	c.slli	zero,0x1
    11b6:	0900                	addi	s0,sp,144
    11b8:	002c                	addi	a1,sp,8
    11ba:	0000                	unimp
    11bc:	0002                	c.slli64	zero
    11be:	d01a                	sw	t1,32(sp)
    11c0:	8005                	srli	s0,s0,0x1
    11c2:	0702                	c.slli64	a4
    11c4:	0000080b          	0x80b
    11c8:	0006ba17          	auipc	s4,0x6b
    11cc:	0500                	addi	s0,sp,640
    11ce:	0282                	c.slli64	t0
    11d0:	2c18                	fld	fa4,24(s0)
    11d2:	0000                	unimp
    11d4:	0000                	unimp
    11d6:	00087b17          	auipc	s6,0x87
    11da:	0500                	addi	s0,sp,640
    11dc:	b6120283          	lb	t0,-1183(tp) # 4b61 <TOHOST_ADDR+0x2dad>
    11e0:	0005                	c.nop	1
    11e2:	0400                	addi	s0,sp,512
    11e4:	00063a17          	auipc	s4,0x63
    11e8:	0500                	addi	s0,sp,640
    11ea:	0284                	addi	s1,sp,320
    11ec:	0b10                	addi	a2,sp,400
    11ee:	0008                	0x8
    11f0:	0800                	addi	s0,sp,16
    11f2:	00093117          	auipc	sp,0x93
    11f6:	0500                	addi	s0,sp,640
    11f8:	0285                	addi	t0,t0,1
    11fa:	00019b17          	auipc	s6,0x19
    11fe:	2400                	fld	fs0,8(s0)
    1200:	0005c117          	auipc	sp,0x5c
    1204:	0500                	addi	s0,sp,640
    1206:	0286                	slli	t0,t0,0x1
    1208:	0000250f          	0x250f
    120c:	4800                	lw	s0,16(s0)
    120e:	0007e517          	auipc	a0,0x7e
    1212:	0500                	addi	s0,sp,640
    1214:	6b2c0287          	0x6b2c0287
    1218:	0000                	unimp
    121a:	5000                	lw	s0,32(s0)
    121c:	00094917          	auipc	s2,0x94
    1220:	0500                	addi	s0,sp,640
    1222:	0288                	addi	a0,sp,320
    1224:	ad1a                	fsd	ft6,152(sp)
    1226:	0006                	c.slli	zero,0x1
    1228:	5800                	lw	s0,48(s0)
    122a:	0007f017          	auipc	zero,0x7f
    122e:	0500                	addi	s0,sp,640
    1230:	0289                	addi	t0,t0,2
    1232:	0516                	slli	a0,a0,0x5
    1234:	0001                	nop
    1236:	6800                	flw	fs0,16(s0)
    1238:	00096917          	auipc	s2,0x96
    123c:	0500                	addi	s0,sp,640
    123e:	028a                	slli	t0,t0,0x2
    1240:	0516                	slli	a0,a0,0x5
    1242:	0001                	nop
    1244:	7000                	flw	fs0,32(s0)
    1246:	0004d117          	auipc	sp,0x4d
    124a:	0500                	addi	s0,sp,640
    124c:	0516028b          	0x516028b
    1250:	0001                	nop
    1252:	7800                	flw	fs0,48(s0)
    1254:	0008f517          	auipc	a0,0x8f
    1258:	0500                	addi	s0,sp,640
    125a:	028c                	addi	a1,sp,320
    125c:	1b10                	addi	a2,sp,432
    125e:	0008                	0x8
    1260:	8000                	0x8000
    1262:	00062e17          	auipc	t3,0x62
    1266:	0500                	addi	s0,sp,640
    1268:	028d                	addi	t0,t0,3
    126a:	2b10                	fld	fa2,16(a4)
    126c:	0008                	0x8
    126e:	8800                	0x8800
    1270:	00045517          	auipc	a0,0x45
    1274:	0500                	addi	s0,sp,640
    1276:	028e                	slli	t0,t0,0x3
    1278:	0000250f          	0x250f
    127c:	a000                	fsd	fs0,0(s0)
    127e:	00058317          	auipc	t1,0x58
    1282:	0500                	addi	s0,sp,640
    1284:	0516028f          	0x516028f
    1288:	0001                	nop
    128a:	a400                	fsd	fs0,8(s0)
    128c:	0004ba17          	auipc	s4,0x4b
    1290:	0500                	addi	s0,sp,640
    1292:	0290                	addi	a2,sp,320
    1294:	0516                	slli	a0,a0,0x5
    1296:	0001                	nop
    1298:	ac00                	fsd	fs0,24(s0)
    129a:	00057217          	auipc	tp,0x57
    129e:	0500                	addi	s0,sp,640
    12a0:	0291                	addi	t0,t0,4
    12a2:	0516                	slli	a0,a0,0x5
    12a4:	0001                	nop
    12a6:	b400                	fsd	fs0,40(s0)
    12a8:	00046817          	auipc	a6,0x46
    12ac:	0500                	addi	s0,sp,640
    12ae:	0292                	slli	t0,t0,0x4
    12b0:	0516                	slli	a0,a0,0x5
    12b2:	0001                	nop
    12b4:	bc00                	fsd	fs0,56(s0)
    12b6:	00047717          	auipc	a4,0x47
    12ba:	0500                	addi	s0,sp,640
    12bc:	05160293          	addi	t0,a2,81
    12c0:	0001                	nop
    12c2:	c400                	sw	s0,8(s0)
    12c4:	00078e17          	auipc	t3,0x78
    12c8:	0500                	addi	s0,sp,640
    12ca:	0294                	addi	a3,sp,320
    12cc:	2508                	fld	fa0,8(a0)
    12ce:	0000                	unimp
    12d0:	cc00                	sw	s0,24(s0)
    12d2:	0800                	addi	s0,sp,16
    12d4:	05bc                	addi	a5,sp,712
    12d6:	0000                	unimp
    12d8:	0000081b          	0x81b
    12dc:	2c09                	jal	14ee <main+0x6>
    12de:	0000                	unimp
    12e0:	1900                	addi	s0,sp,176
    12e2:	0800                	addi	s0,sp,16
    12e4:	05bc                	addi	a5,sp,712
    12e6:	0000                	unimp
    12e8:	0000082b          	0x82b
    12ec:	2c09                	jal	14fe <main+0x16>
    12ee:	0000                	unimp
    12f0:	0700                	addi	s0,sp,896
    12f2:	0800                	addi	s0,sp,16
    12f4:	05bc                	addi	a5,sp,712
    12f6:	0000                	unimp
    12f8:	0000083b          	0x83b
    12fc:	2c09                	jal	150e <main+0x26>
    12fe:	0000                	unimp
    1300:	1700                	addi	s0,sp,928
    1302:	1a00                	addi	s0,sp,304
    1304:	05f0                	addi	a2,sp,716
    1306:	0299                	addi	t0,t0,6
    1308:	00086207          	0x86207
    130c:	1700                	addi	s0,sp,928
    130e:	000006e7          	jalr	a3,zero # 0 <_start>
    1312:	9c05                	0x9c05
    1314:	1b02                	slli	s6,s6,0x20
    1316:	0862                	slli	a6,a6,0x18
    1318:	0000                	unimp
    131a:	1700                	addi	s0,sp,928
    131c:	05d0                	addi	a2,sp,708
    131e:	0000                	unimp
    1320:	9d05                	0x9d05
    1322:	1802                	slli	a6,a6,0x20
    1324:	0872                	slli	a6,a6,0x1c
    1326:	0000                	unimp
    1328:	0078                	addi	a4,sp,12
    132a:	fb08                	fsw	fa0,48(a4)
    132c:	0002                	c.slli64	zero
    132e:	7200                	flw	fs0,32(a2)
    1330:	0008                	0x8
    1332:	0900                	addi	s0,sp,144
    1334:	002c                	addi	a1,sp,8
    1336:	0000                	unimp
    1338:	001d                	c.nop	7
    133a:	2c08                	fld	fa0,24(s0)
    133c:	0000                	unimp
    133e:	8200                	0x8200
    1340:	0008                	0x8
    1342:	0900                	addi	s0,sp,144
    1344:	002c                	addi	a1,sp,8
    1346:	0000                	unimp
    1348:	001d                	c.nop	7
    134a:	7e05f01b          	0x7e05f01b
    134e:	0302                	c.slli64	t1
    1350:	000008a7          	0x8a7
    1354:	3a1c                	fld	fa5,48(a2)
    1356:	0008                	0x8
    1358:	0500                	addi	s0,sp,640
    135a:	0295                	addi	t0,t0,5
    135c:	0006f60b          	0x6f60b
    1360:	1c00                	addi	s0,sp,560
    1362:	091e                	slli	s2,s2,0x7
    1364:	0000                	unimp
    1366:	9e05                	0x9e05
    1368:	0b02                	c.slli64	s6
    136a:	0000083b          	0x83b
    136e:	0800                	addi	s0,sp,16
    1370:	05bc                	addi	a5,sp,712
    1372:	0000                	unimp
    1374:	000008b7          	lui	a7,0x0
    1378:	2c09                	jal	158a <main+0xa2>
    137a:	0000                	unimp
    137c:	1800                	addi	s0,sp,48
    137e:	1d00                	addi	s0,sp,688
    1380:	000004af          	0x4af
    1384:	08b7040f          	0x8b7040f
    1388:	0000                	unimp
    138a:	cd1e                	sw	t2,152(sp)
    138c:	0008                	0x8
    138e:	1400                	addi	s0,sp,544
    1390:	0462                	slli	s0,s0,0x18
    1392:	0000                	unimp
    1394:	0f00                	addi	s0,sp,912
    1396:	c204                	sw	s1,0(a2)
    1398:	0008                	0x8
    139a:	0f00                	addi	s0,sp,912
    139c:	8504                	0x8504
    139e:	0001                	nop
    13a0:	1e00                	addi	s0,sp,816
    13a2:	08e4                	addi	s1,sp,92
    13a4:	0000                	unimp
    13a6:	2514                	fld	fa3,8(a0)
    13a8:	0000                	unimp
    13aa:	0000                	unimp
    13ac:	08ea040f          	0x8ea040f
    13b0:	0000                	unimp
    13b2:	08d9040f          	0x8d9040f
    13b6:	0000                	unimp
    13b8:	5b08                	lw	a0,48(a4)
    13ba:	0006                	c.slli	zero,0x1
    13bc:	0000                	unimp
    13be:	0009                	c.nop	2
    13c0:	0900                	addi	s0,sp,144
    13c2:	002c                	addi	a1,sp,8
    13c4:	0000                	unimp
    13c6:	0002                	c.slli64	zero
    13c8:	c11f 0008 0500      	0x5000008c11f
    13ce:	032e                	slli	t1,t1,0xb
    13d0:	00046217          	auipc	tp,0x46
    13d4:	1f00                	addi	s0,sp,944
    13d6:	08ba                	slli	a7,a7,0xe
    13d8:	0000                	unimp
    13da:	2f05                	jal	1b0a <a+0x3a6>
    13dc:	04681d03          	lh	s10,70(a6) # 472ee <TOHOST_ADDR+0x4553a>
    13e0:	0000                	unimp
    13e2:	f208                	fsw	fa0,32(a2)
    13e4:	0005                	c.nop	1
    13e6:	2500                	fld	fs0,8(a0)
    13e8:	0009                	c.nop	2
    13ea:	2000                	fld	fs0,0(s0)
    13ec:	1500                	addi	s0,sp,672
    13ee:	091a                	slli	s2,s2,0x6
    13f0:	0000                	unimp
    13f2:	5d21                	li	s10,-24
    13f4:	0005                	c.nop	1
    13f6:	0600                	addi	s0,sp,768
    13f8:	2414                	fld	fa3,8(s0)
    13fa:	0925                	addi	s2,s2,9
    13fc:	0000                	unimp
    13fe:	db21                	beqz	a4,134e <__clzsi2+0x16>
    1400:	06000007          	0x6000007
    1404:	1515                	addi	a0,a0,-27
    1406:	0025                	c.nop	9
    1408:	0000                	unimp
    140a:	0948040f          	0x948040f
    140e:	0000                	unimp
    1410:	00002513          	slti	a0,zero,0
    1414:	5c00                	lw	s0,56(s0)
    1416:	0009                	c.nop	2
    1418:	1400                	addi	s0,sp,544
    141a:	095c                	addi	a5,sp,148
    141c:	0000                	unimp
    141e:	5c14                	lw	a3,56(s0)
    1420:	0009                	c.nop	2
    1422:	0000                	unimp
    1424:	0962040f          	0x962040f
    1428:	0000                	unimp
    142a:	2122                	fld	ft2,8(sp)
    142c:	070d                	addi	a4,a4,3
    142e:	0000                	unimp
    1430:	b60e6707          	0xb60e6707
    1434:	0005                	c.nop	1
    1436:	2100                	fld	fs0,0(a0)
    1438:	0660                	addi	s0,sp,780
    143a:	0000                	unimp
    143c:	1008                	addi	a0,sp,32
    143e:	00097b0f          	0x97b0f
    1442:	0f00                	addi	s0,sp,912
    1444:	b604                	fsd	fs1,40(a2)
    1446:	0005                	c.nop	1
    1448:	2100                	fld	fs0,0(a0)
    144a:	0710                	addi	a2,sp,896
    144c:	0000                	unimp
    144e:	fc08                	fsw	fa0,56(s0)
    1450:	b60e                	fsd	ft3,296(sp)
    1452:	0005                	c.nop	1
    1454:	2100                	fld	fs0,0(a0)
    1456:	06e0                	addi	s0,sp,844
    1458:	0000                	unimp
    145a:	fd08                	fsw	fa0,56(a0)
    145c:	250c                	fld	fa1,8(a0)
    145e:	0000                	unimp
    1460:	2100                	fld	fs0,0(a0)
    1462:	0874                	addi	a3,sp,28
    1464:	0000                	unimp
    1466:	fd08                	fsw	fa0,56(a0)
    1468:	2514                	fld	fa3,8(a0)
    146a:	0000                	unimp
    146c:	2100                	fld	fs0,0(a0)
    146e:	0958                	addi	a4,sp,148
    1470:	0000                	unimp
    1472:	fd08                	fsw	fa0,56(a0)
    1474:	251c                	fld	fa5,8(a0)
    1476:	0000                	unimp
    1478:	2100                	fld	fs0,0(a0)
    147a:	06a0                	addi	s0,sp,840
    147c:	0000                	unimp
    147e:	ff08                	fsw	fa0,56(a4)
    1480:	250c                	fld	fa1,8(a0)
    1482:	0000                	unimp
    1484:	2100                	fld	fs0,0(a0)
    1486:	00000733          	add	a4,zero,zero
    148a:	9a09                	andi	a2,a2,-30
    148c:	5d16                	lw	s10,100(sp)
    148e:	0000                	unimp
    1490:	2100                	fld	fs0,0(a0)
    1492:	043c                	addi	a5,sp,520
    1494:	0000                	unimp
    1496:	9b09                	andi	a4,a4,-30
    1498:	2515                	jal	1abc <a+0x358>
    149a:	0000                	unimp
    149c:	0800                	addi	s0,sp,16
    149e:	05b6                	slli	a1,a1,0xd
    14a0:	0000                	unimp
    14a2:	09e5                	addi	s3,s3,25
    14a4:	0000                	unimp
    14a6:	2c09                	jal	16b8 <__clz_tab+0x110>
    14a8:	0000                	unimp
    14aa:	0100                	addi	s0,sp,128
    14ac:	2100                	fld	fs0,0(a0)
    14ae:	04c9                	addi	s1,s1,18
    14b0:	0000                	unimp
    14b2:	9e09                	0x9e09
    14b4:	0009d517          	auipc	a0,0x9d
    14b8:	0400                	addi	s0,sp,512
    14ba:	0000060b          	0x60b
    14be:	2a0a                	fld	fs4,128(sp)
    14c0:	2c16                	fld	fs8,320(sp)
    14c2:	0000                	unimp
    14c4:	0400                	addi	s0,sp,512
    14c6:	07c9                	addi	a5,a5,18
    14c8:	0000                	unimp
    14ca:	2f0a                	fld	ft10,128(sp)
    14cc:	0915                	addi	s2,s2,5
    14ce:	000a                	c.slli	zero,0x2
    14d0:	0f00                	addi	s0,sp,912
    14d2:	0f04                	addi	s1,sp,912
    14d4:	000a                	c.slli	zero,0x2
    14d6:	1300                	addi	s0,sp,416
    14d8:	09f1                	addi	s3,s3,28
    14da:	0000                	unimp
    14dc:	0a1e                	slli	s4,s4,0x7
    14de:	0000                	unimp
    14e0:	5c14                	lw	a3,56(s0)
    14e2:	0009                	c.nop	2
    14e4:	0000                	unimp
    14e6:	ac04                	fsd	fs1,24(s0)
    14e8:	0009                	c.nop	2
    14ea:	0a00                	addi	s0,sp,272
    14ec:	0f36                	slli	t5,t5,0xd
    14ee:	0942                	slli	s2,s2,0x10
    14f0:	0000                	unimp
    14f2:	1721                	addi	a4,a4,-24
    14f4:	0004                	0x4
    14f6:	0a00                	addi	s0,sp,272
    14f8:	09fd12bb          	0x9fd12bb
    14fc:	0000                	unimp
    14fe:	a521                	j	1b06 <a+0x3a2>
    1500:	0008                	0x8
    1502:	0a00                	addi	s0,sp,272
    1504:	10be                	slli	ra,ra,0x2f
    1506:	0a1e                	slli	s4,s4,0x7
    1508:	0000                	unimp
    150a:	0005de23          	0x5de23
    150e:	0700                	addi	s0,sp,896
    1510:	2c04                	fld	fs1,24(s0)
    1512:	0000                	unimp
    1514:	0b00                	addi	s0,sp,400
    1516:	0618                	addi	a4,sp,768
    1518:	0a7f                	0xa7f
    151a:	0000                	unimp
    151c:	6924                	flw	fs1,80(a0)
    151e:	00000007          	0x7
    1522:	8024                	0x8024
    1524:	0006                	c.slli	zero,0x1
    1526:	0100                	addi	s0,sp,128
    1528:	5524                	lw	s1,104(a0)
    152a:	0006                	c.slli	zero,0x1
    152c:	0200                	addi	s0,sp,256
    152e:	7524                	flw	fs1,104(a0)
    1530:	0006                	c.slli	zero,0x1
    1532:	0300                	addi	s0,sp,384
    1534:	6024                	flw	fs1,64(s0)
    1536:	04000007          	0x4000007
    153a:	5f24                	lw	s1,120(a4)
    153c:	0009                	c.nop	2
    153e:	0500                	addi	s0,sp,640
    1540:	4e24                	lw	s1,88(a2)
    1542:	0009                	c.nop	2
    1544:	0600                	addi	s0,sp,768
    1546:	2100                	fld	fs0,0(a0)
    1548:	04a5                	addi	s1,s1,9
    154a:	0000                	unimp
    154c:	421c210b          	0x421c210b
    1550:	000a                	c.slli	zero,0x2
    1552:	2300                	fld	fs0,0(a4)
    1554:	000006c7          	fmsub.s	fa3,ft0,ft0,ft0,rne
    1558:	002c0407          	0x2c0407
    155c:	0000                	unimp
    155e:	b006230b          	0xb006230b
    1562:	000a                	c.slli	zero,0x2
    1564:	2400                	fld	fs0,8(s0)
    1566:	000007bf 077f2400 	0x77f2400000007bf
    156e:	0000                	unimp
    1570:	2401                	jal	1770 <a+0xc>
    1572:	0888                	addi	a0,sp,80
    1574:	0000                	unimp
    1576:	0002                	c.slli64	zero
    1578:	9121                	srli	a0,a0,0x28
    157a:	0005                	c.nop	1
    157c:	0b00                	addi	s0,sp,400
    157e:	1e28                	addi	a0,sp,824
    1580:	00000a8b          	0xa8b
    1584:	9121                	srli	a0,a0,0x28
    1586:	0006                	c.slli	zero,0x1
    1588:	0c00                	addi	s0,sp,528
    158a:	1a29                	addi	s4,s4,-22
    158c:	0925                	addi	s2,s2,9
    158e:	0000                	unimp
    1590:	0521                	addi	a0,a0,8
    1592:	0005                	c.nop	1
    1594:	0c00                	addi	s0,sp,528
    1596:	1a38                	addi	a4,sp,312
    1598:	0925                	addi	s2,s2,9
    159a:	0000                	unimp
    159c:	c004                	sw	s1,0(s0)
    159e:	0000                	unimp
    15a0:	0d00                	addi	s0,sp,656
    15a2:	0048167b          	0x48167b
    15a6:	0000                	unimp
    15a8:	d415                	beqz	s0,14d4 <memset+0xc8>
    15aa:	000a                	c.slli	zero,0x2
    15ac:	0400                	addi	s0,sp,512
    15ae:	0330                	addi	a2,sp,392
    15b0:	0000                	unimp
    15b2:	800d                	srli	s0,s0,0x3
    15b4:	0000250f          	0x250f
    15b8:	0400                	addi	s0,sp,512
    15ba:	0000032f          	0x32f
    15be:	810d                	srli	a0,a0,0x3
    15c0:	2c16                	fld	fs8,320(sp)
    15c2:	0000                	unimp
    15c4:	0300                	addi	s0,sp,384
    15c6:	0404                	addi	s1,sp,512
    15c8:	06f6                	slli	a3,a3,0x1d
    15ca:	0000                	unimp
    15cc:	ee030803          	lb	a6,-288(t1) # 5915e <TOHOST_ADDR+0x573aa>
    15d0:	0006                	c.slli	zero,0x1
    15d2:	0300                	addi	s0,sp,384
    15d4:	0408                	addi	a0,sp,512
    15d6:	049e                	slli	s1,s1,0x7
    15d8:	0000                	unimp
    15da:	46031003          	lh	zero,1120(t1)
    15de:	0004                	0x4
    15e0:	0300                	addi	s0,sp,384
    15e2:	0320                	addi	s0,sp,392
    15e4:	0491                	addi	s1,s1,4
    15e6:	0000                	unimp
    15e8:	e008                	fsw	fa0,0(s0)
    15ea:	000a                	c.slli	zero,0x2
    15ec:	3000                	fld	fs0,32(s0)
    15ee:	0900000b          	0x900000b
    15f2:	002c                	addi	a1,sp,8
    15f4:	0000                	unimp
    15f6:	00ff                	0xff
    15f8:	2015                	jal	161c <__clz_tab+0x74>
    15fa:	1f00000b          	0x1f00000b
    15fe:	0909                	addi	s2,s2,2
    1600:	0000                	unimp
    1602:	fc0d                	bnez	s0,153c <main+0x54>
    1604:	1601                	addi	a2,a2,-32
    1606:	0b30                	addi	a2,sp,408
    1608:	0000                	unimp
    160a:	c81f 0000 0d00      	0xd000000c81f
    1610:	0202                	c.slli64	tp
    1612:	3016                	fld	ft0,352(sp)
    1614:	2500000b          	0x2500000b
    1618:	061c                	addi	a5,sp,768
    161a:	0000                	unimp
    161c:	c201                	beqz	a2,161c <__clz_tab+0x74>
    161e:	0102                	c.slli64	sp
    1620:	0025                	c.nop	9
    1622:	0000                	unimp
    1624:	1338                	addi	a4,sp,424
    1626:	0000                	unimp
    1628:	004c                	addi	a1,sp,4
    162a:	0000                	unimp
    162c:	9c01                	0x9c01
    162e:	7826                	flw	fa6,104(sp)
    1630:	0100                	addi	s0,sp,128
    1632:	02c2                	slli	t0,t0,0x10
    1634:	f112                	fsw	ft4,160(sp)
    1636:	000a                	c.slli	zero,0x2
    1638:	cd00                	sw	s0,24(a0)
    163a:	0014                	0x14
    163c:	2700                	fld	fs0,8(a4)
    163e:	6572                	flw	fa0,28(sp)
    1640:	0074                	addi	a3,sp,12
    1642:	c401                	beqz	s0,164a <__clz_tab+0xa2>
    1644:	0902                	c.slli64	s2
    1646:	0ae5                	addi	s5,s5,25
    1648:	0000                	unimp
    164a:	7828                	flw	fa0,112(s0)
    164c:	0002                	c.slli64	zero
    164e:	2900                	fld	fs0,16(a0)
    1650:	08b5                	addi	a7,a7,13
    1652:	0000                	unimp
    1654:	c601                	beqz	a2,165c <__clz_tab+0xb4>
    1656:	0302                	c.slli64	t1
    1658:	0af1                	addi	s5,s5,28
    165a:	0000                	unimp
    165c:	14f9                	addi	s1,s1,-2
    165e:	0000                	unimp
    1660:	5f2a                	lw	t5,168(sp)
    1662:	615f 0100 02c6      	0x2c60100615f
    1668:	000af103          	0xaf103
    166c:	2500                	fld	fs0,8(a0)
    166e:	0015                	c.nop	5
    1670:	0000                	unimp
    1672:	0000                	unimp
    1674:	00000b3b          	0xb3b
    1678:	0004                	0x4
    167a:	0000070b          	0x70b
    167e:	0104                	addi	s1,sp,128
    1680:	0000014f          	fnmadd.s	ft2,ft0,ft0,ft0,rne
    1684:	7c0c                	flw	fa1,56(s0)
    1686:	0009                	c.nop	2
    1688:	3f00                	fld	fs0,56(a4)
    168a:	0002                	c.slli64	zero
    168c:	b500                	fsd	fs0,40(a0)
    168e:	02000017          	auipc	zero,0x2000
    1692:	0504                	addi	s1,sp,640
    1694:	6e69                	lui	t3,0x1a
    1696:	0074                	addi	a3,sp,12
    1698:	13070403          	lb	s0,304(a4) # 483e6 <TOHOST_ADDR+0x46632>
    169c:	0001                	nop
    169e:	0300                	addi	s0,sp,384
    16a0:	0508                	addi	a0,sp,640
    16a2:	0204                	addi	s1,sp,256
    16a4:	0000                	unimp
    16a6:	99041003          	lh	zero,-1648(s0)
    16aa:	0004                	0x4
    16ac:	0300                	addi	s0,sp,384
    16ae:	0601                	addi	a2,a2,0
    16b0:	0044                	addi	s1,sp,4
    16b2:	0000                	unimp
    16b4:	42080103          	lb	sp,1056(a6)
    16b8:	0000                	unimp
    16ba:	0300                	addi	s0,sp,384
    16bc:	0502                	c.slli64	a0
    16be:	040d                	addi	s0,s0,3
    16c0:	0000                	unimp
    16c2:	7a070203          	lb	tp,1952(a4)
    16c6:	0000                	unimp
    16c8:	0300                	addi	s0,sp,384
    16ca:	0504                	addi	s1,sp,640
    16cc:	0209                	addi	tp,tp,2
    16ce:	0000                	unimp
    16d0:	0e070403          	lb	s0,224(a4)
    16d4:	0001                	nop
    16d6:	0300                	addi	s0,sp,384
    16d8:	0708                	addi	a0,sp,896
    16da:	0109                	addi	sp,sp,2
    16dc:	0000                	unimp
    16de:	4804                	lw	s1,16(s0)
    16e0:	01000007          	0x1000007
    16e4:	0d0c                	addi	a1,sp,656
    16e6:	001d                	c.nop	7
    16e8:	0000                	unimp
    16ea:	2204                	fld	fs1,0(a2)
    16ec:	02000007          	0x2000007
    16f0:	0e2c                	addi	a1,sp,792
    16f2:	0055                	c.nop	21
    16f4:	0000                	unimp
    16f6:	5d04                	lw	s1,56(a0)
    16f8:	0008                	0x8
    16fa:	0200                	addi	s0,sp,256
    16fc:	0e72                	slli	t3,t3,0x1c
    16fe:	0055                	c.nop	21
    1700:	0000                	unimp
    1702:	ec04                	fsw	fs1,24(s0)
    1704:	0008                	0x8
    1706:	0200                	addi	s0,sp,256
    1708:	1791                	addi	a5,a5,-28
    170a:	001d                	c.nop	7
    170c:	0000                	unimp
    170e:	6805                	lui	a6,0x1
    1710:	0006                	c.slli	zero,0x1
    1712:	0300                	addi	s0,sp,384
    1714:	0165                	addi	sp,sp,25
    1716:	00002417          	auipc	s0,0x2
    171a:	0600                	addi	s0,sp,768
    171c:	0204                	addi	s1,sp,256
    171e:	03a6                	slli	t2,t2,0x9
    1720:	00c9                	addi	ra,ra,18
    1722:	0000                	unimp
    1724:	00064f07          	flq	ft10,0(a2)
    1728:	0200                	addi	s0,sp,256
    172a:	0ca8                	addi	a0,sp,600
    172c:	009a                	slli	ra,ra,0x6
    172e:	0000                	unimp
    1730:	0005f607          	0x5f607
    1734:	0200                	addi	s0,sp,256
    1736:	13a9                	addi	t2,t2,-22
    1738:	00c9                	addi	ra,ra,18
    173a:	0000                	unimp
    173c:	0800                	addi	s0,sp,16
    173e:	0040                	addi	s0,sp,4
    1740:	0000                	unimp
    1742:	00d9                	addi	ra,ra,22
    1744:	0000                	unimp
    1746:	2409                	jal	1948 <a+0x1e4>
    1748:	0000                	unimp
    174a:	0300                	addi	s0,sp,384
    174c:	0a00                	addi	s0,sp,272
    174e:	0208                	addi	a0,sp,256
    1750:	00fd09a3          	sb	a5,19(s10) # 6001b <TOHOST_ADDR+0x5e267>
    1754:	0000                	unimp
    1756:	0008470b          	0x8470b
    175a:	0200                	addi	s0,sp,256
    175c:	07a5                	addi	a5,a5,9
    175e:	001d                	c.nop	7
    1760:	0000                	unimp
    1762:	0b00                	addi	s0,sp,400
    1764:	0000084f          	fnmadd.s	fa6,ft0,ft0,ft0,rne
    1768:	aa02                	fsd	ft0,272(sp)
    176a:	a705                	j	1e8a <TOHOST_ADDR+0xd6>
    176c:	0000                	unimp
    176e:	0400                	addi	s0,sp,512
    1770:	0400                	addi	s0,sp,512
    1772:	073d                	addi	a4,a4,15
    1774:	0000                	unimp
    1776:	ab02                	fsd	ft0,400(sp)
    1778:	0000d903          	lhu	s2,0(ra) # 6f4 <malloc_beebs+0x30>
    177c:	0400                	addi	s0,sp,512
    177e:	00000797          	auipc	a5,0x0
    1782:	af02                	fsd	ft0,408(sp)
    1784:	00006a1b          	0x6a1b
    1788:	0c00                	addi	s0,sp,528
    178a:	0404                	addi	s1,sp,512
    178c:	089d                	addi	a7,a7,7
    178e:	0000                	unimp
    1790:	1604                	addi	s1,sp,800
    1792:	5c19                	li	s8,-26
    1794:	0000                	unimp
    1796:	0d00                	addi	s0,sp,656
    1798:	05b9                	addi	a1,a1,14
    179a:	0000                	unimp
    179c:	0418                	addi	a4,sp,512
    179e:	017d082f          	0x17d082f
    17a2:	0000                	unimp
    17a4:	0007ea0b          	0x7ea0b
    17a8:	0400                	addi	s0,sp,512
    17aa:	1331                	addi	t1,t1,-20
    17ac:	017d                	addi	sp,sp,31
    17ae:	0000                	unimp
    17b0:	0e00                	addi	s0,sp,784
    17b2:	6b5f 0400 0732      	0x73204006b5f
    17b8:	001d                	c.nop	7
    17ba:	0000                	unimp
    17bc:	0b04                	addi	s1,sp,400
    17be:	0832                	slli	a6,a6,0xc
    17c0:	0000                	unimp
    17c2:	3204                	fld	fs1,32(a2)
    17c4:	00001d0b          	0x1d0b
    17c8:	0800                	addi	s0,sp,16
    17ca:	0005ab0b          	0x5ab0b
    17ce:	0400                	addi	s0,sp,512
    17d0:	1432                	slli	s0,s0,0x2c
    17d2:	001d                	c.nop	7
    17d4:	0000                	unimp
    17d6:	0b0c                	addi	a1,sp,400
    17d8:	00000547          	fmsub.s	fa0,ft0,ft0,ft0,rne
    17dc:	3204                	fld	fs1,32(a2)
    17de:	00001d1b          	0x1d1b
    17e2:	1000                	addi	s0,sp,32
    17e4:	5f0e                	lw	t5,224(sp)
    17e6:	0078                	addi	a4,sp,12
    17e8:	3304                	fld	fs1,32(a4)
    17ea:	0001830b          	0x1830b
    17ee:	1400                	addi	s0,sp,544
    17f0:	0f00                	addi	s0,sp,912
    17f2:	2304                	fld	fs1,0(a4)
    17f4:	0001                	nop
    17f6:	0800                	addi	s0,sp,16
    17f8:	00000117          	auipc	sp,0x0
    17fc:	00000193          	li	gp,0
    1800:	2409                	jal	1a02 <a+0x29e>
    1802:	0000                	unimp
    1804:	0000                	unimp
    1806:	0d00                	addi	s0,sp,656
    1808:	05d9                	addi	a1,a1,22
    180a:	0000                	unimp
    180c:	0424                	addi	s1,sp,520
    180e:	02160837          	lui	a6,0x2160
    1812:	0000                	unimp
    1814:	0004df0b          	0x4df0b
    1818:	0400                	addi	s0,sp,512
    181a:	0939                	addi	s2,s2,14
    181c:	001d                	c.nop	7
    181e:	0000                	unimp
    1820:	0b00                	addi	s0,sp,400
    1822:	0940                	addi	s0,sp,148
    1824:	0000                	unimp
    1826:	3a04                	fld	fs1,48(a2)
    1828:	1d09                	addi	s10,s10,-30
    182a:	0000                	unimp
    182c:	0400                	addi	s0,sp,512
    182e:	0004fb0b          	0x4fb0b
    1832:	0400                	addi	s0,sp,512
    1834:	001d093b          	0x1d093b
    1838:	0000                	unimp
    183a:	0b08                	addi	a0,sp,400
    183c:	09a2                	slli	s3,s3,0x8
    183e:	0000                	unimp
    1840:	3c04                	fld	fs1,56(s0)
    1842:	1d09                	addi	s10,s10,-30
    1844:	0000                	unimp
    1846:	0c00                	addi	s0,sp,528
    1848:	0006fc0b          	0x6fc0b
    184c:	0400                	addi	s0,sp,512
    184e:	093d                	addi	s2,s2,15
    1850:	001d                	c.nop	7
    1852:	0000                	unimp
    1854:	0b10                	addi	a2,sp,400
    1856:	06b0                	addi	a2,sp,840
    1858:	0000                	unimp
    185a:	3e04                	fld	fs1,56(a2)
    185c:	1d09                	addi	s10,s10,-30
    185e:	0000                	unimp
    1860:	1400                	addi	s0,sp,544
    1862:	0008d50b          	0x8d50b
    1866:	0400                	addi	s0,sp,512
    1868:	001d093f 0b180000 	0xb180000001d093f
    1870:	07a0                	addi	s0,sp,968
    1872:	0000                	unimp
    1874:	4004                	lw	s1,0(s0)
    1876:	1d09                	addi	s10,s10,-30
    1878:	0000                	unimp
    187a:	1c00                	addi	s0,sp,560
    187c:	0009260b          	0x9260b
    1880:	0400                	addi	s0,sp,512
    1882:	0941                	addi	s2,s2,16
    1884:	001d                	c.nop	7
    1886:	0000                	unimp
    1888:	0020                	addi	s0,sp,8
    188a:	1a10                	addi	a2,sp,304
    188c:	0005                	c.nop	1
    188e:	0800                	addi	s0,sp,16
    1890:	0401                	addi	s0,s0,0
    1892:	084a                	slli	a6,a6,0x12
    1894:	0000025b          	0x25b
    1898:	00059e0b          	0x59e0b
    189c:	0400                	addi	s0,sp,512
    189e:	025b0a4b          	fnmsub.d	fs4,fs6,ft5,ft0,rne
    18a2:	0000                	unimp
    18a4:	0b00                	addi	s0,sp,400
    18a6:	00000773          	0x773
    18aa:	4c04                	lw	s1,24(s0)
    18ac:	5b09                	li	s6,-30
    18ae:	0002                	c.slli64	zero
    18b0:	8000                	0x8000
    18b2:	8f11                	sub	a4,a4,a2
    18b4:	0008                	0x8
    18b6:	0400                	addi	s0,sp,512
    18b8:	0a4e                	slli	s4,s4,0x13
    18ba:	00000117          	auipc	sp,0x0
    18be:	0100                	addi	s0,sp,128
    18c0:	3f11                	jal	17d4 <a+0x70>
    18c2:	0005                	c.nop	1
    18c4:	0400                	addi	s0,sp,512
    18c6:	0a51                	addi	s4,s4,20
    18c8:	00000117          	auipc	sp,0x0
    18cc:	0104                	addi	s1,sp,128
    18ce:	0800                	addi	s0,sp,16
    18d0:	0115                	addi	sp,sp,5
    18d2:	0000                	unimp
    18d4:	0000026b          	0x26b
    18d8:	2409                	jal	1ada <a+0x376>
    18da:	0000                	unimp
    18dc:	1f00                	addi	s0,sp,944
    18de:	1000                	addi	s0,sp,32
    18e0:	0705                	addi	a4,a4,1
    18e2:	0000                	unimp
    18e4:	0190                	addi	a2,sp,192
    18e6:	5d04                	lw	s1,56(a0)
    18e8:	ae08                	fsd	fa0,24(a2)
    18ea:	0002                	c.slli64	zero
    18ec:	0b00                	addi	s0,sp,400
    18ee:	07ea                	slli	a5,a5,0x1a
    18f0:	0000                	unimp
    18f2:	5e04                	lw	s1,56(a2)
    18f4:	ae12                	fsd	ft4,280(sp)
    18f6:	0002                	c.slli64	zero
    18f8:	0000                	unimp
    18fa:	0008020b          	0x8020b
    18fe:	0400                	addi	s0,sp,512
    1900:	065f 001d 0000      	0x1d065f
    1906:	0b04                	addi	s1,sp,400
    1908:	05a6                	slli	a1,a1,0x9
    190a:	0000                	unimp
    190c:	6104                	flw	fs1,0(a0)
    190e:	b409                	j	1310 <__modsi3+0x8>
    1910:	0002                	c.slli64	zero
    1912:	0800                	addi	s0,sp,16
    1914:	00051a0b          	0x51a0b
    1918:	0400                	addi	s0,sp,512
    191a:	1e62                	slli	t3,t3,0x38
    191c:	0216                	slli	tp,tp,0x5
    191e:	0000                	unimp
    1920:	0088                	addi	a0,sp,64
    1922:	026b040f          	0x26b040f
    1926:	0000                	unimp
    1928:	c408                	sw	a0,8(s0)
    192a:	0002                	c.slli64	zero
    192c:	c400                	sw	s0,8(s0)
    192e:	0002                	c.slli64	zero
    1930:	0900                	addi	s0,sp,144
    1932:	0024                	addi	s1,sp,8
    1934:	0000                	unimp
    1936:	001f 040f 02ca      	0x2ca040f001f
    193c:	0000                	unimp
    193e:	0d12                	slli	s10,s10,0x4
    1940:	07aa                	slli	a5,a5,0xa
    1942:	0000                	unimp
    1944:	0408                	addi	a0,sp,512
    1946:	0875                	addi	a6,a6,29
    1948:	000002f3          	0x2f3
    194c:	0004f50b          	0x4f50b
    1950:	0400                	addi	s0,sp,512
    1952:	1176                	slli	sp,sp,0x3d
    1954:	000002f3          	0x2f3
    1958:	0b00                	addi	s0,sp,400
    195a:	086e                	slli	a6,a6,0x1b
    195c:	0000                	unimp
    195e:	7704                	flw	fs1,40(a4)
    1960:	1d06                	slli	s10,s10,0x21
    1962:	0000                	unimp
    1964:	0400                	addi	s0,sp,512
    1966:	0f00                	addi	s0,sp,912
    1968:	4004                	lw	s1,0(s0)
    196a:	0000                	unimp
    196c:	0d00                	addi	s0,sp,656
    196e:	000007d3          	fadd.s	fa5,ft0,ft0,rne
    1972:	0468                	addi	a0,sp,524
    1974:	08b5                	addi	a7,a7,13
    1976:	043c                	addi	a5,sp,520
    1978:	0000                	unimp
    197a:	5f0e                	lw	t5,224(sp)
    197c:	0070                	addi	a2,sp,12
    197e:	b604                	fsd	fs1,40(a2)
    1980:	f312                	fsw	ft4,164(sp)
    1982:	0002                	c.slli64	zero
    1984:	0000                	unimp
    1986:	5f0e                	lw	t5,224(sp)
    1988:	0072                	c.slli	zero,0x1c
    198a:	b704                	fsd	fs1,40(a4)
    198c:	00001d07          	0x1d07
    1990:	0400                	addi	s0,sp,512
    1992:	5f0e                	lw	t5,224(sp)
    1994:	b8040077          	0xb8040077
    1998:	00001d07          	0x1d07
    199c:	0800                	addi	s0,sp,16
    199e:	0005380b          	0x5380b
    19a2:	0400                	addi	s0,sp,512
    19a4:	09b9                	addi	s3,s3,14
    19a6:	00000047          	fmsub.s	ft0,ft0,ft0,ft0,rne
    19aa:	0b0c                	addi	a1,sp,400
    19ac:	0605                	addi	a2,a2,1
    19ae:	0000                	unimp
    19b0:	ba04                	fsd	fs1,48(a2)
    19b2:	4709                	li	a4,2
    19b4:	0000                	unimp
    19b6:	0e00                	addi	s0,sp,784
    19b8:	5f0e                	lw	t5,224(sp)
    19ba:	6662                	flw	fa2,24(sp)
    19bc:	0400                	addi	s0,sp,512
    19be:	02cb11bb          	0x2cb11bb
    19c2:	0000                	unimp
    19c4:	0b10                	addi	a2,sp,400
    19c6:	0488                	addi	a0,sp,576
    19c8:	0000                	unimp
    19ca:	bc04                	fsd	fs1,56(s0)
    19cc:	00001d07          	0x1d07
    19d0:	1800                	addi	s0,sp,48
    19d2:	0005280b          	0x5280b
    19d6:	0400                	addi	s0,sp,512
    19d8:	01150ac3          	fmadd.s	fs5,fa0,fa7,ft0,rne
    19dc:	0000                	unimp
    19de:	0b1c                	addi	a5,sp,400
    19e0:	075a                	slli	a4,a4,0x16
    19e2:	0000                	unimp
    19e4:	c504                	sw	s1,8(a0)
    19e6:	c01d                	beqz	s0,1a0c <a+0x2a8>
    19e8:	0005                	c.nop	1
    19ea:	2000                	fld	fs0,0(s0)
    19ec:	0006a90b          	0x6a90b
    19f0:	0400                	addi	s0,sp,512
    19f2:	05ef1dc7          	0x5ef1dc7
    19f6:	0000                	unimp
    19f8:	0b24                	addi	s1,sp,408
    19fa:	00000857          	0x857
    19fe:	ca04                	sw	s1,16(a2)
    1a00:	130d                	addi	t1,t1,-29
    1a02:	0006                	c.slli	zero,0x1
    1a04:	2800                	fld	fs0,16(s0)
    1a06:	0004e80b          	0x4e80b
    1a0a:	0400                	addi	s0,sp,512
    1a0c:	062d09cb          	fnmsub.q	fs3,fs10,ft2,ft0,rne
    1a10:	0000                	unimp
    1a12:	0e2c                	addi	a1,sp,792
    1a14:	755f 0062 ce04      	0xce040062755f
    1a1a:	cb11                	beqz	a4,1a2e <a+0x2ca>
    1a1c:	0002                	c.slli64	zero
    1a1e:	3000                	fld	fs0,32(s0)
    1a20:	5f0e                	lw	t5,224(sp)
    1a22:	7075                	c.lui	zero,0xffffd
    1a24:	0400                	addi	s0,sp,512
    1a26:	02f312cf          	fnmadd.d	ft5,ft6,fa5,ft0,rtz
    1a2a:	0000                	unimp
    1a2c:	0e38                	addi	a4,sp,792
    1a2e:	755f 0072 d004      	0xd0040072755f
    1a34:	00001d07          	0x1d07
    1a38:	3c00                	fld	fs0,56(s0)
    1a3a:	0004ef0b          	0x4ef0b
    1a3e:	0400                	addi	s0,sp,512
    1a40:	063311d3          	fadd.q	ft3,ft6,ft3,rtz
    1a44:	0000                	unimp
    1a46:	0b40                	addi	s0,sp,404
    1a48:	0918                	addi	a4,sp,144
    1a4a:	0000                	unimp
    1a4c:	d404                	sw	s1,40(s0)
    1a4e:	4311                	li	t1,4
    1a50:	0006                	c.slli	zero,0x1
    1a52:	4300                	lw	s0,0(a4)
    1a54:	5f0e                	lw	t5,224(sp)
    1a56:	626c                	flw	fa1,68(a2)
    1a58:	0400                	addi	s0,sp,512
    1a5a:	02cb11d7          	0x2cb11d7
    1a5e:	0000                	unimp
    1a60:	0b44                	addi	s1,sp,404
    1a62:	0865                	addi	a6,a6,25
    1a64:	0000                	unimp
    1a66:	da04                	sw	s1,48(a2)
    1a68:	00001d07          	0x1d07
    1a6c:	4c00                	lw	s0,24(s0)
    1a6e:	0006d80b          	0x6d80b
    1a72:	0400                	addi	s0,sp,512
    1a74:	00760adb          	0x760adb
    1a78:	0000                	unimp
    1a7a:	0b50                	addi	a2,sp,404
    1a7c:	0462                	slli	s0,s0,0x18
    1a7e:	0000                	unimp
    1a80:	de04                	sw	s1,56(a2)
    1a82:	5a12                	lw	s4,36(sp)
    1a84:	0004                	0x4
    1a86:	5400                	lw	s0,40(s0)
    1a88:	00066f0b          	0x66f0b
    1a8c:	0400                	addi	s0,sp,512
    1a8e:	0ce2                	slli	s9,s9,0x18
    1a90:	0109                	addi	sp,sp,2
    1a92:	0000                	unimp
    1a94:	0b58                	addi	a4,sp,404
    1a96:	05ed                	addi	a1,a1,27
    1a98:	0000                	unimp
    1a9a:	e404                	fsw	fs1,8(s0)
    1a9c:	fd0e                	fsw	ft3,184(sp)
    1a9e:	0000                	unimp
    1aa0:	5c00                	lw	s0,56(s0)
    1aa2:	0007b10b          	0x7b10b
    1aa6:	0400                	addi	s0,sp,512
    1aa8:	09e5                	addi	s3,s3,25
    1aaa:	001d                	c.nop	7
    1aac:	0000                	unimp
    1aae:	0064                	addi	s1,sp,12
    1ab0:	00008e13          	mv	t3,ra
    1ab4:	5a00                	lw	s0,48(a2)
    1ab6:	0004                	0x4
    1ab8:	1400                	addi	s0,sp,544
    1aba:	045a                	slli	s0,s0,0x16
    1abc:	0000                	unimp
    1abe:	1514                	addi	a3,sp,672
    1ac0:	0001                	nop
    1ac2:	1400                	addi	s0,sp,544
    1ac4:	05ae                	slli	a1,a1,0xb
    1ac6:	0000                	unimp
    1ac8:	1d14                	addi	a3,sp,688
    1aca:	0000                	unimp
    1acc:	0000                	unimp
    1ace:	0465040f          	0x465040f
    1ad2:	0000                	unimp
    1ad4:	5a15                	li	s4,-27
    1ad6:	0004                	0x4
    1ad8:	1600                	addi	s0,sp,800
    1ada:	083a                	slli	a6,a6,0xe
    1adc:	0000                	unimp
    1ade:	0428                	addi	a0,sp,520
    1ae0:	6004                	flw	fs1,0(s0)
    1ae2:	0802                	c.slli64	a6
    1ae4:	05ae                	slli	a1,a1,0xb
    1ae6:	0000                	unimp
    1ae8:	00079017          	auipc	zero,0x79
    1aec:	0400                	addi	s0,sp,512
    1aee:	0262                	slli	tp,tp,0x18
    1af0:	00001d07          	0x1d07
    1af4:	0000                	unimp
    1af6:	0008e517          	auipc	a0,0x8e
    1afa:	0400                	addi	s0,sp,512
    1afc:	9f0b0267          	jalr	tp,-1552(s6) # 19bea <TOHOST_ADDR+0x17e36>
    1b00:	0006                	c.slli	zero,0x1
    1b02:	0400                	addi	s0,sp,512
    1b04:	0008cd17          	auipc	s10,0x8c
    1b08:	0400                	addi	s0,sp,512
    1b0a:	9f140267          	jalr	tp,-1551(s0) # 3107 <TOHOST_ADDR+0x1353>
    1b0e:	0006                	c.slli	zero,0x1
    1b10:	0800                	addi	s0,sp,16
    1b12:	0005b117          	auipc	sp,0x5b
    1b16:	0400                	addi	s0,sp,512
    1b18:	9f1e0267          	jalr	tp,-1551(t3) # 199f1 <TOHOST_ADDR+0x17c3d>
    1b1c:	0006                	c.slli	zero,0x1
    1b1e:	0c00                	addi	s0,sp,528
    1b20:	0007fd17          	auipc	s10,0x7f
    1b24:	0400                	addi	s0,sp,512
    1b26:	0269                	addi	tp,tp,26
    1b28:	1d08                	addi	a0,sp,688
    1b2a:	0000                	unimp
    1b2c:	1000                	addi	s0,sp,32
    1b2e:	00043117          	auipc	sp,0x43
    1b32:	0400                	addi	s0,sp,512
    1b34:	026a                	slli	tp,tp,0x1a
    1b36:	9f08                	0x9f08
    1b38:	0008                	0x8
    1b3a:	1400                	addi	s0,sp,544
    1b3c:	00081917          	auipc	s2,0x81
    1b40:	0400                	addi	s0,sp,512
    1b42:	026d                	addi	tp,tp,27
    1b44:	00001d07          	0x1d07
    1b48:	3000                	fld	fs0,32(s0)
    1b4a:	00080717          	auipc	a4,0x80
    1b4e:	0400                	addi	s0,sp,512
    1b50:	026e                	slli	tp,tp,0x1b
    1b52:	b416                	fsd	ft5,40(sp)
    1b54:	0008                	0x8
    1b56:	3400                	fld	fs0,40(s0)
    1b58:	00071717          	auipc	a4,0x71
    1b5c:	0400                	addi	s0,sp,512
    1b5e:	0270                	addi	a2,sp,268
    1b60:	00001d07          	0x1d07
    1b64:	3800                	fld	fs0,48(s0)
    1b66:	00080f17          	auipc	t5,0x80
    1b6a:	0400                	addi	s0,sp,512
    1b6c:	0272                	slli	tp,tp,0x1c
    1b6e:	c50a                	sw	sp,136(sp)
    1b70:	0008                	0x8
    1b72:	3c00                	fld	fs0,56(s0)
    1b74:	00064717          	auipc	a4,0x64
    1b78:	0400                	addi	s0,sp,512
    1b7a:	0275                	addi	tp,tp,29
    1b7c:	00017d13          	andi	s10,sp,0
    1b80:	4000                	lw	s0,0(s0)
    1b82:	00055317          	auipc	t1,0x55
    1b86:	0400                	addi	s0,sp,512
    1b88:	0276                	slli	tp,tp,0x1d
    1b8a:	00001d07          	0x1d07
    1b8e:	4400                	lw	s0,8(s0)
    1b90:	00097717          	auipc	a4,0x97
    1b94:	0400                	addi	s0,sp,512
    1b96:	7d130277          	0x7d130277
    1b9a:	0001                	nop
    1b9c:	4800                	lw	s0,16(s0)
    1b9e:	00072917          	auipc	s2,0x72
    1ba2:	0400                	addi	s0,sp,512
    1ba4:	0278                	addi	a4,sp,268
    1ba6:	cb14                	sw	a3,16(a4)
    1ba8:	0008                	0x8
    1baa:	4c00                	lw	s0,24(s0)
    1bac:	0005fd17          	auipc	s10,0x5f
    1bb0:	0400                	addi	s0,sp,512
    1bb2:	1d07027b          	0x1d07027b
    1bb6:	0000                	unimp
    1bb8:	5000                	lw	s0,32(s0)
    1bba:	00056a17          	auipc	s4,0x56
    1bbe:	0400                	addi	s0,sp,512
    1bc0:	027c                	addi	a5,sp,268
    1bc2:	ae09                	j	1ed4 <TOHOST_ADDR+0x120>
    1bc4:	0005                	c.nop	1
    1bc6:	5400                	lw	s0,40(s0)
    1bc8:	00078917          	auipc	s2,0x78
    1bcc:	0400                	addi	s0,sp,512
    1bce:	029f 7a07 0008      	0x87a07029f
    1bd4:	5800                	lw	s0,48(s0)
    1bd6:	0518                	addi	a4,sp,640
    1bd8:	04000007          	0x4000007
    1bdc:	ae1302a3          	sb	ra,-1307(t1) # 56667 <TOHOST_ADDR+0x548b3>
    1be0:	0002                	c.slli64	zero
    1be2:	4800                	lw	s0,16(s0)
    1be4:	1801                	addi	a6,a6,-32
    1be6:	0625                	addi	a2,a2,9
    1be8:	0000                	unimp
    1bea:	a404                	fsd	fs1,8(s0)
    1bec:	1202                	slli	tp,tp,0x20
    1bee:	0000026b          	0x26b
    1bf2:	014c                	addi	a1,sp,132
    1bf4:	ff18                	fsw	fa4,56(a4)
    1bf6:	0008                	0x8
    1bf8:	0400                	addi	s0,sp,512
    1bfa:	02a8                	addi	a0,sp,328
    1bfc:	dc0c                	sw	a1,56(s0)
    1bfe:	0008                	0x8
    1c00:	dc00                	sw	s0,56(s0)
    1c02:	1802                	slli	a6,a6,0x20
    1c04:	0530                	addi	a2,sp,648
    1c06:	0000                	unimp
    1c08:	ad04                	fsd	fs1,24(a0)
    1c0a:	1002                	c.slli	zero,0x20
    1c0c:	0660                	addi	s0,sp,780
    1c0e:	0000                	unimp
    1c10:	02e0                	addi	s0,sp,332
    1c12:	1518                	addi	a4,sp,672
    1c14:	0005                	c.nop	1
    1c16:	0400                	addi	s0,sp,512
    1c18:	e80a02af          	0xe80a02af
    1c1c:	0008                	0x8
    1c1e:	ec00                	fsw	fs0,24(s0)
    1c20:	0002                	c.slli64	zero
    1c22:	05b4040f          	0x5b4040f
    1c26:	0000                	unimp
    1c28:	4b080103          	lb	sp,1200(a6) # 21604b0 <TOHOST_ADDR+0x215e6fc>
    1c2c:	0000                	unimp
    1c2e:	1500                	addi	s0,sp,672
    1c30:	05b4                	addi	a3,sp,712
    1c32:	0000                	unimp
    1c34:	043c040f          	0x43c040f
    1c38:	0000                	unimp
    1c3a:	00008e13          	mv	t3,ra
    1c3e:	e400                	fsw	fs0,8(s0)
    1c40:	0005                	c.nop	1
    1c42:	1400                	addi	s0,sp,544
    1c44:	045a                	slli	s0,s0,0x16
    1c46:	0000                	unimp
    1c48:	1514                	addi	a3,sp,672
    1c4a:	0001                	nop
    1c4c:	1400                	addi	s0,sp,544
    1c4e:	05e4                	addi	s1,sp,716
    1c50:	0000                	unimp
    1c52:	1d14                	addi	a3,sp,688
    1c54:	0000                	unimp
    1c56:	0000                	unimp
    1c58:	05bb040f          	0x5bb040f
    1c5c:	0000                	unimp
    1c5e:	e415                	bnez	s0,1c8a <a+0x526>
    1c60:	0005                	c.nop	1
    1c62:	0f00                	addi	s0,sp,912
    1c64:	c604                	sw	s1,8(a2)
    1c66:	0005                	c.nop	1
    1c68:	1300                	addi	s0,sp,416
    1c6a:	0082                	c.slli64	ra
    1c6c:	0000                	unimp
    1c6e:	00000613          	li	a2,0
    1c72:	5a14                	lw	a3,48(a2)
    1c74:	0004                	0x4
    1c76:	1400                	addi	s0,sp,544
    1c78:	0115                	addi	sp,sp,5
    1c7a:	0000                	unimp
    1c7c:	8214                	0x8214
    1c7e:	0000                	unimp
    1c80:	1400                	addi	s0,sp,544
    1c82:	001d                	c.nop	7
    1c84:	0000                	unimp
    1c86:	0f00                	addi	s0,sp,912
    1c88:	f504                	fsw	fs1,40(a0)
    1c8a:	0005                	c.nop	1
    1c8c:	1300                	addi	s0,sp,416
    1c8e:	001d                	c.nop	7
    1c90:	0000                	unimp
    1c92:	062d                	addi	a2,a2,11
    1c94:	0000                	unimp
    1c96:	5a14                	lw	a3,48(a2)
    1c98:	0004                	0x4
    1c9a:	1400                	addi	s0,sp,544
    1c9c:	0115                	addi	sp,sp,5
    1c9e:	0000                	unimp
    1ca0:	0f00                	addi	s0,sp,912
    1ca2:	1904                	addi	s1,sp,176
    1ca4:	0006                	c.slli	zero,0x1
    1ca6:	0800                	addi	s0,sp,16
    1ca8:	0040                	addi	s0,sp,4
    1caa:	0000                	unimp
    1cac:	00000643          	fmadd.s	fa2,ft0,ft0,ft0,rne
    1cb0:	2409                	jal	1eb2 <TOHOST_ADDR+0xfe>
    1cb2:	0000                	unimp
    1cb4:	0200                	addi	s0,sp,256
    1cb6:	0800                	addi	s0,sp,16
    1cb8:	0040                	addi	s0,sp,4
    1cba:	0000                	unimp
    1cbc:	00000653          	fadd.s	fa2,ft0,ft0,rne
    1cc0:	2409                	jal	1ec2 <TOHOST_ADDR+0x10e>
    1cc2:	0000                	unimp
    1cc4:	0000                	unimp
    1cc6:	0500                	addi	s0,sp,640
    1cc8:	054c                	addi	a1,sp,644
    1cca:	0000                	unimp
    1ccc:	1f04                	addi	s1,sp,944
    1cce:	1a01                	addi	s4,s4,-32
    1cd0:	02f9                	addi	t0,t0,30
    1cd2:	0000                	unimp
    1cd4:	df19                	beqz	a4,1bf2 <a+0x48e>
    1cd6:	0008                	0x8
    1cd8:	0c00                	addi	s0,sp,528
    1cda:	2304                	fld	fs1,0(a4)
    1cdc:	0801                	addi	a6,a6,0
    1cde:	0699                	addi	a3,a3,6
    1ce0:	0000                	unimp
    1ce2:	0007ea17          	auipc	s4,0x7e
    1ce6:	0400                	addi	s0,sp,512
    1ce8:	0125                	addi	sp,sp,9
    1cea:	9911                	andi	a0,a0,-28
    1cec:	0006                	c.slli	zero,0x1
    1cee:	0000                	unimp
    1cf0:	00061517          	auipc	a0,0x61
    1cf4:	0400                	addi	s0,sp,512
    1cf6:	0126                	slli	sp,sp,0x9
    1cf8:	00001d07          	0x1d07
    1cfc:	0400                	addi	s0,sp,512
    1cfe:	0007b917          	auipc	s2,0x7b
    1d02:	0400                	addi	s0,sp,512
    1d04:	9f0b0127          	0x9f0b0127
    1d08:	0006                	c.slli	zero,0x1
    1d0a:	0800                	addi	s0,sp,16
    1d0c:	0f00                	addi	s0,sp,912
    1d0e:	6004                	flw	fs1,0(s0)
    1d10:	0006                	c.slli	zero,0x1
    1d12:	0f00                	addi	s0,sp,912
    1d14:	5304                	lw	s1,32(a4)
    1d16:	0006                	c.slli	zero,0x1
    1d18:	1900                	addi	s0,sp,176
    1d1a:	0429                	addi	s0,s0,10
    1d1c:	0000                	unimp
    1d1e:	040e                	slli	s0,s0,0x3
    1d20:	de08013f 17000006 	0x17000006de08013f
    1d28:	0841                	addi	a6,a6,16
    1d2a:	0000                	unimp
    1d2c:	4004                	lw	s1,0(s0)
    1d2e:	1201                	addi	tp,tp,-32
    1d30:	06de                	slli	a3,a3,0x17
    1d32:	0000                	unimp
    1d34:	1700                	addi	s0,sp,928
    1d36:	0000068b          	0x68b
    1d3a:	4104                	lw	s1,0(a0)
    1d3c:	1201                	addi	tp,tp,-32
    1d3e:	06de                	slli	a3,a3,0x17
    1d40:	0000                	unimp
    1d42:	1706                	slli	a4,a4,0x21
    1d44:	0898                	addi	a4,sp,80
    1d46:	0000                	unimp
    1d48:	4204                	lw	s1,0(a2)
    1d4a:	1201                	addi	tp,tp,-32
    1d4c:	004e                	c.slli	zero,0x13
    1d4e:	0000                	unimp
    1d50:	000c                	0xc
    1d52:	4e08                	lw	a0,24(a2)
    1d54:	0000                	unimp
    1d56:	ee00                	fsw	fs0,24(a2)
    1d58:	0006                	c.slli	zero,0x1
    1d5a:	0900                	addi	s0,sp,144
    1d5c:	0024                	addi	s1,sp,8
    1d5e:	0000                	unimp
    1d60:	0002                	c.slli64	zero
    1d62:	d01a                	sw	t1,32(sp)
    1d64:	8004                	0x8004
    1d66:	0702                	c.slli64	a4
    1d68:	00000803          	lb	a6,0(zero) # 0 <_start>
    1d6c:	0006ba17          	auipc	s4,0x6b
    1d70:	0400                	addi	s0,sp,512
    1d72:	0282                	c.slli64	t0
    1d74:	2418                	fld	fa4,8(s0)
    1d76:	0000                	unimp
    1d78:	0000                	unimp
    1d7a:	00087b17          	auipc	s6,0x87
    1d7e:	0400                	addi	s0,sp,512
    1d80:	ae120283          	lb	t0,-1311(tp) # 46eb1 <TOHOST_ADDR+0x450fd>
    1d84:	0005                	c.nop	1
    1d86:	0400                	addi	s0,sp,512
    1d88:	00063a17          	auipc	s4,0x63
    1d8c:	0400                	addi	s0,sp,512
    1d8e:	0284                	addi	s1,sp,320
    1d90:	0310                	addi	a2,sp,384
    1d92:	0008                	0x8
    1d94:	0800                	addi	s0,sp,16
    1d96:	00093117          	auipc	sp,0x93
    1d9a:	0400                	addi	s0,sp,512
    1d9c:	0285                	addi	t0,t0,1
    1d9e:	00019317          	auipc	t1,0x19
    1da2:	2400                	fld	fs0,8(s0)
    1da4:	0005c117          	auipc	sp,0x5c
    1da8:	0400                	addi	s0,sp,512
    1daa:	0286                	slli	t0,t0,0x1
    1dac:	00001d0f          	0x1d0f
    1db0:	4800                	lw	s0,16(s0)
    1db2:	0007e517          	auipc	a0,0x7e
    1db6:	0400                	addi	s0,sp,512
    1db8:	632c0287          	0x632c0287
    1dbc:	0000                	unimp
    1dbe:	5000                	lw	s0,32(s0)
    1dc0:	00094917          	auipc	s2,0x94
    1dc4:	0400                	addi	s0,sp,512
    1dc6:	0288                	addi	a0,sp,320
    1dc8:	a51a                	fsd	ft6,136(sp)
    1dca:	0006                	c.slli	zero,0x1
    1dcc:	5800                	lw	s0,48(s0)
    1dce:	0007f017          	auipc	zero,0x7f
    1dd2:	0400                	addi	s0,sp,512
    1dd4:	0289                	addi	t0,t0,2
    1dd6:	fd16                	fsw	ft5,184(sp)
    1dd8:	0000                	unimp
    1dda:	6800                	flw	fs0,16(s0)
    1ddc:	00096917          	auipc	s2,0x96
    1de0:	0400                	addi	s0,sp,512
    1de2:	028a                	slli	t0,t0,0x2
    1de4:	fd16                	fsw	ft5,184(sp)
    1de6:	0000                	unimp
    1de8:	7000                	flw	fs0,32(s0)
    1dea:	0004d117          	auipc	sp,0x4d
    1dee:	0400                	addi	s0,sp,512
    1df0:	fd16028b          	0xfd16028b
    1df4:	0000                	unimp
    1df6:	7800                	flw	fs0,48(s0)
    1df8:	0008f517          	auipc	a0,0x8f
    1dfc:	0400                	addi	s0,sp,512
    1dfe:	028c                	addi	a1,sp,320
    1e00:	1310                	addi	a2,sp,416
    1e02:	0008                	0x8
    1e04:	8000                	0x8000
    1e06:	00062e17          	auipc	t3,0x62
    1e0a:	0400                	addi	s0,sp,512
    1e0c:	028d                	addi	t0,t0,3
    1e0e:	2310                	fld	fa2,0(a4)
    1e10:	0008                	0x8
    1e12:	8800                	0x8800
    1e14:	00045517          	auipc	a0,0x45
    1e18:	0400                	addi	s0,sp,512
    1e1a:	028e                	slli	t0,t0,0x3
    1e1c:	00001d0f          	0x1d0f
    1e20:	a000                	fsd	fs0,0(s0)
    1e22:	00058317          	auipc	t1,0x58
    1e26:	0400                	addi	s0,sp,512
    1e28:	fd16028f          	0xfd16028f
    1e2c:	0000                	unimp
    1e2e:	a400                	fsd	fs0,8(s0)
    1e30:	0004ba17          	auipc	s4,0x4b
    1e34:	0400                	addi	s0,sp,512
    1e36:	0290                	addi	a2,sp,320
    1e38:	fd16                	fsw	ft5,184(sp)
    1e3a:	0000                	unimp
    1e3c:	ac00                	fsd	fs0,24(s0)
    1e3e:	00057217          	auipc	tp,0x57
    1e42:	0400                	addi	s0,sp,512
    1e44:	0291                	addi	t0,t0,4
    1e46:	fd16                	fsw	ft5,184(sp)
    1e48:	0000                	unimp
    1e4a:	b400                	fsd	fs0,40(s0)
    1e4c:	00046817          	auipc	a6,0x46
    1e50:	0400                	addi	s0,sp,512
    1e52:	0292                	slli	t0,t0,0x4
    1e54:	fd16                	fsw	ft5,184(sp)
    1e56:	0000                	unimp
    1e58:	bc00                	fsd	fs0,56(s0)
    1e5a:	00047717          	auipc	a4,0x47
    1e5e:	0400                	addi	s0,sp,512
    1e60:	fd160293          	addi	t0,a2,-47
    1e64:	0000                	unimp
    1e66:	c400                	sw	s0,8(s0)
    1e68:	00078e17          	auipc	t3,0x78
    1e6c:	0400                	addi	s0,sp,512
    1e6e:	0294                	addi	a3,sp,320
    1e70:	1d08                	addi	a0,sp,688
    1e72:	0000                	unimp
    1e74:	cc00                	sw	s0,24(s0)
    1e76:	0800                	addi	s0,sp,16
    1e78:	05b4                	addi	a3,sp,712
    1e7a:	0000                	unimp
    1e7c:	00000813          	li	a6,0
    1e80:	2409                	jal	2082 <TOHOST_ADDR+0x2ce>
    1e82:	0000                	unimp
    1e84:	1900                	addi	s0,sp,176
    1e86:	0800                	addi	s0,sp,16
    1e88:	05b4                	addi	a3,sp,712
    1e8a:	0000                	unimp
    1e8c:	00000823          	sb	zero,16(zero) # 10 <_start+0x10>
    1e90:	2409                	jal	2092 <TOHOST_ADDR+0x2de>
    1e92:	0000                	unimp
    1e94:	0700                	addi	s0,sp,896
    1e96:	0800                	addi	s0,sp,16
    1e98:	05b4                	addi	a3,sp,712
    1e9a:	0000                	unimp
    1e9c:	00000833          	add	a6,zero,zero
    1ea0:	2409                	jal	20a2 <TOHOST_ADDR+0x2ee>
    1ea2:	0000                	unimp
    1ea4:	1700                	addi	s0,sp,928
    1ea6:	1a00                	addi	s0,sp,304
    1ea8:	04f0                	addi	a2,sp,588
    1eaa:	0299                	addi	t0,t0,6
    1eac:	00085a07          	0x85a07
    1eb0:	1700                	addi	s0,sp,928
    1eb2:	000006e7          	jalr	a3,zero # 0 <_start>
    1eb6:	9c04                	0x9c04
    1eb8:	1b02                	slli	s6,s6,0x20
    1eba:	085a                	slli	a6,a6,0x16
    1ebc:	0000                	unimp
    1ebe:	1700                	addi	s0,sp,928
    1ec0:	05d0                	addi	a2,sp,708
    1ec2:	0000                	unimp
    1ec4:	9d04                	0x9d04
    1ec6:	1802                	slli	a6,a6,0x20
    1ec8:	086a                	slli	a6,a6,0x1a
    1eca:	0000                	unimp
    1ecc:	0078                	addi	a4,sp,12
    1ece:	f308                	fsw	fa0,32(a4)
    1ed0:	0002                	c.slli64	zero
    1ed2:	6a00                	flw	fs0,16(a2)
    1ed4:	0008                	0x8
    1ed6:	0900                	addi	s0,sp,144
    1ed8:	0024                	addi	s1,sp,8
    1eda:	0000                	unimp
    1edc:	001d                	c.nop	7
    1ede:	2408                	fld	fa0,8(s0)
    1ee0:	0000                	unimp
    1ee2:	7a00                	flw	fs0,48(a2)
    1ee4:	0008                	0x8
    1ee6:	0900                	addi	s0,sp,144
    1ee8:	0024                	addi	s1,sp,8
    1eea:	0000                	unimp
    1eec:	001d                	c.nop	7
    1eee:	7e04f01b          	0x7e04f01b
    1ef2:	0302                	c.slli64	t1
    1ef4:	089f 0000 3a1c      	0x3a1c0000089f
    1efa:	0008                	0x8
    1efc:	0400                	addi	s0,sp,512
    1efe:	0295                	addi	t0,t0,5
    1f00:	0006ee0b          	0x6ee0b
    1f04:	1c00                	addi	s0,sp,560
    1f06:	091e                	slli	s2,s2,0x7
    1f08:	0000                	unimp
    1f0a:	9e04                	0x9e04
    1f0c:	0b02                	c.slli64	s6
    1f0e:	00000833          	add	a6,zero,zero
    1f12:	0800                	addi	s0,sp,16
    1f14:	05b4                	addi	a3,sp,712
    1f16:	0000                	unimp
    1f18:	000008af          	0x8af
    1f1c:	2409                	jal	211e <TOHOST_ADDR+0x36a>
    1f1e:	0000                	unimp
    1f20:	1800                	addi	s0,sp,48
    1f22:	1d00                	addi	s0,sp,688
    1f24:	000004af          	0x4af
    1f28:	08af040f          	0x8af040f
    1f2c:	0000                	unimp
    1f2e:	c51e                	sw	t2,136(sp)
    1f30:	0008                	0x8
    1f32:	1400                	addi	s0,sp,544
    1f34:	045a                	slli	s0,s0,0x16
    1f36:	0000                	unimp
    1f38:	0f00                	addi	s0,sp,912
    1f3a:	ba04                	fsd	fs1,48(a2)
    1f3c:	0008                	0x8
    1f3e:	0f00                	addi	s0,sp,912
    1f40:	7d04                	flw	fs1,56(a0)
    1f42:	0001                	nop
    1f44:	1e00                	addi	s0,sp,816
    1f46:	08dc                	addi	a5,sp,84
    1f48:	0000                	unimp
    1f4a:	1d14                	addi	a3,sp,688
    1f4c:	0000                	unimp
    1f4e:	0000                	unimp
    1f50:	08e2040f          	0x8e2040f
    1f54:	0000                	unimp
    1f56:	08d1040f          	0x8d1040f
    1f5a:	0000                	unimp
    1f5c:	5308                	lw	a0,32(a4)
    1f5e:	0006                	c.slli	zero,0x1
    1f60:	f800                	fsw	fs0,48(s0)
    1f62:	0008                	0x8
    1f64:	0900                	addi	s0,sp,144
    1f66:	0024                	addi	s1,sp,8
    1f68:	0000                	unimp
    1f6a:	0002                	c.slli64	zero
    1f6c:	c11f 0008 0400      	0x4000008c11f
    1f72:	032e                	slli	t1,t1,0xb
    1f74:	00045a17          	auipc	s4,0x45
    1f78:	1f00                	addi	s0,sp,944
    1f7a:	08ba                	slli	a7,a7,0xe
    1f7c:	0000                	unimp
    1f7e:	2f04                	fld	fs1,24(a4)
    1f80:	04601d03          	lh	s10,70(zero) # 46 <_start+0x46>
    1f84:	0000                	unimp
    1f86:	ea08                	fsw	fa0,16(a2)
    1f88:	0005                	c.nop	1
    1f8a:	1d00                	addi	s0,sp,688
    1f8c:	0009                	c.nop	2
    1f8e:	2000                	fld	fs0,0(s0)
    1f90:	1500                	addi	s0,sp,672
    1f92:	0912                	slli	s2,s2,0x4
    1f94:	0000                	unimp
    1f96:	5d21                	li	s10,-24
    1f98:	0005                	c.nop	1
    1f9a:	0500                	addi	s0,sp,640
    1f9c:	2414                	fld	fa3,8(s0)
    1f9e:	091d                	addi	s2,s2,7
    1fa0:	0000                	unimp
    1fa2:	db21                	beqz	a4,1ef2 <TOHOST_ADDR+0x13e>
    1fa4:	05000007          	0x5000007
    1fa8:	1515                	addi	a0,a0,-27
    1faa:	001d                	c.nop	7
    1fac:	0000                	unimp
    1fae:	0940040f          	0x940040f
    1fb2:	0000                	unimp
    1fb4:	00001d13          	slli	s10,zero,0x0
    1fb8:	5400                	lw	s0,40(s0)
    1fba:	0009                	c.nop	2
    1fbc:	1400                	addi	s0,sp,544
    1fbe:	0954                	addi	a3,sp,148
    1fc0:	0000                	unimp
    1fc2:	5414                	lw	a3,40(s0)
    1fc4:	0009                	c.nop	2
    1fc6:	0000                	unimp
    1fc8:	095a040f          	0x95a040f
    1fcc:	0000                	unimp
    1fce:	2122                	fld	ft2,8(sp)
    1fd0:	070d                	addi	a4,a4,3
    1fd2:	0000                	unimp
    1fd4:	6706                	flw	fa4,64(sp)
    1fd6:	ae0e                	fsd	ft3,280(sp)
    1fd8:	0005                	c.nop	1
    1fda:	2100                	fld	fs0,0(a0)
    1fdc:	0660                	addi	s0,sp,780
    1fde:	0000                	unimp
    1fe0:	730f1007          	0x730f1007
    1fe4:	0009                	c.nop	2
    1fe6:	0f00                	addi	s0,sp,912
    1fe8:	ae04                	fsd	fs1,24(a2)
    1fea:	0005                	c.nop	1
    1fec:	2100                	fld	fs0,0(a0)
    1fee:	0710                	addi	a2,sp,896
    1ff0:	0000                	unimp
    1ff2:	ae0efc07          	0xae0efc07
    1ff6:	0005                	c.nop	1
    1ff8:	2100                	fld	fs0,0(a0)
    1ffa:	06e0                	addi	s0,sp,844
    1ffc:	0000                	unimp
    1ffe:	1d0cfd07          	0x1d0cfd07
    2002:	0000                	unimp
    2004:	2100                	fld	fs0,0(a0)
    2006:	0874                	addi	a3,sp,28
    2008:	0000                	unimp
    200a:	1d14fd07          	0x1d14fd07
    200e:	0000                	unimp
    2010:	2100                	fld	fs0,0(a0)
    2012:	0958                	addi	a4,sp,148
    2014:	0000                	unimp
    2016:	1d1cfd07          	0x1d1cfd07
    201a:	0000                	unimp
    201c:	2100                	fld	fs0,0(a0)
    201e:	06a0                	addi	s0,sp,840
    2020:	0000                	unimp
    2022:	1d0cff07          	0x1d0cff07
    2026:	0000                	unimp
    2028:	2100                	fld	fs0,0(a0)
    202a:	00000733          	add	a4,zero,zero
    202e:	9a08                	0x9a08
    2030:	5516                	lw	a0,100(sp)
    2032:	0000                	unimp
    2034:	2100                	fld	fs0,0(a0)
    2036:	043c                	addi	a5,sp,520
    2038:	0000                	unimp
    203a:	9b08                	0x9b08
    203c:	1d15                	addi	s10,s10,-27
    203e:	0000                	unimp
    2040:	0800                	addi	s0,sp,16
    2042:	05ae                	slli	a1,a1,0xb
    2044:	0000                	unimp
    2046:	09dd                	addi	s3,s3,23
    2048:	0000                	unimp
    204a:	2409                	jal	224c <TOHOST_ADDR+0x498>
    204c:	0000                	unimp
    204e:	0100                	addi	s0,sp,128
    2050:	2100                	fld	fs0,0(a0)
    2052:	04c9                	addi	s1,s1,18
    2054:	0000                	unimp
    2056:	9e08                	0x9e08
    2058:	0009cd17          	auipc	s10,0x9c
    205c:	0400                	addi	s0,sp,512
    205e:	0000060b          	0x60b
    2062:	2a09                	jal	2174 <TOHOST_ADDR+0x3c0>
    2064:	2416                	fld	fs0,320(sp)
    2066:	0000                	unimp
    2068:	0400                	addi	s0,sp,512
    206a:	07c9                	addi	a5,a5,18
    206c:	0000                	unimp
    206e:	2f09                	jal	2780 <TOHOST_ADDR+0x9cc>
    2070:	0115                	addi	sp,sp,5
    2072:	000a                	c.slli	zero,0x2
    2074:	0f00                	addi	s0,sp,912
    2076:	0704                	addi	s1,sp,896
    2078:	000a                	c.slli	zero,0x2
    207a:	1300                	addi	s0,sp,416
    207c:	09e9                	addi	s3,s3,26
    207e:	0000                	unimp
    2080:	0a16                	slli	s4,s4,0x5
    2082:	0000                	unimp
    2084:	5414                	lw	a3,40(s0)
    2086:	0009                	c.nop	2
    2088:	0000                	unimp
    208a:	ac04                	fsd	fs1,24(s0)
    208c:	0009                	c.nop	2
    208e:	0900                	addi	s0,sp,144
    2090:	0f36                	slli	t5,t5,0xd
    2092:	093a                	slli	s2,s2,0xe
    2094:	0000                	unimp
    2096:	1721                	addi	a4,a4,-24
    2098:	0004                	0x4
    209a:	0900                	addi	s0,sp,144
    209c:	09f512bb          	0x9f512bb
    20a0:	0000                	unimp
    20a2:	a521                	j	26aa <TOHOST_ADDR+0x8f6>
    20a4:	0008                	0x8
    20a6:	0900                	addi	s0,sp,144
    20a8:	10be                	slli	ra,ra,0x2f
    20aa:	0a16                	slli	s4,s4,0x5
    20ac:	0000                	unimp
    20ae:	0005de23          	0x5de23
    20b2:	0700                	addi	s0,sp,896
    20b4:	2404                	fld	fs1,8(s0)
    20b6:	0000                	unimp
    20b8:	0a00                	addi	s0,sp,272
    20ba:	0618                	addi	a4,sp,768
    20bc:	00000a77          	0xa77
    20c0:	6924                	flw	fs1,80(a0)
    20c2:	00000007          	0x7
    20c6:	8024                	0x8024
    20c8:	0006                	c.slli	zero,0x1
    20ca:	0100                	addi	s0,sp,128
    20cc:	5524                	lw	s1,104(a0)
    20ce:	0006                	c.slli	zero,0x1
    20d0:	0200                	addi	s0,sp,256
    20d2:	7524                	flw	fs1,104(a0)
    20d4:	0006                	c.slli	zero,0x1
    20d6:	0300                	addi	s0,sp,384
    20d8:	6024                	flw	fs1,64(s0)
    20da:	04000007          	0x4000007
    20de:	5f24                	lw	s1,120(a4)
    20e0:	0009                	c.nop	2
    20e2:	0500                	addi	s0,sp,640
    20e4:	4e24                	lw	s1,88(a2)
    20e6:	0009                	c.nop	2
    20e8:	0600                	addi	s0,sp,768
    20ea:	2100                	fld	fs0,0(a0)
    20ec:	04a5                	addi	s1,s1,9
    20ee:	0000                	unimp
    20f0:	210a                	fld	ft2,128(sp)
    20f2:	3a1c                	fld	fa5,48(a2)
    20f4:	000a                	c.slli	zero,0x2
    20f6:	2300                	fld	fs0,0(a4)
    20f8:	000006c7          	fmsub.s	fa3,ft0,ft0,ft0,rne
    20fc:	00240407          	0x240407
    2100:	0000                	unimp
    2102:	230a                	fld	ft6,128(sp)
    2104:	a806                	fsd	ft1,16(sp)
    2106:	000a                	c.slli	zero,0x2
    2108:	2400                	fld	fs0,8(s0)
    210a:	000007bf 077f2400 	0x77f2400000007bf
    2112:	0000                	unimp
    2114:	2401                	jal	2314 <TOHOST_ADDR+0x560>
    2116:	0888                	addi	a0,sp,80
    2118:	0000                	unimp
    211a:	0002                	c.slli64	zero
    211c:	9121                	srli	a0,a0,0x28
    211e:	0005                	c.nop	1
    2120:	0a00                	addi	s0,sp,272
    2122:	1e28                	addi	a0,sp,824
    2124:	00000a83          	lb	s5,0(zero) # 0 <_start>
    2128:	9121                	srli	a0,a0,0x28
    212a:	0006                	c.slli	zero,0x1
    212c:	0b00                	addi	s0,sp,400
    212e:	1a29                	addi	s4,s4,-22
    2130:	091d                	addi	s2,s2,7
    2132:	0000                	unimp
    2134:	0521                	addi	a0,a0,8
    2136:	0005                	c.nop	1
    2138:	0b00                	addi	s0,sp,400
    213a:	1a38                	addi	a4,sp,312
    213c:	091d                	addi	s2,s2,7
    213e:	0000                	unimp
    2140:	c004                	sw	s1,0(s0)
    2142:	0000                	unimp
    2144:	0c00                	addi	s0,sp,528
    2146:	0040167b          	0x40167b
    214a:	0000                	unimp
    214c:	cc15                	beqz	s0,2188 <TOHOST_ADDR+0x3d4>
    214e:	000a                	c.slli	zero,0x2
    2150:	0300                	addi	s0,sp,384
    2152:	0404                	addi	s1,sp,512
    2154:	06f6                	slli	a3,a3,0x1d
    2156:	0000                	unimp
    2158:	ee030803          	lb	a6,-288(t1) # 59d02 <TOHOST_ADDR+0x57f4e>
    215c:	0006                	c.slli	zero,0x1
    215e:	0300                	addi	s0,sp,384
    2160:	0408                	addi	a0,sp,512
    2162:	049e                	slli	s1,s1,0x7
    2164:	0000                	unimp
    2166:	46031003          	lh	zero,1120(t1)
    216a:	0004                	0x4
    216c:	0300                	addi	s0,sp,384
    216e:	0320                	addi	s0,sp,392
    2170:	0491                	addi	s1,s1,4
    2172:	0000                	unimp
    2174:	d808                	sw	a0,48(s0)
    2176:	000a                	c.slli	zero,0x2
    2178:	1000                	addi	s0,sp,32
    217a:	0900000b          	0x900000b
    217e:	0024                	addi	s1,sp,8
    2180:	0000                	unimp
    2182:	00ff                	0xff
    2184:	0015                	c.nop	5
    2186:	1f00000b          	0x1f00000b
    218a:	0909                	addi	s2,s2,2
    218c:	0000                	unimp
    218e:	fc0c                	fsw	fa1,56(s0)
    2190:	1601                	addi	a2,a2,-32
    2192:	0b10                	addi	a2,sp,400
    2194:	0000                	unimp
    2196:	c81f 0000 0c00      	0xc000000c81f
    219c:	0202                	c.slli64	tp
    219e:	1016                	c.slli	zero,0x25
    21a0:	2500000b          	0x2500000b
    21a4:	0b22                	slli	s6,s6,0x8
    21a6:	0000                	unimp
    21a8:	b20d                	j	1aca <a+0x366>
    21aa:	0f02                	c.slli64	t5
    21ac:	0305                	addi	t1,t1,1
    21ae:	15a8                	addi	a0,sp,744
    21b0:	0000                	unimp
	...

Disassembly of section .debug_abbrev:

00000000 <.debug_abbrev>:
   0:	1101                	addi	sp,sp,-32
   2:	2501                	jal	602 <initialise_board+0x2>
   4:	130e                	slli	t1,t1,0x23
   6:	1b0e030b          	0x1b0e030b
   a:	110e                	slli	sp,sp,0x23
   c:	1201                	addi	tp,tp,-32
   e:	1006                	c.slli	zero,0x21
  10:	02000017          	auipc	zero,0x2000
  14:	0024                	addi	s1,sp,8
  16:	0b3e0b0b          	0xb3e0b0b
  1a:	00000e03          	lb	t3,0(zero) # 0 <_start>
  1e:	0b002403          	lw	s0,176(zero) # b0 <verify_benchmark+0x20>
  22:	030b3e0b          	0x30b3e0b
  26:	0008                	0x8
  28:	0400                	addi	s0,sp,512
  2a:	0016                	c.slli	zero,0x5
  2c:	0b3a0e03          	lb	t3,179(s4) # 47027 <TOHOST_ADDR+0x45273>
  30:	0b39053b          	0xb39053b
  34:	1349                	addi	t1,t1,-14
  36:	0000                	unimp
  38:	2605                	jal	358 <ludcmp+0x24c>
  3a:	4900                	lw	s0,16(a0)
  3c:	06000013          	li	zero,96
  40:	0101                	addi	sp,sp,0
  42:	1349                	addi	t1,t1,-14
  44:	1301                	addi	t1,t1,-32
  46:	0000                	unimp
  48:	49002107          	flw	ft2,1168(zero) # 490 <ludcmp+0x384>
  4c:	000b2f13          	slti	t5,s6,0
  50:	0800                	addi	s0,sp,16
  52:	0034                	addi	a3,sp,8
  54:	0b3a0e03          	lb	t3,179(s4)
  58:	0b390b3b          	0xb390b3b
  5c:	1349                	addi	t1,t1,-14
  5e:	193c193f 16090000 	0x16090000193c193f
  66:	0300                	addi	s0,sp,384
  68:	3a0e                	fld	fs4,224(sp)
  6a:	390b3b0b          	0x390b3b0b
  6e:	0013490b          	0x13490b
  72:	0a00                	addi	s0,sp,272
  74:	0b0b0113          	addi	sp,s6,176 # 88e2a <TOHOST_ADDR+0x87076>
  78:	0b3a                	slli	s6,s6,0xe
  7a:	0b390b3b          	0xb390b3b
  7e:	1301                	addi	t1,t1,-32
  80:	0000                	unimp
  82:	03000d0b          	0x3000d0b
  86:	3a0e                	fld	fs4,224(sp)
  88:	390b3b0b          	0x390b3b0b
  8c:	0b13490b          	0xb13490b
  90:	0c0b0d0b          	0xc0b0d0b
  94:	000b380b          	0xb380b
  98:	0c00                	addi	s0,sp,528
  9a:	000d                	c.nop	3
  9c:	0b3a0803          	lb	a6,179(s4)
  a0:	0b390b3b          	0xb390b3b
  a4:	1349                	addi	t1,t1,-14
  a6:	0b0d0b0b          	0xb0d0b0b
  aa:	0b0c                	addi	a1,sp,400
  ac:	0b38                	addi	a4,sp,408
  ae:	0000                	unimp
  b0:	170d                	addi	a4,a4,-29
  b2:	0301                	addi	t1,t1,0
  b4:	0b0e                	slli	s6,s6,0x3
  b6:	3b0b3a0b          	0x3b0b3a0b
  ba:	010b390b          	0x10b390b
  be:	0e000013          	li	zero,224
  c2:	000d                	c.nop	3
  c4:	0b3a0803          	lb	a6,179(s4)
  c8:	0b390b3b          	0xb390b3b
  cc:	1349                	addi	t1,t1,-14
  ce:	0000                	unimp
  d0:	03000d0f          	0x3000d0f
  d4:	3a0e                	fld	fs4,224(sp)
  d6:	390b3b0b          	0x390b3b0b
  da:	0013490b          	0x13490b
  de:	1000                	addi	s0,sp,32
  e0:	012e                	slli	sp,sp,0xb
  e2:	0e03193f 0b3b0b3a 	0xb3b0b3a0e03193f
  ea:	0b39                	addi	s6,s6,14
  ec:	13491927          	0x13491927
  f0:	0111                	addi	sp,sp,4
  f2:	0612                	slli	a2,a2,0x4
  f4:	1840                	addi	s0,sp,52
  f6:	4296                	lw	t0,68(sp)
  f8:	0119                	addi	sp,sp,6
  fa:	11000013          	li	zero,272
  fe:	0005                	c.nop	1
 100:	0b3a0803          	lb	a6,179(s4)
 104:	0b390b3b          	0xb390b3b
 108:	1349                	addi	t1,t1,-14
 10a:	1702                	slli	a4,a4,0x20
 10c:	0000                	unimp
 10e:	3412                	fld	fs0,288(sp)
 110:	0300                	addi	s0,sp,384
 112:	3a0e                	fld	fs4,224(sp)
 114:	390b3b0b          	0x390b3b0b
 118:	0213490b          	0x213490b
 11c:	13000017          	auipc	zero,0x13000
 120:	0034                	addi	a3,sp,8
 122:	0b3a0e03          	lb	t3,179(s4)
 126:	0b390b3b          	0xb390b3b
 12a:	1349                	addi	t1,t1,-14
 12c:	0b1c                	addi	a5,sp,400
 12e:	0000                	unimp
 130:	3414                	fld	fa3,40(s0)
 132:	0300                	addi	s0,sp,384
 134:	3a08                	fld	fa0,48(a2)
 136:	390b3b0b          	0x390b3b0b
 13a:	0013490b          	0x13490b
 13e:	1500                	addi	s0,sp,672
 140:	0034                	addi	a3,sp,8
 142:	0b3a0803          	lb	a6,179(s4)
 146:	0b390b3b          	0xb390b3b
 14a:	1349                	addi	t1,t1,-14
 14c:	1702                	slli	a4,a4,0x20
 14e:	0000                	unimp
 150:	0b16                	slli	s6,s6,0x5
 152:	5501                	li	a0,-32
 154:	00130117          	auipc	sp,0x130
 158:	1700                	addi	s0,sp,928
 15a:	0034                	addi	a3,sp,8
 15c:	0b3a0e03          	lb	t3,179(s4)
 160:	0b390b3b          	0xb390b3b
 164:	1349                	addi	t1,t1,-14
 166:	0000                	unimp
 168:	0a18                	addi	a4,sp,272
 16a:	0300                	addi	s0,sp,384
 16c:	3a0e                	fld	fs4,224(sp)
 16e:	390b3b0b          	0x390b3b0b
 172:	0001110b          	0x1110b
 176:	1900                	addi	s0,sp,176
 178:	0111010b          	0x111010b
 17c:	0612                	slli	a2,a2,0x4
 17e:	1301                	addi	t1,t1,-32
 180:	0000                	unimp
 182:	0b1a                	slli	s6,s6,0x6
 184:	5501                	li	a0,-32
 186:	1b000017          	auipc	zero,0x1b000
 18a:	1301010b          	0x1301010b
 18e:	0000                	unimp
 190:	0b1c                	addi	a5,sp,400
 192:	0001                	nop
 194:	0000                	unimp
 196:	1101                	addi	sp,sp,-32
 198:	2501                	jal	798 <realloc_beebs+0x18>
 19a:	130e                	slli	t1,t1,0x23
 19c:	1b0e030b          	0x1b0e030b
 1a0:	110e                	slli	sp,sp,0x23
 1a2:	1201                	addi	tp,tp,-32
 1a4:	1006                	c.slli	zero,0x21
 1a6:	02000017          	auipc	zero,0x2000
 1aa:	0024                	addi	s1,sp,8
 1ac:	0b3e0b0b          	0xb3e0b0b
 1b0:	00000e03          	lb	t3,0(zero) # 0 <_start>
 1b4:	0b002403          	lw	s0,176(zero) # b0 <verify_benchmark+0x20>
 1b8:	030b3e0b          	0x30b3e0b
 1bc:	0008                	0x8
 1be:	0400                	addi	s0,sp,512
 1c0:	0016                	c.slli	zero,0x5
 1c2:	0b3a0e03          	lb	t3,179(s4)
 1c6:	0b39053b          	0xb39053b
 1ca:	1349                	addi	t1,t1,-14
 1cc:	0000                	unimp
 1ce:	2605                	jal	4ee <benchmark_body+0x32>
 1d0:	4900                	lw	s0,16(a0)
 1d2:	06000013          	li	zero,96
 1d6:	0101                	addi	sp,sp,0
 1d8:	1349                	addi	t1,t1,-14
 1da:	1301                	addi	t1,t1,-32
 1dc:	0000                	unimp
 1de:	49002107          	flw	ft2,1168(zero) # 490 <ludcmp+0x384>
 1e2:	000b2f13          	slti	t5,s6,0
 1e6:	0800                	addi	s0,sp,16
 1e8:	0034                	addi	a3,sp,8
 1ea:	0b3a0e03          	lb	t3,179(s4)
 1ee:	0b390b3b          	0xb390b3b
 1f2:	1349                	addi	t1,t1,-14
 1f4:	193c193f 16090000 	0x16090000193c193f
 1fc:	0300                	addi	s0,sp,384
 1fe:	3a0e                	fld	fs4,224(sp)
 200:	390b3b0b          	0x390b3b0b
 204:	0013490b          	0x13490b
 208:	0a00                	addi	s0,sp,272
 20a:	0b0b0113          	addi	sp,s6,176
 20e:	0b3a                	slli	s6,s6,0xe
 210:	0b390b3b          	0xb390b3b
 214:	1301                	addi	t1,t1,-32
 216:	0000                	unimp
 218:	03000d0b          	0x3000d0b
 21c:	3a0e                	fld	fs4,224(sp)
 21e:	390b3b0b          	0x390b3b0b
 222:	0b13490b          	0xb13490b
 226:	0c0b0d0b          	0xc0b0d0b
 22a:	000b380b          	0xb380b
 22e:	0c00                	addi	s0,sp,528
 230:	000d                	c.nop	3
 232:	0b3a0803          	lb	a6,179(s4)
 236:	0b390b3b          	0xb390b3b
 23a:	1349                	addi	t1,t1,-14
 23c:	0b0d0b0b          	0xb0d0b0b
 240:	0b0c                	addi	a1,sp,400
 242:	0b38                	addi	a4,sp,408
 244:	0000                	unimp
 246:	170d                	addi	a4,a4,-29
 248:	0301                	addi	t1,t1,0
 24a:	0b0e                	slli	s6,s6,0x3
 24c:	3b0b3a0b          	0x3b0b3a0b
 250:	010b390b          	0x10b390b
 254:	0e000013          	li	zero,224
 258:	000d                	c.nop	3
 25a:	0b3a0803          	lb	a6,179(s4)
 25e:	0b390b3b          	0xb390b3b
 262:	1349                	addi	t1,t1,-14
 264:	0000                	unimp
 266:	03000d0f          	0x3000d0f
 26a:	3a0e                	fld	fs4,224(sp)
 26c:	390b3b0b          	0x390b3b0b
 270:	0013490b          	0x13490b
 274:	1000                	addi	s0,sp,32
 276:	012e                	slli	sp,sp,0xb
 278:	0e03193f 0b3b0b3a 	0xb3b0b3a0e03193f
 280:	0b39                	addi	s6,s6,14
 282:	13491927          	0x13491927
 286:	0111                	addi	sp,sp,4
 288:	0612                	slli	a2,a2,0x4
 28a:	1840                	addi	s0,sp,52
 28c:	01194297          	auipc	t0,0x1194
 290:	11000013          	li	zero,272
 294:	0005                	c.nop	1
 296:	0b3a0803          	lb	a6,179(s4)
 29a:	0b390b3b          	0xb390b3b
 29e:	1349                	addi	t1,t1,-14
 2a0:	1702                	slli	a4,a4,0x20
 2a2:	0000                	unimp
 2a4:	3412                	fld	fs0,288(sp)
 2a6:	0300                	addi	s0,sp,384
 2a8:	3a0e                	fld	fs4,224(sp)
 2aa:	390b3b0b          	0x390b3b0b
 2ae:	1c13490b          	0x1c13490b
 2b2:	1300000b          	0x1300000b
 2b6:	0034                	addi	a3,sp,8
 2b8:	0b3a0803          	lb	a6,179(s4)
 2bc:	0b390b3b          	0xb390b3b
 2c0:	1349                	addi	t1,t1,-14
 2c2:	0000                	unimp
 2c4:	3414                	fld	fa3,40(s0)
 2c6:	0300                	addi	s0,sp,384
 2c8:	3a08                	fld	fa0,48(a2)
 2ca:	390b3b0b          	0x390b3b0b
 2ce:	0213490b          	0x213490b
 2d2:	0018                	0x18
 2d4:	1500                	addi	s0,sp,672
 2d6:	0034                	addi	a3,sp,8
 2d8:	0b3a0803          	lb	a6,179(s4)
 2dc:	0b390b3b          	0xb390b3b
 2e0:	1349                	addi	t1,t1,-14
 2e2:	1702                	slli	a4,a4,0x20
 2e4:	0000                	unimp
 2e6:	3416                	fld	fs0,352(sp)
 2e8:	0300                	addi	s0,sp,384
 2ea:	3a0e                	fld	fs4,224(sp)
 2ec:	390b3b0b          	0x390b3b0b
 2f0:	0213490b          	0x213490b
 2f4:	17000017          	auipc	zero,0x17000
 2f8:	1755010b          	0x1755010b
 2fc:	1301                	addi	t1,t1,-32
 2fe:	0000                	unimp
 300:	3418                	fld	fa4,40(s0)
 302:	0300                	addi	s0,sp,384
 304:	3a0e                	fld	fs4,224(sp)
 306:	390b3b0b          	0x390b3b0b
 30a:	0013490b          	0x13490b
 30e:	1900                	addi	s0,sp,176
 310:	1301010b          	0x1301010b
 314:	0000                	unimp
 316:	0b1a                	slli	s6,s6,0x6
 318:	1101                	addi	sp,sp,-32
 31a:	1201                	addi	tp,tp,-32
 31c:	0006                	c.slli	zero,0x1
 31e:	0000                	unimp
 320:	1101                	addi	sp,sp,-32
 322:	2501                	jal	922 <simrv_puth+0x32>
 324:	130e                	slli	t1,t1,0x23
 326:	1b0e030b          	0x1b0e030b
 32a:	110e                	slli	sp,sp,0x23
 32c:	1201                	addi	tp,tp,-32
 32e:	1006                	c.slli	zero,0x21
 330:	02000017          	auipc	zero,0x2000
 334:	0024                	addi	s1,sp,8
 336:	0b3e0b0b          	0xb3e0b0b
 33a:	00000803          	lb	a6,0(zero) # 0 <_start>
 33e:	0b002403          	lw	s0,176(zero) # b0 <verify_benchmark+0x20>
 342:	030b3e0b          	0x30b3e0b
 346:	000e                	c.slli	zero,0x3
 348:	0400                	addi	s0,sp,512
 34a:	0016                	c.slli	zero,0x5
 34c:	0b3a0e03          	lb	t3,179(s4)
 350:	0b39053b          	0xb39053b
 354:	1349                	addi	t1,t1,-14
 356:	0000                	unimp
 358:	2605                	jal	678 <srand_beebs>
 35a:	4900                	lw	s0,16(a0)
 35c:	06000013          	li	zero,96
 360:	0101                	addi	sp,sp,0
 362:	1349                	addi	t1,t1,-14
 364:	1301                	addi	t1,t1,-32
 366:	0000                	unimp
 368:	49002107          	flw	ft2,1168(zero) # 490 <ludcmp+0x384>
 36c:	000b2f13          	slti	t5,s6,0
 370:	0800                	addi	s0,sp,16
 372:	0034                	addi	a3,sp,8
 374:	0b3a0e03          	lb	t3,179(s4)
 378:	0b390b3b          	0xb390b3b
 37c:	1349                	addi	t1,t1,-14
 37e:	193c193f 16090000 	0x16090000193c193f
 386:	0300                	addi	s0,sp,384
 388:	3a0e                	fld	fs4,224(sp)
 38a:	390b3b0b          	0x390b3b0b
 38e:	0013490b          	0x13490b
 392:	0a00                	addi	s0,sp,272
 394:	0b0b0113          	addi	sp,s6,176
 398:	0b3a                	slli	s6,s6,0xe
 39a:	0b390b3b          	0xb390b3b
 39e:	1301                	addi	t1,t1,-32
 3a0:	0000                	unimp
 3a2:	03000d0b          	0x3000d0b
 3a6:	3a0e                	fld	fs4,224(sp)
 3a8:	390b3b0b          	0x390b3b0b
 3ac:	0b13490b          	0xb13490b
 3b0:	0c0b0d0b          	0xc0b0d0b
 3b4:	000b380b          	0xb380b
 3b8:	0c00                	addi	s0,sp,528
 3ba:	000d                	c.nop	3
 3bc:	0b3a0803          	lb	a6,179(s4)
 3c0:	0b390b3b          	0xb390b3b
 3c4:	1349                	addi	t1,t1,-14
 3c6:	0b0d0b0b          	0xb0d0b0b
 3ca:	0b0c                	addi	a1,sp,400
 3cc:	0b38                	addi	a4,sp,408
 3ce:	0000                	unimp
 3d0:	170d                	addi	a4,a4,-29
 3d2:	0301                	addi	t1,t1,0
 3d4:	0b0e                	slli	s6,s6,0x3
 3d6:	3b0b3a0b          	0x3b0b3a0b
 3da:	010b390b          	0x10b390b
 3de:	0e000013          	li	zero,224
 3e2:	000d                	c.nop	3
 3e4:	0b3a0803          	lb	a6,179(s4)
 3e8:	0b390b3b          	0xb390b3b
 3ec:	1349                	addi	t1,t1,-14
 3ee:	0000                	unimp
 3f0:	03000d0f          	0x3000d0f
 3f4:	3a0e                	fld	fs4,224(sp)
 3f6:	390b3b0b          	0x390b3b0b
 3fa:	0013490b          	0x13490b
 3fe:	1000                	addi	s0,sp,32
 400:	012e                	slli	sp,sp,0xb
 402:	0e03193f 0b3b0b3a 	0xb3b0b3a0e03193f
 40a:	0b39                	addi	s6,s6,14
 40c:	13491927          	0x13491927
 410:	0111                	addi	sp,sp,4
 412:	0612                	slli	a2,a2,0x4
 414:	1840                	addi	s0,sp,52
 416:	4296                	lw	t0,68(sp)
 418:	0119                	addi	sp,sp,6
 41a:	11000013          	li	zero,272
 41e:	0005                	c.nop	1
 420:	0b3a0803          	lb	a6,179(s4)
 424:	0b390b3b          	0xb390b3b
 428:	1349                	addi	t1,t1,-14
 42a:	1702                	slli	a4,a4,0x20
 42c:	0000                	unimp
 42e:	3412                	fld	fs0,288(sp)
 430:	0300                	addi	s0,sp,384
 432:	3a08                	fld	fa0,48(a2)
 434:	390b3b0b          	0x390b3b0b
 438:	0013490b          	0x13490b
 43c:	1300                	addi	s0,sp,416
 43e:	0034                	addi	a3,sp,8
 440:	0b3a0803          	lb	a6,179(s4)
 444:	0b390b3b          	0xb390b3b
 448:	1349                	addi	t1,t1,-14
 44a:	1702                	slli	a4,a4,0x20
 44c:	0000                	unimp
 44e:	3414                	fld	fa3,40(s0)
 450:	0300                	addi	s0,sp,384
 452:	3a0e                	fld	fs4,224(sp)
 454:	390b3b0b          	0x390b3b0b
 458:	0213490b          	0x213490b
 45c:	15000017          	auipc	zero,0x15000
 460:	1755010b          	0x1755010b
 464:	1301                	addi	t1,t1,-32
 466:	0000                	unimp
 468:	0a16                	slli	s4,s4,0x5
 46a:	0300                	addi	s0,sp,384
 46c:	3a0e                	fld	fs4,224(sp)
 46e:	390b3b0b          	0x390b3b0b
 472:	1700000b          	0x1700000b
 476:	1755010b          	0x1755010b
 47a:	0000                	unimp
 47c:	0b18                	addi	a4,sp,400
 47e:	0001                	nop
 480:	1900                	addi	s0,sp,176
 482:	0034                	addi	a3,sp,8
 484:	0b3a0e03          	lb	t3,179(s4)
 488:	0b390b3b          	0xb390b3b
 48c:	1349                	addi	t1,t1,-14
 48e:	0000                	unimp
 490:	0b1a                	slli	s6,s6,0x6
 492:	0101                	addi	sp,sp,0
 494:	1b000013          	li	zero,432
 498:	0111010b          	0x111010b
 49c:	0612                	slli	a2,a2,0x4
 49e:	0000                	unimp
 4a0:	0100                	addi	s0,sp,128
 4a2:	0011                	c.nop	4
 4a4:	0610                	addi	a2,sp,768
 4a6:	0111                	addi	sp,sp,4
 4a8:	0112                	slli	sp,sp,0x4
 4aa:	0e1b0e03          	lb	t3,225(s6)
 4ae:	0e25                	addi	t3,t3,9
 4b0:	00000513          	li	a0,0
 4b4:	0100                	addi	s0,sp,128
 4b6:	0011                	c.nop	4
 4b8:	0610                	addi	a2,sp,768
 4ba:	0111                	addi	sp,sp,4
 4bc:	0112                	slli	sp,sp,0x4
 4be:	0e1b0e03          	lb	t3,225(s6)
 4c2:	0e25                	addi	t3,t3,9
 4c4:	00000513          	li	a0,0
 4c8:	0100                	addi	s0,sp,128
 4ca:	0111                	addi	sp,sp,4
 4cc:	0e25                	addi	t3,t3,9
 4ce:	0e030b13          	addi	s6,t1,224
 4d2:	01110e1b          	0x1110e1b
 4d6:	0612                	slli	a2,a2,0x4
 4d8:	1710                	addi	a2,sp,928
 4da:	0000                	unimp
 4dc:	2402                	fld	fs0,0(sp)
 4de:	0b00                	addi	s0,sp,400
 4e0:	030b3e0b          	0x30b3e0b
 4e4:	0008                	0x8
 4e6:	0300                	addi	s0,sp,384
 4e8:	0024                	addi	s1,sp,8
 4ea:	0b3e0b0b          	0xb3e0b0b
 4ee:	00000e03          	lb	t3,0(zero) # 0 <_start>
 4f2:	1604                	addi	s1,sp,800
 4f4:	0300                	addi	s0,sp,384
 4f6:	3a0e                	fld	fs4,224(sp)
 4f8:	390b3b0b          	0x390b3b0b
 4fc:	0013490b          	0x13490b
 500:	0500                	addi	s0,sp,640
 502:	0016                	c.slli	zero,0x5
 504:	0b3a0e03          	lb	t3,179(s4)
 508:	0b39053b          	0xb39053b
 50c:	1349                	addi	t1,t1,-14
 50e:	0000                	unimp
 510:	1706                	slli	a4,a4,0x21
 512:	0b01                	addi	s6,s6,0
 514:	3b0b3a0b          	0x3b0b3a0b
 518:	010b390b          	0x10b390b
 51c:	07000013          	li	zero,112
 520:	000d                	c.nop	3
 522:	0b3a0e03          	lb	t3,179(s4)
 526:	0b390b3b          	0xb390b3b
 52a:	1349                	addi	t1,t1,-14
 52c:	0000                	unimp
 52e:	0108                	addi	a0,sp,128
 530:	4901                	li	s2,0
 532:	00130113          	addi	sp,t1,1
 536:	0900                	addi	s0,sp,144
 538:	0021                	c.nop	8
 53a:	1349                	addi	t1,t1,-14
 53c:	00000b2f          	0xb2f
 540:	130a                	slli	t1,t1,0x22
 542:	0b01                	addi	s6,s6,0
 544:	3b0b3a0b          	0x3b0b3a0b
 548:	010b390b          	0x10b390b
 54c:	0b000013          	li	zero,176
 550:	000d                	c.nop	3
 552:	0b3a0e03          	lb	t3,179(s4)
 556:	0b390b3b          	0xb390b3b
 55a:	1349                	addi	t1,t1,-14
 55c:	0b38                	addi	a4,sp,408
 55e:	0000                	unimp
 560:	0f0c                	addi	a1,sp,912
 562:	0b00                	addi	s0,sp,400
 564:	0d00000b          	0xd00000b
 568:	0e030113          	addi	sp,t1,224
 56c:	0b3a0b0b          	0xb3a0b0b
 570:	0b390b3b          	0xb390b3b
 574:	1301                	addi	t1,t1,-32
 576:	0000                	unimp
 578:	0d0e                	slli	s10,s10,0x3
 57a:	0300                	addi	s0,sp,384
 57c:	3a08                	fld	fa0,48(a2)
 57e:	390b3b0b          	0x390b3b0b
 582:	3813490b          	0x3813490b
 586:	0f00000b          	0xf00000b
 58a:	0b0b000f          	0xb0b000f
 58e:	1349                	addi	t1,t1,-14
 590:	0000                	unimp
 592:	1310                	addi	a2,sp,416
 594:	0301                	addi	t1,t1,0
 596:	0b0e                	slli	s6,s6,0x3
 598:	3a05                	jal	fffffec8 <TOHOST_ADDR+0xffffe114>
 59a:	390b3b0b          	0x390b3b0b
 59e:	0013010b          	0x13010b
 5a2:	1100                	addi	s0,sp,160
 5a4:	000d                	c.nop	3
 5a6:	0b3a0e03          	lb	t3,179(s4)
 5aa:	0b390b3b          	0xb390b3b
 5ae:	1349                	addi	t1,t1,-14
 5b0:	0538                	addi	a4,sp,648
 5b2:	0000                	unimp
 5b4:	1512                	slli	a0,a0,0x24
 5b6:	2700                	fld	fs0,8(a4)
 5b8:	0019                	c.nop	6
 5ba:	1300                	addi	s0,sp,416
 5bc:	0115                	addi	sp,sp,5
 5be:	13491927          	0x13491927
 5c2:	1301                	addi	t1,t1,-32
 5c4:	0000                	unimp
 5c6:	0514                	addi	a3,sp,640
 5c8:	4900                	lw	s0,16(a0)
 5ca:	15000013          	li	zero,336
 5ce:	0026                	c.slli	zero,0x9
 5d0:	1349                	addi	t1,t1,-14
 5d2:	0000                	unimp
 5d4:	1316                	slli	t1,t1,0x25
 5d6:	0301                	addi	t1,t1,0
 5d8:	0b0e                	slli	s6,s6,0x3
 5da:	3a05                	jal	ffffff0a <TOHOST_ADDR+0xffffe156>
 5dc:	39053b0b          	0x39053b0b
 5e0:	0013010b          	0x13010b
 5e4:	1700                	addi	s0,sp,928
 5e6:	000d                	c.nop	3
 5e8:	0b3a0e03          	lb	t3,179(s4)
 5ec:	0b39053b          	0xb39053b
 5f0:	1349                	addi	t1,t1,-14
 5f2:	0b38                	addi	a4,sp,408
 5f4:	0000                	unimp
 5f6:	0d18                	addi	a4,sp,656
 5f8:	0300                	addi	s0,sp,384
 5fa:	3a0e                	fld	fs4,224(sp)
 5fc:	39053b0b          	0x39053b0b
 600:	3813490b          	0x3813490b
 604:	0005                	c.nop	1
 606:	1900                	addi	s0,sp,176
 608:	0e030113          	addi	sp,t1,224
 60c:	0b3a0b0b          	0xb3a0b0b
 610:	0b39053b          	0xb39053b
 614:	1301                	addi	t1,t1,-32
 616:	0000                	unimp
 618:	131a                	slli	t1,t1,0x26
 61a:	0b01                	addi	s6,s6,0
 61c:	3b0b3a0b          	0x3b0b3a0b
 620:	3905                	jal	250 <ludcmp+0x144>
 622:	0013010b          	0x13010b
 626:	1b00                	addi	s0,sp,432
 628:	0b0b0117          	auipc	sp,0xb0b0
 62c:	0b3a                	slli	s6,s6,0xe
 62e:	0b39053b          	0xb39053b
 632:	1301                	addi	t1,t1,-32
 634:	0000                	unimp
 636:	0d1c                	addi	a5,sp,656
 638:	0300                	addi	s0,sp,384
 63a:	3a0e                	fld	fs4,224(sp)
 63c:	39053b0b          	0x39053b0b
 640:	0013490b          	0x13490b
 644:	1d00                	addi	s0,sp,688
 646:	0e030013          	addi	zero,t1,224
 64a:	193c                	addi	a5,sp,184
 64c:	0000                	unimp
 64e:	151e                	slli	a0,a0,0x27
 650:	2701                	jal	d50 <__adddf3+0x3dc>
 652:	0119                	addi	sp,sp,6
 654:	1f000013          	li	zero,496
 658:	0034                	addi	a3,sp,8
 65a:	0b3a0e03          	lb	t3,179(s4)
 65e:	0b39053b          	0xb39053b
 662:	1349                	addi	t1,t1,-14
 664:	193c193f 21200000 	0x21200000193c193f
 66c:	0000                	unimp
 66e:	2100                	fld	fs0,0(a0)
 670:	0034                	addi	a3,sp,8
 672:	0b3a0e03          	lb	t3,179(s4)
 676:	0b390b3b          	0xb390b3b
 67a:	1349                	addi	t1,t1,-14
 67c:	193c193f 26220000 	0x26220000193c193f
 684:	0000                	unimp
 686:	2300                	fld	fs0,0(a4)
 688:	0104                	addi	s1,sp,128
 68a:	0b3e0e03          	lb	t3,179(t3) # 79f1b <TOHOST_ADDR+0x78167>
 68e:	13490b0b          	0x13490b0b
 692:	0b3a                	slli	s6,s6,0xe
 694:	0b390b3b          	0xb390b3b
 698:	1301                	addi	t1,t1,-32
 69a:	0000                	unimp
 69c:	2824                	fld	fs1,80(s0)
 69e:	0300                	addi	s0,sp,384
 6a0:	1c0e                	slli	s8,s8,0x23
 6a2:	2500000b          	0x2500000b
 6a6:	012e                	slli	sp,sp,0xb
 6a8:	0e03193f 053b0b3a 	0x53b0b3a0e03193f
 6b0:	0b39                	addi	s6,s6,14
 6b2:	13491927          	0x13491927
 6b6:	0111                	addi	sp,sp,4
 6b8:	0612                	slli	a2,a2,0x4
 6ba:	1840                	addi	s0,sp,52
 6bc:	00194297          	auipc	t0,0x194
 6c0:	2600                	fld	fs0,8(a2)
 6c2:	0005                	c.nop	1
 6c4:	0b3a0803          	lb	a6,179(s4)
 6c8:	0b39053b          	0xb39053b
 6cc:	1349                	addi	t1,t1,-14
 6ce:	1702                	slli	a4,a4,0x20
 6d0:	0000                	unimp
 6d2:	03003427          	fsd	fa6,40(zero) # 28 <_start+0x28>
 6d6:	3a08                	fld	fa0,48(a2)
 6d8:	39053b0b          	0x39053b0b
 6dc:	0013490b          	0x13490b
 6e0:	2800                	fld	fs0,16(s0)
 6e2:	1755010b          	0x1755010b
 6e6:	0000                	unimp
 6e8:	3429                	jal	f2 <verify_benchmark+0x62>
 6ea:	0300                	addi	s0,sp,384
 6ec:	3a0e                	fld	fs4,224(sp)
 6ee:	39053b0b          	0x39053b0b
 6f2:	0213490b          	0x213490b
 6f6:	2a000017          	auipc	zero,0x2a000
 6fa:	0034                	addi	a3,sp,8
 6fc:	0b3a0803          	lb	a6,179(s4)
 700:	0b39053b          	0xb39053b
 704:	1349                	addi	t1,t1,-14
 706:	1702                	slli	a4,a4,0x20
 708:	0000                	unimp
 70a:	0100                	addi	s0,sp,128
 70c:	0111                	addi	sp,sp,4
 70e:	0e25                	addi	t3,t3,9
 710:	0e030b13          	addi	s6,t1,224
 714:	17100e1b          	0x17100e1b
 718:	0000                	unimp
 71a:	2402                	fld	fs0,0(sp)
 71c:	0b00                	addi	s0,sp,400
 71e:	030b3e0b          	0x30b3e0b
 722:	0008                	0x8
 724:	0300                	addi	s0,sp,384
 726:	0024                	addi	s1,sp,8
 728:	0b3e0b0b          	0xb3e0b0b
 72c:	00000e03          	lb	t3,0(zero) # 0 <_start>
 730:	1604                	addi	s1,sp,800
 732:	0300                	addi	s0,sp,384
 734:	3a0e                	fld	fs4,224(sp)
 736:	390b3b0b          	0x390b3b0b
 73a:	0013490b          	0x13490b
 73e:	0500                	addi	s0,sp,640
 740:	0016                	c.slli	zero,0x5
 742:	0b3a0e03          	lb	t3,179(s4)
 746:	0b39053b          	0xb39053b
 74a:	1349                	addi	t1,t1,-14
 74c:	0000                	unimp
 74e:	1706                	slli	a4,a4,0x21
 750:	0b01                	addi	s6,s6,0
 752:	3b0b3a0b          	0x3b0b3a0b
 756:	010b390b          	0x10b390b
 75a:	07000013          	li	zero,112
 75e:	000d                	c.nop	3
 760:	0b3a0e03          	lb	t3,179(s4)
 764:	0b390b3b          	0xb390b3b
 768:	1349                	addi	t1,t1,-14
 76a:	0000                	unimp
 76c:	0108                	addi	a0,sp,128
 76e:	4901                	li	s2,0
 770:	00130113          	addi	sp,t1,1
 774:	0900                	addi	s0,sp,144
 776:	0021                	c.nop	8
 778:	1349                	addi	t1,t1,-14
 77a:	00000b2f          	0xb2f
 77e:	130a                	slli	t1,t1,0x22
 780:	0b01                	addi	s6,s6,0
 782:	3b0b3a0b          	0x3b0b3a0b
 786:	010b390b          	0x10b390b
 78a:	0b000013          	li	zero,176
 78e:	000d                	c.nop	3
 790:	0b3a0e03          	lb	t3,179(s4)
 794:	0b390b3b          	0xb390b3b
 798:	1349                	addi	t1,t1,-14
 79a:	0b38                	addi	a4,sp,408
 79c:	0000                	unimp
 79e:	0f0c                	addi	a1,sp,912
 7a0:	0b00                	addi	s0,sp,400
 7a2:	0d00000b          	0xd00000b
 7a6:	0e030113          	addi	sp,t1,224
 7aa:	0b3a0b0b          	0xb3a0b0b
 7ae:	0b390b3b          	0xb390b3b
 7b2:	1301                	addi	t1,t1,-32
 7b4:	0000                	unimp
 7b6:	0d0e                	slli	s10,s10,0x3
 7b8:	0300                	addi	s0,sp,384
 7ba:	3a08                	fld	fa0,48(a2)
 7bc:	390b3b0b          	0x390b3b0b
 7c0:	3813490b          	0x3813490b
 7c4:	0f00000b          	0xf00000b
 7c8:	0b0b000f          	0xb0b000f
 7cc:	1349                	addi	t1,t1,-14
 7ce:	0000                	unimp
 7d0:	1310                	addi	a2,sp,416
 7d2:	0301                	addi	t1,t1,0
 7d4:	0b0e                	slli	s6,s6,0x3
 7d6:	3a05                	jal	106 <verify_benchmark+0x76>
 7d8:	390b3b0b          	0x390b3b0b
 7dc:	0013010b          	0x13010b
 7e0:	1100                	addi	s0,sp,160
 7e2:	000d                	c.nop	3
 7e4:	0b3a0e03          	lb	t3,179(s4)
 7e8:	0b390b3b          	0xb390b3b
 7ec:	1349                	addi	t1,t1,-14
 7ee:	0538                	addi	a4,sp,648
 7f0:	0000                	unimp
 7f2:	1512                	slli	a0,a0,0x24
 7f4:	2700                	fld	fs0,8(a4)
 7f6:	0019                	c.nop	6
 7f8:	1300                	addi	s0,sp,416
 7fa:	0115                	addi	sp,sp,5
 7fc:	13491927          	0x13491927
 800:	1301                	addi	t1,t1,-32
 802:	0000                	unimp
 804:	0514                	addi	a3,sp,640
 806:	4900                	lw	s0,16(a0)
 808:	15000013          	li	zero,336
 80c:	0026                	c.slli	zero,0x9
 80e:	1349                	addi	t1,t1,-14
 810:	0000                	unimp
 812:	1316                	slli	t1,t1,0x25
 814:	0301                	addi	t1,t1,0
 816:	0b0e                	slli	s6,s6,0x3
 818:	3a05                	jal	148 <ludcmp+0x3c>
 81a:	39053b0b          	0x39053b0b
 81e:	0013010b          	0x13010b
 822:	1700                	addi	s0,sp,928
 824:	000d                	c.nop	3
 826:	0b3a0e03          	lb	t3,179(s4)
 82a:	0b39053b          	0xb39053b
 82e:	1349                	addi	t1,t1,-14
 830:	0b38                	addi	a4,sp,408
 832:	0000                	unimp
 834:	0d18                	addi	a4,sp,656
 836:	0300                	addi	s0,sp,384
 838:	3a0e                	fld	fs4,224(sp)
 83a:	39053b0b          	0x39053b0b
 83e:	3813490b          	0x3813490b
 842:	0005                	c.nop	1
 844:	1900                	addi	s0,sp,176
 846:	0e030113          	addi	sp,t1,224
 84a:	0b3a0b0b          	0xb3a0b0b
 84e:	0b39053b          	0xb39053b
 852:	1301                	addi	t1,t1,-32
 854:	0000                	unimp
 856:	131a                	slli	t1,t1,0x26
 858:	0b01                	addi	s6,s6,0
 85a:	3b0b3a0b          	0x3b0b3a0b
 85e:	3905                	jal	48e <ludcmp+0x382>
 860:	0013010b          	0x13010b
 864:	1b00                	addi	s0,sp,432
 866:	0b0b0117          	auipc	sp,0xb0b0
 86a:	0b3a                	slli	s6,s6,0xe
 86c:	0b39053b          	0xb39053b
 870:	1301                	addi	t1,t1,-32
 872:	0000                	unimp
 874:	0d1c                	addi	a5,sp,656
 876:	0300                	addi	s0,sp,384
 878:	3a0e                	fld	fs4,224(sp)
 87a:	39053b0b          	0x39053b0b
 87e:	0013490b          	0x13490b
 882:	1d00                	addi	s0,sp,688
 884:	0e030013          	addi	zero,t1,224
 888:	193c                	addi	a5,sp,184
 88a:	0000                	unimp
 88c:	151e                	slli	a0,a0,0x27
 88e:	2701                	jal	f8e <__adddf3+0x61a>
 890:	0119                	addi	sp,sp,6
 892:	1f000013          	li	zero,496
 896:	0034                	addi	a3,sp,8
 898:	0b3a0e03          	lb	t3,179(s4)
 89c:	0b39053b          	0xb39053b
 8a0:	1349                	addi	t1,t1,-14
 8a2:	193c193f 21200000 	0x21200000193c193f
 8aa:	0000                	unimp
 8ac:	2100                	fld	fs0,0(a0)
 8ae:	0034                	addi	a3,sp,8
 8b0:	0b3a0e03          	lb	t3,179(s4)
 8b4:	0b390b3b          	0xb390b3b
 8b8:	1349                	addi	t1,t1,-14
 8ba:	193c193f 26220000 	0x26220000193c193f
 8c2:	0000                	unimp
 8c4:	2300                	fld	fs0,0(a4)
 8c6:	0104                	addi	s1,sp,128
 8c8:	0b3e0e03          	lb	t3,179(t3)
 8cc:	13490b0b          	0x13490b0b
 8d0:	0b3a                	slli	s6,s6,0xe
 8d2:	0b390b3b          	0xb390b3b
 8d6:	1301                	addi	t1,t1,-32
 8d8:	0000                	unimp
 8da:	2824                	fld	fs1,80(s0)
 8dc:	0300                	addi	s0,sp,384
 8de:	1c0e                	slli	s8,s8,0x23
 8e0:	2500000b          	0x2500000b
 8e4:	0034                	addi	a3,sp,8
 8e6:	0b3a1347          	fmsub.d	ft6,fs4,fs3,ft1,rtz
 8ea:	0b39053b          	0xb39053b
 8ee:	1802                	slli	a6,a6,0x20
 8f0:	0000                	unimp
	...

Disassembly of section .debug_loc:

00000000 <.debug_loc>:
       0:	0000                	unimp
       2:	0000                	unimp
       4:	005c                	addi	a5,sp,4
       6:	0000                	unimp
       8:	0006                	c.slli	zero,0x1
       a:	935a                	add	t1,t1,s6
       c:	5b04                	lw	s1,48(a4)
       e:	005c0493          	addi	s1,s8,5 # 2b77 <TOHOST_ADDR+0xdc3>
      12:	0000                	unimp
      14:	07c0                	addi	s0,sp,964
      16:	0000                	unimp
      18:	0006                	c.slli	zero,0x1
      1a:	0af503f3          	0xaf503f3
      1e:	9f25                	0x9f25
	...
      2c:	0060                	addi	s0,sp,12
      2e:	0000                	unimp
      30:	0006                	c.slli	zero,0x1
      32:	935c                	0x935c
      34:	5d04                	lw	s1,56(a0)
      36:	00600493          	li	s1,6
      3a:	0000                	unimp
      3c:	07c0                	addi	s0,sp,964
      3e:	0000                	unimp
      40:	0006                	c.slli	zero,0x1
      42:	0cf503f3          	0xcf503f3
      46:	9f25                	0x9f25
	...
      54:	00a4                	addi	s1,sp,72
      56:	0000                	unimp
      58:	0002                	c.slli64	zero
      5a:	9f30                	0x9f30
      5c:	00ac                	addi	a1,sp,72
      5e:	0000                	unimp
      60:	01bc                	addi	a5,sp,200
      62:	0000                	unimp
      64:	0002                	c.slli64	zero
      66:	9f30                	0x9f30
      68:	01c8                	addi	a0,sp,196
      6a:	0000                	unimp
      6c:	02b4                	addi	a3,sp,328
      6e:	0000                	unimp
      70:	0002                	c.slli64	zero
      72:	9f30                	0x9f30
      74:	02fc                	addi	a5,sp,332
      76:	0000                	unimp
      78:	0588                	addi	a0,sp,704
      7a:	0000                	unimp
      7c:	0002                	c.slli64	zero
      7e:	9f30                	0x9f30
      80:	05a8                	addi	a0,sp,712
      82:	0000                	unimp
      84:	06e8                	addi	a0,sp,844
      86:	0000                	unimp
      88:	0002                	c.slli64	zero
      8a:	9f30                	0x9f30
      8c:	0774                	addi	a3,sp,908
      8e:	0000                	unimp
      90:	07a4                	addi	s1,sp,968
      92:	0000                	unimp
      94:	0002                	c.slli64	zero
      96:	9f30                	0x9f30
	...
      a0:	0050                	addi	a2,sp,4
      a2:	0000                	unimp
      a4:	00a4                	addi	s1,sp,72
      a6:	0000                	unimp
      a8:	0001                	nop
      aa:	ac62                	fsd	fs8,24(sp)
      ac:	0000                	unimp
      ae:	b400                	fsd	fs0,40(s0)
      b0:	0002                	c.slli64	zero
      b2:	0100                	addi	s0,sp,128
      b4:	6200                	flw	fs0,0(a2)
      b6:	02dc                	addi	a5,sp,324
      b8:	0000                	unimp
      ba:	02ec                	addi	a1,sp,332
      bc:	0000                	unimp
      be:	0001                	nop
      c0:	fc62                	fsw	fs8,56(sp)
      c2:	0002                	c.slli64	zero
      c4:	5800                	lw	s0,48(s0)
      c6:	01000003          	lb	zero,16(zero) # 10 <_start+0x10>
      ca:	6200                	flw	fs0,0(a2)
      cc:	0360                	addi	s0,sp,396
      ce:	0000                	unimp
      d0:	03b0                	addi	a2,sp,456
      d2:	0000                	unimp
      d4:	0001                	nop
      d6:	cc62                	sw	s8,24(sp)
      d8:	54000003          	lb	zero,1344(zero) # 540 <benchmark_body+0x84>
      dc:	0004                	0x4
      de:	0100                	addi	s0,sp,128
      e0:	6200                	flw	fs0,0(a2)
      e2:	0458                	addi	a4,sp,516
      e4:	0000                	unimp
      e6:	04d0                	addi	a2,sp,580
      e8:	0000                	unimp
      ea:	0001                	nop
      ec:	d462                	sw	s8,40(sp)
      ee:	0004                	0x4
      f0:	4000                	lw	s0,0(s0)
      f2:	0005                	c.nop	1
      f4:	0100                	addi	s0,sp,128
      f6:	6200                	flw	fs0,0(a2)
      f8:	0544                	addi	s1,sp,644
      fa:	0000                	unimp
      fc:	059c                	addi	a5,sp,704
      fe:	0000                	unimp
     100:	0001                	nop
     102:	a062                	fsd	fs8,0(sp)
     104:	0005                	c.nop	1
     106:	d400                	sw	s0,40(s0)
     108:	0005                	c.nop	1
     10a:	0100                	addi	s0,sp,128
     10c:	6200                	flw	fs0,0(a2)
     10e:	0644                	addi	s1,sp,772
     110:	0000                	unimp
     112:	0658                	addi	a4,sp,772
     114:	0000                	unimp
     116:	0001                	nop
     118:	c062                	sw	s8,0(sp)
     11a:	0006                	c.slli	zero,0x1
     11c:	e800                	fsw	fs0,16(s0)
     11e:	0006                	c.slli	zero,0x1
     120:	0100                	addi	s0,sp,128
     122:	6200                	flw	fs0,0(a2)
     124:	0774                	addi	a3,sp,908
     126:	0000                	unimp
     128:	0798                	addi	a4,sp,960
     12a:	0000                	unimp
     12c:	0001                	nop
     12e:	9c62                	add	s8,s8,s8
     130:	ac000007          	0xac000007
     134:	01000007          	0x1000007
     138:	6200                	flw	fs0,0(a2)
	...
     142:	0038                	addi	a4,sp,8
     144:	0000                	unimp
     146:	0098                	addi	a4,sp,64
     148:	0000                	unimp
     14a:	0001                	nop
     14c:	9c59                	0x9c59
     14e:	0000                	unimp
     150:	a800                	fsd	fs0,16(s0)
     152:	0000                	unimp
     154:	0100                	addi	s0,sp,128
     156:	5900                	lw	s0,48(a0)
     158:	00ac                	addi	a1,sp,72
     15a:	0000                	unimp
     15c:	0108                	addi	a0,sp,128
     15e:	0000                	unimp
     160:	0001                	nop
     162:	4459                	li	s0,22
     164:	0001                	nop
     166:	2400                	fld	fs0,8(s0)
     168:	0002                	c.slli64	zero
     16a:	0100                	addi	s0,sp,128
     16c:	5900                	lw	s0,48(a0)
     16e:	0228                	addi	a0,sp,264
     170:	0000                	unimp
     172:	02b4                	addi	a3,sp,328
     174:	0000                	unimp
     176:	0001                	nop
     178:	dc59                	beqz	s0,116 <ludcmp+0xa>
     17a:	0002                	c.slli64	zero
     17c:	f800                	fsw	fs0,48(s0)
     17e:	0002                	c.slli64	zero
     180:	0100                	addi	s0,sp,128
     182:	5900                	lw	s0,48(a0)
     184:	02fc                	addi	a5,sp,332
     186:	0000                	unimp
     188:	0328                	addi	a0,sp,392
     18a:	0000                	unimp
     18c:	0001                	nop
     18e:	2859                	jal	224 <ludcmp+0x118>
     190:	2c000003          	lb	zero,704(zero) # 2c0 <ludcmp+0x1b4>
     194:	03000003          	lb	zero,48(zero) # 30 <_start+0x30>
     198:	7d00                	flw	fs0,56(a0)
     19a:	9f7f                	0x9f7f
     19c:	032c                	addi	a1,sp,392
     19e:	0000                	unimp
     1a0:	035c                	addi	a5,sp,388
     1a2:	0000                	unimp
     1a4:	0001                	nop
     1a6:	6059                	c.lui	zero,0x16
     1a8:	b0000003          	lb	zero,-1280(zero) # fffffb00 <TOHOST_ADDR+0xffffdd4c>
     1ac:	01000003          	lb	zero,16(zero) # 10 <_start+0x10>
     1b0:	5900                	lw	s0,48(a0)
     1b2:	03cc                	addi	a1,sp,452
     1b4:	0000                	unimp
     1b6:	046c                	addi	a1,sp,524
     1b8:	0000                	unimp
     1ba:	0001                	nop
     1bc:	7059                	c.lui	zero,0xffff6
     1be:	0004                	0x4
     1c0:	cc00                	sw	s0,24(s0)
     1c2:	0004                	0x4
     1c4:	0100                	addi	s0,sp,128
     1c6:	5900                	lw	s0,48(a0)
     1c8:	04d4                	addi	a3,sp,580
     1ca:	0000                	unimp
     1cc:	053c                	addi	a5,sp,648
     1ce:	0000                	unimp
     1d0:	0001                	nop
     1d2:	4459                	li	s0,22
     1d4:	0005                	c.nop	1
     1d6:	d400                	sw	s0,40(s0)
     1d8:	0005                	c.nop	1
     1da:	0100                	addi	s0,sp,128
     1dc:	5900                	lw	s0,48(a0)
     1de:	0644                	addi	s1,sp,772
     1e0:	0000                	unimp
     1e2:	0654                	addi	a3,sp,772
     1e4:	0000                	unimp
     1e6:	0001                	nop
     1e8:	c059                	beqz	s0,26e <ludcmp+0x162>
     1ea:	0006                	c.slli	zero,0x1
     1ec:	cc00                	sw	s0,24(s0)
     1ee:	0006                	c.slli	zero,0x1
     1f0:	0100                	addi	s0,sp,128
     1f2:	5900                	lw	s0,48(a0)
     1f4:	06d0                	addi	a2,sp,836
     1f6:	0000                	unimp
     1f8:	06e0                	addi	s0,sp,844
     1fa:	0000                	unimp
     1fc:	0001                	nop
     1fe:	7459                	lui	s0,0xffff6
     200:	78000007          	0x78000007
     204:	01000007          	0x1000007
     208:	5900                	lw	s0,48(a0)
     20a:	0778                	addi	a4,sp,908
     20c:	0000                	unimp
     20e:	077c                	addi	a5,sp,908
     210:	0000                	unimp
     212:	0009                	c.nop	2
     214:	2544007b          	0x2544007b
     218:	ff0a                	fsw	ft2,188(sp)
     21a:	7c9f1a07          	0x7c9f1a07
     21e:	88000007          	0x88000007
     222:	01000007          	0x1000007
     226:	5900                	lw	s0,48(a0)
     228:	078c                	addi	a1,sp,960
     22a:	0000                	unimp
     22c:	0794                	addi	a3,sp,960
     22e:	0000                	unimp
     230:	0001                	nop
     232:	9c59                	0x9c59
     234:	b4000007          	0xb4000007
     238:	01000007          	0x1000007
     23c:	5900                	lw	s0,48(a0)
	...
     24a:	0088                	addi	a0,sp,64
     24c:	0000                	unimp
     24e:	0001                	nop
     250:	9c5a                	add	s8,s8,s6
     252:	0000                	unimp
     254:	a400                	fsd	fs0,8(s0)
     256:	0000                	unimp
     258:	0100                	addi	s0,sp,128
     25a:	5a00                	lw	s0,48(a2)
     25c:	00ac                	addi	a1,sp,72
     25e:	0000                	unimp
     260:	0108                	addi	a0,sp,128
     262:	0000                	unimp
     264:	0001                	nop
     266:	445a                	lw	s0,148(sp)
     268:	0001                	nop
     26a:	a400                	fsd	fs0,8(s0)
     26c:	0001                	nop
     26e:	0100                	addi	s0,sp,128
     270:	5a00                	lw	s0,48(a2)
     272:	01b4                	addi	a3,sp,200
     274:	0000                	unimp
     276:	01c4                	addi	s1,sp,196
     278:	0000                	unimp
     27a:	0001                	nop
     27c:	c85a                	sw	s6,16(sp)
     27e:	0001                	nop
     280:	0000                	unimp
     282:	0002                	c.slli64	zero
     284:	0100                	addi	s0,sp,128
     286:	5a00                	lw	s0,48(a2)
     288:	020c                	addi	a1,sp,256
     28a:	0000                	unimp
     28c:	0214                	addi	a3,sp,256
     28e:	0000                	unimp
     290:	0001                	nop
     292:	285a                	fld	fa6,400(sp)
     294:	0002                	c.slli64	zero
     296:	4c00                	lw	s0,24(s0)
     298:	0002                	c.slli64	zero
     29a:	0100                	addi	s0,sp,128
     29c:	5a00                	lw	s0,48(a2)
     29e:	025c                	addi	a5,sp,260
     2a0:	0000                	unimp
     2a2:	0260                	addi	s0,sp,268
     2a4:	0000                	unimp
     2a6:	0001                	nop
     2a8:	685a                	flw	fa6,148(sp)
     2aa:	0002                	c.slli64	zero
     2ac:	9400                	0x9400
     2ae:	0002                	c.slli64	zero
     2b0:	0100                	addi	s0,sp,128
     2b2:	5a00                	lw	s0,48(a2)
     2b4:	02dc                	addi	a5,sp,324
     2b6:	0000                	unimp
     2b8:	02f4                	addi	a3,sp,332
     2ba:	0000                	unimp
     2bc:	0001                	nop
     2be:	fc5a                	fsw	fs6,56(sp)
     2c0:	0002                	c.slli64	zero
     2c2:	1800                	addi	s0,sp,48
     2c4:	01000003          	lb	zero,16(zero) # 10 <_start+0x10>
     2c8:	5a00                	lw	s0,48(a2)
     2ca:	032c                	addi	a1,sp,392
     2cc:	0000                	unimp
     2ce:	034c                	addi	a1,sp,388
     2d0:	0000                	unimp
     2d2:	0001                	nop
     2d4:	605a                	flw	ft0,148(sp)
     2d6:	b0000003          	lb	zero,-1280(zero) # fffffb00 <TOHOST_ADDR+0xffffdd4c>
     2da:	01000003          	lb	zero,16(zero) # 10 <_start+0x10>
     2de:	5a00                	lw	s0,48(a2)
     2e0:	03cc                	addi	a1,sp,452
     2e2:	0000                	unimp
     2e4:	0444                	addi	s1,sp,516
     2e6:	0000                	unimp
     2e8:	0001                	nop
     2ea:	585a                	lw	a6,180(sp)
     2ec:	0004                	0x4
     2ee:	6800                	flw	fs0,16(s0)
     2f0:	0004                	0x4
     2f2:	0100                	addi	s0,sp,128
     2f4:	5a00                	lw	s0,48(a2)
     2f6:	0470                	addi	a2,sp,524
     2f8:	0000                	unimp
     2fa:	04a8                	addi	a0,sp,584
     2fc:	0000                	unimp
     2fe:	0001                	nop
     300:	b45a                	fsd	fs6,40(sp)
     302:	0004                	0x4
     304:	bc00                	fsd	fs0,56(s0)
     306:	0004                	0x4
     308:	0100                	addi	s0,sp,128
     30a:	5a00                	lw	s0,48(a2)
     30c:	04d4                	addi	a3,sp,580
     30e:	0000                	unimp
     310:	04f8                	addi	a4,sp,588
     312:	0000                	unimp
     314:	0001                	nop
     316:	085a                	slli	a6,a6,0x16
     318:	0005                	c.nop	1
     31a:	0c00                	addi	s0,sp,528
     31c:	0005                	c.nop	1
     31e:	0100                	addi	s0,sp,128
     320:	5a00                	lw	s0,48(a2)
     322:	0514                	addi	a3,sp,640
     324:	0000                	unimp
     326:	053c                	addi	a5,sp,648
     328:	0000                	unimp
     32a:	0001                	nop
     32c:	445a                	lw	s0,148(sp)
     32e:	0005                	c.nop	1
     330:	6400                	flw	fs0,8(s0)
     332:	0005                	c.nop	1
     334:	0100                	addi	s0,sp,128
     336:	5a00                	lw	s0,48(a2)
     338:	0574                	addi	a3,sp,652
     33a:	0000                	unimp
     33c:	0578                	addi	a4,sp,652
     33e:	0000                	unimp
     340:	0001                	nop
     342:	885a                	mv	a6,s6
     344:	0005                	c.nop	1
     346:	9800                	0x9800
     348:	0005                	c.nop	1
     34a:	0100                	addi	s0,sp,128
     34c:	5a00                	lw	s0,48(a2)
     34e:	05a0                	addi	s0,sp,712
     350:	0000                	unimp
     352:	05d4                	addi	a3,sp,708
     354:	0000                	unimp
     356:	0001                	nop
     358:	445a                	lw	s0,148(sp)
     35a:	0006                	c.slli	zero,0x1
     35c:	4800                	lw	s0,16(s0)
     35e:	0006                	c.slli	zero,0x1
     360:	0100                	addi	s0,sp,128
     362:	5a00                	lw	s0,48(a2)
     364:	06c0                	addi	s0,sp,836
     366:	0000                	unimp
     368:	06c8                	addi	a0,sp,836
     36a:	0000                	unimp
     36c:	0001                	nop
     36e:	d05a                	sw	s6,32(sp)
     370:	0006                	c.slli	zero,0x1
     372:	d800                	sw	s0,48(s0)
     374:	0006                	c.slli	zero,0x1
     376:	0100                	addi	s0,sp,128
     378:	5a00                	lw	s0,48(a2)
     37a:	06dc                	addi	a5,sp,836
     37c:	0000                	unimp
     37e:	06e0                	addi	s0,sp,844
     380:	0000                	unimp
     382:	0001                	nop
     384:	745a                	flw	fs0,180(sp)
     386:	84000007          	0x84000007
     38a:	01000007          	0x1000007
     38e:	5a00                	lw	s0,48(a2)
     390:	078c                	addi	a1,sp,960
     392:	0000                	unimp
     394:	0794                	addi	a3,sp,960
     396:	0000                	unimp
     398:	0001                	nop
     39a:	a45a                	fsd	fs6,8(sp)
     39c:	a8000007          	0xa8000007
     3a0:	01000007          	0x1000007
     3a4:	5a00                	lw	s0,48(a2)
	...
     3ae:	000c                	0xc
     3b0:	0000                	unimp
     3b2:	0010                	0x10
     3b4:	0000                	unimp
     3b6:	0001                	nop
     3b8:	1061                	c.nop	-8
     3ba:	0000                	unimp
     3bc:	2000                	fld	fs0,0(s0)
     3be:	0000                	unimp
     3c0:	0600                	addi	s0,sp,768
     3c2:	8000                	0x8000
     3c4:	7b00                	flw	fs0,48(a4)
     3c6:	1a00                	addi	s0,sp,304
     3c8:	209f 0000 5000      	0x50000000209f
     3ce:	0000                	unimp
     3d0:	0900                	addi	s0,sp,144
     3d2:	7b00                	flw	fs0,48(a4)
     3d4:	0c00                	addi	s0,sp,528
     3d6:	ffff                	0xffff
     3d8:	9f1a000f          	0x9f1a000f
     3dc:	0050                	addi	a2,sp,4
     3de:	0000                	unimp
     3e0:	008c                	addi	a1,sp,64
     3e2:	0000                	unimp
     3e4:	0001                	nop
     3e6:	9c5f 0000 a400      	0xa40000009c5f
     3ec:	0000                	unimp
     3ee:	0100                	addi	s0,sp,128
     3f0:	5f00                	lw	s0,56(a4)
     3f2:	00ac                	addi	a1,sp,72
     3f4:	0000                	unimp
     3f6:	0100                	addi	s0,sp,128
     3f8:	0000                	unimp
     3fa:	0001                	nop
     3fc:	445f 0001 a800      	0xa8000001445f
     402:	0001                	nop
     404:	0100                	addi	s0,sp,128
     406:	5f00                	lw	s0,56(a4)
     408:	01b4                	addi	a3,sp,200
     40a:	0000                	unimp
     40c:	01c0                	addi	s0,sp,196
     40e:	0000                	unimp
     410:	0001                	nop
     412:	c85f 0001 1000      	0x10000001c85f
     418:	0002                	c.slli64	zero
     41a:	0100                	addi	s0,sp,128
     41c:	5f00                	lw	s0,56(a4)
     41e:	0210                	addi	a2,sp,256
     420:	0000                	unimp
     422:	0228                	addi	a0,sp,264
     424:	0000                	unimp
     426:	0001                	nop
     428:	285d                	jal	4de <benchmark_body+0x22>
     42a:	0002                	c.slli64	zero
     42c:	5400                	lw	s0,40(s0)
     42e:	0002                	c.slli64	zero
     430:	0100                	addi	s0,sp,128
     432:	5f00                	lw	s0,56(a4)
     434:	025c                	addi	a5,sp,260
     436:	0000                	unimp
     438:	0290                	addi	a2,sp,320
     43a:	0000                	unimp
     43c:	0001                	nop
     43e:	dc5f 0002 f000      	0xf0000002dc5f
     444:	0002                	c.slli64	zero
     446:	0100                	addi	s0,sp,128
     448:	5f00                	lw	s0,56(a4)
     44a:	02fc                	addi	a5,sp,332
     44c:	0000                	unimp
     44e:	0310                	addi	a2,sp,384
     450:	0000                	unimp
     452:	0001                	nop
     454:	2c5f 0003 5000      	0x500000032c5f
     45a:	01000003          	lb	zero,16(zero) # 10 <_start+0x10>
     45e:	5f00                	lw	s0,56(a4)
     460:	0360                	addi	s0,sp,396
     462:	0000                	unimp
     464:	03a8                	addi	a0,sp,456
     466:	0000                	unimp
     468:	0001                	nop
     46a:	cc5f 0003 4800      	0x48000003cc5f
     470:	0004                	0x4
     472:	0100                	addi	s0,sp,128
     474:	5f00                	lw	s0,56(a4)
     476:	0458                	addi	a4,sp,516
     478:	0000                	unimp
     47a:	0464                	addi	s1,sp,524
     47c:	0000                	unimp
     47e:	0001                	nop
     480:	705f 0004 b800      	0xb8000004705f
     486:	0004                	0x4
     488:	0100                	addi	s0,sp,128
     48a:	5f00                	lw	s0,56(a4)
     48c:	04b8                	addi	a4,sp,584
     48e:	0000                	unimp
     490:	04d4                	addi	a3,sp,580
     492:	0000                	unimp
     494:	0001                	nop
     496:	0004d45b          	0x4d45b
     49a:	0000                	unimp
     49c:	0005                	c.nop	1
     49e:	0100                	addi	s0,sp,128
     4a0:	5f00                	lw	s0,56(a4)
     4a2:	0508                	addi	a0,sp,640
     4a4:	0000                	unimp
     4a6:	0538                	addi	a4,sp,648
     4a8:	0000                	unimp
     4aa:	0001                	nop
     4ac:	445f 0005 6800      	0x68000005445f
     4b2:	0005                	c.nop	1
     4b4:	0100                	addi	s0,sp,128
     4b6:	5f00                	lw	s0,56(a4)
     4b8:	0574                	addi	a3,sp,652
     4ba:	0000                	unimp
     4bc:	0580                	addi	s0,sp,704
     4be:	0000                	unimp
     4c0:	0001                	nop
     4c2:	885f 0005 9400      	0x94000005885f
     4c8:	0005                	c.nop	1
     4ca:	0100                	addi	s0,sp,128
     4cc:	5f00                	lw	s0,56(a4)
     4ce:	05a0                	addi	s0,sp,712
     4d0:	0000                	unimp
     4d2:	05c8                	addi	a0,sp,708
     4d4:	0000                	unimp
     4d6:	0001                	nop
     4d8:	445f 0006 5000      	0x50000006445f
     4de:	0006                	c.slli	zero,0x1
     4e0:	0100                	addi	s0,sp,128
     4e2:	5f00                	lw	s0,56(a4)
     4e4:	06c0                	addi	s0,sp,836
     4e6:	0000                	unimp
     4e8:	06c4                	addi	s1,sp,836
     4ea:	0000                	unimp
     4ec:	0001                	nop
     4ee:	d05f 0006 d400      	0xd4000006d05f
     4f4:	0006                	c.slli	zero,0x1
     4f6:	0100                	addi	s0,sp,128
     4f8:	5f00                	lw	s0,56(a4)
     4fa:	06dc                	addi	a5,sp,836
     4fc:	0000                	unimp
     4fe:	06e0                	addi	s0,sp,844
     500:	0000                	unimp
     502:	0001                	nop
     504:	745f 0007 8000      	0x80000007745f
     50a:	01000007          	0x1000007
     50e:	5f00                	lw	s0,56(a4)
     510:	078c                	addi	a1,sp,960
     512:	0000                	unimp
     514:	0790                	addi	a2,sp,960
     516:	0000                	unimp
     518:	0001                	nop
     51a:	9c5f 0007 a000      	0xa00000079c5f
     520:	01000007          	0x1000007
     524:	5f00                	lw	s0,56(a4)
     526:	07a4                	addi	s1,sp,968
     528:	0000                	unimp
     52a:	07b0                	addi	a2,sp,968
     52c:	0000                	unimp
     52e:	0001                	nop
     530:	005f 0000 0000      	0x5f
     536:	0000                	unimp
     538:	5c00                	lw	s0,56(s0)
     53a:	0000                	unimp
     53c:	7400                	flw	fs0,40(s0)
     53e:	0000                	unimp
     540:	0100                	addi	s0,sp,128
     542:	5d00                	lw	s0,56(a0)
     544:	00ac                	addi	a1,sp,72
     546:	0000                	unimp
     548:	00b0                	addi	a2,sp,72
     54a:	0000                	unimp
     54c:	0001                	nop
     54e:	845d                	srai	s0,s0,0x17
     550:	0001                	nop
     552:	9400                	0x9400
     554:	0001                	nop
     556:	0100                	addi	s0,sp,128
     558:	5d00                	lw	s0,56(a0)
     55a:	01c8                	addi	a0,sp,196
     55c:	0000                	unimp
     55e:	01cc                	addi	a1,sp,196
     560:	0000                	unimp
     562:	0001                	nop
     564:	685d                	lui	a6,0x17
     566:	0002                	c.slli64	zero
     568:	6c00                	flw	fs0,24(s0)
     56a:	0002                	c.slli64	zero
     56c:	0100                	addi	s0,sp,128
     56e:	5d00                	lw	s0,56(a0)
     570:	032c                	addi	a1,sp,392
     572:	0000                	unimp
     574:	0338                	addi	a4,sp,392
     576:	0000                	unimp
     578:	0001                	nop
     57a:	cc5d                	beqz	s0,638 <rand_beebs+0x20>
     57c:	d0000003          	lb	zero,-768(zero) # fffffd00 <TOHOST_ADDR+0xffffdf4c>
     580:	01000003          	lb	zero,16(zero) # 10 <_start+0x10>
     584:	5d00                	lw	s0,56(a0)
     586:	0424                	addi	s1,sp,520
     588:	0000                	unimp
     58a:	05d4                	addi	a3,sp,708
     58c:	0000                	unimp
     58e:	0001                	nop
     590:	445d                	li	s0,23
     592:	0006                	c.slli	zero,0x1
     594:	5800                	lw	s0,48(s0)
     596:	0006                	c.slli	zero,0x1
     598:	0100                	addi	s0,sp,128
     59a:	5d00                	lw	s0,56(a0)
     59c:	077c                	addi	a5,sp,908
     59e:	0000                	unimp
     5a0:	07b4                	addi	a3,sp,968
     5a2:	0000                	unimp
     5a4:	0001                	nop
     5a6:	005d                	c.nop	23
     5a8:	0000                	unimp
     5aa:	0000                	unimp
     5ac:	0000                	unimp
     5ae:	5c00                	lw	s0,56(s0)
     5b0:	0000                	unimp
     5b2:	e000                	fsw	fs0,0(s0)
     5b4:	0000                	unimp
     5b6:	0100                	addi	s0,sp,128
     5b8:	6100                	flw	fs0,0(a0)
     5ba:	0144                	addi	s1,sp,132
     5bc:	0000                	unimp
     5be:	014c                	addi	a1,sp,132
     5c0:	0000                	unimp
     5c2:	0001                	nop
     5c4:	7861                	lui	a6,0xffff8
     5c6:	0001                	nop
     5c8:	b400                	fsd	fs0,40(s0)
     5ca:	0002                	c.slli64	zero
     5cc:	0100                	addi	s0,sp,128
     5ce:	6100                	flw	fs0,0(a0)
     5d0:	02dc                	addi	a5,sp,324
     5d2:	0000                	unimp
     5d4:	0388                	addi	a0,sp,448
     5d6:	0000                	unimp
     5d8:	0001                	nop
     5da:	cc61                	beqz	s0,6b2 <check_heap_beebs+0xe>
     5dc:	ec000003          	lb	zero,-320(zero) # fffffec0 <TOHOST_ADDR+0xffffe10c>
     5e0:	01000003          	lb	zero,16(zero) # 10 <_start+0x10>
     5e4:	6100                	flw	fs0,0(a0)
     5e6:	0418                	addi	a4,sp,512
     5e8:	0000                	unimp
     5ea:	053c                	addi	a5,sp,648
     5ec:	0000                	unimp
     5ee:	0001                	nop
     5f0:	4461                	li	s0,24
     5f2:	0005                	c.nop	1
     5f4:	5000                	lw	s0,32(s0)
     5f6:	0005                	c.nop	1
     5f8:	0100                	addi	s0,sp,128
     5fa:	6100                	flw	fs0,0(a0)
     5fc:	0588                	addi	a0,sp,704
     5fe:	0000                	unimp
     600:	05d4                	addi	a3,sp,708
     602:	0000                	unimp
     604:	0001                	nop
     606:	4461                	li	s0,24
     608:	0006                	c.slli	zero,0x1
     60a:	5800                	lw	s0,48(s0)
     60c:	0006                	c.slli	zero,0x1
     60e:	0100                	addi	s0,sp,128
     610:	6100                	flw	fs0,0(a0)
     612:	06c0                	addi	s0,sp,836
     614:	0000                	unimp
     616:	06e0                	addi	s0,sp,844
     618:	0000                	unimp
     61a:	0001                	nop
     61c:	7461                	lui	s0,0xffff8
     61e:	94000007          	0x94000007
     622:	01000007          	0x1000007
     626:	6100                	flw	fs0,0(a0)
     628:	07a4                	addi	s1,sp,968
     62a:	0000                	unimp
     62c:	07b4                	addi	a3,sp,968
     62e:	0000                	unimp
     630:	0001                	nop
     632:	0061                	c.nop	24
     634:	0000                	unimp
     636:	0000                	unimp
     638:	0000                	unimp
     63a:	5c00                	lw	s0,56(s0)
     63c:	0000                	unimp
     63e:	8400                	0x8400
     640:	0000                	unimp
     642:	0100                	addi	s0,sp,128
     644:	5c00                	lw	s0,56(s0)
     646:	009c                	addi	a5,sp,64
     648:	0000                	unimp
     64a:	00a4                	addi	s1,sp,72
     64c:	0000                	unimp
     64e:	0001                	nop
     650:	ac5c                	fsd	fa5,152(s0)
     652:	0000                	unimp
     654:	e400                	fsw	fs0,8(s0)
     656:	0000                	unimp
     658:	0100                	addi	s0,sp,128
     65a:	5c00                	lw	s0,56(s0)
     65c:	00f0                	addi	a2,sp,76
     65e:	0000                	unimp
     660:	00f8                	addi	a4,sp,76
     662:	0000                	unimp
     664:	0001                	nop
     666:	445c                	lw	a5,12(s0)
     668:	0001                	nop
     66a:	6800                	flw	fs0,16(s0)
     66c:	0001                	nop
     66e:	0100                	addi	s0,sp,128
     670:	5c00                	lw	s0,56(s0)
     672:	0178                	addi	a4,sp,140
     674:	0000                	unimp
     676:	017c                	addi	a5,sp,140
     678:	0000                	unimp
     67a:	0001                	nop
     67c:	845c                	0x845c
     67e:	0001                	nop
     680:	ac00                	fsd	fs0,24(s0)
     682:	0001                	nop
     684:	0100                	addi	s0,sp,128
     686:	5c00                	lw	s0,56(s0)
     688:	01b4                	addi	a3,sp,200
     68a:	0000                	unimp
     68c:	021c                	addi	a5,sp,256
     68e:	0000                	unimp
     690:	0001                	nop
     692:	285c                	fld	fa5,144(s0)
     694:	0002                	c.slli64	zero
     696:	8c00                	0x8c00
     698:	0002                	c.slli64	zero
     69a:	0100                	addi	s0,sp,128
     69c:	5c00                	lw	s0,56(s0)
     69e:	02dc                	addi	a5,sp,324
     6a0:	0000                	unimp
     6a2:	02e4                	addi	s1,sp,332
     6a4:	0000                	unimp
     6a6:	0001                	nop
     6a8:	fc5c                	fsw	fa5,60(s0)
     6aa:	0002                	c.slli64	zero
     6ac:	0800                	addi	s0,sp,16
     6ae:	01000003          	lb	zero,16(zero) # 10 <_start+0x10>
     6b2:	5c00                	lw	s0,56(s0)
     6b4:	032c                	addi	a1,sp,392
     6b6:	0000                	unimp
     6b8:	0348                	addi	a0,sp,388
     6ba:	0000                	unimp
     6bc:	0001                	nop
     6be:	605c                	flw	fa5,4(s0)
     6c0:	8c000003          	lb	zero,-1856(zero) # fffff8c0 <TOHOST_ADDR+0xffffdb0c>
     6c4:	01000003          	lb	zero,16(zero) # 10 <_start+0x10>
     6c8:	5c00                	lw	s0,56(s0)
     6ca:	0398                	addi	a4,sp,448
     6cc:	0000                	unimp
     6ce:	03a0                	addi	s0,sp,456
     6d0:	0000                	unimp
     6d2:	0001                	nop
     6d4:	cc5c                	sw	a5,28(s0)
     6d6:	08000003          	lb	zero,128(zero) # 80 <_start+0x80>
     6da:	0004                	0x4
     6dc:	0100                	addi	s0,sp,128
     6de:	5c00                	lw	s0,56(s0)
     6e0:	0418                	addi	a4,sp,512
     6e2:	0000                	unimp
     6e4:	041c                	addi	a5,sp,512
     6e6:	0000                	unimp
     6e8:	0001                	nop
     6ea:	245c                	fld	fa5,136(s0)
     6ec:	0004                	0x4
     6ee:	4c00                	lw	s0,24(s0)
     6f0:	0004                	0x4
     6f2:	0100                	addi	s0,sp,128
     6f4:	5c00                	lw	s0,56(s0)
     6f6:	0458                	addi	a4,sp,516
     6f8:	0000                	unimp
     6fa:	04c4                	addi	s1,sp,580
     6fc:	0000                	unimp
     6fe:	0001                	nop
     700:	d45c                	sw	a5,44(s0)
     702:	0004                	0x4
     704:	3c00                	fld	fs0,56(s0)
     706:	0005                	c.nop	1
     708:	0100                	addi	s0,sp,128
     70a:	5c00                	lw	s0,56(s0)
     70c:	0544                	addi	s1,sp,644
     70e:	0000                	unimp
     710:	056c                	addi	a1,sp,652
     712:	0000                	unimp
     714:	0001                	nop
     716:	745c                	flw	fa5,44(s0)
     718:	0005                	c.nop	1
     71a:	cc00                	sw	s0,24(s0)
     71c:	0005                	c.nop	1
     71e:	0100                	addi	s0,sp,128
     720:	5c00                	lw	s0,56(s0)
     722:	0644                	addi	s1,sp,772
     724:	0000                	unimp
     726:	0658                	addi	a4,sp,772
     728:	0000                	unimp
     72a:	0001                	nop
     72c:	c05c                	sw	a5,4(s0)
     72e:	0006                	c.slli	zero,0x1
     730:	e000                	fsw	fs0,0(s0)
     732:	0006                	c.slli	zero,0x1
     734:	0100                	addi	s0,sp,128
     736:	5c00                	lw	s0,56(s0)
     738:	0774                	addi	a3,sp,908
     73a:	0000                	unimp
     73c:	07b4                	addi	a3,sp,968
     73e:	0000                	unimp
     740:	0001                	nop
     742:	005c                	addi	a5,sp,4
     744:	0000                	unimp
     746:	0000                	unimp
     748:	0000                	unimp
     74a:	5c00                	lw	s0,56(s0)
     74c:	0000                	unimp
     74e:	fc00                	fsw	fs0,56(s0)
     750:	0000                	unimp
     752:	0100                	addi	s0,sp,128
     754:	5e00                	lw	s0,56(a2)
     756:	0144                	addi	s1,sp,132
     758:	0000                	unimp
     75a:	0170                	addi	a2,sp,140
     75c:	0000                	unimp
     75e:	0001                	nop
     760:	785e                	flw	fa6,244(sp)
     762:	0001                	nop
     764:	9c00                	0x9c00
     766:	0002                	c.slli64	zero
     768:	0100                	addi	s0,sp,128
     76a:	5e00                	lw	s0,56(a2)
     76c:	02dc                	addi	a5,sp,324
     76e:	0000                	unimp
     770:	030c                	addi	a1,sp,384
     772:	0000                	unimp
     774:	0001                	nop
     776:	2c5e                	fld	fs8,464(sp)
     778:	a4000003          	lb	zero,-1472(zero) # fffffa40 <TOHOST_ADDR+0xffffdc8c>
     77c:	01000003          	lb	zero,16(zero) # 10 <_start+0x10>
     780:	5e00                	lw	s0,56(a2)
     782:	03cc                	addi	a1,sp,452
     784:	0000                	unimp
     786:	0410                	addi	a2,sp,512
     788:	0000                	unimp
     78a:	0001                	nop
     78c:	185e                	slli	a6,a6,0x37
     78e:	0004                	0x4
     790:	d400                	sw	s0,40(s0)
     792:	0005                	c.nop	1
     794:	0100                	addi	s0,sp,128
     796:	5e00                	lw	s0,56(a2)
     798:	0644                	addi	s1,sp,772
     79a:	0000                	unimp
     79c:	0658                	addi	a4,sp,772
     79e:	0000                	unimp
     7a0:	0001                	nop
     7a2:	c05e                	sw	s7,0(sp)
     7a4:	0006                	c.slli	zero,0x1
     7a6:	e000                	fsw	fs0,0(s0)
     7a8:	0006                	c.slli	zero,0x1
     7aa:	0100                	addi	s0,sp,128
     7ac:	5e00                	lw	s0,56(a2)
     7ae:	0774                	addi	a3,sp,908
     7b0:	0000                	unimp
     7b2:	07b4                	addi	a3,sp,968
     7b4:	0000                	unimp
     7b6:	0001                	nop
     7b8:	005e                	c.slli	zero,0x17
     7ba:	0000                	unimp
     7bc:	0000                	unimp
     7be:	0000                	unimp
     7c0:	6800                	flw	fs0,16(s0)
     7c2:	0000                	unimp
     7c4:	a400                	fsd	fs0,8(s0)
     7c6:	0000                	unimp
     7c8:	0100                	addi	s0,sp,128
     7ca:	6200                	flw	fs0,0(a2)
     7cc:	00ac                	addi	a1,sp,72
     7ce:	0000                	unimp
     7d0:	02e8                	addi	a0,sp,332
     7d2:	0000                	unimp
     7d4:	0001                	nop
     7d6:	fc62                	fsw	fs8,56(sp)
     7d8:	0002                	c.slli64	zero
     7da:	2c00                	fld	fs0,24(s0)
     7dc:	01000003          	lb	zero,16(zero) # 10 <_start+0x10>
     7e0:	6200                	flw	fs0,0(a2)
     7e2:	0330                	addi	a2,sp,392
     7e4:	0000                	unimp
     7e6:	0424                	addi	s1,sp,520
     7e8:	0000                	unimp
     7ea:	0001                	nop
     7ec:	2c62                	fld	fs8,24(sp)
     7ee:	0004                	0x4
     7f0:	1400                	addi	s0,sp,544
     7f2:	0005                	c.nop	1
     7f4:	0100                	addi	s0,sp,128
     7f6:	5d00                	lw	s0,56(a0)
     7f8:	0558                	addi	a4,sp,644
     7fa:	0000                	unimp
     7fc:	0570                	addi	a2,sp,652
     7fe:	0000                	unimp
     800:	0001                	nop
     802:	7062                	flw	ft0,56(sp)
     804:	0005                	c.nop	1
     806:	7400                	flw	fs0,40(s0)
     808:	0005                	c.nop	1
     80a:	0100                	addi	s0,sp,128
     80c:	5d00                	lw	s0,56(a0)
     80e:	0574                	addi	a3,sp,652
     810:	0000                	unimp
     812:	0588                	addi	a0,sp,704
     814:	0000                	unimp
     816:	0001                	nop
     818:	b862                	fsd	fs8,48(sp)
     81a:	0005                	c.nop	1
     81c:	d000                	sw	s0,32(s0)
     81e:	0005                	c.nop	1
     820:	0100                	addi	s0,sp,128
     822:	6200                	flw	fs0,0(a2)
     824:	05d0                	addi	a2,sp,708
     826:	0000                	unimp
     828:	05d4                	addi	a3,sp,708
     82a:	0000                	unimp
     82c:	0001                	nop
     82e:	d45d                	beqz	s0,7dc <realloc_beebs+0x5c>
     830:	0005                	c.nop	1
     832:	e800                	fsw	fs0,16(s0)
     834:	0006                	c.slli	zero,0x1
     836:	0100                	addi	s0,sp,128
     838:	6200                	flw	fs0,0(a2)
     83a:	0738                	addi	a4,sp,904
     83c:	0000                	unimp
     83e:	0764                	addi	s1,sp,908
     840:	0000                	unimp
     842:	0001                	nop
     844:	7462                	flw	fs0,56(sp)
     846:	7c000007          	0x7c000007
     84a:	01000007          	0x1000007
     84e:	6200                	flw	fs0,0(a2)
     850:	077c                	addi	a5,sp,908
     852:	0000                	unimp
     854:	078c                	addi	a1,sp,960
     856:	0000                	unimp
     858:	0001                	nop
     85a:	9c5d                	0x9c5d
     85c:	a4000007          	0xa4000007
     860:	01000007          	0x1000007
     864:	6200                	flw	fs0,0(a2)
	...
     86e:	006c                	addi	a1,sp,12
     870:	0000                	unimp
     872:	0094                	addi	a3,sp,64
     874:	0000                	unimp
     876:	0001                	nop
     878:	9c59                	0x9c59
     87a:	0000                	unimp
     87c:	a400                	fsd	fs0,8(s0)
     87e:	0000                	unimp
     880:	0100                	addi	s0,sp,128
     882:	5900                	lw	s0,48(a0)
     884:	00ac                	addi	a1,sp,72
     886:	0000                	unimp
     888:	0184                	addi	s1,sp,192
     88a:	0000                	unimp
     88c:	0001                	nop
     88e:	8c59                	or	s0,s0,a4
     890:	0001                	nop
     892:	bc00                	fsd	fs0,56(s0)
     894:	0001                	nop
     896:	0100                	addi	s0,sp,128
     898:	6100                	flw	fs0,0(a0)
     89a:	01c8                	addi	a0,sp,196
     89c:	0000                	unimp
     89e:	0268                	addi	a0,sp,268
     8a0:	0000                	unimp
     8a2:	0001                	nop
     8a4:	7c61                	lui	s8,0xffff8
     8a6:	0002                	c.slli64	zero
     8a8:	b000                	fsd	fs0,32(s0)
     8aa:	0002                	c.slli64	zero
     8ac:	0200                	addi	s0,sp,256
     8ae:	3000                	fld	fs0,32(s0)
     8b0:	b09f 0002 b400      	0xb4000002b09f
     8b6:	0002                	c.slli64	zero
     8b8:	0200                	addi	s0,sp,256
     8ba:	3100                	fld	fs0,32(a0)
     8bc:	b49f 0002 dc00      	0xdc000002b49f
     8c2:	0002                	c.slli64	zero
     8c4:	0100                	addi	s0,sp,128
     8c6:	5900                	lw	s0,48(a0)
     8c8:	02dc                	addi	a5,sp,324
     8ca:	0000                	unimp
     8cc:	02fc                	addi	a5,sp,332
     8ce:	0000                	unimp
     8d0:	0004                	0x4
     8d2:	ff0a                	fsw	ft2,188(sp)
     8d4:	02fc9f07          	0x2fc9f07
     8d8:	0000                	unimp
     8da:	032c                	addi	a1,sp,392
     8dc:	0000                	unimp
     8de:	0001                	nop
     8e0:	305d                	jal	186 <ludcmp+0x7a>
     8e2:	58000003          	lb	zero,1408(zero) # 580 <benchmark_body+0xc4>
     8e6:	01000003          	lb	zero,16(zero) # 10 <_start+0x10>
     8ea:	5900                	lw	s0,48(a0)
     8ec:	0360                	addi	s0,sp,396
     8ee:	0000                	unimp
     8f0:	0424                	addi	s1,sp,520
     8f2:	0000                	unimp
     8f4:	0001                	nop
     8f6:	2c59                	jal	b8c <__adddf3+0x218>
     8f8:	0004                	0x4
     8fa:	1400                	addi	s0,sp,544
     8fc:	0005                	c.nop	1
     8fe:	0100                	addi	s0,sp,128
     900:	6100                	flw	fs0,0(a0)
     902:	052c                	addi	a1,sp,648
     904:	0000                	unimp
     906:	053c                	addi	a5,sp,648
     908:	0000                	unimp
     90a:	0002                	c.slli64	zero
     90c:	9f30                	0x9f30
     90e:	0544                	addi	s1,sp,644
     910:	0000                	unimp
     912:	0588                	addi	a0,sp,704
     914:	0000                	unimp
     916:	0002                	c.slli64	zero
     918:	9f30                	0x9f30
     91a:	0588                	addi	a0,sp,704
     91c:	0000                	unimp
     91e:	05a8                	addi	a0,sp,712
     920:	0000                	unimp
     922:	0004                	0x4
     924:	ff0a                	fsw	ft2,188(sp)
     926:	05a89f07          	0x5a89f07
     92a:	0000                	unimp
     92c:	0640                	addi	s0,sp,772
     92e:	0000                	unimp
     930:	0001                	nop
     932:	4459                	li	s0,22
     934:	0006                	c.slli	zero,0x1
     936:	5400                	lw	s0,40(s0)
     938:	0006                	c.slli	zero,0x1
     93a:	0100                	addi	s0,sp,128
     93c:	5900                	lw	s0,48(a0)
     93e:	0658                	addi	a4,sp,772
     940:	0000                	unimp
     942:	06c0                	addi	s0,sp,836
     944:	0000                	unimp
     946:	0001                	nop
     948:	c059                	beqz	s0,9ce <__adddf3+0x5a>
     94a:	0006                	c.slli	zero,0x1
     94c:	d000                	sw	s0,32(s0)
     94e:	0006                	c.slli	zero,0x1
     950:	0100                	addi	s0,sp,128
     952:	6100                	flw	fs0,0(a0)
     954:	06d0                	addi	a2,sp,836
     956:	0000                	unimp
     958:	06dc                	addi	a5,sp,836
     95a:	0000                	unimp
     95c:	0002                	c.slli64	zero
     95e:	9f30                	0x9f30
     960:	06dc                	addi	a5,sp,836
     962:	0000                	unimp
     964:	06e0                	addi	s0,sp,844
     966:	0000                	unimp
     968:	0001                	nop
     96a:	f45d                	bnez	s0,918 <simrv_puth+0x28>
     96c:	0006                	c.slli	zero,0x1
     96e:	2000                	fld	fs0,0(s0)
     970:	01000007          	0x1000007
     974:	5900                	lw	s0,48(a0)
     976:	0720                	addi	s0,sp,904
     978:	0000                	unimp
     97a:	0738                	addi	a4,sp,904
     97c:	0000                	unimp
     97e:	0004                	0x4
     980:	ff0a                	fsw	ft2,188(sp)
     982:	07749f07          	0x7749f07
     986:	0000                	unimp
     988:	0778                	addi	a4,sp,908
     98a:	0000                	unimp
     98c:	0001                	nop
     98e:	7859                	lui	a6,0xffff6
     990:	7c000007          	0x7c000007
     994:	09000007          	0x9000007
     998:	7b00                	flw	fs0,48(a4)
     99a:	4400                	lw	s0,8(s0)
     99c:	0a25                	addi	s4,s4,9
     99e:	07ff                	0x7ff
     9a0:	9f1a                	add	t5,t5,t1
     9a2:	077c                	addi	a5,sp,908
     9a4:	0000                	unimp
     9a6:	078c                	addi	a1,sp,960
     9a8:	0000                	unimp
     9aa:	0001                	nop
     9ac:	8c61                	and	s0,s0,s0
     9ae:	94000007          	0x94000007
     9b2:	02000007          	0x2000007
     9b6:	3000                	fld	fs0,32(s0)
     9b8:	9c9f 0007 a400      	0xa40000079c9f
     9be:	02000007          	0x2000007
     9c2:	3000                	fld	fs0,32(s0)
     9c4:	a49f 0007 b400      	0xb4000007a49f
     9ca:	04000007          	0x4000007
     9ce:	0a00                	addi	s0,sp,272
     9d0:	07ff                	0x7ff
     9d2:	b49f 0007 c000      	0xc0000007b49f
     9d8:	01000007          	0x1000007
     9dc:	5900                	lw	s0,48(a0)
	...
     9e6:	0090                	addi	a2,sp,64
     9e8:	0000                	unimp
     9ea:	0094                	addi	a3,sp,64
     9ec:	0000                	unimp
     9ee:	0001                	nop
     9f0:	945c                	0x945c
     9f2:	0000                	unimp
     9f4:	9c00                	0x9c00
     9f6:	0000                	unimp
     9f8:	0100                	addi	s0,sp,128
     9fa:	5a00                	lw	s0,48(a2)
     9fc:	0104                	addi	s1,sp,128
     9fe:	0000                	unimp
     a00:	0108                	addi	a0,sp,128
     a02:	0000                	unimp
     a04:	0001                	nop
     a06:	085c                	addi	a5,sp,20
     a08:	0001                	nop
     a0a:	1400                	addi	s0,sp,544
     a0c:	0001                	nop
     a0e:	0100                	addi	s0,sp,128
     a10:	5a00                	lw	s0,48(a2)
     a12:	0114                	addi	a3,sp,128
     a14:	0000                	unimp
     a16:	012c                	addi	a1,sp,136
     a18:	0000                	unimp
     a1a:	0015                	c.nop	5
     a1c:	007a                	c.slli	zero,0x1e
     a1e:	1a31                	addi	s4,s4,-20
     a20:	007a                	c.slli	zero,0x1e
     a22:	2531                	jal	102e <__adddf3+0x6ba>
     a24:	7f21                	lui	t5,0xfffe8
     a26:	1100                	addi	s0,sp,160
     a28:	ffff                	0xffff
     a2a:	7bff                	0x7bff
     a2c:	4f1a                	lw	t5,132(sp)
     a2e:	2124                	fld	fs1,64(a0)
     a30:	2c9f 0001 3000      	0x300000012c9f
     a36:	0001                	nop
     a38:	1300                	addi	s0,sp,416
     a3a:	7a00                	flw	fs0,48(a2)
     a3c:	3100                	fld	fs0,32(a0)
     a3e:	7f1a                	flw	ft10,164(sp)
     a40:	1100                	addi	s0,sp,160
     a42:	ffff                	0xffff
     a44:	7bff                	0x7bff
     a46:	4f1a                	lw	t5,132(sp)
     a48:	2124                	fld	fs1,64(a0)
     a4a:	9f21007b          	0x9f21007b
     a4e:	0130                	addi	a2,sp,136
     a50:	0000                	unimp
     a52:	0134                	addi	a3,sp,136
     a54:	0000                	unimp
     a56:	0011                	c.nop	4
     a58:	007f                	0x7f
     a5a:	ff11                	bnez	a4,976 <__adddf3+0x2>
     a5c:	ffff                	0xffff
     a5e:	244f1a7b          	0x244f1a7b
     a62:	7a21007b          	0x7a21007b
     a66:	2100                	fld	fs0,0(a0)
     a68:	209f 0002 2800      	0x28000002209f
     a6e:	0002                	c.slli64	zero
     a70:	0100                	addi	s0,sp,128
     a72:	5a00                	lw	s0,48(a2)
     a74:	0298                	addi	a4,sp,320
     a76:	0000                	unimp
     a78:	02b4                	addi	a3,sp,328
     a7a:	0000                	unimp
     a7c:	0001                	nop
     a7e:	b45c                	fsd	fa5,168(s0)
     a80:	0002                	c.slli64	zero
     a82:	d000                	sw	s0,32(s0)
     a84:	0002                	c.slli64	zero
     a86:	0100                	addi	s0,sp,128
     a88:	5a00                	lw	s0,48(a2)
     a8a:	02d0                	addi	a2,sp,324
     a8c:	0000                	unimp
     a8e:	02d4                	addi	a3,sp,324
     a90:	0000                	unimp
     a92:	7c7d0003          	lb	zero,1991(s10) # 9e81f <TOHOST_ADDR+0x9ca6b>
     a96:	d49f 0002 dc00      	0xdc000002d49f
     a9c:	0002                	c.slli64	zero
     a9e:	0100                	addi	s0,sp,128
     aa0:	5d00                	lw	s0,56(a0)
     aa2:	02fc                	addi	a5,sp,332
     aa4:	0000                	unimp
     aa6:	0308                	addi	a0,sp,384
     aa8:	0000                	unimp
     aaa:	0024                	addi	s1,sp,8
     aac:	007a                	c.slli	zero,0x1e
     aae:	4b40                	lw	s0,20(a4)
     ab0:	2224                	fld	fs1,64(a2)
     ab2:	007a                	c.slli	zero,0x1e
     ab4:	007c                	addi	a5,sp,12
     ab6:	4022                	0x4022
     ab8:	2b22244b          	fnmsub.d	fs0,ft4,fs2,ft5,rdn
     abc:	ff08                	fsw	fa0,56(a4)
     abe:	7e1a                	flw	ft8,164(sp)
     ac0:	2200                	fld	fs0,0(a2)
     ac2:	007f                	0x7f
     ac4:	4f22                	lw	t5,8(sp)
     ac6:	7a24                	flw	fs1,112(a2)
     ac8:	7c00                	flw	fs0,56(s0)
     aca:	2200                	fld	fs0,0(a2)
     acc:	2531                	jal	10d8 <__adddf3+0x764>
     ace:	9f21                	0x9f21
     ad0:	0308                	addi	a0,sp,384
     ad2:	0000                	unimp
     ad4:	030c                	addi	a1,sp,384
     ad6:	0000                	unimp
     ad8:	001e                	c.slli	zero,0x7
     ada:	007a                	c.slli	zero,0x1e
     adc:	4b40                	lw	s0,20(a4)
     ade:	2224                	fld	fs1,64(a2)
     ae0:	007c                	addi	a5,sp,12
     ae2:	4b40                	lw	s0,20(a4)
     ae4:	2224                	fld	fs1,64(a2)
     ae6:	1aff082b          	0x1aff082b
     aea:	007e                	c.slli	zero,0x1f
     aec:	7f22                	flw	ft10,40(sp)
     aee:	2200                	fld	fs0,0(a2)
     af0:	007c244f          	fnmadd.s	fs0,fs8,ft7,ft0,rdn
     af4:	2531                	jal	1100 <__adddf3+0x78c>
     af6:	9f21                	0x9f21
     af8:	030c                	addi	a1,sp,384
     afa:	0000                	unimp
     afc:	0314                	addi	a3,sp,384
     afe:	0000                	unimp
     b00:	007a001b          	0x7a001b
     b04:	4b40                	lw	s0,20(a4)
     b06:	2224                	fld	fs1,64(a2)
     b08:	007c                	addi	a5,sp,12
     b0a:	4b40                	lw	s0,20(a4)
     b0c:	2224                	fld	fs1,64(a2)
     b0e:	1aff082b          	0x1aff082b
     b12:	007e                	c.slli	zero,0x1f
     b14:	4f22                	lw	t5,8(sp)
     b16:	7c24                	flw	fs1,120(s0)
     b18:	3100                	fld	fs0,32(a0)
     b1a:	2125                	jal	f42 <__adddf3+0x5ce>
     b1c:	549f 0003 5800      	0x58000003549f
     b22:	01000003          	lb	zero,16(zero) # 10 <_start+0x10>
     b26:	5c00                	lw	s0,56(s0)
     b28:	0358                	addi	a4,sp,388
     b2a:	0000                	unimp
     b2c:	0360                	addi	s0,sp,396
     b2e:	0000                	unimp
     b30:	0001                	nop
     b32:	ac5a                	fsd	fs6,24(sp)
     b34:	b0000003          	lb	zero,-1280(zero) # fffffb00 <TOHOST_ADDR+0xffffdd4c>
     b38:	01000003          	lb	zero,16(zero) # 10 <_start+0x10>
     b3c:	5c00                	lw	s0,56(s0)
     b3e:	03b0                	addi	a2,sp,456
     b40:	0000                	unimp
     b42:	03cc                	addi	a1,sp,452
     b44:	0000                	unimp
     b46:	0001                	nop
     b48:	505a                	0x505a
     b4a:	0004                	0x4
     b4c:	5800                	lw	s0,48(s0)
     b4e:	0004                	0x4
     b50:	0100                	addi	s0,sp,128
     b52:	5a00                	lw	s0,48(a2)
     b54:	04c8                	addi	a0,sp,580
     b56:	0000                	unimp
     b58:	04d4                	addi	a3,sp,580
     b5a:	0000                	unimp
     b5c:	0001                	nop
     b5e:	305a                	fld	ft0,432(sp)
     b60:	0005                	c.nop	1
     b62:	3c00                	fld	fs0,56(s0)
     b64:	0005                	c.nop	1
     b66:	0100                	addi	s0,sp,128
     b68:	5c00                	lw	s0,56(s0)
     b6a:	0558                	addi	a4,sp,644
     b6c:	0000                	unimp
     b6e:	0570                	addi	a2,sp,652
     b70:	0000                	unimp
     b72:	0001                	nop
     b74:	7060                	flw	fs0,100(s0)
     b76:	0005                	c.nop	1
     b78:	7400                	flw	fs0,40(s0)
     b7a:	0005                	c.nop	1
     b7c:	0100                	addi	s0,sp,128
     b7e:	5a00                	lw	s0,48(a2)
     b80:	0574                	addi	a3,sp,652
     b82:	0000                	unimp
     b84:	0588                	addi	a0,sp,704
     b86:	0000                	unimp
     b88:	0001                	nop
     b8a:	b860                	fsd	fs0,240(s0)
     b8c:	0005                	c.nop	1
     b8e:	c400                	sw	s0,8(s0)
     b90:	0005                	c.nop	1
     b92:	0100                	addi	s0,sp,128
     b94:	6300                	flw	fs0,0(a4)
     b96:	05c4                	addi	s1,sp,708
     b98:	0000                	unimp
     b9a:	05cc                	addi	a1,sp,708
     b9c:	0000                	unimp
     b9e:	0006                	c.slli	zero,0x1
     ba0:	007a                	c.slli	zero,0x1e
     ba2:	007c                	addi	a5,sp,12
     ba4:	9f1c                	0x9f1c
     ba6:	05d0                	addi	a2,sp,708
     ba8:	0000                	unimp
     baa:	0604                	addi	s1,sp,768
     bac:	0000                	unimp
     bae:	0001                	nop
     bb0:	00060463          	beqz	a2,bb8 <__adddf3+0x244>
     bb4:	2c00                	fld	fs0,24(s0)
     bb6:	0006                	c.slli	zero,0x1
     bb8:	0100                	addi	s0,sp,128
     bba:	5a00                	lw	s0,48(a2)
     bbc:	0638                	addi	a4,sp,776
     bbe:	0000                	unimp
     bc0:	0644                	addi	s1,sp,772
     bc2:	0000                	unimp
     bc4:	0001                	nop
     bc6:	445a                	lw	s0,148(sp)
     bc8:	0006                	c.slli	zero,0x1
     bca:	7000                	flw	fs0,32(s0)
     bcc:	0006                	c.slli	zero,0x1
     bce:	0100                	addi	s0,sp,128
     bd0:	6300                	flw	fs0,0(a4)
     bd2:	0670                	addi	a2,sp,780
     bd4:	0000                	unimp
     bd6:	0678                	addi	a4,sp,780
     bd8:	0000                	unimp
     bda:	0002                	c.slli64	zero
     bdc:	9f30                	0x9f30
     bde:	0678                	addi	a4,sp,780
     be0:	0000                	unimp
     be2:	069c                	addi	a5,sp,832
     be4:	0000                	unimp
     be6:	0001                	nop
     be8:	a45a                	fsd	fs6,8(sp)
     bea:	0006                	c.slli	zero,0x1
     bec:	c000                	sw	s0,0(s0)
     bee:	0006                	c.slli	zero,0x1
     bf0:	0100                	addi	s0,sp,128
     bf2:	5a00                	lw	s0,48(a2)
     bf4:	06dc                	addi	a5,sp,836
     bf6:	0000                	unimp
     bf8:	06e0                	addi	s0,sp,844
     bfa:	0000                	unimp
     bfc:	0024                	addi	s1,sp,8
     bfe:	007a                	c.slli	zero,0x1e
     c00:	4b40                	lw	s0,20(a4)
     c02:	2224                	fld	fs1,64(a2)
     c04:	007a                	c.slli	zero,0x1e
     c06:	007c                	addi	a5,sp,12
     c08:	4022                	0x4022
     c0a:	2b22244b          	fnmsub.d	fs0,ft4,fs2,ft5,rdn
     c0e:	ff08                	fsw	fa0,56(a4)
     c10:	7e1a                	flw	ft8,164(sp)
     c12:	2200                	fld	fs0,0(a2)
     c14:	007f                	0x7f
     c16:	4f22                	lw	t5,8(sp)
     c18:	7a24                	flw	fs1,112(a2)
     c1a:	7c00                	flw	fs0,56(s0)
     c1c:	2200                	fld	fs0,0(a2)
     c1e:	2531                	jal	122a <__floatsidf+0x76>
     c20:	9f21                	0x9f21
     c22:	06e8                	addi	a0,sp,844
     c24:	0000                	unimp
     c26:	0710                	addi	a2,sp,896
     c28:	0000                	unimp
     c2a:	0001                	nop
     c2c:	145a                	slli	s0,s0,0x36
     c2e:	24000007          	0x24000007
     c32:	01000007          	0x1000007
     c36:	5a00                	lw	s0,48(a2)
     c38:	0738                	addi	a4,sp,904
     c3a:	0000                	unimp
     c3c:	0774                	addi	a3,sp,908
     c3e:	0000                	unimp
     c40:	0001                	nop
     c42:	8c5a                	mv	s8,s6
     c44:	94000007          	0x94000007
     c48:	01000007          	0x1000007
     c4c:	5c00                	lw	s0,56(s0)
     c4e:	079c                	addi	a5,sp,960
     c50:	0000                	unimp
     c52:	07a4                	addi	s1,sp,968
     c54:	0000                	unimp
     c56:	0001                	nop
     c58:	b460                	fsd	fs0,232(s0)
     c5a:	bc000007          	0xbc000007
     c5e:	01000007          	0x1000007
     c62:	5a00                	lw	s0,48(a2)
	...
     c6c:	0090                	addi	a2,sp,64
     c6e:	0000                	unimp
     c70:	009c                	addi	a5,sp,64
     c72:	0000                	unimp
     c74:	0001                	nop
     c76:	045f 0001 1000      	0x10000001045f
     c7c:	0001                	nop
     c7e:	0100                	addi	s0,sp,128
     c80:	5f00                	lw	s0,56(a4)
     c82:	0110                	addi	a2,sp,128
     c84:	0000                	unimp
     c86:	0114                	addi	a3,sp,128
     c88:	0000                	unimp
     c8a:	0009                	c.nop	2
     c8c:	007f                	0x7f
     c8e:	ff11                	bnez	a4,baa <__adddf3+0x236>
     c90:	ffff                	0xffff
     c92:	149f1a7b          	0x149f1a7b
     c96:	0001                	nop
     c98:	3400                	fld	fs0,40(s0)
     c9a:	0001                	nop
     c9c:	0b00                	addi	s0,sp,400
     c9e:	7f00                	flw	fs0,56(a4)
     ca0:	1100                	addi	s0,sp,160
     ca2:	ffff                	0xffff
     ca4:	7bff                	0x7bff
     ca6:	311a                	fld	ft2,416(sp)
     ca8:	9f25                	0x9f25
     caa:	0220                	addi	s0,sp,264
     cac:	0000                	unimp
     cae:	0228                	addi	a0,sp,264
     cb0:	0000                	unimp
     cb2:	0001                	nop
     cb4:	985f 0002 dc00      	0xdc000002985f
     cba:	0002                	c.slli64	zero
     cbc:	0100                	addi	s0,sp,128
     cbe:	5f00                	lw	s0,56(a4)
     cc0:	02fc                	addi	a5,sp,332
     cc2:	0000                	unimp
     cc4:	0308                	addi	a0,sp,384
     cc6:	0000                	unimp
     cc8:	001c                	0x1c
     cca:	007a                	c.slli	zero,0x1e
     ccc:	4b40                	lw	s0,20(a4)
     cce:	2224                	fld	fs1,64(a2)
     cd0:	007a                	c.slli	zero,0x1e
     cd2:	007c                	addi	a5,sp,12
     cd4:	4022                	0x4022
     cd6:	2b22244b          	fnmsub.d	fs0,ft4,fs2,ft5,rdn
     cda:	ff08                	fsw	fa0,56(a4)
     cdc:	7e1a                	flw	ft8,164(sp)
     cde:	2200                	fld	fs0,0(a2)
     ce0:	007f                	0x7f
     ce2:	3122                	fld	ft2,40(sp)
     ce4:	9f25                	0x9f25
     ce6:	0308                	addi	a0,sp,384
     ce8:	0000                	unimp
     cea:	030c                	addi	a1,sp,384
     cec:	0000                	unimp
     cee:	0019                	c.nop	6
     cf0:	007a                	c.slli	zero,0x1e
     cf2:	4b40                	lw	s0,20(a4)
     cf4:	2224                	fld	fs1,64(a2)
     cf6:	007c                	addi	a5,sp,12
     cf8:	4b40                	lw	s0,20(a4)
     cfa:	2224                	fld	fs1,64(a2)
     cfc:	1aff082b          	0x1aff082b
     d00:	007e                	c.slli	zero,0x1f
     d02:	7f22                	flw	ft10,40(sp)
     d04:	2200                	fld	fs0,0(a2)
     d06:	2531                	jal	1312 <__modsi3+0xa>
     d08:	0c9f 0003 1400      	0x140000030c9f
     d0e:	16000003          	lb	zero,352(zero) # 160 <ludcmp+0x54>
     d12:	7a00                	flw	fs0,48(a2)
     d14:	4000                	lw	s0,0(s0)
     d16:	7c22244b          	0x7c22244b
     d1a:	4000                	lw	s0,0(s0)
     d1c:	2b22244b          	fnmsub.d	fs0,ft4,fs2,ft5,rdn
     d20:	ff08                	fsw	fa0,56(a4)
     d22:	7e1a                	flw	ft8,164(sp)
     d24:	2200                	fld	fs0,0(a2)
     d26:	2531                	jal	1332 <__modsi3+0x2a>
     d28:	549f 0003 6000      	0x60000003549f
     d2e:	01000003          	lb	zero,16(zero) # 10 <_start+0x10>
     d32:	5f00                	lw	s0,56(a4)
     d34:	03ac                	addi	a1,sp,456
     d36:	0000                	unimp
     d38:	03c4                	addi	s1,sp,452
     d3a:	0000                	unimp
     d3c:	0001                	nop
     d3e:	c45f 0003 cc00      	0xcc000003c45f
     d44:	01000003          	lb	zero,16(zero) # 10 <_start+0x10>
     d48:	5800                	lw	s0,48(s0)
     d4a:	0450                	addi	a2,sp,516
     d4c:	0000                	unimp
     d4e:	0458                	addi	a4,sp,516
     d50:	0000                	unimp
     d52:	0001                	nop
     d54:	c85f 0004 d400      	0xd4000004c85f
     d5a:	0004                	0x4
     d5c:	0100                	addi	s0,sp,128
     d5e:	5f00                	lw	s0,56(a4)
     d60:	0530                	addi	a2,sp,648
     d62:	0000                	unimp
     d64:	053c                	addi	a5,sp,648
     d66:	0000                	unimp
     d68:	0001                	nop
     d6a:	585e                	lw	a6,244(sp)
     d6c:	0005                	c.nop	1
     d6e:	7000                	flw	fs0,32(s0)
     d70:	0005                	c.nop	1
     d72:	0100                	addi	s0,sp,128
     d74:	5b00                	lw	s0,48(a4)
     d76:	0570                	addi	a2,sp,652
     d78:	0000                	unimp
     d7a:	0574                	addi	a3,sp,652
     d7c:	0000                	unimp
     d7e:	0001                	nop
     d80:	745f 0005 8800      	0x88000005745f
     d86:	0005                	c.nop	1
     d88:	0100                	addi	s0,sp,128
     d8a:	5b00                	lw	s0,48(a4)
     d8c:	05b8                	addi	a4,sp,712
     d8e:	0000                	unimp
     d90:	05f8                	addi	a4,sp,716
     d92:	0000                	unimp
     d94:	0001                	nop
     d96:	0058                	addi	a4,sp,4
     d98:	0006                	c.slli	zero,0x1
     d9a:	3c00                	fld	fs0,56(s0)
     d9c:	0006                	c.slli	zero,0x1
     d9e:	0100                	addi	s0,sp,128
     da0:	5800                	lw	s0,48(s0)
     da2:	0644                	addi	s1,sp,772
     da4:	0000                	unimp
     da6:	066c                	addi	a1,sp,780
     da8:	0000                	unimp
     daa:	0001                	nop
     dac:	7058                	flw	fa4,36(s0)
     dae:	0006                	c.slli	zero,0x1
     db0:	a400                	fsd	fs0,8(s0)
     db2:	0006                	c.slli	zero,0x1
     db4:	0100                	addi	s0,sp,128
     db6:	5800                	lw	s0,48(s0)
     db8:	06a4                	addi	s1,sp,840
     dba:	0000                	unimp
     dbc:	06ac                	addi	a1,sp,840
     dbe:	0000                	unimp
     dc0:	0002                	c.slli64	zero
     dc2:	9f30                	0x9f30
     dc4:	06ac                	addi	a1,sp,840
     dc6:	0000                	unimp
     dc8:	06bc                	addi	a5,sp,840
     dca:	0000                	unimp
     dcc:	0001                	nop
     dce:	bc58                	fsd	fa4,184(s0)
     dd0:	0006                	c.slli	zero,0x1
     dd2:	c000                	sw	s0,0(s0)
     dd4:	0006                	c.slli	zero,0x1
     dd6:	0100                	addi	s0,sp,128
     dd8:	5f00                	lw	s0,56(a4)
     dda:	06dc                	addi	a5,sp,836
     ddc:	0000                	unimp
     dde:	06e0                	addi	s0,sp,844
     de0:	0000                	unimp
     de2:	001c                	0x1c
     de4:	007a                	c.slli	zero,0x1e
     de6:	4b40                	lw	s0,20(a4)
     de8:	2224                	fld	fs1,64(a2)
     dea:	007a                	c.slli	zero,0x1e
     dec:	007c                	addi	a5,sp,12
     dee:	4022                	0x4022
     df0:	2b22244b          	fnmsub.d	fs0,ft4,fs2,ft5,rdn
     df4:	ff08                	fsw	fa0,56(a4)
     df6:	7e1a                	flw	ft8,164(sp)
     df8:	2200                	fld	fs0,0(a2)
     dfa:	007f                	0x7f
     dfc:	3122                	fld	ft2,40(sp)
     dfe:	9f25                	0x9f25
     e00:	06e8                	addi	a0,sp,844
     e02:	0000                	unimp
     e04:	06f0                	addi	a2,sp,844
     e06:	0000                	unimp
     e08:	0001                	nop
     e0a:	f05f 0006 0800      	0x8000006f05f
     e10:	09000007          	0x9000007
     e14:	7f00                	flw	fs0,56(a4)
     e16:	1100                	addi	s0,sp,160
     e18:	ffff                	0xffff
     e1a:	7bff                	0x7bff
     e1c:	9f1a                	add	t5,t5,t1
     e1e:	0708                	addi	a0,sp,896
     e20:	0000                	unimp
     e22:	0728                	addi	a0,sp,904
     e24:	0000                	unimp
     e26:	0001                	nop
     e28:	385f 0007 4000      	0x40000007385f
     e2e:	01000007          	0x1000007
     e32:	5f00                	lw	s0,56(a4)
     e34:	078c                	addi	a1,sp,960
     e36:	0000                	unimp
     e38:	0794                	addi	a3,sp,960
     e3a:	0000                	unimp
     e3c:	0001                	nop
     e3e:	9c5e                	add	s8,s8,s7
     e40:	a4000007          	0xa4000007
     e44:	01000007          	0x1000007
     e48:	5b00                	lw	s0,48(a4)
     e4a:	07b4                	addi	a3,sp,968
     e4c:	0000                	unimp
     e4e:	07b8                	addi	a4,sp,968
     e50:	0000                	unimp
     e52:	0009                	c.nop	2
     e54:	007f                	0x7f
     e56:	ff11                	bnez	a4,d72 <__adddf3+0x3fe>
     e58:	ffff                	0xffff
     e5a:	009f1a7b          	0x9f1a7b
     e5e:	0000                	unimp
     e60:	0000                	unimp
     e62:	0000                	unimp
     e64:	6800                	flw	fs0,16(s0)
     e66:	0000                	unimp
     e68:	7c00                	flw	fs0,56(s0)
     e6a:	0000                	unimp
     e6c:	0100                	addi	s0,sp,128
     e6e:	6000                	flw	fs0,0(s0)
     e70:	007c                	addi	a5,sp,12
     e72:	0000                	unimp
     e74:	0094                	addi	a3,sp,64
     e76:	0000                	unimp
     e78:	0001                	nop
     e7a:	00009c5b          	0x9c5b
     e7e:	a400                	fsd	fs0,8(s0)
     e80:	0000                	unimp
     e82:	0100                	addi	s0,sp,128
     e84:	5b00                	lw	s0,48(a4)
     e86:	00ac                	addi	a1,sp,72
     e88:	0000                	unimp
     e8a:	00c0                	addi	s0,sp,68
     e8c:	0000                	unimp
     e8e:	0001                	nop
     e90:	c060                	sw	s0,68(s0)
     e92:	0000                	unimp
     e94:	f400                	fsw	fs0,40(s0)
     e96:	0000                	unimp
     e98:	0100                	addi	s0,sp,128
     e9a:	5b00                	lw	s0,48(a4)
     e9c:	0144                	addi	s1,sp,132
     e9e:	0000                	unimp
     ea0:	0160                	addi	s0,sp,140
     ea2:	0000                	unimp
     ea4:	0001                	nop
     ea6:	0001785b          	0x1785b
     eaa:	8400                	0x8400
     eac:	0001                	nop
     eae:	0100                	addi	s0,sp,128
     eb0:	5b00                	lw	s0,48(a4)
     eb2:	0184                	addi	s1,sp,192
     eb4:	0000                	unimp
     eb6:	018c                	addi	a1,sp,192
     eb8:	0000                	unimp
     eba:	0001                	nop
     ebc:	8c60                	0x8c60
     ebe:	0001                	nop
     ec0:	9c00                	0x9c00
     ec2:	0001                	nop
     ec4:	0100                	addi	s0,sp,128
     ec6:	5b00                	lw	s0,48(a4)
     ec8:	019c                	addi	a5,sp,192
     eca:	0000                	unimp
     ecc:	01bc                	addi	a5,sp,200
     ece:	0000                	unimp
     ed0:	0001                	nop
     ed2:	c85d                	beqz	s0,f88 <__adddf3+0x614>
     ed4:	0001                	nop
     ed6:	dc00                	sw	s0,56(s0)
     ed8:	0001                	nop
     eda:	0100                	addi	s0,sp,128
     edc:	5b00                	lw	s0,48(a4)
     ede:	01dc                	addi	a5,sp,196
     ee0:	0000                	unimp
     ee2:	0210                	addi	a2,sp,256
     ee4:	0000                	unimp
     ee6:	0001                	nop
     ee8:	285d                	jal	f9e <__adddf3+0x62a>
     eea:	0002                	c.slli64	zero
     eec:	4400                	lw	s0,8(s0)
     eee:	0002                	c.slli64	zero
     ef0:	0100                	addi	s0,sp,128
     ef2:	5d00                	lw	s0,56(a0)
     ef4:	025c                	addi	a5,sp,260
     ef6:	0000                	unimp
     ef8:	0268                	addi	a0,sp,268
     efa:	0000                	unimp
     efc:	0001                	nop
     efe:	685d                	lui	a6,0x17
     f00:	0002                	c.slli64	zero
     f02:	b400                	fsd	fs0,40(s0)
     f04:	0002                	c.slli64	zero
     f06:	0100                	addi	s0,sp,128
     f08:	6000                	flw	fs0,0(s0)
     f0a:	02dc                	addi	a5,sp,324
     f0c:	0000                	unimp
     f0e:	02e8                	addi	a0,sp,332
     f10:	0000                	unimp
     f12:	0001                	nop
     f14:	fc60                	fsw	fs0,124(s0)
     f16:	0002                	c.slli64	zero
     f18:	2c00                	fld	fs0,24(s0)
     f1a:	01000003          	lb	zero,16(zero) # 10 <_start+0x10>
     f1e:	6000                	flw	fs0,0(s0)
     f20:	06c0                	addi	s0,sp,836
     f22:	0000                	unimp
     f24:	06d0                	addi	a2,sp,836
     f26:	0000                	unimp
     f28:	0001                	nop
     f2a:	0006d05b          	0x6d05b
     f2e:	e000                	fsw	fs0,0(s0)
     f30:	0006                	c.slli	zero,0x1
     f32:	0100                	addi	s0,sp,128
     f34:	6000                	flw	fs0,0(s0)
	...
     f3e:	0084                	addi	s1,sp,64
     f40:	0000                	unimp
     f42:	0094                	addi	a3,sp,64
     f44:	0000                	unimp
     f46:	0001                	nop
     f48:	005c                	addi	a5,sp,4
     f4a:	0000                	unimp
     f4c:	0000                	unimp
     f4e:	0000                	unimp
     f50:	f800                	fsw	fs0,48(s0)
     f52:	0000                	unimp
     f54:	0800                	addi	s0,sp,16
     f56:	0001                	nop
     f58:	0100                	addi	s0,sp,128
     f5a:	5c00                	lw	s0,56(s0)
	...
     f64:	01a4                	addi	s1,sp,200
     f66:	0000                	unimp
     f68:	01b4                	addi	a3,sp,200
     f6a:	0000                	unimp
     f6c:	0001                	nop
     f6e:	005a                	c.slli	zero,0x16
     f70:	0000                	unimp
     f72:	0000                	unimp
     f74:	0000                	unimp
     f76:	1400                	addi	s0,sp,544
     f78:	0002                	c.slli64	zero
     f7a:	2800                	fld	fs0,16(s0)
     f7c:	0002                	c.slli64	zero
     f7e:	0100                	addi	s0,sp,128
     f80:	5a00                	lw	s0,48(a2)
	...
     f8a:	028c                	addi	a1,sp,320
     f8c:	0000                	unimp
     f8e:	02b4                	addi	a3,sp,328
     f90:	0000                	unimp
     f92:	0001                	nop
     f94:	005c                	addi	a5,sp,4
     f96:	0000                	unimp
     f98:	0000                	unimp
     f9a:	0000                	unimp
     f9c:	fc00                	fsw	fs0,56(s0)
     f9e:	0002                	c.slli64	zero
     fa0:	0800                	addi	s0,sp,16
     fa2:	06000003          	lb	zero,96(zero) # 60 <_start+0x60>
     fa6:	7a00                	flw	fs0,48(a2)
     fa8:	7c00                	flw	fs0,56(s0)
     faa:	2200                	fld	fs0,0(a2)
     fac:	089f 0003 1c00      	0x1c000003089f
     fb2:	01000003          	lb	zero,16(zero) # 10 <_start+0x10>
     fb6:	5c00                	lw	s0,56(s0)
     fb8:	06dc                	addi	a5,sp,836
     fba:	0000                	unimp
     fbc:	06e0                	addi	s0,sp,844
     fbe:	0000                	unimp
     fc0:	0006                	c.slli	zero,0x1
     fc2:	007a                	c.slli	zero,0x1e
     fc4:	007c                	addi	a5,sp,12
     fc6:	9f22                	add	t5,t5,s0
	...
     fd0:	032c                	addi	a1,sp,392
     fd2:	0000                	unimp
     fd4:	0340                	addi	s0,sp,388
     fd6:	0000                	unimp
     fd8:	0001                	nop
     fda:	4060                	lw	s0,68(s0)
     fdc:	9c000003          	lb	zero,-1600(zero) # fffff9c0 <TOHOST_ADDR+0xffffdc0c>
     fe0:	01000003          	lb	zero,16(zero) # 10 <_start+0x10>
     fe4:	5b00                	lw	s0,48(a4)
     fe6:	03cc                	addi	a1,sp,452
     fe8:	0000                	unimp
     fea:	03e4                	addi	s1,sp,460
     fec:	0000                	unimp
     fee:	0001                	nop
     ff0:	e460                	fsw	fs0,76(s0)
     ff2:	00000003          	lb	zero,0(zero) # 0 <_start>
     ff6:	0004                	0x4
     ff8:	0100                	addi	s0,sp,128
     ffa:	5b00                	lw	s0,48(a4)
     ffc:	0418                	addi	a4,sp,512
     ffe:	0000                	unimp
    1000:	0424                	addi	s1,sp,520
    1002:	0000                	unimp
    1004:	0001                	nop
    1006:	0004245b          	0x4245b
    100a:	3c00                	fld	fs0,56(s0)
    100c:	0004                	0x4
    100e:	0100                	addi	s0,sp,128
    1010:	6000                	flw	fs0,0(s0)
    1012:	043c                	addi	a5,sp,520
    1014:	0000                	unimp
    1016:	0460                	addi	s0,sp,524
    1018:	0000                	unimp
    101a:	0001                	nop
    101c:	0004705b          	0x4705b
    1020:	8400                	0x8400
    1022:	0004                	0x4
    1024:	0100                	addi	s0,sp,128
    1026:	6000                	flw	fs0,0(s0)
    1028:	0484                	addi	s1,sp,576
    102a:	0000                	unimp
    102c:	04b8                	addi	a4,sp,584
    102e:	0000                	unimp
    1030:	0001                	nop
    1032:	0004d45b          	0x4d45b
    1036:	f000                	fsw	fs0,32(s0)
    1038:	0004                	0x4
    103a:	0100                	addi	s0,sp,128
    103c:	5b00                	lw	s0,48(a4)
    103e:	0508                	addi	a0,sp,640
    1040:	0000                	unimp
    1042:	0514                	addi	a3,sp,640
    1044:	0000                	unimp
    1046:	0001                	nop
    1048:	0005145b          	0x5145b
    104c:	2400                	fld	fs0,8(s0)
    104e:	0005                	c.nop	1
    1050:	0100                	addi	s0,sp,128
    1052:	6000                	flw	fs0,0(s0)
    1054:	0524                	addi	s1,sp,648
    1056:	0000                	unimp
    1058:	053c                	addi	a5,sp,648
    105a:	0000                	unimp
    105c:	0006                	c.slli	zero,0x1
    105e:	0079                	c.nop	30
    1060:	0081                	addi	ra,ra,0
    1062:	9f1c                	0x9f1c
    1064:	0544                	addi	s1,sp,644
    1066:	0000                	unimp
    1068:	0550                	addi	a2,sp,644
    106a:	0000                	unimp
    106c:	0006                	c.slli	zero,0x1
    106e:	0079                	c.nop	30
    1070:	0081                	addi	ra,ra,0
    1072:	9f1c                	0x9f1c
    1074:	0588                	addi	a0,sp,704
    1076:	0000                	unimp
    1078:	05a8                	addi	a0,sp,712
    107a:	0000                	unimp
    107c:	0006                	c.slli	zero,0x1
    107e:	0079                	c.nop	30
    1080:	0081                	addi	ra,ra,0
    1082:	9f1c                	0x9f1c
    1084:	05a8                	addi	a0,sp,712
    1086:	0000                	unimp
    1088:	05d4                	addi	a3,sp,708
    108a:	0000                	unimp
    108c:	0001                	nop
    108e:	4460                	lw	s0,76(s0)
    1090:	0006                	c.slli	zero,0x1
    1092:	5800                	lw	s0,48(s0)
    1094:	0006                	c.slli	zero,0x1
    1096:	0100                	addi	s0,sp,128
    1098:	6000                	flw	fs0,0(s0)
    109a:	077c                	addi	a5,sp,908
    109c:	0000                	unimp
    109e:	078c                	addi	a1,sp,960
    10a0:	0000                	unimp
    10a2:	0001                	nop
    10a4:	8c60                	0x8c60
    10a6:	94000007          	0x94000007
    10aa:	06000007          	0x6000007
    10ae:	7900                	flw	fs0,48(a0)
    10b0:	8100                	0x8100
    10b2:	1c00                	addi	s0,sp,560
    10b4:	a49f 0007 b400      	0xb4000007a49f
    10ba:	06000007          	0x6000007
    10be:	7900                	flw	fs0,48(a0)
    10c0:	8100                	0x8100
    10c2:	1c00                	addi	s0,sp,560
    10c4:	009f 0000 0000      	0x9f
    10ca:	0000                	unimp
    10cc:	4800                	lw	s0,16(s0)
    10ce:	58000003          	lb	zero,1408(zero) # 580 <benchmark_body+0xc4>
    10d2:	01000003          	lb	zero,16(zero) # 10 <_start+0x10>
    10d6:	5c00                	lw	s0,56(s0)
	...
    10e0:	03a0                	addi	s0,sp,456
    10e2:	0000                	unimp
    10e4:	03b0                	addi	a2,sp,456
    10e6:	0000                	unimp
    10e8:	0001                	nop
    10ea:	005c                	addi	a5,sp,4
    10ec:	0000                	unimp
    10ee:	0000                	unimp
    10f0:	0000                	unimp
    10f2:	4400                	lw	s0,8(s0)
    10f4:	0004                	0x4
    10f6:	5800                	lw	s0,48(s0)
    10f8:	0004                	0x4
    10fa:	0100                	addi	s0,sp,128
    10fc:	5a00                	lw	s0,48(a2)
	...
    1106:	04bc                	addi	a5,sp,584
    1108:	0000                	unimp
    110a:	04d4                	addi	a3,sp,580
    110c:	0000                	unimp
    110e:	0001                	nop
    1110:	005a                	c.slli	zero,0x16
    1112:	0000                	unimp
    1114:	0000                	unimp
    1116:	0000                	unimp
    1118:	4c00                	lw	s0,24(s0)
    111a:	0005                	c.nop	1
    111c:	8800                	0x8800
    111e:	0005                	c.nop	1
    1120:	0100                	addi	s0,sp,128
    1122:	6000                	flw	fs0,0(s0)
    1124:	079c                	addi	a5,sp,960
    1126:	0000                	unimp
    1128:	07a4                	addi	s1,sp,968
    112a:	0000                	unimp
    112c:	0001                	nop
    112e:	0060                	addi	s0,sp,12
    1130:	0000                	unimp
    1132:	0000                	unimp
    1134:	0000                	unimp
    1136:	6400                	flw	fs0,8(s0)
    1138:	0005                	c.nop	1
    113a:	7400                	flw	fs0,40(s0)
    113c:	0005                	c.nop	1
    113e:	0100                	addi	s0,sp,128
    1140:	5a00                	lw	s0,48(a2)
	...
    114a:	05ac                	addi	a1,sp,712
    114c:	0000                	unimp
    114e:	05c4                	addi	s1,sp,708
    1150:	0000                	unimp
    1152:	0001                	nop
    1154:	0005c463          	bltz	a1,115c <__fixdfsi+0x28>
    1158:	cc00                	sw	s0,24(s0)
    115a:	0005                	c.nop	1
    115c:	0600                	addi	s0,sp,768
    115e:	7a00                	flw	fs0,48(a2)
    1160:	7c00                	flw	fs0,56(s0)
    1162:	1c00                	addi	s0,sp,560
    1164:	449f 0006 5800      	0x58000006449f
    116a:	0006                	c.slli	zero,0x1
    116c:	0100                	addi	s0,sp,128
    116e:	6300                	flw	fs0,0(a4)
	...
    1178:	05c4                	addi	s1,sp,708
    117a:	0000                	unimp
    117c:	05d4                	addi	a3,sp,708
    117e:	0000                	unimp
    1180:	0001                	nop
    1182:	00000063          	beqz	zero,1182 <__fixdfsi+0x4e>
    1186:	0000                	unimp
    1188:	0000                	unimp
    118a:	e000                	fsw	fs0,0(s0)
    118c:	0005                	c.nop	1
    118e:	e400                	fsw	fs0,8(s0)
    1190:	0005                	c.nop	1
    1192:	0100                	addi	s0,sp,128
    1194:	5a00                	lw	s0,48(a2)
    1196:	05e4                	addi	s1,sp,716
    1198:	0000                	unimp
    119a:	060c                	addi	a1,sp,768
    119c:	0000                	unimp
    119e:	0001                	nop
    11a0:	105e                	c.slli	zero,0x37
    11a2:	0006                	c.slli	zero,0x1
    11a4:	3c00                	fld	fs0,56(s0)
    11a6:	0006                	c.slli	zero,0x1
    11a8:	0100                	addi	s0,sp,128
    11aa:	5f00                	lw	s0,56(a4)
    11ac:	0660                	addi	s0,sp,780
    11ae:	0000                	unimp
    11b0:	0668                	addi	a0,sp,780
    11b2:	0000                	unimp
    11b4:	0001                	nop
    11b6:	685a                	flw	fa6,148(sp)
    11b8:	0006                	c.slli	zero,0x1
    11ba:	7800                	flw	fs0,48(s0)
    11bc:	0006                	c.slli	zero,0x1
    11be:	0100                	addi	s0,sp,128
    11c0:	5e00                	lw	s0,56(a2)
    11c2:	0678                	addi	a4,sp,780
    11c4:	0000                	unimp
    11c6:	06a8                	addi	a0,sp,840
    11c8:	0000                	unimp
    11ca:	0001                	nop
    11cc:	ac5f 0006 c000      	0xc0000006ac5f
    11d2:	0006                	c.slli	zero,0x1
    11d4:	0100                	addi	s0,sp,128
    11d6:	5e00                	lw	s0,56(a2)
	...
    11e0:	02b4                	addi	a3,sp,328
    11e2:	0000                	unimp
    11e4:	02dc                	addi	a5,sp,324
    11e6:	0000                	unimp
    11e8:	0002                	c.slli64	zero
    11ea:	9f30                	0x9f30
	...
    11f4:	02cc                	addi	a1,sp,324
    11f6:	0000                	unimp
    11f8:	02dc                	addi	a5,sp,324
    11fa:	0000                	unimp
    11fc:	0001                	nop
    11fe:	005d                	c.nop	23
	...
    1208:	0000                	unimp
    120a:	2c00                	fld	fs0,24(s0)
    120c:	0000                	unimp
    120e:	0600                	addi	s0,sp,768
    1210:	5a00                	lw	s0,48(a2)
    1212:	935b0493          	addi	s1,s6,-1739
    1216:	2c04                	fld	fs1,24(s0)
    1218:	0000                	unimp
    121a:	3800                	fld	fs0,48(s0)
    121c:	0000                	unimp
    121e:	0600                	addi	s0,sp,768
    1220:	f300                	fsw	fs0,32(a4)
    1222:	250af503          	0x250af503
    1226:	389f 0000 5800      	0x58000000389f
    122c:	0000                	unimp
    122e:	0600                	addi	s0,sp,768
    1230:	5a00                	lw	s0,48(a2)
    1232:	935b0493          	addi	s1,s6,-1739
    1236:	5804                	lw	s1,48(s0)
    1238:	0000                	unimp
    123a:	6800                	flw	fs0,16(s0)
    123c:	0000                	unimp
    123e:	0600                	addi	s0,sp,768
    1240:	f300                	fsw	fs0,32(a4)
    1242:	250af503          	0x250af503
    1246:	689f 0000 6c00      	0x6c000000689f
    124c:	0000                	unimp
    124e:	0600                	addi	s0,sp,768
    1250:	5a00                	lw	s0,48(a2)
    1252:	935b0493          	addi	s1,s6,-1739
    1256:	6c04                	flw	fs1,24(s0)
    1258:	0000                	unimp
    125a:	7800                	flw	fs0,48(s0)
    125c:	0000                	unimp
    125e:	0600                	addi	s0,sp,768
    1260:	f300                	fsw	fs0,32(a4)
    1262:	250af503          	0x250af503
    1266:	789f 0000 7c00      	0x7c000000789f
    126c:	0000                	unimp
    126e:	0600                	addi	s0,sp,768
    1270:	5a00                	lw	s0,48(a2)
    1272:	935b0493          	addi	s1,s6,-1739
    1276:	7c04                	flw	fs1,56(s0)
    1278:	0000                	unimp
    127a:	8000                	0x8000
    127c:	0000                	unimp
    127e:	0600                	addi	s0,sp,768
    1280:	f300                	fsw	fs0,32(a4)
    1282:	250af503          	0x250af503
    1286:	009f 0000 0000      	0x9f
    128c:	0000                	unimp
    128e:	1800                	addi	s0,sp,48
    1290:	0000                	unimp
    1292:	5000                	lw	s0,32(s0)
    1294:	0000                	unimp
    1296:	0100                	addi	s0,sp,128
    1298:	5e00                	lw	s0,56(a2)
    129a:	0050                	addi	a2,sp,4
    129c:	0000                	unimp
    129e:	005c                	addi	a5,sp,4
    12a0:	0000                	unimp
    12a2:	0004                	0x4
    12a4:	937e                	add	t1,t1,t6
    12a6:	9f08                	0x9f08
    12a8:	0068                	addi	a0,sp,12
    12aa:	0000                	unimp
    12ac:	007c                	addi	a5,sp,12
    12ae:	0000                	unimp
    12b0:	0001                	nop
    12b2:	005e                	c.slli	zero,0x17
    12b4:	0000                	unimp
    12b6:	0000                	unimp
    12b8:	0000                	unimp
    12ba:	5c00                	lw	s0,56(s0)
    12bc:	0000                	unimp
    12be:	6400                	flw	fs0,8(s0)
    12c0:	0000                	unimp
    12c2:	0100                	addi	s0,sp,128
    12c4:	5a00                	lw	s0,48(a2)
    12c6:	0064                	addi	s1,sp,12
    12c8:	0000                	unimp
    12ca:	0068                	addi	a0,sp,12
    12cc:	0000                	unimp
    12ce:	0004                	0x4
    12d0:	007a                	c.slli	zero,0x1e
    12d2:	9f1f 0074 0000      	0x749f1f
    12d8:	0078                	addi	a4,sp,12
    12da:	0000                	unimp
    12dc:	0001                	nop
    12de:	005a                	c.slli	zero,0x16
    12e0:	0000                	unimp
    12e2:	0000                	unimp
    12e4:	0000                	unimp
    12e6:	1800                	addi	s0,sp,48
    12e8:	0000                	unimp
    12ea:	5400                	lw	s0,40(s0)
    12ec:	0000                	unimp
    12ee:	0100                	addi	s0,sp,128
    12f0:	5f00                	lw	s0,56(a4)
    12f2:	005c                	addi	a5,sp,4
    12f4:	0000                	unimp
    12f6:	0068                	addi	a0,sp,12
    12f8:	0000                	unimp
    12fa:	0002                	c.slli64	zero
    12fc:	9f30                	0x9f30
    12fe:	0068                	addi	a0,sp,12
    1300:	0000                	unimp
    1302:	0074                	addi	a3,sp,12
    1304:	0000                	unimp
    1306:	0001                	nop
    1308:	745f 0000 7800      	0x78000000745f
    130e:	0000                	unimp
    1310:	0200                	addi	s0,sp,256
    1312:	3000                	fld	fs0,32(s0)
    1314:	789f 0000 7c00      	0x7c000000789f
    131a:	0000                	unimp
    131c:	0100                	addi	s0,sp,128
    131e:	5f00                	lw	s0,56(a4)
	...
    1328:	0028                	addi	a0,sp,8
    132a:	0000                	unimp
    132c:	0034                	addi	a3,sp,8
    132e:	0000                	unimp
    1330:	0005                	c.nop	1
    1332:	4b40                	lw	s0,20(a4)
    1334:	1f24                	addi	s1,sp,952
    1336:	349f 0000 3800      	0x38000000349f
    133c:	0000                	unimp
    133e:	0100                	addi	s0,sp,128
    1340:	5a00                	lw	s0,48(a2)
    1342:	005c                	addi	a5,sp,4
    1344:	0000                	unimp
    1346:	0068                	addi	a0,sp,12
    1348:	0000                	unimp
    134a:	0001                	nop
    134c:	7c5a                	flw	fs8,180(sp)
    134e:	0000                	unimp
    1350:	8000                	0x8000
    1352:	0000                	unimp
    1354:	0100                	addi	s0,sp,128
    1356:	5a00                	lw	s0,48(a2)
	...
    1360:	0038                	addi	a4,sp,8
    1362:	0000                	unimp
    1364:	004c                	addi	a1,sp,4
    1366:	0000                	unimp
    1368:	0002                	c.slli64	zero
    136a:	9f30                	0x9f30
	...
    1378:	0028                	addi	a0,sp,8
    137a:	0000                	unimp
    137c:	0001                	nop
    137e:	285a                	fld	fa6,400(sp)
    1380:	0000                	unimp
    1382:	a000                	fsd	fs0,0(s0)
    1384:	0000                	unimp
    1386:	0400                	addi	s0,sp,512
    1388:	f300                	fsw	fs0,32(a4)
    138a:	5a01                	li	s4,-32
    138c:	a09f 0000 ac00      	0xac000000a09f
    1392:	0000                	unimp
    1394:	0100                	addi	s0,sp,128
    1396:	5a00                	lw	s0,48(a2)
	...
    13a0:	0024                	addi	s1,sp,8
    13a2:	0000                	unimp
    13a4:	0054                	addi	a3,sp,4
    13a6:	0000                	unimp
    13a8:	0001                	nop
    13aa:	5459                	li	s0,-10
    13ac:	0000                	unimp
    13ae:	6800                	flw	fs0,16(s0)
    13b0:	0000                	unimp
    13b2:	0100                	addi	s0,sp,128
    13b4:	5a00                	lw	s0,48(a2)
    13b6:	008c                	addi	a1,sp,64
    13b8:	0000                	unimp
    13ba:	0098                	addi	a4,sp,64
    13bc:	0000                	unimp
    13be:	0001                	nop
    13c0:	0059                	c.nop	22
    13c2:	0000                	unimp
    13c4:	0000                	unimp
    13c6:	0000                	unimp
    13c8:	3800                	fld	fs0,48(s0)
    13ca:	0000                	unimp
    13cc:	5c00                	lw	s0,56(s0)
    13ce:	0000                	unimp
    13d0:	0100                	addi	s0,sp,128
    13d2:	5e00                	lw	s0,56(a2)
    13d4:	008c                	addi	a1,sp,64
    13d6:	0000                	unimp
    13d8:	0098                	addi	a4,sp,64
    13da:	0000                	unimp
    13dc:	0001                	nop
    13de:	005e                	c.slli	zero,0x17
    13e0:	0000                	unimp
    13e2:	0000                	unimp
    13e4:	0000                	unimp
    13e6:	3800                	fld	fs0,48(s0)
    13e8:	0000                	unimp
    13ea:	7c00                	flw	fs0,56(s0)
    13ec:	0000                	unimp
    13ee:	0100                	addi	s0,sp,128
    13f0:	5800                	lw	s0,48(s0)
    13f2:	007c                	addi	a5,sp,12
    13f4:	0000                	unimp
    13f6:	008c                	addi	a1,sp,64
    13f8:	0000                	unimp
    13fa:	0001                	nop
    13fc:	8c5a                	mv	s8,s6
    13fe:	0000                	unimp
    1400:	9400                	0x9400
    1402:	0000                	unimp
    1404:	0100                	addi	s0,sp,128
    1406:	5800                	lw	s0,48(s0)
    1408:	0094                	addi	a3,sp,64
    140a:	0000                	unimp
    140c:	0098                	addi	a4,sp,64
    140e:	0000                	unimp
    1410:	0002                	c.slli64	zero
    1412:	9f30                	0x9f30
	...
    141c:	0038                	addi	a4,sp,8
    141e:	0000                	unimp
    1420:	004c                	addi	a1,sp,4
    1422:	0000                	unimp
    1424:	0002                	c.slli64	zero
    1426:	9f30                	0x9f30
    1428:	004c                	addi	a1,sp,4
    142a:	0000                	unimp
    142c:	0058                	addi	a4,sp,4
    142e:	0000                	unimp
    1430:	0001                	nop
    1432:	8c5f 0000 9400      	0x940000008c5f
    1438:	0000                	unimp
    143a:	0200                	addi	s0,sp,256
    143c:	3000                	fld	fs0,32(s0)
    143e:	949f 0000 9800      	0x98000000949f
    1444:	0000                	unimp
    1446:	0100                	addi	s0,sp,128
    1448:	5f00                	lw	s0,56(a4)
	...
    1452:	0014                	0x14
    1454:	0000                	unimp
    1456:	0024                	addi	s1,sp,8
    1458:	0000                	unimp
    145a:	0001                	nop
    145c:	245a                	fld	fs0,400(sp)
    145e:	0000                	unimp
    1460:	5000                	lw	s0,32(s0)
    1462:	0000                	unimp
    1464:	0100                	addi	s0,sp,128
    1466:	5800                	lw	s0,48(s0)
    1468:	0050                	addi	a2,sp,4
    146a:	0000                	unimp
    146c:	0054                	addi	a3,sp,4
    146e:	0000                	unimp
    1470:	0010                	0x10
    1472:	4f5a01f3          	0x4f5a01f3
    1476:	f326                	fsw	fs1,164(sp)
    1478:	5a01                	li	s4,-32
    147a:	5a01f327          	0x5a01f327
    147e:	9f1c264f          	fnmadd.q	fa2,fs8,fa7,fs3,rdn
    1482:	008c                	addi	a1,sp,64
    1484:	0000                	unimp
    1486:	0098                	addi	a4,sp,64
    1488:	0000                	unimp
    148a:	0001                	nop
    148c:	0058                	addi	a4,sp,4
    148e:	0000                	unimp
    1490:	0000                	unimp
    1492:	0000                	unimp
    1494:	2c00                	fld	fs0,24(s0)
    1496:	0000                	unimp
    1498:	4800                	lw	s0,16(s0)
    149a:	0000                	unimp
    149c:	0100                	addi	s0,sp,128
    149e:	5a00                	lw	s0,48(a2)
    14a0:	0048                	addi	a0,sp,4
    14a2:	0000                	unimp
    14a4:	0054                	addi	a3,sp,4
    14a6:	0000                	unimp
    14a8:	6b7a0003          	lb	zero,1719(s4)
    14ac:	8c9f 0000 9000      	0x900000008c9f
    14b2:	0000                	unimp
    14b4:	0100                	addi	s0,sp,128
    14b6:	5a00                	lw	s0,48(a2)
    14b8:	0090                	addi	a2,sp,64
    14ba:	0000                	unimp
    14bc:	0098                	addi	a4,sp,64
    14be:	0000                	unimp
    14c0:	0b7a0003          	lb	zero,183(s4)
    14c4:	009f 0000 0000      	0x9f
    14ca:	0000                	unimp
    14cc:	0000                	unimp
    14ce:	0000                	unimp
    14d0:	2400                	fld	fs0,8(s0)
    14d2:	0000                	unimp
    14d4:	0100                	addi	s0,sp,128
    14d6:	5a00                	lw	s0,48(a2)
    14d8:	0024                	addi	s1,sp,8
    14da:	0000                	unimp
    14dc:	0038                	addi	a4,sp,8
    14de:	0000                	unimp
    14e0:	0004                	0x4
    14e2:	9f5a01f3          	0x9f5a01f3
    14e6:	0038                	addi	a4,sp,8
    14e8:	0000                	unimp
    14ea:	004c                	addi	a1,sp,4
    14ec:	0000                	unimp
    14ee:	0001                	nop
    14f0:	005a                	c.slli	zero,0x16
	...
    14fa:	0000                	unimp
    14fc:	2400                	fld	fs0,8(s0)
    14fe:	0000                	unimp
    1500:	0100                	addi	s0,sp,128
    1502:	5a00                	lw	s0,48(a2)
    1504:	0024                	addi	s1,sp,8
    1506:	0000                	unimp
    1508:	0038                	addi	a4,sp,8
    150a:	0000                	unimp
    150c:	0004                	0x4
    150e:	9f5a01f3          	0x9f5a01f3
    1512:	0038                	addi	a4,sp,8
    1514:	0000                	unimp
    1516:	004c                	addi	a1,sp,4
    1518:	0000                	unimp
    151a:	0001                	nop
    151c:	005a                	c.slli	zero,0x16
    151e:	0000                	unimp
    1520:	0000                	unimp
    1522:	0000                	unimp
    1524:	1400                	addi	s0,sp,544
    1526:	0000                	unimp
    1528:	2000                	fld	fs0,0(s0)
    152a:	0000                	unimp
    152c:	0100                	addi	s0,sp,128
    152e:	5f00                	lw	s0,56(a4)
	...

Disassembly of section .debug_aranges:

00000000 <.debug_aranges>:
   0:	001c                	0x1c
   2:	0000                	unimp
   4:	0002                	c.slli64	zero
   6:	0000                	unimp
   8:	0000                	unimp
   a:	0004                	0x4
   c:	0000                	unimp
   e:	0000                	unimp
  10:	0974                	addi	a3,sp,156
  12:	0000                	unimp
  14:	07c0                	addi	s0,sp,964
	...
  1e:	0000                	unimp
  20:	001c                	0x1c
  22:	0000                	unimp
  24:	0002                	c.slli64	zero
  26:	05a5                	addi	a1,a1,9
  28:	0000                	unimp
  2a:	0004                	0x4
  2c:	0000                	unimp
  2e:	0000                	unimp
  30:	1134                	addi	a3,sp,168
  32:	0000                	unimp
  34:	0080                	addi	s0,sp,64
	...
  3e:	0000                	unimp
  40:	001c                	0x1c
  42:	0000                	unimp
  44:	0002                	c.slli64	zero
  46:	07bc                	addi	a5,sp,968
  48:	0000                	unimp
  4a:	0004                	0x4
  4c:	0000                	unimp
  4e:	0000                	unimp
  50:	11b4                	addi	a3,sp,232
  52:	0000                	unimp
  54:	00ac                	addi	a1,sp,72
	...
  5e:	0000                	unimp
  60:	001c                	0x1c
  62:	0000                	unimp
  64:	0002                	c.slli64	zero
  66:	0a7c                	addi	a5,sp,284
  68:	0000                	unimp
  6a:	0004                	0x4
  6c:	0000                	unimp
  6e:	0000                	unimp
  70:	1260                	addi	s0,sp,300
  72:	0000                	unimp
  74:	0024                	addi	s1,sp,8
	...
  7e:	0000                	unimp
  80:	001c                	0x1c
  82:	0000                	unimp
  84:	0002                	c.slli64	zero
  86:	0aa2                	slli	s5,s5,0x8
  88:	0000                	unimp
  8a:	0004                	0x4
  8c:	0000                	unimp
  8e:	0000                	unimp
  90:	1284                	addi	s1,sp,352
  92:	0000                	unimp
  94:	00b4                	addi	a3,sp,72
	...
  9e:	0000                	unimp
  a0:	001c                	0x1c
  a2:	0000                	unimp
  a4:	0002                	c.slli64	zero
  a6:	0ac8                	addi	a0,sp,340
  a8:	0000                	unimp
  aa:	0004                	0x4
  ac:	0000                	unimp
  ae:	0000                	unimp
  b0:	1338                	addi	a4,sp,424
  b2:	0000                	unimp
  b4:	004c                	addi	a1,sp,4
	...
  be:	0000                	unimp
  c0:	0014                	0x14
  c2:	0000                	unimp
  c4:	0002                	c.slli64	zero
  c6:	1674                	addi	a3,sp,812
  c8:	0000                	unimp
  ca:	0004                	0x4
	...

Disassembly of section .debug_ranges:

00000000 <.debug_ranges>:
   0:	0000                	unimp
   2:	0000                	unimp
   4:	000c                	0xc
   6:	0000                	unimp
   8:	0018                	0x18
   a:	0000                	unimp
   c:	001c                	0x1c
   e:	0000                	unimp
  10:	0034                	addi	a3,sp,8
  12:	0000                	unimp
  14:	0038                	addi	a4,sp,8
  16:	0000                	unimp
  18:	004c                	addi	a1,sp,4
  1a:	0000                	unimp
  1c:	0050                	addi	a2,sp,4
	...
  26:	0000                	unimp
  28:	001c                	0x1c
  2a:	0000                	unimp
  2c:	0020                	addi	s0,sp,8
  2e:	0000                	unimp
  30:	0024                	addi	s1,sp,8
  32:	0000                	unimp
  34:	0028                	addi	a0,sp,8
  36:	0000                	unimp
  38:	0038                	addi	a4,sp,8
  3a:	0000                	unimp
  3c:	003c                	addi	a5,sp,8
  3e:	0000                	unimp
  40:	0050                	addi	a2,sp,4
  42:	0000                	unimp
  44:	0054                	addi	a3,sp,4
  46:	0000                	unimp
  48:	005c                	addi	a5,sp,4
  4a:	0000                	unimp
  4c:	005c                	addi	a5,sp,4
  4e:	0000                	unimp
  50:	0094                	addi	a3,sp,64
  52:	0000                	unimp
  54:	0098                	addi	a4,sp,64
  56:	0000                	unimp
  58:	0220                	addi	s0,sp,264
  5a:	0000                	unimp
  5c:	0224                	addi	s1,sp,264
  5e:	0000                	unimp
  60:	0358                	addi	a4,sp,388
  62:	0000                	unimp
  64:	035c                	addi	a5,sp,388
  66:	0000                	unimp
  68:	04c8                	addi	a0,sp,580
  6a:	0000                	unimp
  6c:	04cc                	addi	a1,sp,580
	...
  76:	0000                	unimp
  78:	0068                	addi	a0,sp,12
  7a:	0000                	unimp
  7c:	0094                	addi	a3,sp,64
  7e:	0000                	unimp
  80:	0098                	addi	a4,sp,64
  82:	0000                	unimp
  84:	00a4                	addi	s1,sp,72
  86:	0000                	unimp
  88:	00ac                	addi	a1,sp,72
  8a:	0000                	unimp
  8c:	01bc                	addi	a5,sp,200
  8e:	0000                	unimp
  90:	01c8                	addi	a0,sp,196
  92:	0000                	unimp
  94:	0220                	addi	s0,sp,264
  96:	0000                	unimp
  98:	0224                	addi	s1,sp,264
  9a:	0000                	unimp
  9c:	02b4                	addi	a3,sp,328
  9e:	0000                	unimp
  a0:	02dc                	addi	a5,sp,324
  a2:	0000                	unimp
  a4:	02f4                	addi	a3,sp,332
  a6:	0000                	unimp
  a8:	02fc                	addi	a5,sp,332
  aa:	0000                	unimp
  ac:	032c                	addi	a1,sp,392
  ae:	0000                	unimp
  b0:	06c8                	addi	a0,sp,836
  b2:	0000                	unimp
  b4:	06d0                	addi	a2,sp,836
  b6:	0000                	unimp
  b8:	06dc                	addi	a5,sp,836
  ba:	0000                	unimp
  bc:	06e8                	addi	a0,sp,844
	...
  c6:	0000                	unimp
  c8:	0080                	addi	s0,sp,64
  ca:	0000                	unimp
  cc:	0090                	addi	a2,sp,64
  ce:	0000                	unimp
  d0:	0090                	addi	a2,sp,64
  d2:	0000                	unimp
  d4:	0094                	addi	a3,sp,64
	...
  de:	0000                	unimp
  e0:	0094                	addi	a3,sp,64
  e2:	0000                	unimp
  e4:	0094                	addi	a3,sp,64
  e6:	0000                	unimp
  e8:	01a0                	addi	s0,sp,200
  ea:	0000                	unimp
  ec:	01b4                	addi	a3,sp,200
	...
  f6:	0000                	unimp
  f8:	0288                	addi	a0,sp,320
  fa:	0000                	unimp
  fc:	0298                	addi	a4,sp,320
  fe:	0000                	unimp
 100:	029c                	addi	a5,sp,320
 102:	0000                	unimp
 104:	02a0                	addi	s0,sp,328
	...
 10e:	0000                	unimp
 110:	02fc                	addi	a5,sp,332
 112:	0000                	unimp
 114:	02fc                	addi	a5,sp,332
 116:	0000                	unimp
 118:	0304                	addi	s1,sp,384
 11a:	0000                	unimp
 11c:	0314                	addi	a3,sp,384
	...
 126:	0000                	unimp
 128:	00a4                	addi	s1,sp,72
 12a:	0000                	unimp
 12c:	00ac                	addi	a1,sp,72
 12e:	0000                	unimp
 130:	02b4                	addi	a3,sp,328
 132:	0000                	unimp
 134:	02b4                	addi	a3,sp,328
 136:	0000                	unimp
 138:	02f4                	addi	a3,sp,332
 13a:	0000                	unimp
 13c:	02fc                	addi	a5,sp,332
 13e:	0000                	unimp
 140:	032c                	addi	a1,sp,392
 142:	0000                	unimp
 144:	0358                	addi	a4,sp,388
 146:	0000                	unimp
 148:	035c                	addi	a5,sp,388
 14a:	0000                	unimp
 14c:	0460                	addi	s0,sp,524
 14e:	0000                	unimp
 150:	0468                	addi	a0,sp,524
 152:	0000                	unimp
 154:	04c8                	addi	a0,sp,580
 156:	0000                	unimp
 158:	04cc                	addi	a1,sp,580
 15a:	0000                	unimp
 15c:	0534                	addi	a3,sp,648
 15e:	0000                	unimp
 160:	053c                	addi	a5,sp,648
 162:	0000                	unimp
 164:	0590                	addi	a2,sp,704
 166:	0000                	unimp
 168:	0598                	addi	a4,sp,704
 16a:	0000                	unimp
 16c:	06c0                	addi	s0,sp,836
 16e:	0000                	unimp
 170:	0774                	addi	a3,sp,908
 172:	0000                	unimp
 174:	077c                	addi	a5,sp,908
 176:	0000                	unimp
 178:	0784                	addi	s1,sp,960
 17a:	0000                	unimp
 17c:	07b4                	addi	a3,sp,968
	...
 186:	0000                	unimp
 188:	0344                	addi	s1,sp,388
 18a:	0000                	unimp
 18c:	0354                	addi	a3,sp,388
 18e:	0000                	unimp
 190:	0354                	addi	a3,sp,388
 192:	0000                	unimp
 194:	0358                	addi	a4,sp,388
	...
 19e:	0000                	unimp
 1a0:	03b8                	addi	a4,sp,456
 1a2:	0000                	unimp
 1a4:	03cc                	addi	a1,sp,452
 1a6:	0000                	unimp
 1a8:	05d4                	addi	a3,sp,708
 1aa:	0000                	unimp
 1ac:	0644                	addi	s1,sp,772
 1ae:	0000                	unimp
 1b0:	0658                	addi	a4,sp,772
 1b2:	0000                	unimp
 1b4:	06c0                	addi	s0,sp,836
	...
 1be:	0000                	unimp
 1c0:	0548                	addi	a0,sp,644
 1c2:	0000                	unimp
 1c4:	0558                	addi	a4,sp,644
 1c6:	0000                	unimp
 1c8:	0580                	addi	s0,sp,704
 1ca:	0000                	unimp
 1cc:	0588                	addi	a0,sp,704
	...
 1d6:	0000                	unimp
 1d8:	02b4                	addi	a3,sp,328
 1da:	0000                	unimp
 1dc:	02dc                	addi	a5,sp,324
 1de:	0000                	unimp
 1e0:	06e8                	addi	a0,sp,844
 1e2:	0000                	unimp
 1e4:	0738                	addi	a4,sp,904
 1e6:	0000                	unimp
 1e8:	07b4                	addi	a3,sp,968
 1ea:	0000                	unimp
 1ec:	07c0                	addi	s0,sp,964
	...
 1f6:	0000                	unimp
 1f8:	0738                	addi	a4,sp,904
 1fa:	0000                	unimp
 1fc:	0744                	addi	s1,sp,900
 1fe:	0000                	unimp
 200:	074c                	addi	a1,sp,900
 202:	0000                	unimp
 204:	075c                	addi	a5,sp,900
	...
 212:	0000                	unimp
 214:	0010                	0x10
 216:	0000                	unimp
 218:	0014                	0x14
 21a:	0000                	unimp
 21c:	001c                	0x1c
	...
 22e:	0000                	unimp
 230:	0010                	0x10
 232:	0000                	unimp
 234:	0054                	addi	a3,sp,4
 236:	0000                	unimp
 238:	008c                	addi	a1,sp,64
 23a:	0000                	unimp
 23c:	00ac                	addi	a1,sp,72
	...
 246:	0000                	unimp
 248:	0014                	0x14
 24a:	0000                	unimp
 24c:	0054                	addi	a3,sp,4
 24e:	0000                	unimp
 250:	008c                	addi	a1,sp,64
 252:	0000                	unimp
 254:	0098                	addi	a4,sp,64
	...
 25e:	0000                	unimp
 260:	0024                	addi	s1,sp,8
 262:	0000                	unimp
 264:	0030                	addi	a2,sp,8
 266:	0000                	unimp
 268:	0034                	addi	a3,sp,8
 26a:	0000                	unimp
 26c:	0038                	addi	a4,sp,8
	...
 27a:	0000                	unimp
 27c:	0014                	0x14
 27e:	0000                	unimp
 280:	0014                	0x14
 282:	0000                	unimp
 284:	0030                	addi	a2,sp,8
 286:	0000                	unimp
 288:	0038                	addi	a4,sp,8
 28a:	0000                	unimp
 28c:	004c                	addi	a1,sp,4
	...

Disassembly of section .debug_line:

00000000 <.debug_line>:
       0:	0eee                	slli	t4,t4,0x1b
       2:	0000                	unimp
       4:	00910003          	lb	zero,9(sp) # b0b086f <TOHOST_ADDR+0xb0aeabb>
       8:	0000                	unimp
       a:	0101                	addi	sp,sp,0
       c:	000d0efb          	0xd0efb
      10:	0101                	addi	sp,sp,0
      12:	0101                	addi	sp,sp,0
      14:	0000                	unimp
      16:	0100                	addi	s0,sp,128
      18:	0000                	unimp
      1a:	2e01                	jal	32a <ludcmp+0x21e>
      1c:	2f2e                	fld	ft10,200(sp)
      1e:	2e2e                	fld	ft8,200(sp)
      20:	2f2e2e2f          	0x2f2e2e2f
      24:	2f2e                	fld	ft10,200(sp)
      26:	6972                	flw	fs2,28(sp)
      28:	2d766373          	csrrsi	t1,0x2d7,12
      2c:	2f636367          	0x2f636367
      30:	696c                	flw	fa1,84(a0)
      32:	6762                	flw	fa4,24(sp)
      34:	732f6363          	bltu	t5,s2,75a <calloc_beebs+0x52>
      38:	2d74666f          	jal	a2,46b0e <TOHOST_ADDR+0x44d5a>
      3c:	7066                	flw	ft0,120(sp)
      3e:	2e00                	fld	fs0,24(a2)
      40:	2f2e                	fld	ft10,200(sp)
      42:	2e2e                	fld	ft8,200(sp)
      44:	2f2e2e2f          	0x2f2e2e2f
      48:	2f2e                	fld	ft10,200(sp)
      4a:	6972                	flw	fs2,28(sp)
      4c:	2d766373          	csrrsi	t1,0x2d7,12
      50:	2f636367          	0x2f636367
      54:	696c                	flw	fa1,84(a0)
      56:	6762                	flw	fa4,24(sp)
      58:	2e2f6363          	bltu	t5,sp,33e <ludcmp+0x232>
      5c:	2f2e                	fld	ft10,200(sp)
      5e:	6e69                	lui	t3,0x1a
      60:	64756c63          	bltu	a0,t2,6b8 <check_heap_beebs+0x14>
      64:	0065                	c.nop	25
      66:	6100                	flw	fs0,0(a0)
      68:	6464                	flw	fs1,76(s0)
      6a:	6664                	flw	fs1,76(a2)
      6c:	00632e33          	slt	t3,t1,t1
      70:	0001                	nop
      72:	7300                	flw	fs0,32(a4)
      74:	2d74666f          	jal	a2,46b4a <TOHOST_ADDR+0x44d96>
      78:	7066                	flw	ft0,120(sp)
      7a:	682e                	flw	fa6,200(sp)
      7c:	0100                	addi	s0,sp,128
      7e:	0000                	unimp
      80:	6f64                	flw	fs1,92(a4)
      82:	6275                	lui	tp,0x1d
      84:	656c                	flw	fa1,76(a0)
      86:	682e                	flw	fa6,200(sp)
      88:	0100                	addi	s0,sp,128
      8a:	0000                	unimp
      8c:	6f6c                	flw	fa1,92(a4)
      8e:	676e                	flw	fa4,216(sp)
      90:	6f6c                	flw	fa1,92(a4)
      92:	676e                	flw	fa4,216(sp)
      94:	682e                	flw	fa6,200(sp)
      96:	0200                	addi	s0,sp,256
      98:	0000                	unimp
      9a:	0500                	addi	s0,sp,640
      9c:	0001                	nop
      9e:	0205                	addi	tp,tp,1
      a0:	0974                	addi	a3,sp,156
      a2:	0000                	unimp
      a4:	05012303          	lw	t1,80(sp)
      a8:	09010303          	lb	t1,144(sp)
      ac:	0000                	unimp
      ae:	0301                	addi	t1,t1,0
      b0:	0900                	addi	s0,sp,144
      b2:	0000                	unimp
      b4:	0501                	addi	a0,a0,0
      b6:	030d                	addi	t1,t1,3
      b8:	0900                	addi	s0,sp,144
      ba:	0000                	unimp
      bc:	0501                	addi	a0,a0,0
      be:	09010303          	lb	t1,144(sp)
      c2:	0000                	unimp
      c4:	0301                	addi	t1,t1,0
      c6:	0900                	addi	s0,sp,144
      c8:	0000                	unimp
      ca:	0301                	addi	t1,t1,0
      cc:	0900                	addi	s0,sp,144
      ce:	0000                	unimp
      d0:	0301                	addi	t1,t1,0
      d2:	0900                	addi	s0,sp,144
      d4:	0000                	unimp
      d6:	0301                	addi	t1,t1,0
      d8:	0901                	addi	s2,s2,0
      da:	0000                	unimp
      dc:	0301                	addi	t1,t1,0
      de:	0900                	addi	s0,sp,144
      e0:	0000                	unimp
      e2:	0301                	addi	t1,t1,0
      e4:	0900                	addi	s0,sp,144
      e6:	0000                	unimp
      e8:	0301                	addi	t1,t1,0
      ea:	0900                	addi	s0,sp,144
      ec:	0000                	unimp
      ee:	0301                	addi	t1,t1,0
      f0:	0901                	addi	s2,s2,0
      f2:	0000                	unimp
      f4:	0301                	addi	t1,t1,0
      f6:	0900                	addi	s0,sp,144
      f8:	0000                	unimp
      fa:	0301                	addi	t1,t1,0
      fc:	0900                	addi	s0,sp,144
      fe:	0000                	unimp
     100:	0301                	addi	t1,t1,0
     102:	0900                	addi	s0,sp,144
     104:	0000                	unimp
     106:	0301                	addi	t1,t1,0
     108:	0901                	addi	s2,s2,0
     10a:	0000                	unimp
     10c:	0301                	addi	t1,t1,0
     10e:	0902                	c.slli64	s2
     110:	0000                	unimp
     112:	0301                	addi	t1,t1,0
     114:	0901                	addi	s2,s2,0
     116:	0000                	unimp
     118:	0301                	addi	t1,t1,0
     11a:	0900                	addi	s0,sp,144
     11c:	0000                	unimp
     11e:	0301                	addi	t1,t1,0
     120:	0900                	addi	s0,sp,144
     122:	0000                	unimp
     124:	0301                	addi	t1,t1,0
     126:	0900                	addi	s0,sp,144
     128:	0000                	unimp
     12a:	0301                	addi	t1,t1,0
     12c:	0900                	addi	s0,sp,144
     12e:	0000                	unimp
     130:	0301                	addi	t1,t1,0
     132:	0900                	addi	s0,sp,144
     134:	0000                	unimp
     136:	0301                	addi	t1,t1,0
     138:	0900                	addi	s0,sp,144
     13a:	000c                	0xc
     13c:	0501                	addi	a0,a0,0
     13e:	0601                	addi	a2,a2,0
     140:	08097803          	0x8097803
     144:	0100                	addi	s0,sp,128
     146:	0305                	addi	t1,t1,1
     148:	04090803          	lb	a6,64(s2) # 97e1c <TOHOST_ADDR+0x96068>
     14c:	0100                	addi	s0,sp,128
     14e:	04090103          	lb	sp,64(s2)
     152:	0100                	addi	s0,sp,128
     154:	04097f03          	0x4097f03
     158:	0100                	addi	s0,sp,128
     15a:	04090103          	lb	sp,64(s2)
     15e:	0100                	addi	s0,sp,128
     160:	0105                	addi	sp,sp,1
     162:	08097703          	0x8097703
     166:	0100                	addi	s0,sp,128
     168:	0305                	addi	t1,t1,1
     16a:	08090803          	lb	a6,128(s2)
     16e:	0100                	addi	s0,sp,128
     170:	0306                	slli	t1,t1,0x1
     172:	0900                	addi	s0,sp,144
     174:	0004                	0x4
     176:	0601                	addi	a2,a2,0
     178:	00090103          	lb	sp,0(s2)
     17c:	0100                	addi	s0,sp,128
     17e:	0105                	addi	sp,sp,1
     180:	08097703          	0x8097703
     184:	0100                	addi	s0,sp,128
     186:	0305                	addi	t1,t1,1
     188:	0c090803          	lb	a6,192(s2)
     18c:	0100                	addi	s0,sp,128
     18e:	0306                	slli	t1,t1,0x1
     190:	0900                	addi	s0,sp,144
     192:	0004                	0x4
     194:	0301                	addi	t1,t1,0
     196:	0900                	addi	s0,sp,144
     198:	0000                	unimp
     19a:	0301                	addi	t1,t1,0
     19c:	0900                	addi	s0,sp,144
     19e:	0000                	unimp
     1a0:	0301                	addi	t1,t1,0
     1a2:	0900                	addi	s0,sp,144
     1a4:	0000                	unimp
     1a6:	0601                	addi	a2,a2,0
     1a8:	00090103          	lb	sp,0(s2)
     1ac:	0100                	addi	s0,sp,128
     1ae:	08097f03          	0x8097f03
     1b2:	0100                	addi	s0,sp,128
     1b4:	0306                	slli	t1,t1,0x1
     1b6:	0900                	addi	s0,sp,144
     1b8:	0004                	0x4
     1ba:	0301                	addi	t1,t1,0
     1bc:	0901                	addi	s2,s2,0
     1be:	0000                	unimp
     1c0:	0301                	addi	t1,t1,0
     1c2:	0900                	addi	s0,sp,144
     1c4:	0000                	unimp
     1c6:	0301                	addi	t1,t1,0
     1c8:	0900                	addi	s0,sp,144
     1ca:	0000                	unimp
     1cc:	0301                	addi	t1,t1,0
     1ce:	0900                	addi	s0,sp,144
     1d0:	0000                	unimp
     1d2:	0301                	addi	t1,t1,0
     1d4:	0900                	addi	s0,sp,144
     1d6:	0000                	unimp
     1d8:	0301                	addi	t1,t1,0
     1da:	0900                	addi	s0,sp,144
     1dc:	0000                	unimp
     1de:	0301                	addi	t1,t1,0
     1e0:	0900                	addi	s0,sp,144
     1e2:	0000                	unimp
     1e4:	0301                	addi	t1,t1,0
     1e6:	0900                	addi	s0,sp,144
     1e8:	0000                	unimp
     1ea:	0301                	addi	t1,t1,0
     1ec:	0900                	addi	s0,sp,144
     1ee:	0000                	unimp
     1f0:	0301                	addi	t1,t1,0
     1f2:	0900                	addi	s0,sp,144
     1f4:	0000                	unimp
     1f6:	0301                	addi	t1,t1,0
     1f8:	0900                	addi	s0,sp,144
     1fa:	0000                	unimp
     1fc:	0301                	addi	t1,t1,0
     1fe:	0900                	addi	s0,sp,144
     200:	0000                	unimp
     202:	0301                	addi	t1,t1,0
     204:	0900                	addi	s0,sp,144
     206:	0004                	0x4
     208:	0301                	addi	t1,t1,0
     20a:	0901                	addi	s2,s2,0
     20c:	0000                	unimp
     20e:	0301                	addi	t1,t1,0
     210:	0900                	addi	s0,sp,144
     212:	0000                	unimp
     214:	0301                	addi	t1,t1,0
     216:	0900                	addi	s0,sp,144
     218:	0000                	unimp
     21a:	0301                	addi	t1,t1,0
     21c:	0900                	addi	s0,sp,144
     21e:	0000                	unimp
     220:	0301                	addi	t1,t1,0
     222:	0900                	addi	s0,sp,144
     224:	0000                	unimp
     226:	0301                	addi	t1,t1,0
     228:	0900                	addi	s0,sp,144
     22a:	0000                	unimp
     22c:	0001                	nop
     22e:	0402                	c.slli64	s0
     230:	09000307          	0x9000307
     234:	0008                	0x8
     236:	0001                	nop
     238:	0402                	c.slli64	s0
     23a:	09000307          	0x9000307
     23e:	0000                	unimp
     240:	0001                	nop
     242:	0402                	c.slli64	s0
     244:	09000307          	0x9000307
     248:	0000                	unimp
     24a:	0001                	nop
     24c:	0402                	c.slli64	s0
     24e:	0309                	addi	t1,t1,2
     250:	0900                	addi	s0,sp,144
     252:	0004                	0x4
     254:	0001                	nop
     256:	0402                	c.slli64	s0
     258:	0309                	addi	t1,t1,2
     25a:	0900                	addi	s0,sp,144
     25c:	0000                	unimp
     25e:	0001                	nop
     260:	0402                	c.slli64	s0
     262:	0900030b          	0x900030b
     266:	0004                	0x4
     268:	0001                	nop
     26a:	0402                	c.slli64	s0
     26c:	030e                	slli	t1,t1,0x3
     26e:	0900                	addi	s0,sp,144
     270:	0008                	0x8
     272:	0001                	nop
     274:	0402                	c.slli64	s0
     276:	030e                	slli	t1,t1,0x3
     278:	0900                	addi	s0,sp,144
     27a:	0000                	unimp
     27c:	0001                	nop
     27e:	0402                	c.slli64	s0
     280:	030e                	slli	t1,t1,0x3
     282:	0900                	addi	s0,sp,144
     284:	0004                	0x4
     286:	0001                	nop
     288:	0402                	c.slli64	s0
     28a:	09000317          	auipc	t1,0x9000
     28e:	0004                	0x4
     290:	0001                	nop
     292:	0402                	c.slli64	s0
     294:	09000317          	auipc	t1,0x9000
     298:	0000                	unimp
     29a:	0001                	nop
     29c:	0402                	c.slli64	s0
     29e:	09000317          	auipc	t1,0x9000
     2a2:	0000                	unimp
     2a4:	0001                	nop
     2a6:	0402                	c.slli64	s0
     2a8:	09000317          	auipc	t1,0x9000
     2ac:	0004                	0x4
     2ae:	0001                	nop
     2b0:	0402                	c.slli64	s0
     2b2:	09000317          	auipc	t1,0x9000
     2b6:	000c                	0xc
     2b8:	0001                	nop
     2ba:	0402                	c.slli64	s0
     2bc:	09000317          	auipc	t1,0x9000
     2c0:	0000                	unimp
     2c2:	0001                	nop
     2c4:	0402                	c.slli64	s0
     2c6:	0350                	addi	a2,sp,388
     2c8:	0900                	addi	s0,sp,144
     2ca:	0004                	0x4
     2cc:	0001                	nop
     2ce:	0402                	c.slli64	s0
     2d0:	0350                	addi	a2,sp,388
     2d2:	0900                	addi	s0,sp,144
     2d4:	0000                	unimp
     2d6:	0001                	nop
     2d8:	0402                	c.slli64	s0
     2da:	0650                	addi	a2,sp,772
     2dc:	00097f03          	0x97f03
     2e0:	0100                	addi	s0,sp,128
     2e2:	0200                	addi	s0,sp,256
     2e4:	5004                	lw	s1,32(s0)
     2e6:	04090103          	lb	sp,64(s2)
     2ea:	0100                	addi	s0,sp,128
     2ec:	0200                	addi	s0,sp,256
     2ee:	1804                	addi	s1,sp,48
     2f0:	0306                	slli	t1,t1,0x1
     2f2:	0900                	addi	s0,sp,144
     2f4:	0004                	0x4
     2f6:	0601                	addi	a2,a2,0
     2f8:	08090003          	lb	zero,128(s2)
     2fc:	0100                	addi	s0,sp,128
     2fe:	0200                	addi	s0,sp,256
     300:	0c04                	addi	s1,sp,528
     302:	0306                	slli	t1,t1,0x1
     304:	0900                	addi	s0,sp,144
     306:	0008                	0x8
     308:	0001                	nop
     30a:	0402                	c.slli64	s0
     30c:	0326                	slli	t1,t1,0x9
     30e:	0900                	addi	s0,sp,144
     310:	0008                	0x8
     312:	0001                	nop
     314:	0402                	c.slli64	s0
     316:	0900032f          	0x900032f
     31a:	000c                	0xc
     31c:	0001                	nop
     31e:	0402                	c.slli64	s0
     320:	0330                	addi	a2,sp,392
     322:	0900                	addi	s0,sp,144
     324:	0008                	0x8
     326:	0001                	nop
     328:	0402                	c.slli64	s0
     32a:	0332                	slli	t1,t1,0xc
     32c:	0900                	addi	s0,sp,144
     32e:	0008                	0x8
     330:	0001                	nop
     332:	0402                	c.slli64	s0
     334:	0332                	slli	t1,t1,0xc
     336:	0900                	addi	s0,sp,144
     338:	0020                	addi	s0,sp,8
     33a:	0001                	nop
     33c:	0402                	c.slli64	s0
     33e:	0340                	addi	s0,sp,388
     340:	0900                	addi	s0,sp,144
     342:	0004                	0x4
     344:	0001                	nop
     346:	0402                	c.slli64	s0
     348:	0340                	addi	s0,sp,388
     34a:	0900                	addi	s0,sp,144
     34c:	0000                	unimp
     34e:	0001                	nop
     350:	0402                	c.slli64	s0
     352:	0340                	addi	s0,sp,388
     354:	0900                	addi	s0,sp,144
     356:	0000                	unimp
     358:	0001                	nop
     35a:	0402                	c.slli64	s0
     35c:	0340                	addi	s0,sp,388
     35e:	0900                	addi	s0,sp,144
     360:	0004                	0x4
     362:	0001                	nop
     364:	0402                	c.slli64	s0
     366:	0340                	addi	s0,sp,388
     368:	0900                	addi	s0,sp,144
     36a:	000c                	0xc
     36c:	0001                	nop
     36e:	0402                	c.slli64	s0
     370:	037a                	slli	t1,t1,0x1e
     372:	0900                	addi	s0,sp,144
     374:	0004                	0x4
     376:	0001                	nop
     378:	01b60403          	lb	s0,27(a2)
     37c:	08090003          	lb	zero,128(s2)
     380:	0100                	addi	s0,sp,128
     382:	0300                	addi	s0,sp,384
     384:	b604                	fsd	fs1,40(a2)
     386:	0301                	addi	t1,t1,0
     388:	0900                	addi	s0,sp,144
     38a:	0000                	unimp
     38c:	0001                	nop
     38e:	01b60403          	lb	s0,27(a2)
     392:	04090003          	lb	zero,64(s2)
     396:	0100                	addi	s0,sp,128
     398:	0300                	addi	s0,sp,384
     39a:	b604                	fsd	fs1,40(a2)
     39c:	0301                	addi	t1,t1,0
     39e:	0900                	addi	s0,sp,144
     3a0:	0000                	unimp
     3a2:	0001                	nop
     3a4:	01b60403          	lb	s0,27(a2)
     3a8:	00090003          	lb	zero,0(s2)
     3ac:	0100                	addi	s0,sp,128
     3ae:	0300                	addi	s0,sp,384
     3b0:	b604                	fsd	fs1,40(a2)
     3b2:	0301                	addi	t1,t1,0
     3b4:	0900                	addi	s0,sp,144
     3b6:	0000                	unimp
     3b8:	0601                	addi	a2,a2,0
     3ba:	08090003          	lb	zero,128(s2)
     3be:	0100                	addi	s0,sp,128
     3c0:	0200                	addi	s0,sp,256
     3c2:	3304                	fld	fs1,32(a4)
     3c4:	0306                	slli	t1,t1,0x1
     3c6:	0900                	addi	s0,sp,144
     3c8:	0028                	addi	a0,sp,8
     3ca:	0001                	nop
     3cc:	0402                	c.slli64	s0
     3ce:	063a                	slli	a2,a2,0xe
     3d0:	14090003          	lb	zero,320(s2)
     3d4:	0100                	addi	s0,sp,128
     3d6:	0200                	addi	s0,sp,256
     3d8:	3d04                	fld	fs1,56(a0)
     3da:	0c090003          	lb	zero,192(s2)
     3de:	0100                	addi	s0,sp,128
     3e0:	0200                	addi	s0,sp,256
     3e2:	3d04                	fld	fs1,56(a0)
     3e4:	0306                	slli	t1,t1,0x1
     3e6:	0900                	addi	s0,sp,144
     3e8:	000c                	0xc
     3ea:	0001                	nop
     3ec:	0402                	c.slli64	s0
     3ee:	0631                	addi	a2,a2,12
     3f0:	00090003          	lb	zero,0(s2)
     3f4:	0100                	addi	s0,sp,128
     3f6:	0200                	addi	s0,sp,256
     3f8:	3104                	fld	fs1,32(a0)
     3fa:	0306                	slli	t1,t1,0x1
     3fc:	0900                	addi	s0,sp,144
     3fe:	0008                	0x8
     400:	0001                	nop
     402:	0402                	c.slli64	s0
     404:	030a                	slli	t1,t1,0x2
     406:	0900                	addi	s0,sp,144
     408:	000c                	0xc
     40a:	0001                	nop
     40c:	0402                	c.slli64	s0
     40e:	0342                	slli	t1,t1,0x10
     410:	0900                	addi	s0,sp,144
     412:	0004                	0x4
     414:	0001                	nop
     416:	0402                	c.slli64	s0
     418:	0342                	slli	t1,t1,0x10
     41a:	0900                	addi	s0,sp,144
     41c:	0004                	0x4
     41e:	0001                	nop
     420:	0402                	c.slli64	s0
     422:	0342                	slli	t1,t1,0x10
     424:	0900                	addi	s0,sp,144
     426:	0000                	unimp
     428:	0001                	nop
     42a:	0402                	c.slli64	s0
     42c:	0344                	addi	s1,sp,388
     42e:	0900                	addi	s0,sp,144
     430:	0004                	0x4
     432:	0001                	nop
     434:	0402                	c.slli64	s0
     436:	09000347          	fmsub.s	ft6,ft0,fa6,ft1,rne
     43a:	0008                	0x8
     43c:	0001                	nop
     43e:	0402                	c.slli64	s0
     440:	09000347          	fmsub.s	ft6,ft0,fa6,ft1,rne
     444:	0000                	unimp
     446:	0001                	nop
     448:	0402                	c.slli64	s0
     44a:	09000347          	fmsub.s	ft6,ft0,fa6,ft1,rne
     44e:	0004                	0x4
     450:	0001                	nop
     452:	0402                	c.slli64	s0
     454:	0350                	addi	a2,sp,388
     456:	0900                	addi	s0,sp,144
     458:	0004                	0x4
     45a:	0001                	nop
     45c:	0402                	c.slli64	s0
     45e:	0350                	addi	a2,sp,388
     460:	0900                	addi	s0,sp,144
     462:	0000                	unimp
     464:	0001                	nop
     466:	0402                	c.slli64	s0
     468:	0350                	addi	a2,sp,388
     46a:	0900                	addi	s0,sp,144
     46c:	0000                	unimp
     46e:	0001                	nop
     470:	0402                	c.slli64	s0
     472:	0350                	addi	a2,sp,388
     474:	0900                	addi	s0,sp,144
     476:	0004                	0x4
     478:	0001                	nop
     47a:	0402                	c.slli64	s0
     47c:	0351                	addi	t1,t1,20
     47e:	0900                	addi	s0,sp,144
     480:	0010                	0x10
     482:	0601                	addi	a2,a2,0
     484:	08097f03          	0x8097f03
     488:	0100                	addi	s0,sp,128
     48a:	0200                	addi	s0,sp,256
     48c:	4504                	lw	s1,8(a0)
     48e:	0306                	slli	t1,t1,0x1
     490:	0901                	addi	s2,s2,0
     492:	000c                	0xc
     494:	0001                	nop
     496:	0402                	c.slli64	s0
     498:	035f 0900 0008      	0x80900035f
     49e:	0001                	nop
     4a0:	0402                	c.slli64	s0
     4a2:	0368                	addi	a0,sp,396
     4a4:	0900                	addi	s0,sp,144
     4a6:	000c                	0xc
     4a8:	0001                	nop
     4aa:	0402                	c.slli64	s0
     4ac:	0369                	addi	t1,t1,26
     4ae:	0900                	addi	s0,sp,144
     4b0:	0008                	0x8
     4b2:	0001                	nop
     4b4:	0402                	c.slli64	s0
     4b6:	0900036b          	0x900036b
     4ba:	0008                	0x8
     4bc:	0001                	nop
     4be:	0402                	c.slli64	s0
     4c0:	0900036b          	0x900036b
     4c4:	0020                	addi	s0,sp,8
     4c6:	0001                	nop
     4c8:	0402                	c.slli64	s0
     4ca:	0379                	addi	t1,t1,30
     4cc:	0900                	addi	s0,sp,144
     4ce:	0004                	0x4
     4d0:	0001                	nop
     4d2:	0402                	c.slli64	s0
     4d4:	0379                	addi	t1,t1,30
     4d6:	0900                	addi	s0,sp,144
     4d8:	0000                	unimp
     4da:	0001                	nop
     4dc:	0402                	c.slli64	s0
     4de:	0379                	addi	t1,t1,30
     4e0:	0900                	addi	s0,sp,144
     4e2:	0000                	unimp
     4e4:	0001                	nop
     4e6:	0402                	c.slli64	s0
     4e8:	0379                	addi	t1,t1,30
     4ea:	0900                	addi	s0,sp,144
     4ec:	0004                	0x4
     4ee:	0001                	nop
     4f0:	0402                	c.slli64	s0
     4f2:	0379                	addi	t1,t1,30
     4f4:	0900                	addi	s0,sp,144
     4f6:	000c                	0xc
     4f8:	0001                	nop
     4fa:	0402                	c.slli64	s0
     4fc:	0679                	addi	a2,a2,30
     4fe:	00097f03          	0x97f03
     502:	0100                	addi	s0,sp,128
     504:	0200                	addi	s0,sp,256
     506:	6c04                	flw	fs1,24(s0)
     508:	0306                	slli	t1,t1,0x1
     50a:	0901                	addi	s2,s2,0
     50c:	0008                	0x8
     50e:	0001                	nop
     510:	0402                	c.slli64	s0
     512:	00030673          	0x30673
     516:	1409                	addi	s0,s0,-30
     518:	0100                	addi	s0,sp,128
     51a:	0200                	addi	s0,sp,256
     51c:	7604                	flw	fs1,40(a2)
     51e:	0c090003          	lb	zero,192(s2)
     522:	0100                	addi	s0,sp,128
     524:	0200                	addi	s0,sp,256
     526:	7604                	flw	fs1,40(a2)
     528:	0306                	slli	t1,t1,0x1
     52a:	0900                	addi	s0,sp,144
     52c:	000c                	0xc
     52e:	0001                	nop
     530:	0402                	c.slli64	s0
     532:	066a                	slli	a2,a2,0x1a
     534:	00090003          	lb	zero,0(s2)
     538:	0100                	addi	s0,sp,128
     53a:	0200                	addi	s0,sp,256
     53c:	6a04                	flw	fs1,16(a2)
     53e:	0306                	slli	t1,t1,0x1
     540:	0900                	addi	s0,sp,144
     542:	0008                	0x8
     544:	0001                	nop
     546:	0402                	c.slli64	s0
     548:	09000343          	fmadd.s	ft6,ft0,fa6,ft1,rne
     54c:	000c                	0xc
     54e:	0001                	nop
     550:	0402                	c.slli64	s0
     552:	0900037b          	0x900037b
     556:	000c                	0xc
     558:	0001                	nop
     55a:	0402                	c.slli64	s0
     55c:	037d                	addi	t1,t1,31
     55e:	0900                	addi	s0,sp,144
     560:	0008                	0x8
     562:	0001                	nop
     564:	0402                	c.slli64	s0
     566:	037d                	addi	t1,t1,31
     568:	0900                	addi	s0,sp,144
     56a:	0000                	unimp
     56c:	0001                	nop
     56e:	01800403          	lb	s0,24(zero) # 18 <_start+0x18>
     572:	04090003          	lb	zero,64(s2)
     576:	0100                	addi	s0,sp,128
     578:	0300                	addi	s0,sp,384
     57a:	8604                	0x8604
     57c:	0301                	addi	t1,t1,0
     57e:	0900                	addi	s0,sp,144
     580:	0008                	0x8
     582:	0001                	nop
     584:	01860403          	lb	s0,24(a2)
     588:	00090003          	lb	zero,0(s2)
     58c:	0100                	addi	s0,sp,128
     58e:	0300                	addi	s0,sp,384
     590:	8604                	0x8604
     592:	0301                	addi	t1,t1,0
     594:	0900                	addi	s0,sp,144
     596:	0000                	unimp
     598:	0001                	nop
     59a:	01860403          	lb	s0,24(a2)
     59e:	00090003          	lb	zero,0(s2)
     5a2:	0100                	addi	s0,sp,128
     5a4:	0300                	addi	s0,sp,384
     5a6:	8604                	0x8604
     5a8:	0301                	addi	t1,t1,0
     5aa:	0900                	addi	s0,sp,144
     5ac:	0004                	0x4
     5ae:	0001                	nop
     5b0:	01860403          	lb	s0,24(a2)
     5b4:	0c090003          	lb	zero,192(s2)
     5b8:	0100                	addi	s0,sp,128
     5ba:	0300                	addi	s0,sp,384
     5bc:	8604                	0x8604
     5be:	0301                	addi	t1,t1,0
     5c0:	0900                	addi	s0,sp,144
     5c2:	0000                	unimp
     5c4:	0001                	nop
     5c6:	01880403          	lb	s0,24(a6) # 17018 <TOHOST_ADDR+0x15264>
     5ca:	0c090003          	lb	zero,192(s2)
     5ce:	0100                	addi	s0,sp,128
     5d0:	0300                	addi	s0,sp,384
     5d2:	8804                	0x8804
     5d4:	0301                	addi	t1,t1,0
     5d6:	0900                	addi	s0,sp,144
     5d8:	000c                	0xc
     5da:	0001                	nop
     5dc:	03a10403          	lb	s0,58(sp)
     5e0:	04090003          	lb	zero,64(s2)
     5e4:	0100                	addi	s0,sp,128
     5e6:	0300                	addi	s0,sp,384
     5e8:	a104                	fsd	fs1,0(a0)
     5ea:	09010303          	lb	t1,144(sp)
     5ee:	0000                	unimp
     5f0:	0001                	nop
     5f2:	03a10403          	lb	s0,58(sp)
     5f6:	00090003          	lb	zero,0(s2)
     5fa:	0100                	addi	s0,sp,128
     5fc:	0300                	addi	s0,sp,384
     5fe:	a104                	fsd	fs1,0(a0)
     600:	09000303          	lb	t1,144(zero) # 90 <verify_benchmark>
     604:	0000                	unimp
     606:	0001                	nop
     608:	03a10403          	lb	s0,58(sp)
     60c:	00090003          	lb	zero,0(s2)
     610:	0100                	addi	s0,sp,128
     612:	0300                	addi	s0,sp,384
     614:	a104                	fsd	fs1,0(a0)
     616:	09000303          	lb	t1,144(zero) # 90 <verify_benchmark>
     61a:	0000                	unimp
     61c:	0001                	nop
     61e:	0402                	c.slli64	s0
     620:	0325                	addi	t1,t1,9
     622:	0900                	addi	s0,sp,144
     624:	0008                	0x8
     626:	0001                	nop
     628:	0402                	c.slli64	s0
     62a:	0325                	addi	t1,t1,9
     62c:	0900                	addi	s0,sp,144
     62e:	0000                	unimp
     630:	0001                	nop
     632:	0402                	c.slli64	s0
     634:	0325                	addi	t1,t1,9
     636:	0900                	addi	s0,sp,144
     638:	0000                	unimp
     63a:	0001                	nop
     63c:	0402                	c.slli64	s0
     63e:	0325                	addi	t1,t1,9
     640:	0900                	addi	s0,sp,144
     642:	0000                	unimp
     644:	0001                	nop
     646:	0402                	c.slli64	s0
     648:	032c                	addi	a1,sp,392
     64a:	0900                	addi	s0,sp,144
     64c:	000c                	0xc
     64e:	0001                	nop
     650:	0402                	c.slli64	s0
     652:	032c                	addi	a1,sp,392
     654:	0900                	addi	s0,sp,144
     656:	0000                	unimp
     658:	0001                	nop
     65a:	0402                	c.slli64	s0
     65c:	032c                	addi	a1,sp,392
     65e:	0900                	addi	s0,sp,144
     660:	0000                	unimp
     662:	0001                	nop
     664:	0402                	c.slli64	s0
     666:	032c                	addi	a1,sp,392
     668:	0900                	addi	s0,sp,144
     66a:	0004                	0x4
     66c:	0001                	nop
     66e:	0402                	c.slli64	s0
     670:	032c                	addi	a1,sp,392
     672:	0900                	addi	s0,sp,144
     674:	0008                	0x8
     676:	0001                	nop
     678:	01990403          	lb	s0,25(s2)
     67c:	08097f03          	0x8097f03
     680:	0100                	addi	s0,sp,128
     682:	0300                	addi	s0,sp,384
     684:	9904                	0x9904
     686:	0301                	addi	t1,t1,0
     688:	0900                	addi	s0,sp,144
     68a:	0000                	unimp
     68c:	0001                	nop
     68e:	01990403          	lb	s0,25(s2)
     692:	00090003          	lb	zero,0(s2)
     696:	0100                	addi	s0,sp,128
     698:	0300                	addi	s0,sp,384
     69a:	9904                	0x9904
     69c:	0301                	addi	t1,t1,0
     69e:	0900                	addi	s0,sp,144
     6a0:	0000                	unimp
     6a2:	0001                	nop
     6a4:	01990403          	lb	s0,25(s2)
     6a8:	00090003          	lb	zero,0(s2)
     6ac:	0100                	addi	s0,sp,128
     6ae:	0300                	addi	s0,sp,384
     6b0:	9904                	0x9904
     6b2:	0301                	addi	t1,t1,0
     6b4:	0900                	addi	s0,sp,144
     6b6:	0000                	unimp
     6b8:	0001                	nop
     6ba:	019b0403          	lb	s0,25(s6)
     6be:	04090003          	lb	zero,64(s2)
     6c2:	0100                	addi	s0,sp,128
     6c4:	0306                	slli	t1,t1,0x1
     6c6:	0900                	addi	s0,sp,144
     6c8:	0008                	0x8
     6ca:	0001                	nop
     6cc:	0402                	c.slli64	s0
     6ce:	067c                	addi	a5,sp,780
     6d0:	14090003          	lb	zero,320(s2)
     6d4:	0100                	addi	s0,sp,128
     6d6:	0200                	addi	s0,sp,256
     6d8:	7c04                	flw	fs1,56(s0)
     6da:	00090003          	lb	zero,0(s2)
     6de:	0100                	addi	s0,sp,128
     6e0:	0200                	addi	s0,sp,256
     6e2:	7c04                	flw	fs1,56(s0)
     6e4:	00090003          	lb	zero,0(s2)
     6e8:	0100                	addi	s0,sp,128
     6ea:	0200                	addi	s0,sp,256
     6ec:	7c04                	flw	fs1,56(s0)
     6ee:	00090003          	lb	zero,0(s2)
     6f2:	0100                	addi	s0,sp,128
     6f4:	0200                	addi	s0,sp,256
     6f6:	7c04                	flw	fs1,56(s0)
     6f8:	00090003          	lb	zero,0(s2)
     6fc:	0100                	addi	s0,sp,128
     6fe:	0200                	addi	s0,sp,256
     700:	7c04                	flw	fs1,56(s0)
     702:	00090003          	lb	zero,0(s2)
     706:	0100                	addi	s0,sp,128
     708:	0200                	addi	s0,sp,256
     70a:	7c04                	flw	fs1,56(s0)
     70c:	00090003          	lb	zero,0(s2)
     710:	0100                	addi	s0,sp,128
     712:	0200                	addi	s0,sp,256
     714:	7c04                	flw	fs1,56(s0)
     716:	00090003          	lb	zero,0(s2)
     71a:	0100                	addi	s0,sp,128
     71c:	0200                	addi	s0,sp,256
     71e:	7c04                	flw	fs1,56(s0)
     720:	00090003          	lb	zero,0(s2)
     724:	0100                	addi	s0,sp,128
     726:	0200                	addi	s0,sp,256
     728:	7c04                	flw	fs1,56(s0)
     72a:	00090003          	lb	zero,0(s2)
     72e:	0100                	addi	s0,sp,128
     730:	0306                	slli	t1,t1,0x1
     732:	0900                	addi	s0,sp,144
     734:	0008                	0x8
     736:	0001                	nop
     738:	0402                	c.slli64	s0
     73a:	0608                	addi	a0,sp,768
     73c:	28090003          	lb	zero,640(s2)
     740:	0100                	addi	s0,sp,128
     742:	0200                	addi	s0,sp,256
     744:	0804                	addi	s1,sp,16
     746:	00090003          	lb	zero,0(s2)
     74a:	0100                	addi	s0,sp,128
     74c:	0300                	addi	s0,sp,384
     74e:	c804                	sw	s1,16(s0)
     750:	0301                	addi	t1,t1,0
     752:	0900                	addi	s0,sp,144
     754:	0004                	0x4
     756:	0001                	nop
     758:	01c80403          	lb	s0,28(a6)
     75c:	00090003          	lb	zero,0(s2)
     760:	0100                	addi	s0,sp,128
     762:	0300                	addi	s0,sp,384
     764:	c804                	sw	s1,16(s0)
     766:	0301                	addi	t1,t1,0
     768:	0900                	addi	s0,sp,144
     76a:	0000                	unimp
     76c:	0001                	nop
     76e:	01ca0403          	lb	s0,28(s4)
     772:	04090003          	lb	zero,64(s2)
     776:	0100                	addi	s0,sp,128
     778:	0300                	addi	s0,sp,384
     77a:	cd04                	sw	s1,24(a0)
     77c:	0301                	addi	t1,t1,0
     77e:	0900                	addi	s0,sp,144
     780:	0008                	0x8
     782:	0001                	nop
     784:	01cd0403          	lb	s0,28(s10)
     788:	00090003          	lb	zero,0(s2)
     78c:	0100                	addi	s0,sp,128
     78e:	0300                	addi	s0,sp,384
     790:	cd04                	sw	s1,24(a0)
     792:	0301                	addi	t1,t1,0
     794:	0900                	addi	s0,sp,144
     796:	0004                	0x4
     798:	0001                	nop
     79a:	01d60403          	lb	s0,29(a2)
     79e:	04090003          	lb	zero,64(s2)
     7a2:	0100                	addi	s0,sp,128
     7a4:	0300                	addi	s0,sp,384
     7a6:	d604                	sw	s1,40(a2)
     7a8:	0301                	addi	t1,t1,0
     7aa:	0900                	addi	s0,sp,144
     7ac:	0000                	unimp
     7ae:	0001                	nop
     7b0:	01d60403          	lb	s0,29(a2)
     7b4:	00090003          	lb	zero,0(s2)
     7b8:	0100                	addi	s0,sp,128
     7ba:	0300                	addi	s0,sp,384
     7bc:	d604                	sw	s1,40(a2)
     7be:	0301                	addi	t1,t1,0
     7c0:	0900                	addi	s0,sp,144
     7c2:	0004                	0x4
     7c4:	0001                	nop
     7c6:	01d60403          	lb	s0,29(a2)
     7ca:	0c090003          	lb	zero,192(s2)
     7ce:	0100                	addi	s0,sp,128
     7d0:	0300                	addi	s0,sp,384
     7d2:	d604                	sw	s1,40(a2)
     7d4:	0301                	addi	t1,t1,0
     7d6:	0900                	addi	s0,sp,144
     7d8:	0000                	unimp
     7da:	0001                	nop
     7dc:	028f0403          	lb	s0,40(t5) # fffe8028 <TOHOST_ADDR+0xfffe6274>
     7e0:	0306                	slli	t1,t1,0x1
     7e2:	097f                	0x97f
     7e4:	0004                	0x4
     7e6:	0001                	nop
     7e8:	028f0403          	lb	s0,40(t5)
     7ec:	04090103          	lb	sp,64(s2)
     7f0:	0100                	addi	s0,sp,128
     7f2:	0300                	addi	s0,sp,384
     7f4:	d704                	sw	s1,40(a4)
     7f6:	0601                	addi	a2,a2,0
     7f8:	04090003          	lb	zero,64(s2)
     7fc:	0100                	addi	s0,sp,128
     7fe:	0300                	addi	s0,sp,384
     800:	ee04                	fsw	fs1,24(a2)
     802:	0301                	addi	t1,t1,0
     804:	0900                	addi	s0,sp,144
     806:	0008                	0x8
     808:	0001                	nop
     80a:	01ef0403          	lb	s0,30(t5)
     80e:	08090003          	lb	zero,128(s2)
     812:	0100                	addi	s0,sp,128
     814:	0300                	addi	s0,sp,384
     816:	f104                	fsw	fs1,32(a0)
     818:	0301                	addi	t1,t1,0
     81a:	0900                	addi	s0,sp,144
     81c:	0008                	0x8
     81e:	0001                	nop
     820:	01f10403          	lb	s0,31(sp)
     824:	20090003          	lb	zero,512(s2)
     828:	0100                	addi	s0,sp,128
     82a:	0300                	addi	s0,sp,384
     82c:	ff04                	fsw	fs1,56(a4)
     82e:	0301                	addi	t1,t1,0
     830:	0900                	addi	s0,sp,144
     832:	0004                	0x4
     834:	0001                	nop
     836:	01ff0403          	lb	s0,31(t5)
     83a:	00090003          	lb	zero,0(s2)
     83e:	0100                	addi	s0,sp,128
     840:	0300                	addi	s0,sp,384
     842:	ff04                	fsw	fs1,56(a4)
     844:	0301                	addi	t1,t1,0
     846:	0900                	addi	s0,sp,144
     848:	0000                	unimp
     84a:	0001                	nop
     84c:	01ff0403          	lb	s0,31(t5)
     850:	04090003          	lb	zero,64(s2)
     854:	0100                	addi	s0,sp,128
     856:	0300                	addi	s0,sp,384
     858:	ff04                	fsw	fs1,56(a4)
     85a:	0301                	addi	t1,t1,0
     85c:	0900                	addi	s0,sp,144
     85e:	000c                	0xc
     860:	0001                	nop
     862:	02b90403          	lb	s0,43(s2)
     866:	04090003          	lb	zero,64(s2)
     86a:	0100                	addi	s0,sp,128
     86c:	0300                	addi	s0,sp,384
     86e:	f504                	fsw	fs1,40(a0)
     870:	0302                	c.slli64	t1
     872:	0900                	addi	s0,sp,144
     874:	0008                	0x8
     876:	0001                	nop
     878:	02f50403          	lb	s0,47(a0) # 46e43 <TOHOST_ADDR+0x4508f>
     87c:	00090003          	lb	zero,0(s2)
     880:	0100                	addi	s0,sp,128
     882:	0300                	addi	s0,sp,384
     884:	cb04                	sw	s1,16(a4)
     886:	0301                	addi	t1,t1,0
     888:	0900                	addi	s0,sp,144
     88a:	0014                	0x14
     88c:	0001                	nop
     88e:	01e50403          	lb	s0,30(a0)
     892:	08090003          	lb	zero,128(s2)
     896:	0100                	addi	s0,sp,128
     898:	0300                	addi	s0,sp,384
     89a:	f204                	fsw	fs1,32(a2)
     89c:	0301                	addi	t1,t1,0
     89e:	0900                	addi	s0,sp,144
     8a0:	0010                	0x10
     8a2:	0001                	nop
     8a4:	01f90403          	lb	s0,31(s2)
     8a8:	0306                	slli	t1,t1,0x1
     8aa:	0900                	addi	s0,sp,144
     8ac:	0014                	0x14
     8ae:	0001                	nop
     8b0:	01fc0403          	lb	s0,31(s8) # ffff801f <TOHOST_ADDR+0xffff626b>
     8b4:	0c090003          	lb	zero,192(s2)
     8b8:	0100                	addi	s0,sp,128
     8ba:	0300                	addi	s0,sp,384
     8bc:	fc04                	fsw	fs1,56(s0)
     8be:	0601                	addi	a2,a2,0
     8c0:	0c090003          	lb	zero,192(s2)
     8c4:	0100                	addi	s0,sp,128
     8c6:	0300                	addi	s0,sp,384
     8c8:	f004                	fsw	fs1,32(s0)
     8ca:	0601                	addi	a2,a2,0
     8cc:	00090003          	lb	zero,0(s2)
     8d0:	0100                	addi	s0,sp,128
     8d2:	0300                	addi	s0,sp,384
     8d4:	f004                	fsw	fs1,32(s0)
     8d6:	0601                	addi	a2,a2,0
     8d8:	08090003          	lb	zero,128(s2)
     8dc:	0100                	addi	s0,sp,128
     8de:	0300                	addi	s0,sp,384
     8e0:	c904                	sw	s1,16(a0)
     8e2:	0301                	addi	t1,t1,0
     8e4:	0900                	addi	s0,sp,144
     8e6:	000c                	0xc
     8e8:	0001                	nop
     8ea:	02810403          	lb	s0,40(sp)
     8ee:	04090003          	lb	zero,64(s2)
     8f2:	0100                	addi	s0,sp,128
     8f4:	0300                	addi	s0,sp,384
     8f6:	8104                	0x8104
     8f8:	0302                	c.slli64	t1
     8fa:	0900                	addi	s0,sp,144
     8fc:	0004                	0x4
     8fe:	0001                	nop
     900:	02810403          	lb	s0,40(sp)
     904:	00090003          	lb	zero,0(s2)
     908:	0100                	addi	s0,sp,128
     90a:	0300                	addi	s0,sp,384
     90c:	8104                	0x8104
     90e:	0302                	c.slli64	t1
     910:	0900                	addi	s0,sp,144
     912:	0000                	unimp
     914:	0001                	nop
     916:	02830403          	lb	s0,40(t1) # 90002e4 <TOHOST_ADDR+0x8ffe530>
     91a:	04090003          	lb	zero,64(s2)
     91e:	0100                	addi	s0,sp,128
     920:	0300                	addi	s0,sp,384
     922:	8604                	0x8604
     924:	0302                	c.slli64	t1
     926:	0900                	addi	s0,sp,144
     928:	0008                	0x8
     92a:	0001                	nop
     92c:	02860403          	lb	s0,40(a2)
     930:	00090003          	lb	zero,0(s2)
     934:	0100                	addi	s0,sp,128
     936:	0300                	addi	s0,sp,384
     938:	8604                	0x8604
     93a:	0302                	c.slli64	t1
     93c:	0900                	addi	s0,sp,144
     93e:	0004                	0x4
     940:	0001                	nop
     942:	028f0403          	lb	s0,40(t5)
     946:	04090003          	lb	zero,64(s2)
     94a:	0100                	addi	s0,sp,128
     94c:	0300                	addi	s0,sp,384
     94e:	8f04                	0x8f04
     950:	0302                	c.slli64	t1
     952:	0900                	addi	s0,sp,144
     954:	0000                	unimp
     956:	0001                	nop
     958:	028f0403          	lb	s0,40(t5)
     95c:	00090003          	lb	zero,0(s2)
     960:	0100                	addi	s0,sp,128
     962:	0300                	addi	s0,sp,384
     964:	8f04                	0x8f04
     966:	0302                	c.slli64	t1
     968:	0900                	addi	s0,sp,144
     96a:	0004                	0x4
     96c:	0001                	nop
     96e:	028f0403          	lb	s0,40(t5)
     972:	0c090003          	lb	zero,192(s2)
     976:	0100                	addi	s0,sp,128
     978:	0300                	addi	s0,sp,384
     97a:	8f04                	0x8f04
     97c:	0302                	c.slli64	t1
     97e:	0900                	addi	s0,sp,144
     980:	0000                	unimp
     982:	0001                	nop
     984:	02900403          	lb	s0,41(zero) # 29 <_start+0x29>
     988:	08090003          	lb	zero,128(s2)
     98c:	0100                	addi	s0,sp,128
     98e:	0306                	slli	t1,t1,0x1
     990:	097f                	0x97f
     992:	0008                	0x8
     994:	0301                	addi	t1,t1,0
     996:	0901                	addi	s2,s2,0
     998:	0008                	0x8
     99a:	0001                	nop
     99c:	02840403          	lb	s0,40(s0) # ffff8028 <TOHOST_ADDR+0xffff6274>
     9a0:	0306                	slli	t1,t1,0x1
     9a2:	0900                	addi	s0,sp,144
     9a4:	0008                	0x8
     9a6:	0001                	nop
     9a8:	029e0403          	lb	s0,41(t3) # 1a029 <TOHOST_ADDR+0x18275>
     9ac:	08090003          	lb	zero,128(s2)
     9b0:	0100                	addi	s0,sp,128
     9b2:	0300                	addi	s0,sp,384
     9b4:	a704                	fsd	fs1,8(a4)
     9b6:	0302                	c.slli64	t1
     9b8:	0900                	addi	s0,sp,144
     9ba:	000c                	0xc
     9bc:	0001                	nop
     9be:	02a80403          	lb	s0,42(a6)
     9c2:	08090003          	lb	zero,128(s2)
     9c6:	0100                	addi	s0,sp,128
     9c8:	0300                	addi	s0,sp,384
     9ca:	aa04                	fsd	fs1,16(a2)
     9cc:	0302                	c.slli64	t1
     9ce:	0900                	addi	s0,sp,144
     9d0:	0008                	0x8
     9d2:	0001                	nop
     9d4:	02aa0403          	lb	s0,42(s4)
     9d8:	20090003          	lb	zero,512(s2)
     9dc:	0100                	addi	s0,sp,128
     9de:	0300                	addi	s0,sp,384
     9e0:	b804                	fsd	fs1,48(s0)
     9e2:	0302                	c.slli64	t1
     9e4:	0900                	addi	s0,sp,144
     9e6:	0004                	0x4
     9e8:	0001                	nop
     9ea:	02b80403          	lb	s0,43(a6)
     9ee:	00090003          	lb	zero,0(s2)
     9f2:	0100                	addi	s0,sp,128
     9f4:	0300                	addi	s0,sp,384
     9f6:	b804                	fsd	fs1,48(s0)
     9f8:	0302                	c.slli64	t1
     9fa:	0900                	addi	s0,sp,144
     9fc:	0000                	unimp
     9fe:	0001                	nop
     a00:	02b80403          	lb	s0,43(a6)
     a04:	04090003          	lb	zero,64(s2)
     a08:	0100                	addi	s0,sp,128
     a0a:	0300                	addi	s0,sp,384
     a0c:	b804                	fsd	fs1,48(s0)
     a0e:	0302                	c.slli64	t1
     a10:	0900                	addi	s0,sp,144
     a12:	000c                	0xc
     a14:	0001                	nop
     a16:	02b80403          	lb	s0,43(a6)
     a1a:	0306                	slli	t1,t1,0x1
     a1c:	097f                	0x97f
     a1e:	0000                	unimp
     a20:	0001                	nop
     a22:	02ab0403          	lb	s0,42(s6)
     a26:	0306                	slli	t1,t1,0x1
     a28:	0901                	addi	s2,s2,0
     a2a:	000c                	0xc
     a2c:	0001                	nop
     a2e:	02b20403          	lb	s0,43(tp) # 1d02b <TOHOST_ADDR+0x1b277>
     a32:	0306                	slli	t1,t1,0x1
     a34:	0900                	addi	s0,sp,144
     a36:	0014                	0x14
     a38:	0001                	nop
     a3a:	02b50403          	lb	s0,43(a0)
     a3e:	0c090003          	lb	zero,192(s2)
     a42:	0100                	addi	s0,sp,128
     a44:	0300                	addi	s0,sp,384
     a46:	b504                	fsd	fs1,40(a0)
     a48:	0602                	c.slli64	a2
     a4a:	0c090003          	lb	zero,192(s2)
     a4e:	0100                	addi	s0,sp,128
     a50:	0300                	addi	s0,sp,384
     a52:	a904                	fsd	fs1,16(a0)
     a54:	0602                	c.slli64	a2
     a56:	00090003          	lb	zero,0(s2)
     a5a:	0100                	addi	s0,sp,128
     a5c:	0300                	addi	s0,sp,384
     a5e:	a904                	fsd	fs1,16(a0)
     a60:	0602                	c.slli64	a2
     a62:	08090003          	lb	zero,128(s2)
     a66:	0100                	addi	s0,sp,128
     a68:	0300                	addi	s0,sp,384
     a6a:	8204                	0x8204
     a6c:	0302                	c.slli64	t1
     a6e:	0900                	addi	s0,sp,144
     a70:	000c                	0xc
     a72:	0001                	nop
     a74:	02ba0403          	lb	s0,43(s4)
     a78:	0c090003          	lb	zero,192(s2)
     a7c:	0100                	addi	s0,sp,128
     a7e:	0300                	addi	s0,sp,384
     a80:	bc04                	fsd	fs1,56(s0)
     a82:	0302                	c.slli64	t1
     a84:	0900                	addi	s0,sp,144
     a86:	000c                	0xc
     a88:	0001                	nop
     a8a:	02bc0403          	lb	s0,43(s8)
     a8e:	00090003          	lb	zero,0(s2)
     a92:	0100                	addi	s0,sp,128
     a94:	0300                	addi	s0,sp,384
     a96:	be04                	fsd	fs1,56(a2)
     a98:	0302                	c.slli64	t1
     a9a:	0900                	addi	s0,sp,144
     a9c:	0004                	0x4
     a9e:	0001                	nop
     aa0:	02be0403          	lb	s0,43(t3)
     aa4:	00090003          	lb	zero,0(s2)
     aa8:	0100                	addi	s0,sp,128
     aaa:	0306                	slli	t1,t1,0x1
     aac:	097f                	0x97f
     aae:	0004                	0x4
     ab0:	0001                	nop
     ab2:	02bf0403          	lb	s0,43(t5)
     ab6:	0306                	slli	t1,t1,0x1
     ab8:	0901                	addi	s2,s2,0
     aba:	0010                	0x10
     abc:	0001                	nop
     abe:	02c60403          	lb	s0,44(a2)
     ac2:	04090003          	lb	zero,64(s2)
     ac6:	0100                	addi	s0,sp,128
     ac8:	0300                	addi	s0,sp,384
     aca:	c604                	sw	s1,8(a2)
     acc:	0302                	c.slli64	t1
     ace:	0900                	addi	s0,sp,144
     ad0:	0000                	unimp
     ad2:	0001                	nop
     ad4:	02c60403          	lb	s0,44(a2)
     ad8:	00090003          	lb	zero,0(s2)
     adc:	0100                	addi	s0,sp,128
     ade:	0300                	addi	s0,sp,384
     ae0:	c604                	sw	s1,8(a2)
     ae2:	0302                	c.slli64	t1
     ae4:	0900                	addi	s0,sp,144
     ae6:	0000                	unimp
     ae8:	0001                	nop
     aea:	02c60403          	lb	s0,44(a2)
     aee:	04090003          	lb	zero,64(s2)
     af2:	0100                	addi	s0,sp,128
     af4:	0300                	addi	s0,sp,384
     af6:	c604                	sw	s1,8(a2)
     af8:	0302                	c.slli64	t1
     afa:	0900                	addi	s0,sp,144
     afc:	000c                	0xc
     afe:	0001                	nop
     b00:	02c60403          	lb	s0,44(a2)
     b04:	00090003          	lb	zero,0(s2)
     b08:	0100                	addi	s0,sp,128
     b0a:	0300                	addi	s0,sp,384
     b0c:	c604                	sw	s1,8(a2)
     b0e:	0302                	c.slli64	t1
     b10:	0900                	addi	s0,sp,144
     b12:	0000                	unimp
     b14:	0001                	nop
     b16:	02c80403          	lb	s0,44(a6)
     b1a:	08090003          	lb	zero,128(s2)
     b1e:	0100                	addi	s0,sp,128
     b20:	0300                	addi	s0,sp,384
     b22:	c804                	sw	s1,16(s0)
     b24:	0302                	c.slli64	t1
     b26:	0900                	addi	s0,sp,144
     b28:	0000                	unimp
     b2a:	0001                	nop
     b2c:	02c80403          	lb	s0,44(a6)
     b30:	00090003          	lb	zero,0(s2)
     b34:	0100                	addi	s0,sp,128
     b36:	0300                	addi	s0,sp,384
     b38:	c804                	sw	s1,16(s0)
     b3a:	0302                	c.slli64	t1
     b3c:	0900                	addi	s0,sp,144
     b3e:	0004                	0x4
     b40:	0001                	nop
     b42:	02c80403          	lb	s0,44(a6)
     b46:	0c090003          	lb	zero,192(s2)
     b4a:	0100                	addi	s0,sp,128
     b4c:	0300                	addi	s0,sp,384
     b4e:	c804                	sw	s1,16(s0)
     b50:	0302                	c.slli64	t1
     b52:	0900                	addi	s0,sp,144
     b54:	0000                	unimp
     b56:	0001                	nop
     b58:	02c90403          	lb	s0,44(s2)
     b5c:	04090003          	lb	zero,64(s2)
     b60:	0100                	addi	s0,sp,128
     b62:	0306                	slli	t1,t1,0x1
     b64:	0900                	addi	s0,sp,144
     b66:	0008                	0x8
     b68:	0001                	nop
     b6a:	02dc0403          	lb	s0,45(s8)
     b6e:	0306                	slli	t1,t1,0x1
     b70:	0900                	addi	s0,sp,144
     b72:	000c                	0xc
     b74:	0001                	nop
     b76:	02dc0403          	lb	s0,45(s8)
     b7a:	00090003          	lb	zero,0(s2)
     b7e:	0100                	addi	s0,sp,128
     b80:	0300                	addi	s0,sp,384
     b82:	dc04                	sw	s1,56(s0)
     b84:	0302                	c.slli64	t1
     b86:	0900                	addi	s0,sp,144
     b88:	0000                	unimp
     b8a:	0001                	nop
     b8c:	02dc0403          	lb	s0,45(s8)
     b90:	00090003          	lb	zero,0(s2)
     b94:	0100                	addi	s0,sp,128
     b96:	0300                	addi	s0,sp,384
     b98:	dc04                	sw	s1,56(s0)
     b9a:	0302                	c.slli64	t1
     b9c:	0900                	addi	s0,sp,144
     b9e:	0000                	unimp
     ba0:	0001                	nop
     ba2:	02dc0403          	lb	s0,45(s8)
     ba6:	00090003          	lb	zero,0(s2)
     baa:	0100                	addi	s0,sp,128
     bac:	0300                	addi	s0,sp,384
     bae:	dd04                	sw	s1,56(a0)
     bb0:	0302                	c.slli64	t1
     bb2:	0900                	addi	s0,sp,144
     bb4:	0004                	0x4
     bb6:	0601                	addi	a2,a2,0
     bb8:	04097f03          	0x4097f03
     bbc:	0100                	addi	s0,sp,128
     bbe:	08090103          	lb	sp,128(s2)
     bc2:	0100                	addi	s0,sp,128
     bc4:	0300                	addi	s0,sp,384
     bc6:	de04                	sw	s1,56(a2)
     bc8:	0602                	c.slli64	a2
     bca:	08090003          	lb	zero,128(s2)
     bce:	0100                	addi	s0,sp,128
     bd0:	0300                	addi	s0,sp,384
     bd2:	bb04                	fsd	fs1,48(a4)
     bd4:	0302                	c.slli64	t1
     bd6:	0900                	addi	s0,sp,144
     bd8:	0008                	0x8
     bda:	0001                	nop
     bdc:	02bb0403          	lb	s0,43(s6)
     be0:	00090003          	lb	zero,0(s2)
     be4:	0100                	addi	s0,sp,128
     be6:	0300                	addi	s0,sp,384
     be8:	bb04                	fsd	fs1,48(a4)
     bea:	0302                	c.slli64	t1
     bec:	0900                	addi	s0,sp,144
     bee:	0000                	unimp
     bf0:	0001                	nop
     bf2:	02bb0403          	lb	s0,43(s6)
     bf6:	00090003          	lb	zero,0(s2)
     bfa:	0100                	addi	s0,sp,128
     bfc:	0300                	addi	s0,sp,384
     bfe:	bb04                	fsd	fs1,48(a4)
     c00:	0302                	c.slli64	t1
     c02:	0900                	addi	s0,sp,144
     c04:	0004                	0x4
     c06:	0001                	nop
     c08:	02bb0403          	lb	s0,43(s6)
     c0c:	0c090003          	lb	zero,192(s2)
     c10:	0100                	addi	s0,sp,128
     c12:	0300                	addi	s0,sp,384
     c14:	bb04                	fsd	fs1,48(a4)
     c16:	0302                	c.slli64	t1
     c18:	0900                	addi	s0,sp,144
     c1a:	0000                	unimp
     c1c:	0001                	nop
     c1e:	02bb0403          	lb	s0,43(s6)
     c22:	00090003          	lb	zero,0(s2)
     c26:	0100                	addi	s0,sp,128
     c28:	0300                	addi	s0,sp,384
     c2a:	ee04                	fsw	fs1,24(a2)
     c2c:	0302                	c.slli64	t1
     c2e:	0900                	addi	s0,sp,144
     c30:	0008                	0x8
     c32:	0001                	nop
     c34:	02ee0403          	lb	s0,46(t3)
     c38:	00090003          	lb	zero,0(s2)
     c3c:	0100                	addi	s0,sp,128
     c3e:	0300                	addi	s0,sp,384
     c40:	ee04                	fsw	fs1,24(a2)
     c42:	0302                	c.slli64	t1
     c44:	0900                	addi	s0,sp,144
     c46:	0000                	unimp
     c48:	0001                	nop
     c4a:	02ee0403          	lb	s0,46(t3)
     c4e:	04090003          	lb	zero,64(s2)
     c52:	0100                	addi	s0,sp,128
     c54:	0300                	addi	s0,sp,384
     c56:	ee04                	fsw	fs1,24(a2)
     c58:	0302                	c.slli64	t1
     c5a:	0900                	addi	s0,sp,144
     c5c:	000c                	0xc
     c5e:	0001                	nop
     c60:	02ee0403          	lb	s0,46(t3)
     c64:	00090003          	lb	zero,0(s2)
     c68:	0100                	addi	s0,sp,128
     c6a:	0300                	addi	s0,sp,384
     c6c:	f704                	fsw	fs1,40(a4)
     c6e:	0302                	c.slli64	t1
     c70:	0900                	addi	s0,sp,144
     c72:	0004                	0x4
     c74:	0001                	nop
     c76:	02f70403          	lb	s0,47(a4) # 48e89 <TOHOST_ADDR+0x470d5>
     c7a:	00090003          	lb	zero,0(s2)
     c7e:	0100                	addi	s0,sp,128
     c80:	0300                	addi	s0,sp,384
     c82:	fa04                	fsw	fs1,48(a2)
     c84:	0302                	c.slli64	t1
     c86:	0900                	addi	s0,sp,144
     c88:	0004                	0x4
     c8a:	0001                	nop
     c8c:	02fa0403          	lb	s0,47(s4)
     c90:	00090003          	lb	zero,0(s2)
     c94:	0100                	addi	s0,sp,128
     c96:	0300                	addi	s0,sp,384
     c98:	fa04                	fsw	fs1,48(a2)
     c9a:	0302                	c.slli64	t1
     c9c:	0900                	addi	s0,sp,144
     c9e:	0000                	unimp
     ca0:	0001                	nop
     ca2:	02fa0403          	lb	s0,47(s4)
     ca6:	00090003          	lb	zero,0(s2)
     caa:	0100                	addi	s0,sp,128
     cac:	0300                	addi	s0,sp,384
     cae:	8504                	0x8504
     cb0:	09000303          	lb	t1,144(zero) # 90 <verify_benchmark>
     cb4:	0008                	0x8
     cb6:	0001                	nop
     cb8:	03850403          	lb	s0,56(a0)
     cbc:	04090003          	lb	zero,64(s2)
     cc0:	0100                	addi	s0,sp,128
     cc2:	0300                	addi	s0,sp,384
     cc4:	8604                	0x8604
     cc6:	09000303          	lb	t1,144(zero) # 90 <verify_benchmark>
     cca:	0008                	0x8
     ccc:	0001                	nop
     cce:	03860403          	lb	s0,56(a2)
     cd2:	00090003          	lb	zero,0(s2)
     cd6:	0100                	addi	s0,sp,128
     cd8:	0300                	addi	s0,sp,384
     cda:	8604                	0x8604
     cdc:	09000303          	lb	t1,144(zero) # 90 <verify_benchmark>
     ce0:	0014                	0x14
     ce2:	0001                	nop
     ce4:	038f0403          	lb	s0,56(t5)
     ce8:	04090003          	lb	zero,64(s2)
     cec:	0100                	addi	s0,sp,128
     cee:	0300                	addi	s0,sp,384
     cf0:	9004                	0x9004
     cf2:	09000303          	lb	t1,144(zero) # 90 <verify_benchmark>
     cf6:	0004                	0x4
     cf8:	0001                	nop
     cfa:	03900403          	lb	s0,57(zero) # 39 <_start+0x39>
     cfe:	08090003          	lb	zero,128(s2)
     d02:	0100                	addi	s0,sp,128
     d04:	0300                	addi	s0,sp,384
     d06:	9204                	0x9204
     d08:	09000303          	lb	t1,144(zero) # 90 <verify_benchmark>
     d0c:	0008                	0x8
     d0e:	0001                	nop
     d10:	03920403          	lb	s0,57(tp) # 39 <_start+0x39>
     d14:	20090003          	lb	zero,512(s2)
     d18:	0100                	addi	s0,sp,128
     d1a:	0300                	addi	s0,sp,384
     d1c:	9e04                	0x9e04
     d1e:	00030603          	lb	a2,0(t1)
     d22:	0409                	addi	s0,s0,2
     d24:	0100                	addi	s0,sp,128
     d26:	0300                	addi	s0,sp,384
     d28:	ef04                	fsw	fs1,24(a4)
     d2a:	0602                	c.slli64	a2
     d2c:	08090003          	lb	zero,128(s2)
     d30:	0100                	addi	s0,sp,128
     d32:	0306                	slli	t1,t1,0x1
     d34:	0900                	addi	s0,sp,144
     d36:	000c                	0xc
     d38:	0001                	nop
     d3a:	02fe0403          	lb	s0,47(t3)
     d3e:	0306                	slli	t1,t1,0x1
     d40:	0900                	addi	s0,sp,144
     d42:	0008                	0x8
     d44:	0001                	nop
     d46:	02fe0403          	lb	s0,47(t3)
     d4a:	00090003          	lb	zero,0(s2)
     d4e:	0100                	addi	s0,sp,128
     d50:	0300                	addi	s0,sp,384
     d52:	fe04                	fsw	fs1,56(a2)
     d54:	0302                	c.slli64	t1
     d56:	0900                	addi	s0,sp,144
     d58:	0000                	unimp
     d5a:	0001                	nop
     d5c:	02fe0403          	lb	s0,47(t3)
     d60:	00090003          	lb	zero,0(s2)
     d64:	0100                	addi	s0,sp,128
     d66:	0300                	addi	s0,sp,384
     d68:	fe04                	fsw	fs1,56(a2)
     d6a:	0302                	c.slli64	t1
     d6c:	0900                	addi	s0,sp,144
     d6e:	0008                	0x8
     d70:	0001                	nop
     d72:	03870403          	lb	s0,56(a4)
     d76:	08090003          	lb	zero,128(s2)
     d7a:	0100                	addi	s0,sp,128
     d7c:	0300                	addi	s0,sp,384
     d7e:	8704                	0x8704
     d80:	09000303          	lb	t1,144(zero) # 90 <verify_benchmark>
     d84:	0008                	0x8
     d86:	0001                	nop
     d88:	03930403          	lb	s0,57(t1)
     d8c:	08090003          	lb	zero,128(s2)
     d90:	0100                	addi	s0,sp,128
     d92:	0300                	addi	s0,sp,384
     d94:	9b04                	0x9b04
     d96:	00030603          	lb	a2,0(t1)
     d9a:	1409                	addi	s0,s0,-30
     d9c:	0100                	addi	s0,sp,128
     d9e:	0300                	addi	s0,sp,384
     da0:	9e04                	0x9e04
     da2:	09000303          	lb	t1,144(zero) # 90 <verify_benchmark>
     da6:	000c                	0xc
     da8:	0001                	nop
     daa:	039e0403          	lb	s0,57(t3)
     dae:	0306                	slli	t1,t1,0x1
     db0:	0900                	addi	s0,sp,144
     db2:	000c                	0xc
     db4:	0001                	nop
     db6:	03910403          	lb	s0,57(sp)
     dba:	08090003          	lb	zero,128(s2)
     dbe:	0100                	addi	s0,sp,128
     dc0:	0300                	addi	s0,sp,384
     dc2:	9104                	0x9104
     dc4:	09000303          	lb	t1,144(zero) # 90 <verify_benchmark>
     dc8:	000c                	0xc
     dca:	0601                	addi	a2,a2,0
     dcc:	08097f03          	0x8097f03
     dd0:	0100                	addi	s0,sp,128
     dd2:	08090103          	lb	sp,128(s2)
     dd6:	0100                	addi	s0,sp,128
     dd8:	08097f03          	0x8097f03
     ddc:	0100                	addi	s0,sp,128
     dde:	0200                	addi	s0,sp,256
     de0:	2f04                	fld	fs1,24(a4)
     de2:	0306                	slli	t1,t1,0x1
     de4:	0902                	c.slli64	s2
     de6:	0018                	0x18
     de8:	0001                	nop
     dea:	0402                	c.slli64	s0
     dec:	0900032f          	0x900032f
     df0:	0000                	unimp
     df2:	0001                	nop
     df4:	0402                	c.slli64	s0
     df6:	0900033f 00010008 	0x100080900033f
     dfe:	0402                	c.slli64	s0
     e00:	0900033f 00010000 	0x100000900033f
     e08:	0402                	c.slli64	s0
     e0a:	0900033f 06010004 	0x60100040900033f
     e12:	08090003          	lb	zero,128(s2)
     e16:	0100                	addi	s0,sp,128
     e18:	0200                	addi	s0,sp,256
     e1a:	4f04                	lw	s1,24(a4)
     e1c:	0306                	slli	t1,t1,0x1
     e1e:	0900                	addi	s0,sp,144
     e20:	000c                	0xc
     e22:	0001                	nop
     e24:	0402                	c.slli64	s0
     e26:	0900034f          	fnmadd.s	ft6,ft0,fa6,ft1,rne
     e2a:	0000                	unimp
     e2c:	0001                	nop
     e2e:	0402                	c.slli64	s0
     e30:	0900034f          	fnmadd.s	ft6,ft0,fa6,ft1,rne
     e34:	000c                	0xc
     e36:	0001                	nop
     e38:	0402                	c.slli64	s0
     e3a:	0900034f          	fnmadd.s	ft6,ft0,fa6,ft1,rne
     e3e:	0008                	0x8
     e40:	0001                	nop
     e42:	0402                	c.slli64	s0
     e44:	0650                	addi	a2,sp,772
     e46:	04090003          	lb	zero,64(s2)
     e4a:	0100                	addi	s0,sp,128
     e4c:	0c090003          	lb	zero,192(s2)
     e50:	0100                	addi	s0,sp,128
     e52:	0200                	addi	s0,sp,256
     e54:	5a04                	lw	s1,48(a2)
     e56:	0306                	slli	t1,t1,0x1
     e58:	0900                	addi	s0,sp,144
     e5a:	000c                	0xc
     e5c:	0001                	nop
     e5e:	0402                	c.slli64	s0
     e60:	035a                	slli	t1,t1,0x16
     e62:	0900                	addi	s0,sp,144
     e64:	0000                	unimp
     e66:	0001                	nop
     e68:	0402                	c.slli64	s0
     e6a:	035a                	slli	t1,t1,0x16
     e6c:	0900                	addi	s0,sp,144
     e6e:	0000                	unimp
     e70:	0001                	nop
     e72:	0402                	c.slli64	s0
     e74:	035a                	slli	t1,t1,0x16
     e76:	0900                	addi	s0,sp,144
     e78:	0000                	unimp
     e7a:	0001                	nop
     e7c:	0402                	c.slli64	s0
     e7e:	035a                	slli	t1,t1,0x16
     e80:	0900                	addi	s0,sp,144
     e82:	0000                	unimp
     e84:	0001                	nop
     e86:	0402                	c.slli64	s0
     e88:	035a                	slli	t1,t1,0x16
     e8a:	0900                	addi	s0,sp,144
     e8c:	0000                	unimp
     e8e:	0001                	nop
     e90:	0402                	c.slli64	s0
     e92:	035a                	slli	t1,t1,0x16
     e94:	0900                	addi	s0,sp,144
     e96:	0000                	unimp
     e98:	0501                	addi	a0,a0,0
     e9a:	0001                	nop
     e9c:	0402                	c.slli64	s0
     e9e:	065a                	slli	a2,a2,0x16
     ea0:	0c090403          	lb	s0,192(s2)
     ea4:	0100                	addi	s0,sp,128
     ea6:	0305                	addi	t1,t1,1
     ea8:	0200                	addi	s0,sp,256
     eaa:	5a04                	lw	s1,48(a2)
     eac:	08097c03          	0x8097c03
     eb0:	0100                	addi	s0,sp,128
     eb2:	0200                	addi	s0,sp,256
     eb4:	5a04                	lw	s1,48(a2)
     eb6:	0306                	slli	t1,t1,0x1
     eb8:	0901                	addi	s2,s2,0
     eba:	0010                	0x10
     ebc:	0001                	nop
     ebe:	0402                	c.slli64	s0
     ec0:	035a                	slli	t1,t1,0x16
     ec2:	0900                	addi	s0,sp,144
     ec4:	0000                	unimp
     ec6:	0001                	nop
     ec8:	0402                	c.slli64	s0
     eca:	035a                	slli	t1,t1,0x16
     ecc:	0902                	c.slli64	s2
     ece:	0000                	unimp
     ed0:	0501                	addi	a0,a0,0
     ed2:	0001                	nop
     ed4:	0402                	c.slli64	s0
     ed6:	065a                	slli	a2,a2,0x16
     ed8:	00090103          	lb	sp,0(s2)
     edc:	0100                	addi	s0,sp,128
     ede:	0305                	addi	t1,t1,1
     ee0:	20097a03          	0x20097a03
     ee4:	0100                	addi	s0,sp,128
     ee6:	08090103          	lb	sp,128(s2)
     eea:	0100                	addi	s0,sp,128
     eec:	3c09                	jal	8fe <simrv_puth+0xe>
     eee:	0000                	unimp
     ef0:	0101                	addi	sp,sp,0
     ef2:	0215                	addi	tp,tp,5
     ef4:	0000                	unimp
     ef6:	00920003          	lb	zero,9(tp) # 9 <_start+0x9>
     efa:	0000                	unimp
     efc:	0101                	addi	sp,sp,0
     efe:	000d0efb          	0xd0efb
     f02:	0101                	addi	sp,sp,0
     f04:	0101                	addi	sp,sp,0
     f06:	0000                	unimp
     f08:	0100                	addi	s0,sp,128
     f0a:	0000                	unimp
     f0c:	2e01                	jal	121c <__floatsidf+0x68>
     f0e:	2f2e                	fld	ft10,200(sp)
     f10:	2e2e                	fld	ft8,200(sp)
     f12:	2f2e2e2f          	0x2f2e2e2f
     f16:	2f2e                	fld	ft10,200(sp)
     f18:	6972                	flw	fs2,28(sp)
     f1a:	2d766373          	csrrsi	t1,0x2d7,12
     f1e:	2f636367          	0x2f636367
     f22:	696c                	flw	fa1,84(a0)
     f24:	6762                	flw	fa4,24(sp)
     f26:	732f6363          	bltu	t5,s2,164c <__clz_tab+0xa4>
     f2a:	2d74666f          	jal	a2,47a00 <TOHOST_ADDR+0x45c4c>
     f2e:	7066                	flw	ft0,120(sp)
     f30:	2e00                	fld	fs0,24(a2)
     f32:	2f2e                	fld	ft10,200(sp)
     f34:	2e2e                	fld	ft8,200(sp)
     f36:	2f2e2e2f          	0x2f2e2e2f
     f3a:	2f2e                	fld	ft10,200(sp)
     f3c:	6972                	flw	fs2,28(sp)
     f3e:	2d766373          	csrrsi	t1,0x2d7,12
     f42:	2f636367          	0x2f636367
     f46:	696c                	flw	fa1,84(a0)
     f48:	6762                	flw	fa4,24(sp)
     f4a:	2e2f6363          	bltu	t5,sp,1230 <__floatsidf+0x7c>
     f4e:	2f2e                	fld	ft10,200(sp)
     f50:	6e69                	lui	t3,0x1a
     f52:	64756c63          	bltu	a0,t2,15aa <__clz_tab+0x2>
     f56:	0065                	c.nop	25
     f58:	6600                	flw	fs0,8(a2)
     f5a:	7869                	lui	a6,0xffffa
     f5c:	6664                	flw	fs1,76(a2)
     f5e:	632e6973          	csrrsi	s2,0x632,28
     f62:	0100                	addi	s0,sp,128
     f64:	0000                	unimp
     f66:	74666f73          	csrrsi	t5,0x746,12
     f6a:	662d                	lui	a2,0xb
     f6c:	2e70                	fld	fa2,216(a2)
     f6e:	0068                	addi	a0,sp,12
     f70:	0001                	nop
     f72:	6400                	flw	fs0,8(s0)
     f74:	6c62756f          	jal	a0,2863a <TOHOST_ADDR+0x26886>
     f78:	2e65                	jal	1330 <__modsi3+0x28>
     f7a:	0068                	addi	a0,sp,12
     f7c:	0001                	nop
     f7e:	6c00                	flw	fs0,24(s0)
     f80:	6c676e6f          	jal	t3,77646 <TOHOST_ADDR+0x75892>
     f84:	2e676e6f          	jal	t3,7726a <TOHOST_ADDR+0x754b6>
     f88:	0068                	addi	a0,sp,12
     f8a:	0002                	c.slli64	zero
     f8c:	0000                	unimp
     f8e:	0105                	addi	sp,sp,1
     f90:	0500                	addi	s0,sp,640
     f92:	3402                	fld	fs0,32(sp)
     f94:	0011                	c.nop	4
     f96:	0300                	addi	s0,sp,384
     f98:	03050123          	sb	a6,34(a0)
     f9c:	00090103          	lb	sp,0(s2)
     fa0:	0100                	addi	s0,sp,128
     fa2:	00090003          	lb	zero,0(s2)
     fa6:	0100                	addi	s0,sp,128
     fa8:	0d05                	addi	s10,s10,1
     faa:	00090003          	lb	zero,0(s2)
     fae:	0100                	addi	s0,sp,128
     fb0:	0305                	addi	t1,t1,1
     fb2:	00090103          	lb	sp,0(s2)
     fb6:	0100                	addi	s0,sp,128
     fb8:	00090003          	lb	zero,0(s2)
     fbc:	0100                	addi	s0,sp,128
     fbe:	00090003          	lb	zero,0(s2)
     fc2:	0100                	addi	s0,sp,128
     fc4:	00090003          	lb	zero,0(s2)
     fc8:	0100                	addi	s0,sp,128
     fca:	00090103          	lb	sp,0(s2)
     fce:	0100                	addi	s0,sp,128
     fd0:	00090203          	lb	tp,0(s2)
     fd4:	0100                	addi	s0,sp,128
     fd6:	00090103          	lb	sp,0(s2)
     fda:	0100                	addi	s0,sp,128
     fdc:	00090003          	lb	zero,0(s2)
     fe0:	0100                	addi	s0,sp,128
     fe2:	00090003          	lb	zero,0(s2)
     fe6:	0100                	addi	s0,sp,128
     fe8:	00090003          	lb	zero,0(s2)
     fec:	0100                	addi	s0,sp,128
     fee:	00090003          	lb	zero,0(s2)
     ff2:	0100                	addi	s0,sp,128
     ff4:	0306                	slli	t1,t1,0x1
     ff6:	0901                	addi	s2,s2,0
     ff8:	0010                	0x10
     ffa:	0301                	addi	t1,t1,0
     ffc:	097f                	0x97f
     ffe:	0004                	0x4
    1000:	0601                	addi	a2,a2,0
    1002:	04090003          	lb	zero,64(s2)
    1006:	0100                	addi	s0,sp,128
    1008:	00090003          	lb	zero,0(s2)
    100c:	0100                	addi	s0,sp,128
    100e:	04090103          	lb	sp,64(s2)
    1012:	0100                	addi	s0,sp,128
    1014:	00090003          	lb	zero,0(s2)
    1018:	0100                	addi	s0,sp,128
    101a:	0200                	addi	s0,sp,256
    101c:	0a04                	addi	s1,sp,272
    101e:	04090003          	lb	zero,64(s2)
    1022:	0100                	addi	s0,sp,128
    1024:	0200                	addi	s0,sp,256
    1026:	0a04                	addi	s1,sp,272
    1028:	00090003          	lb	zero,0(s2)
    102c:	0100                	addi	s0,sp,128
    102e:	0200                	addi	s0,sp,256
    1030:	0d04                	addi	s1,sp,656
    1032:	08090003          	lb	zero,128(s2)
    1036:	0100                	addi	s0,sp,128
    1038:	0200                	addi	s0,sp,256
    103a:	0d04                	addi	s1,sp,656
    103c:	00090003          	lb	zero,0(s2)
    1040:	0100                	addi	s0,sp,128
    1042:	0200                	addi	s0,sp,256
    1044:	0d04                	addi	s1,sp,656
    1046:	00090003          	lb	zero,0(s2)
    104a:	0100                	addi	s0,sp,128
    104c:	0200                	addi	s0,sp,256
    104e:	0d04                	addi	s1,sp,656
    1050:	00090003          	lb	zero,0(s2)
    1054:	0100                	addi	s0,sp,128
    1056:	0200                	addi	s0,sp,256
    1058:	0d04                	addi	s1,sp,656
    105a:	0c090003          	lb	zero,192(s2)
    105e:	0100                	addi	s0,sp,128
    1060:	0200                	addi	s0,sp,256
    1062:	0c04                	addi	s1,sp,528
    1064:	04090003          	lb	zero,64(s2)
    1068:	0100                	addi	s0,sp,128
    106a:	0200                	addi	s0,sp,256
    106c:	0c04                	addi	s1,sp,528
    106e:	00090003          	lb	zero,0(s2)
    1072:	0100                	addi	s0,sp,128
    1074:	0200                	addi	s0,sp,256
    1076:	0c04                	addi	s1,sp,528
    1078:	04090003          	lb	zero,64(s2)
    107c:	0100                	addi	s0,sp,128
    107e:	0200                	addi	s0,sp,256
    1080:	0c04                	addi	s1,sp,528
    1082:	00090003          	lb	zero,0(s2)
    1086:	0100                	addi	s0,sp,128
    1088:	0200                	addi	s0,sp,256
    108a:	1d04                	addi	s1,sp,688
    108c:	10090003          	lb	zero,256(s2)
    1090:	0100                	addi	s0,sp,128
    1092:	0200                	addi	s0,sp,256
    1094:	1d04                	addi	s1,sp,688
    1096:	00090003          	lb	zero,0(s2)
    109a:	0100                	addi	s0,sp,128
    109c:	0200                	addi	s0,sp,256
    109e:	1d04                	addi	s1,sp,688
    10a0:	10090003          	lb	zero,256(s2)
    10a4:	0100                	addi	s0,sp,128
    10a6:	0200                	addi	s0,sp,256
    10a8:	2a04                	fld	fs1,16(a2)
    10aa:	00090003          	lb	zero,0(s2)
    10ae:	0100                	addi	s0,sp,128
    10b0:	0200                	addi	s0,sp,256
    10b2:	2a04                	fld	fs1,16(a2)
    10b4:	00090003          	lb	zero,0(s2)
    10b8:	0100                	addi	s0,sp,128
    10ba:	0200                	addi	s0,sp,256
    10bc:	2c04                	fld	fs1,24(s0)
    10be:	04090003          	lb	zero,64(s2)
    10c2:	0100                	addi	s0,sp,128
    10c4:	0200                	addi	s0,sp,256
    10c6:	2904                	fld	fs1,16(a0)
    10c8:	08090003          	lb	zero,128(s2)
    10cc:	0100                	addi	s0,sp,128
    10ce:	0200                	addi	s0,sp,256
    10d0:	2904                	fld	fs1,16(a0)
    10d2:	00090003          	lb	zero,0(s2)
    10d6:	0100                	addi	s0,sp,128
    10d8:	0200                	addi	s0,sp,256
    10da:	2904                	fld	fs1,16(a0)
    10dc:	0c090003          	lb	zero,192(s2)
    10e0:	0100                	addi	s0,sp,128
    10e2:	0306                	slli	t1,t1,0x1
    10e4:	0900                	addi	s0,sp,144
    10e6:	0004                	0x4
    10e8:	0601                	addi	a2,a2,0
    10ea:	04090103          	lb	sp,64(s2)
    10ee:	0100                	addi	s0,sp,128
    10f0:	00090003          	lb	zero,0(s2)
    10f4:	0100                	addi	s0,sp,128
    10f6:	00090203          	lb	tp,0(s2)
    10fa:	0100                	addi	s0,sp,128
    10fc:	0105                	addi	sp,sp,1
    10fe:	0306                	slli	t1,t1,0x1
    1100:	0901                	addi	s2,s2,0
    1102:	0000                	unimp
    1104:	0901                	addi	s2,s2,0
    1106:	0004                	0x4
    1108:	0100                	addi	s0,sp,128
    110a:	1301                	addi	t1,t1,-32
    110c:	0002                	c.slli64	zero
    110e:	0300                	addi	s0,sp,384
    1110:	9400                	0x9400
    1112:	0000                	unimp
    1114:	0100                	addi	s0,sp,128
    1116:	fb01                	bnez	a4,1026 <__adddf3+0x6b2>
    1118:	0d0e                	slli	s10,s10,0x3
    111a:	0100                	addi	s0,sp,128
    111c:	0101                	addi	sp,sp,0
    111e:	0001                	nop
    1120:	0000                	unimp
    1122:	0001                	nop
    1124:	0100                	addi	s0,sp,128
    1126:	2e2e                	fld	ft8,200(sp)
    1128:	2f2e2e2f          	0x2f2e2e2f
    112c:	2e2e                	fld	ft8,200(sp)
    112e:	722f2e2f          	0x722f2e2f
    1132:	7369                	lui	t1,0xffffa
    1134:	672d7663          	bgeu	s10,s2,17a0 <a+0x3c>
    1138:	6c2f6363          	bltu	t5,sp,17fe <a+0x9a>
    113c:	6269                	lui	tp,0x1a
    113e:	2f636367          	0x2f636367
    1142:	74666f73          	csrrsi	t5,0x746,12
    1146:	662d                	lui	a2,0xb
    1148:	0070                	addi	a2,sp,12
    114a:	2e2e                	fld	ft8,200(sp)
    114c:	2f2e2e2f          	0x2f2e2e2f
    1150:	2e2e                	fld	ft8,200(sp)
    1152:	722f2e2f          	0x722f2e2f
    1156:	7369                	lui	t1,0xffffa
    1158:	672d7663          	bgeu	s10,s2,17c4 <a+0x60>
    115c:	6c2f6363          	bltu	t5,sp,1822 <a+0xbe>
    1160:	6269                	lui	tp,0x1a
    1162:	2f636367          	0x2f636367
    1166:	2e2e                	fld	ft8,200(sp)
    1168:	636e692f          	0x636e692f
    116c:	756c                	flw	fa1,108(a0)
    116e:	6564                	flw	fs1,76(a0)
    1170:	0000                	unimp
    1172:	6c66                	flw	fs8,88(sp)
    1174:	7374616f          	jal	sp,480aa <TOHOST_ADDR+0x462f6>
    1178:	6469                	lui	s0,0x1a
    117a:	2e66                	fld	ft8,88(sp)
    117c:	00010063          	beqz	sp,117c <__fixdfsi+0x48>
    1180:	7300                	flw	fs0,32(a4)
    1182:	2d74666f          	jal	a2,47c58 <TOHOST_ADDR+0x45ea4>
    1186:	7066                	flw	ft0,120(sp)
    1188:	682e                	flw	fa6,200(sp)
    118a:	0100                	addi	s0,sp,128
    118c:	0000                	unimp
    118e:	6f64                	flw	fs1,92(a4)
    1190:	6275                	lui	tp,0x1d
    1192:	656c                	flw	fa1,76(a0)
    1194:	682e                	flw	fa6,200(sp)
    1196:	0100                	addi	s0,sp,128
    1198:	0000                	unimp
    119a:	6f6c                	flw	fa1,92(a4)
    119c:	676e                	flw	fa4,216(sp)
    119e:	6f6c                	flw	fa1,92(a4)
    11a0:	676e                	flw	fa4,216(sp)
    11a2:	682e                	flw	fa6,200(sp)
    11a4:	0200                	addi	s0,sp,256
    11a6:	0000                	unimp
    11a8:	0500                	addi	s0,sp,640
    11aa:	0001                	nop
    11ac:	0205                	addi	tp,tp,1
    11ae:	11b4                	addi	a3,sp,232
    11b0:	0000                	unimp
    11b2:	05012403          	lw	s0,80(sp)
    11b6:	09010303          	lb	t1,144(sp)
    11ba:	0000                	unimp
    11bc:	0301                	addi	t1,t1,0
    11be:	0900                	addi	s0,sp,144
    11c0:	0000                	unimp
    11c2:	0301                	addi	t1,t1,0
    11c4:	0900                	addi	s0,sp,144
    11c6:	0000                	unimp
    11c8:	0301                	addi	t1,t1,0
    11ca:	0900                	addi	s0,sp,144
    11cc:	0000                	unimp
    11ce:	0301                	addi	t1,t1,0
    11d0:	0901                	addi	s2,s2,0
    11d2:	0000                	unimp
    11d4:	0301                	addi	t1,t1,0
    11d6:	0902                	c.slli64	s2
    11d8:	0000                	unimp
    11da:	0301                	addi	t1,t1,0
    11dc:	0900                	addi	s0,sp,144
    11de:	0000                	unimp
    11e0:	0501                	addi	a0,a0,0
    11e2:	0601                	addi	a2,a2,0
    11e4:	00097c03          	0x97c03
    11e8:	0100                	addi	s0,sp,128
    11ea:	0305                	addi	t1,t1,1
    11ec:	10090403          	lb	s0,256(s2)
    11f0:	0100                	addi	s0,sp,128
    11f2:	0200                	addi	s0,sp,256
    11f4:	0104                	addi	s1,sp,128
    11f6:	0306                	slli	t1,t1,0x1
    11f8:	0900                	addi	s0,sp,144
    11fa:	0004                	0x4
    11fc:	0001                	nop
    11fe:	0402                	c.slli64	s0
    1200:	0301                	addi	t1,t1,0
    1202:	0900                	addi	s0,sp,144
    1204:	0000                	unimp
    1206:	0001                	nop
    1208:	0402                	c.slli64	s0
    120a:	0301                	addi	t1,t1,0
    120c:	0900                	addi	s0,sp,144
    120e:	0010                	0x10
    1210:	0001                	nop
    1212:	0402                	c.slli64	s0
    1214:	0301                	addi	t1,t1,0
    1216:	0900                	addi	s0,sp,144
    1218:	0000                	unimp
    121a:	0001                	nop
    121c:	0402                	c.slli64	s0
    121e:	0301                	addi	t1,t1,0
    1220:	0900                	addi	s0,sp,144
    1222:	0000                	unimp
    1224:	0001                	nop
    1226:	0402                	c.slli64	s0
    1228:	0301                	addi	t1,t1,0
    122a:	0900                	addi	s0,sp,144
    122c:	0000                	unimp
    122e:	0001                	nop
    1230:	0402                	c.slli64	s0
    1232:	0301                	addi	t1,t1,0
    1234:	0900                	addi	s0,sp,144
    1236:	0000                	unimp
    1238:	0001                	nop
    123a:	0402                	c.slli64	s0
    123c:	0301                	addi	t1,t1,0
    123e:	0900                	addi	s0,sp,144
    1240:	0000                	unimp
    1242:	0001                	nop
    1244:	0402                	c.slli64	s0
    1246:	0301                	addi	t1,t1,0
    1248:	0900                	addi	s0,sp,144
    124a:	0000                	unimp
    124c:	0001                	nop
    124e:	0402                	c.slli64	s0
    1250:	0301                	addi	t1,t1,0
    1252:	0900                	addi	s0,sp,144
    1254:	0008                	0x8
    1256:	0001                	nop
    1258:	0402                	c.slli64	s0
    125a:	0301                	addi	t1,t1,0
    125c:	0900                	addi	s0,sp,144
    125e:	000c                	0xc
    1260:	0001                	nop
    1262:	0402                	c.slli64	s0
    1264:	0301                	addi	t1,t1,0
    1266:	0900                	addi	s0,sp,144
    1268:	0000                	unimp
    126a:	0001                	nop
    126c:	0402                	c.slli64	s0
    126e:	0301                	addi	t1,t1,0
    1270:	0900                	addi	s0,sp,144
    1272:	0000                	unimp
    1274:	0001                	nop
    1276:	0402                	c.slli64	s0
    1278:	0301                	addi	t1,t1,0
    127a:	0900                	addi	s0,sp,144
    127c:	0000                	unimp
    127e:	0001                	nop
    1280:	0402                	c.slli64	s0
    1282:	0301                	addi	t1,t1,0
    1284:	0900                	addi	s0,sp,144
    1286:	0000                	unimp
    1288:	0001                	nop
    128a:	0402                	c.slli64	s0
    128c:	0301                	addi	t1,t1,0
    128e:	0900                	addi	s0,sp,144
    1290:	0000                	unimp
    1292:	0001                	nop
    1294:	0402                	c.slli64	s0
    1296:	0301                	addi	t1,t1,0
    1298:	0900                	addi	s0,sp,144
    129a:	0000                	unimp
    129c:	0001                	nop
    129e:	0402                	c.slli64	s0
    12a0:	09000317          	auipc	t1,0x9000
    12a4:	0004                	0x4
    12a6:	0001                	nop
    12a8:	0402                	c.slli64	s0
    12aa:	09000317          	auipc	t1,0x9000
    12ae:	0000                	unimp
    12b0:	0001                	nop
    12b2:	0402                	c.slli64	s0
    12b4:	09000317          	auipc	t1,0x9000
    12b8:	0010                	0x10
    12ba:	0001                	nop
    12bc:	0402                	c.slli64	s0
    12be:	09000317          	auipc	t1,0x9000
    12c2:	0004                	0x4
    12c4:	0301                	addi	t1,t1,0
    12c6:	0901                	addi	s2,s2,0
    12c8:	0004                	0x4
    12ca:	0301                	addi	t1,t1,0
    12cc:	0900                	addi	s0,sp,144
    12ce:	0000                	unimp
    12d0:	0301                	addi	t1,t1,0
    12d2:	0900                	addi	s0,sp,144
    12d4:	0000                	unimp
    12d6:	0301                	addi	t1,t1,0
    12d8:	0900                	addi	s0,sp,144
    12da:	0000                	unimp
    12dc:	0301                	addi	t1,t1,0
    12de:	0900                	addi	s0,sp,144
    12e0:	0000                	unimp
    12e2:	0301                	addi	t1,t1,0
    12e4:	0900                	addi	s0,sp,144
    12e6:	0000                	unimp
    12e8:	0301                	addi	t1,t1,0
    12ea:	0900                	addi	s0,sp,144
    12ec:	0000                	unimp
    12ee:	0301                	addi	t1,t1,0
    12f0:	0902                	c.slli64	s2
    12f2:	001c                	0x1c
    12f4:	0501                	addi	a0,a0,0
    12f6:	0601                	addi	a2,a2,0
    12f8:	00090103          	lb	sp,0(s2)
    12fc:	0100                	addi	s0,sp,128
    12fe:	0305                	addi	t1,t1,1
    1300:	0200                	addi	s0,sp,256
    1302:	1804                	addi	s1,sp,48
    1304:	0306                	slli	t1,t1,0x1
    1306:	097c                	addi	a5,sp,156
    1308:	001c                	0x1c
    130a:	0001                	nop
    130c:	0402                	c.slli64	s0
    130e:	0318                	addi	a4,sp,384
    1310:	0900                	addi	s0,sp,144
    1312:	0008                	0x8
    1314:	0601                	addi	a2,a2,0
    1316:	04090003          	lb	zero,64(s2)
    131a:	0100                	addi	s0,sp,128
    131c:	1409                	addi	s0,s0,-30
    131e:	0000                	unimp
    1320:	0101                	addi	sp,sp,0
    1322:	008e                	slli	ra,ra,0x3
    1324:	0000                	unimp
    1326:	00480003          	lb	zero,4(a6) # ffffa004 <TOHOST_ADDR+0xffff8250>
    132a:	0000                	unimp
    132c:	0101                	addi	sp,sp,0
    132e:	000d0efb          	0xd0efb
    1332:	0101                	addi	sp,sp,0
    1334:	0101                	addi	sp,sp,0
    1336:	0000                	unimp
    1338:	0100                	addi	s0,sp,128
    133a:	0000                	unimp
    133c:	2e01                	jal	164c <__clz_tab+0xa4>
    133e:	2f2e                	fld	ft10,200(sp)
    1340:	2e2e                	fld	ft8,200(sp)
    1342:	2f2e2e2f          	0x2f2e2e2f
    1346:	2f2e                	fld	ft10,200(sp)
    1348:	6972                	flw	fs2,28(sp)
    134a:	2d766373          	csrrsi	t1,0x2d7,12
    134e:	2f636367          	0x2f636367
    1352:	696c                	flw	fa1,84(a0)
    1354:	6762                	flw	fa4,24(sp)
    1356:	632f6363          	bltu	t5,s2,197c <a+0x218>
    135a:	69666e6f          	jal	t3,679f0 <TOHOST_ADDR+0x65c3c>
    135e:	69722f67          	0x69722f67
    1362:	00766373          	csrrsi	t1,0x7,12
    1366:	6d00                	flw	fs0,24(a0)
    1368:	6c75                	lui	s8,0x1d
    136a:	6964                	flw	fs1,84(a0)
    136c:	00532e33          	slt	t3,t1,t0
    1370:	0001                	nop
    1372:	0000                	unimp
    1374:	0500                	addi	s0,sp,640
    1376:	6002                	flw	ft0,0(sp)
    1378:	0012                	c.slli	zero,0x4
    137a:	0300                	addi	s0,sp,384
    137c:	0124                	addi	s1,sp,136
    137e:	04090103          	lb	sp,64(s2)
    1382:	0100                	addi	s0,sp,128
    1384:	04090203          	lb	tp,64(s2)
    1388:	0100                	addi	s0,sp,128
    138a:	04090103          	lb	sp,64(s2)
    138e:	0100                	addi	s0,sp,128
    1390:	04090103          	lb	sp,64(s2)
    1394:	0100                	addi	s0,sp,128
    1396:	04090203          	lb	tp,64(s2)
    139a:	0100                	addi	s0,sp,128
    139c:	04090103          	lb	sp,64(s2)
    13a0:	0100                	addi	s0,sp,128
    13a2:	04090103          	lb	sp,64(s2)
    13a6:	0100                	addi	s0,sp,128
    13a8:	04090103          	lb	sp,64(s2)
    13ac:	0100                	addi	s0,sp,128
    13ae:	0409                	addi	s0,s0,2
    13b0:	0000                	unimp
    13b2:	0101                	addi	sp,sp,0
    13b4:	0164                	addi	s1,sp,140
    13b6:	0000                	unimp
    13b8:	00450003          	lb	zero,4(a0)
    13bc:	0000                	unimp
    13be:	0101                	addi	sp,sp,0
    13c0:	000d0efb          	0xd0efb
    13c4:	0101                	addi	sp,sp,0
    13c6:	0101                	addi	sp,sp,0
    13c8:	0000                	unimp
    13ca:	0100                	addi	s0,sp,128
    13cc:	0000                	unimp
    13ce:	2e01                	jal	16de <b+0x1e>
    13d0:	2f2e                	fld	ft10,200(sp)
    13d2:	2e2e                	fld	ft8,200(sp)
    13d4:	2f2e2e2f          	0x2f2e2e2f
    13d8:	2f2e                	fld	ft10,200(sp)
    13da:	6972                	flw	fs2,28(sp)
    13dc:	2d766373          	csrrsi	t1,0x2d7,12
    13e0:	2f636367          	0x2f636367
    13e4:	696c                	flw	fa1,84(a0)
    13e6:	6762                	flw	fa4,24(sp)
    13e8:	632f6363          	bltu	t5,s2,1a0e <a+0x2aa>
    13ec:	69666e6f          	jal	t3,67a82 <TOHOST_ADDR+0x65cce>
    13f0:	69722f67          	0x69722f67
    13f4:	00766373          	csrrsi	t1,0x7,12
    13f8:	6400                	flw	fs0,8(s0)
    13fa:	7669                	lui	a2,0xffffa
    13fc:	532e                	lw	t1,232(sp)
    13fe:	0100                	addi	s0,sp,128
    1400:	0000                	unimp
    1402:	0000                	unimp
    1404:	0205                	addi	tp,tp,1
    1406:	1284                	addi	s1,sp,352
    1408:	0000                	unimp
    140a:	0100c403          	lbu	s0,16(ra)
    140e:	04090103          	lb	sp,64(s2)
    1412:	0100                	addi	s0,sp,128
    1414:	04090403          	lb	s0,64(s2)
    1418:	0100                	addi	s0,sp,128
    141a:	04090103          	lb	sp,64(s2)
    141e:	0100                	addi	s0,sp,128
    1420:	04090103          	lb	sp,64(s2)
    1424:	0100                	addi	s0,sp,128
    1426:	04090103          	lb	sp,64(s2)
    142a:	0100                	addi	s0,sp,128
    142c:	04090103          	lb	sp,64(s2)
    1430:	0100                	addi	s0,sp,128
    1432:	04090103          	lb	sp,64(s2)
    1436:	0100                	addi	s0,sp,128
    1438:	04090203          	lb	tp,64(s2)
    143c:	0100                	addi	s0,sp,128
    143e:	04090103          	lb	sp,64(s2)
    1442:	0100                	addi	s0,sp,128
    1444:	04090103          	lb	sp,64(s2)
    1448:	0100                	addi	s0,sp,128
    144a:	04090103          	lb	sp,64(s2)
    144e:	0100                	addi	s0,sp,128
    1450:	04090203          	lb	tp,64(s2)
    1454:	0100                	addi	s0,sp,128
    1456:	04090203          	lb	tp,64(s2)
    145a:	0100                	addi	s0,sp,128
    145c:	04090103          	lb	sp,64(s2)
    1460:	0100                	addi	s0,sp,128
    1462:	04090103          	lb	sp,64(s2)
    1466:	0100                	addi	s0,sp,128
    1468:	04090203          	lb	tp,64(s2)
    146c:	0100                	addi	s0,sp,128
    146e:	04090103          	lb	sp,64(s2)
    1472:	0100                	addi	s0,sp,128
    1474:	04090103          	lb	sp,64(s2)
    1478:	0100                	addi	s0,sp,128
    147a:	04090203          	lb	tp,64(s2)
    147e:	0100                	addi	s0,sp,128
    1480:	04090503          	lb	a0,64(s2)
    1484:	0100                	addi	s0,sp,128
    1486:	04090103          	lb	sp,64(s2)
    148a:	0100                	addi	s0,sp,128
    148c:	04090103          	lb	sp,64(s2)
    1490:	0100                	addi	s0,sp,128
    1492:	04090103          	lb	sp,64(s2)
    1496:	0100                	addi	s0,sp,128
    1498:	04090503          	lb	a0,64(s2)
    149c:	0100                	addi	s0,sp,128
    149e:	04090103          	lb	sp,64(s2)
    14a2:	0100                	addi	s0,sp,128
    14a4:	04090103          	lb	sp,64(s2)
    14a8:	0100                	addi	s0,sp,128
    14aa:	04090103          	lb	sp,64(s2)
    14ae:	0100                	addi	s0,sp,128
    14b0:	04090203          	lb	tp,64(s2)
    14b4:	0100                	addi	s0,sp,128
    14b6:	04090203          	lb	tp,64(s2)
    14ba:	0100                	addi	s0,sp,128
    14bc:	04090103          	lb	sp,64(s2)
    14c0:	0100                	addi	s0,sp,128
    14c2:	04090103          	lb	sp,64(s2)
    14c6:	0100                	addi	s0,sp,128
    14c8:	04090103          	lb	sp,64(s2)
    14cc:	0100                	addi	s0,sp,128
    14ce:	04090403          	lb	s0,64(s2)
    14d2:	0100                	addi	s0,sp,128
    14d4:	04090103          	lb	sp,64(s2)
    14d8:	0100                	addi	s0,sp,128
    14da:	04090103          	lb	sp,64(s2)
    14de:	0100                	addi	s0,sp,128
    14e0:	04090203          	lb	tp,64(s2)
    14e4:	0100                	addi	s0,sp,128
    14e6:	04090103          	lb	sp,64(s2)
    14ea:	0100                	addi	s0,sp,128
    14ec:	04090103          	lb	sp,64(s2)
    14f0:	0100                	addi	s0,sp,128
    14f2:	04090203          	lb	tp,64(s2)
    14f6:	0100                	addi	s0,sp,128
    14f8:	04090103          	lb	sp,64(s2)
    14fc:	0100                	addi	s0,sp,128
    14fe:	04090203          	lb	tp,64(s2)
    1502:	0100                	addi	s0,sp,128
    1504:	04090103          	lb	sp,64(s2)
    1508:	0100                	addi	s0,sp,128
    150a:	04090103          	lb	sp,64(s2)
    150e:	0100                	addi	s0,sp,128
    1510:	04090103          	lb	sp,64(s2)
    1514:	0100                	addi	s0,sp,128
    1516:	0409                	addi	s0,s0,2
    1518:	0000                	unimp
    151a:	0101                	addi	sp,sp,0
    151c:	0295                	addi	t0,t0,5
    151e:	0000                	unimp
    1520:	020d0003          	lb	zero,32(s10)
    1524:	0000                	unimp
    1526:	0101                	addi	sp,sp,0
    1528:	000d0efb          	0xd0efb
    152c:	0101                	addi	sp,sp,0
    152e:	0101                	addi	sp,sp,0
    1530:	0000                	unimp
    1532:	0100                	addi	s0,sp,128
    1534:	0000                	unimp
    1536:	2e01                	jal	1846 <a+0xe2>
    1538:	2f2e                	fld	ft10,200(sp)
    153a:	2e2e                	fld	ft8,200(sp)
    153c:	2f2e2e2f          	0x2f2e2e2f
    1540:	2f2e                	fld	ft10,200(sp)
    1542:	6972                	flw	fs2,28(sp)
    1544:	2d766373          	csrrsi	t1,0x2d7,12
    1548:	2f636367          	0x2f636367
    154c:	696c                	flw	fa1,84(a0)
    154e:	6762                	flw	fa4,24(sp)
    1550:	2f006363          	bltu	zero,a6,1836 <a+0xd2>
    1554:	6f68                	flw	fa0,92(a4)
    1556:	656d                	lui	a0,0x1b
    1558:	79696d2f          	0x79696d2f
    155c:	7a61                	lui	s4,0xffff8
    155e:	6b61                	lui	s6,0x18
    1560:	2f69                	jal	1cfa <a+0x596>
    1562:	6c2e                	flw	fs8,200(sp)
    1564:	6c61636f          	jal	t1,17c2a <TOHOST_ADDR+0x15e76>
    1568:	7369722f          	0x7369722f
    156c:	652f7663          	bgeu	t5,s2,1bb8 <a+0x454>
    1570:	666c                	flw	fa1,76(a2)
    1572:	3376722f          	0x3376722f
    1576:	6932                	flw	fs2,12(sp)
    1578:	7369722f          	0x7369722f
    157c:	32337663          	bgeu	t1,gp,18a8 <a+0x144>
    1580:	752d                	lui	a0,0xfffeb
    1582:	6b6e                	flw	fs6,216(sp)
    1584:	6f6e                	flw	ft10,216(sp)
    1586:	652d6e77          	0x652d6e77
    158a:	666c                	flw	fa1,76(a2)
    158c:	636e692f          	0x636e692f
    1590:	756c                	flw	fa1,108(a0)
    1592:	6564                	flw	fs1,76(a0)
    1594:	7379732f          	0x7379732f
    1598:	2f00                	fld	fs0,24(a4)
    159a:	6f68                	flw	fa0,92(a4)
    159c:	656d                	lui	a0,0x1b
    159e:	79696d2f          	0x79696d2f
    15a2:	7a61                	lui	s4,0xffff8
    15a4:	6b61                	lui	s6,0x18
    15a6:	2f69                	jal	1d40 <a+0x5dc>
    15a8:	6c2e                	flw	fs8,200(sp)
    15aa:	6c61636f          	jal	t1,17c70 <TOHOST_ADDR+0x15ebc>
    15ae:	7369722f          	0x7369722f
    15b2:	672d7663          	bgeu	s10,s2,1c1e <a+0x4ba>
    15b6:	756e                	flw	fa0,248(sp)
    15b8:	742d                	lui	s0,0xfffeb
    15ba:	636c6f6f          	jal	t5,c7bf0 <TOHOST_ADDR+0xc5e3c>
    15be:	6168                	flw	fa0,68(a0)
    15c0:	6e69                	lui	t3,0x1a
    15c2:	6975622f          	0x6975622f
    15c6:	646c                	flw	fa1,76(s0)
    15c8:	672d                	lui	a4,0xb
    15ca:	6e2d6363          	bltu	s10,sp,1cb0 <a+0x54c>
    15ce:	7765                	lui	a4,0xffff9
    15d0:	696c                	flw	fa1,84(a0)
    15d2:	2d62                	fld	fs10,24(sp)
    15d4:	67617473          	csrrci	s0,0x676,2
    15d8:	3265                	jal	f80 <__adddf3+0x60c>
    15da:	6363672f          	0x6363672f
    15de:	636e692f          	0x636e692f
    15e2:	756c                	flw	fa1,108(a0)
    15e4:	6564                	flw	fs1,76(a0)
    15e6:	2f00                	fld	fs0,24(a4)
    15e8:	6f68                	flw	fa0,92(a4)
    15ea:	656d                	lui	a0,0x1b
    15ec:	79696d2f          	0x79696d2f
    15f0:	7a61                	lui	s4,0xffff8
    15f2:	6b61                	lui	s6,0x18
    15f4:	2f69                	jal	1d8e <a+0x62a>
    15f6:	6c2e                	flw	fs8,200(sp)
    15f8:	6c61636f          	jal	t1,17cbe <TOHOST_ADDR+0x15f0a>
    15fc:	7369722f          	0x7369722f
    1600:	652f7663          	bgeu	t5,s2,1c4c <a+0x4e8>
    1604:	666c                	flw	fa1,76(a2)
    1606:	3376722f          	0x3376722f
    160a:	6932                	flw	fs2,12(sp)
    160c:	7369722f          	0x7369722f
    1610:	32337663          	bgeu	t1,gp,193c <a+0x1d8>
    1614:	752d                	lui	a0,0xfffeb
    1616:	6b6e                	flw	fs6,216(sp)
    1618:	6f6e                	flw	ft10,216(sp)
    161a:	652d6e77          	0x652d6e77
    161e:	666c                	flw	fa1,76(a2)
    1620:	636e692f          	0x636e692f
    1624:	756c                	flw	fa1,108(a0)
    1626:	6564                	flw	fs1,76(a0)
    1628:	2e00                	fld	fs0,24(a2)
    162a:	2f2e                	fld	ft10,200(sp)
    162c:	2e2e                	fld	ft8,200(sp)
    162e:	2f2e2e2f          	0x2f2e2e2f
    1632:	2f2e                	fld	ft10,200(sp)
    1634:	6972                	flw	fs2,28(sp)
    1636:	2d766373          	csrrsi	t1,0x2d7,12
    163a:	2f636367          	0x2f636367
    163e:	696c                	flw	fa1,84(a0)
    1640:	6762                	flw	fa4,24(sp)
    1642:	2e2f6363          	bltu	t5,sp,1928 <a+0x1c4>
    1646:	2f2e                	fld	ft10,200(sp)
    1648:	6e69                	lui	t3,0x1a
    164a:	64756c63          	bltu	a0,t2,1ca2 <a+0x53e>
    164e:	0065                	c.nop	25
    1650:	2e2e                	fld	ft8,200(sp)
    1652:	2f2e2e2f          	0x2f2e2e2f
    1656:	2e2e                	fld	ft8,200(sp)
    1658:	722f2e2f          	0x722f2e2f
    165c:	7369                	lui	t1,0xffffa
    165e:	672d7663          	bgeu	s10,s2,1cca <a+0x566>
    1662:	6c2f6363          	bltu	t5,sp,1d28 <a+0x5c4>
    1666:	6269                	lui	tp,0x1a
    1668:	2f636367          	0x2f636367
    166c:	2e2e                	fld	ft8,200(sp)
    166e:	6363672f          	0x6363672f
    1672:	6e6f632f          	0x6e6f632f
    1676:	6966                	flw	fs2,88(sp)
    1678:	69722f67          	0x69722f67
    167c:	00766373          	csrrsi	t1,0x7,12
    1680:	2e2e                	fld	ft8,200(sp)
    1682:	2f2e2e2f          	0x2f2e2e2f
    1686:	2f2e                	fld	ft10,200(sp)
    1688:	00636367          	0x636367
    168c:	6c00                	flw	fs0,24(s0)
    168e:	6269                	lui	tp,0x1a
    1690:	32636367          	0x32636367
    1694:	632e                	flw	ft6,200(sp)
    1696:	0100                	addi	s0,sp,128
    1698:	0000                	unimp
    169a:	6f6c                	flw	fa1,92(a4)
    169c:	682e6b63          	bltu	t3,sp,1d32 <a+0x5ce>
    16a0:	0200                	addi	s0,sp,256
    16a2:	0000                	unimp
    16a4:	745f 7079 7365      	0x73657079745f
    16aa:	682e                	flw	fa6,200(sp)
    16ac:	0200                	addi	s0,sp,256
    16ae:	0000                	unimp
    16b0:	64647473          	csrrci	s0,0x646,8
    16b4:	6665                	lui	a2,0x19
    16b6:	682e                	flw	fa6,200(sp)
    16b8:	0300                	addi	s0,sp,384
    16ba:	0000                	unimp
    16bc:	6572                	flw	fa0,28(sp)
    16be:	6e65                	lui	t3,0x19
    16c0:	2e74                	fld	fa3,216(a2)
    16c2:	0068                	addi	a0,sp,12
    16c4:	0002                	c.slli64	zero
    16c6:	6500                	flw	fs0,8(a0)
    16c8:	7272                	flw	ft4,60(sp)
    16ca:	6f6e                	flw	ft10,216(sp)
    16cc:	682e                	flw	fa6,200(sp)
    16ce:	0200                	addi	s0,sp,256
    16d0:	0000                	unimp
    16d2:	6c647473          	csrrci	s0,0x6c6,8
    16d6:	6269                	lui	tp,0x1a
    16d8:	682e                	flw	fa6,200(sp)
    16da:	0400                	addi	s0,sp,512
    16dc:	0000                	unimp
    16de:	6e75                	lui	t3,0x1d
    16e0:	7369                	lui	t1,0xffffa
    16e2:	6474                	flw	fa3,76(s0)
    16e4:	682e                	flw	fa6,200(sp)
    16e6:	0200                	addi	s0,sp,256
    16e8:	0000                	unimp
    16ea:	6974                	flw	fa3,84(a0)
    16ec:	656d                	lui	a0,0x1b
    16ee:	682e                	flw	fa6,200(sp)
    16f0:	0400                	addi	s0,sp,512
    16f2:	0000                	unimp
    16f4:	6168                	flw	fa0,68(a0)
    16f6:	61746873          	csrrsi	a6,0x617,8
    16fa:	2e62                	fld	ft8,24(sp)
    16fc:	0068                	addi	a0,sp,12
    16fe:	0005                	c.nop	1
    1700:	7200                	flw	fs0,32(a2)
    1702:	7369                	lui	t1,0xffffa
    1704:	6f2d7663          	bgeu	s10,s2,1df0 <TOHOST_ADDR+0x3c>
    1708:	7470                	flw	fa2,108(s0)
    170a:	00682e73          	csrrs	t3,0x6,a6
    170e:	0006                	c.slli	zero,0x1
    1710:	6900                	flw	fs0,16(a0)
    1712:	736e                	flw	ft6,248(sp)
    1714:	2d6e                	fld	fs10,216(sp)
    1716:	736e6f63          	bltu	t3,s6,1e54 <TOHOST_ADDR+0xa0>
    171a:	6174                	flw	fa3,68(a0)
    171c:	746e                	flw	fs0,248(sp)
    171e:	00682e73          	csrrs	t3,0x6,a6
    1722:	6c000007          	0x6c000007
    1726:	6269                	lui	tp,0x1a
    1728:	32636367          	0x32636367
    172c:	682e                	flw	fa6,200(sp)
    172e:	0100                	addi	s0,sp,128
    1730:	0000                	unimp
    1732:	0500                	addi	s0,sp,640
    1734:	0001                	nop
    1736:	0205                	addi	tp,tp,1
    1738:	1338                	addi	a4,sp,424
    173a:	0000                	unimp
    173c:	0105c203          	lbu	tp,16(a1)
    1740:	0305                	addi	t1,t1,1
    1742:	00090103          	lb	sp,0(s2)
    1746:	0100                	addi	s0,sp,128
    1748:	00090203          	lb	tp,0(s2)
    174c:	0100                	addi	s0,sp,128
    174e:	00090003          	lb	zero,0(s2)
    1752:	0100                	addi	s0,sp,128
    1754:	00090003          	lb	zero,0(s2)
    1758:	0100                	addi	s0,sp,128
    175a:	00090003          	lb	zero,0(s2)
    175e:	0100                	addi	s0,sp,128
    1760:	00090003          	lb	zero,0(s2)
    1764:	0100                	addi	s0,sp,128
    1766:	0200                	addi	s0,sp,256
    1768:	0304                	addi	s1,sp,384
    176a:	0306                	slli	t1,t1,0x1
    176c:	0900                	addi	s0,sp,144
    176e:	0008                	0x8
    1770:	0001                	nop
    1772:	0402                	c.slli64	s0
    1774:	060e                	slli	a2,a2,0x3
    1776:	0c090003          	lb	zero,192(s2)
    177a:	0100                	addi	s0,sp,128
    177c:	0200                	addi	s0,sp,256
    177e:	0e04                	addi	s1,sp,784
    1780:	00090203          	lb	tp,0(s2)
    1784:	0100                	addi	s0,sp,128
    1786:	0200                	addi	s0,sp,256
    1788:	0e04                	addi	s1,sp,784
    178a:	0306                	slli	t1,t1,0x1
    178c:	097e                	slli	s2,s2,0x1f
    178e:	0000                	unimp
    1790:	0501                	addi	a0,a0,0
    1792:	0001                	nop
    1794:	0402                	c.slli64	s0
    1796:	030e                	slli	t1,t1,0x3
    1798:	001c0903          	lb	s2,1(s8) # 1d001 <TOHOST_ADDR+0x1b24d>
    179c:	0501                	addi	a0,a0,0
    179e:	04020003          	lb	zero,64(tp) # 1a040 <TOHOST_ADDR+0x1828c>
    17a2:	0304                	addi	s1,sp,384
    17a4:	097d                	addi	s2,s2,31
    17a6:	0008                	0x8
    17a8:	0301                	addi	t1,t1,0
    17aa:	0900                	addi	s0,sp,144
    17ac:	000c                	0xc
    17ae:	0901                	addi	s2,s2,0
    17b0:	0008                	0x8
    17b2:	0100                	addi	s0,sp,128
    17b4:	1301                	addi	t1,t1,-32
    17b6:	0002                	c.slli64	zero
    17b8:	0300                	addi	s0,sp,384
    17ba:	0d00                	addi	s0,sp,656
    17bc:	0002                	c.slli64	zero
    17be:	0100                	addi	s0,sp,128
    17c0:	fb01                	bnez	a4,16d0 <b+0x10>
    17c2:	0d0e                	slli	s10,s10,0x3
    17c4:	0100                	addi	s0,sp,128
    17c6:	0101                	addi	sp,sp,0
    17c8:	0001                	nop
    17ca:	0000                	unimp
    17cc:	0001                	nop
    17ce:	0100                	addi	s0,sp,128
    17d0:	6d6f682f          	0x6d6f682f
    17d4:	2f65                	jal	1f8c <TOHOST_ADDR+0x1d8>
    17d6:	696d                	lui	s2,0x1b
    17d8:	6179                	addi	sp,sp,464
    17da:	617a                	flw	ft2,156(sp)
    17dc:	2e2f696b          	0x2e2f696b
    17e0:	6f6c                	flw	fa1,92(a4)
    17e2:	2f6c6163          	bltu	s8,s6,1ac4 <a+0x360>
    17e6:	6972                	flw	fs2,28(sp)
    17e8:	2f766373          	csrrsi	t1,0x2f7,12
    17ec:	6c65                	lui	s8,0x19
    17ee:	2f66                	fld	ft10,88(sp)
    17f0:	7672                	flw	fa2,60(sp)
    17f2:	2f693233          	0x2f693233
    17f6:	6972                	flw	fs2,28(sp)
    17f8:	33766373          	csrrsi	t1,mhpmevent23,12
    17fc:	2d32                	fld	fs10,264(sp)
    17fe:	6e75                	lui	t3,0x1d
    1800:	776f6e6b          	0x776f6e6b
    1804:	2d6e                	fld	fs10,216(sp)
    1806:	6c65                	lui	s8,0x19
    1808:	2f66                	fld	ft10,88(sp)
    180a:	6e69                	lui	t3,0x1a
    180c:	64756c63          	bltu	a0,t2,1e64 <TOHOST_ADDR+0xb0>
    1810:	2f65                	jal	1fc8 <TOHOST_ADDR+0x214>
    1812:	00737973          	csrrci	s2,0x7,6
    1816:	6d6f682f          	0x6d6f682f
    181a:	2f65                	jal	1fd2 <TOHOST_ADDR+0x21e>
    181c:	696d                	lui	s2,0x1b
    181e:	6179                	addi	sp,sp,464
    1820:	617a                	flw	ft2,156(sp)
    1822:	2e2f696b          	0x2e2f696b
    1826:	6f6c                	flw	fa1,92(a4)
    1828:	2f6c6163          	bltu	s8,s6,1b0a <a+0x3a6>
    182c:	6972                	flw	fs2,28(sp)
    182e:	2d766373          	csrrsi	t1,0x2d7,12
    1832:	2d756e67          	0x2d756e67
    1836:	6f74                	flw	fa3,92(a4)
    1838:	68636c6f          	jal	s8,37ebe <TOHOST_ADDR+0x3610a>
    183c:	6961                	lui	s2,0x18
    183e:	2f6e                	fld	ft10,216(sp)
    1840:	7562                	flw	fa0,56(sp)
    1842:	6c69                	lui	s8,0x1a
    1844:	2d64                	fld	fs1,216(a0)
    1846:	2d636367          	0x2d636367
    184a:	656e                	flw	fa0,216(sp)
    184c:	62696c77          	0x62696c77
    1850:	732d                	lui	t1,0xfffeb
    1852:	6174                	flw	fa3,68(a0)
    1854:	2f326567          	0x2f326567
    1858:	2f636367          	0x2f636367
    185c:	6e69                	lui	t3,0x1a
    185e:	64756c63          	bltu	a0,t2,1eb6 <TOHOST_ADDR+0x102>
    1862:	0065                	c.nop	25
    1864:	6d6f682f          	0x6d6f682f
    1868:	2f65                	jal	2020 <TOHOST_ADDR+0x26c>
    186a:	696d                	lui	s2,0x1b
    186c:	6179                	addi	sp,sp,464
    186e:	617a                	flw	ft2,156(sp)
    1870:	2e2f696b          	0x2e2f696b
    1874:	6f6c                	flw	fa1,92(a4)
    1876:	2f6c6163          	bltu	s8,s6,1b58 <a+0x3f4>
    187a:	6972                	flw	fs2,28(sp)
    187c:	2f766373          	csrrsi	t1,0x2f7,12
    1880:	6c65                	lui	s8,0x19
    1882:	2f66                	fld	ft10,88(sp)
    1884:	7672                	flw	fa2,60(sp)
    1886:	2f693233          	0x2f693233
    188a:	6972                	flw	fs2,28(sp)
    188c:	33766373          	csrrsi	t1,mhpmevent23,12
    1890:	2d32                	fld	fs10,264(sp)
    1892:	6e75                	lui	t3,0x1d
    1894:	776f6e6b          	0x776f6e6b
    1898:	2d6e                	fld	fs10,216(sp)
    189a:	6c65                	lui	s8,0x19
    189c:	2f66                	fld	ft10,88(sp)
    189e:	6e69                	lui	t3,0x1a
    18a0:	64756c63          	bltu	a0,t2,1ef8 <TOHOST_ADDR+0x144>
    18a4:	0065                	c.nop	25
    18a6:	2e2e                	fld	ft8,200(sp)
    18a8:	2f2e2e2f          	0x2f2e2e2f
    18ac:	2e2e                	fld	ft8,200(sp)
    18ae:	722f2e2f          	0x722f2e2f
    18b2:	7369                	lui	t1,0xffffa
    18b4:	672d7663          	bgeu	s10,s2,1f20 <TOHOST_ADDR+0x16c>
    18b8:	6c2f6363          	bltu	t5,sp,1f7e <TOHOST_ADDR+0x1ca>
    18bc:	6269                	lui	tp,0x1a
    18be:	2f636367          	0x2f636367
    18c2:	2e2e                	fld	ft8,200(sp)
    18c4:	636e692f          	0x636e692f
    18c8:	756c                	flw	fa1,108(a0)
    18ca:	6564                	flw	fs1,76(a0)
    18cc:	2e00                	fld	fs0,24(a2)
    18ce:	2f2e                	fld	ft10,200(sp)
    18d0:	2e2e                	fld	ft8,200(sp)
    18d2:	2f2e2e2f          	0x2f2e2e2f
    18d6:	2f2e                	fld	ft10,200(sp)
    18d8:	6972                	flw	fs2,28(sp)
    18da:	2d766373          	csrrsi	t1,0x2d7,12
    18de:	2f636367          	0x2f636367
    18e2:	696c                	flw	fa1,84(a0)
    18e4:	6762                	flw	fa4,24(sp)
    18e6:	2e2f6363          	bltu	t5,sp,1bcc <a+0x468>
    18ea:	2f2e                	fld	ft10,200(sp)
    18ec:	2f636367          	0x2f636367
    18f0:	666e6f63          	bltu	t3,t1,1f6e <TOHOST_ADDR+0x1ba>
    18f4:	6769                	lui	a4,0x1a
    18f6:	7369722f          	0x7369722f
    18fa:	2e007663          	bgeu	zero,zero,1be6 <a+0x482>
    18fe:	2f2e                	fld	ft10,200(sp)
    1900:	2e2e                	fld	ft8,200(sp)
    1902:	672f2e2f          	amoand.w.aqrl	t3,s2,(t5)
    1906:	2e006363          	bltu	zero,zero,1bec <a+0x488>
    190a:	2f2e                	fld	ft10,200(sp)
    190c:	2e2e                	fld	ft8,200(sp)
    190e:	2f2e2e2f          	0x2f2e2e2f
    1912:	2f2e                	fld	ft10,200(sp)
    1914:	6972                	flw	fs2,28(sp)
    1916:	2d766373          	csrrsi	t1,0x2d7,12
    191a:	2f636367          	0x2f636367
    191e:	696c                	flw	fa1,84(a0)
    1920:	6762                	flw	fa4,24(sp)
    1922:	00006363          	bltu	zero,zero,1928 <a+0x1c4>
    1926:	6f6c                	flw	fa1,92(a4)
    1928:	682e6b63          	bltu	t3,sp,1fbe <TOHOST_ADDR+0x20a>
    192c:	0100                	addi	s0,sp,128
    192e:	0000                	unimp
    1930:	745f 7079 7365      	0x73657079745f
    1936:	682e                	flw	fa6,200(sp)
    1938:	0100                	addi	s0,sp,128
    193a:	0000                	unimp
    193c:	64647473          	csrrci	s0,0x646,8
    1940:	6665                	lui	a2,0x19
    1942:	682e                	flw	fa6,200(sp)
    1944:	0200                	addi	s0,sp,256
    1946:	0000                	unimp
    1948:	6572                	flw	fa0,28(sp)
    194a:	6e65                	lui	t3,0x19
    194c:	2e74                	fld	fa3,216(a2)
    194e:	0068                	addi	a0,sp,12
    1950:	0001                	nop
    1952:	6500                	flw	fs0,8(a0)
    1954:	7272                	flw	ft4,60(sp)
    1956:	6f6e                	flw	ft10,216(sp)
    1958:	682e                	flw	fa6,200(sp)
    195a:	0100                	addi	s0,sp,128
    195c:	0000                	unimp
    195e:	6c647473          	csrrci	s0,0x6c6,8
    1962:	6269                	lui	tp,0x1a
    1964:	682e                	flw	fa6,200(sp)
    1966:	0300                	addi	s0,sp,384
    1968:	0000                	unimp
    196a:	6e75                	lui	t3,0x1d
    196c:	7369                	lui	t1,0xffffa
    196e:	6474                	flw	fa3,76(s0)
    1970:	682e                	flw	fa6,200(sp)
    1972:	0100                	addi	s0,sp,128
    1974:	0000                	unimp
    1976:	6974                	flw	fa3,84(a0)
    1978:	656d                	lui	a0,0x1b
    197a:	682e                	flw	fa6,200(sp)
    197c:	0300                	addi	s0,sp,384
    197e:	0000                	unimp
    1980:	6168                	flw	fa0,68(a0)
    1982:	61746873          	csrrsi	a6,0x617,8
    1986:	2e62                	fld	ft8,24(sp)
    1988:	0068                	addi	a0,sp,12
    198a:	0004                	0x4
    198c:	7200                	flw	fs0,32(a2)
    198e:	7369                	lui	t1,0xffffa
    1990:	6f2d7663          	bgeu	s10,s2,207c <TOHOST_ADDR+0x2c8>
    1994:	7470                	flw	fa2,108(s0)
    1996:	00682e73          	csrrs	t3,0x6,a6
    199a:	0005                	c.nop	1
    199c:	6900                	flw	fs0,16(a0)
    199e:	736e                	flw	ft6,248(sp)
    19a0:	2d6e                	fld	fs10,216(sp)
    19a2:	736e6f63          	bltu	t3,s6,20e0 <TOHOST_ADDR+0x32c>
    19a6:	6174                	flw	fa3,68(a0)
    19a8:	746e                	flw	fs0,248(sp)
    19aa:	00682e73          	csrrs	t3,0x6,a6
    19ae:	0006                	c.slli	zero,0x1
    19b0:	6c00                	flw	fs0,24(s0)
    19b2:	6269                	lui	tp,0x1a
    19b4:	32636367          	0x32636367
    19b8:	682e                	flw	fa6,200(sp)
    19ba:	0700                	addi	s0,sp,896
    19bc:	0000                	unimp
    19be:	696c                	flw	fa1,84(a0)
    19c0:	6762                	flw	fa4,24(sp)
    19c2:	2e326363          	bltu	tp,gp,1ca8 <a+0x544>
    19c6:	00070063          	beqz	a4,19c6 <a+0x262>
	...

Disassembly of section .debug_str:

00000000 <.debug_str>:
   0:	32627573          	csrrci	a0,mhpmevent6,4
   4:	5f00                	lw	s0,56(a4)
   6:	615f 6464 6664      	0x66646464615f
   c:	72660033          	0x72660033
  10:	6361                	lui	t1,0x18
  12:	0030                	addi	a2,sp,8
  14:	7266                	flw	ft4,120(sp)
  16:	6361                	lui	t1,0x18
  18:	0031                	c.nop	12
  1a:	465f 5f50 4150      	0x41505f50465f
  20:	525f4b43          	fmadd.d	fs6,ft10,ft5,fa0,rmm
  24:	5741                	li	a4,-16
  26:	325f 665f 6f6c      	0x6f6c665f325f
  2c:	4400                	lw	s0,8(s0)
  2e:	7446                	flw	fs0,112(sp)
  30:	7079                	c.lui	zero,0xffffe
  32:	0065                	c.nop	25
  34:	6461                	lui	s0,0x18
  36:	5f64                	lw	s1,124(a4)
  38:	6f64                	flw	fs1,92(a4)
  3a:	656e                	flw	fa0,216(sp)
  3c:	5200                	lw	s0,32(a2)
  3e:	665f 0030 6e75      	0x6e750030665f
  44:	6e676973          	csrrsi	s2,0x6e6,14
  48:	6465                	lui	s0,0x19
  4a:	6320                	flw	fs0,64(a4)
  4c:	6168                	flw	fa0,68(a0)
  4e:	0072                	c.slli	zero,0x1c
  50:	465f 5f50 4e55      	0x4e555f50465f
  56:	4150                	lw	a2,4(a0)
  58:	525f4b43          	fmadd.d	fs6,ft10,ft5,fa0,rmm
  5c:	5741                	li	a4,-16
  5e:	325f 665f 6f6c      	0x6f6c665f325f
  64:	5f00                	lw	s0,56(a4)
  66:	5046                	0x5046
  68:	505f 4341 5f4b      	0x5f4b4341505f
  6e:	494d4553          	0x494d4553
  72:	4152                	lw	sp,20(sp)
  74:	5f545f57          	0x5f545f57
  78:	68730073          	0x68730073
  7c:	2074726f          	jal	tp,47a82 <TOHOST_ADDR+0x45cce>
  80:	6e75                	lui	t3,0x1d
  82:	6e676973          	csrrsi	s2,0x6e6,14
  86:	6465                	lui	s0,0x19
  88:	6920                	flw	fs0,80(a0)
  8a:	746e                	flw	fs0,248(sp)
  8c:	4100                	lw	s0,0(a0)
  8e:	665f 0031 7573      	0x75730031665f
  94:	3162                	fld	ft2,56(sp)
  96:	5f00                	lw	s0,56(a4)
  98:	6566                	flw	fa0,88(sp)
  9a:	0078                	addi	a4,sp,12
  9c:	33627573          	csrrci	a0,mhpmevent22,4
  a0:	5f00                	lw	s0,56(a4)
  a2:	5046                	0x5046
  a4:	505f 4341 5f4b      	0x5f4b4341505f
  aa:	494d4553          	0x494d4553
  ae:	4152                	lw	sp,20(sp)
  b0:	5f545f57          	0x5f545f57
  b4:	0065                	c.nop	25
  b6:	6f6e                	flw	ft10,216(sp)
  b8:	6d72                	flw	fs10,28(sp)
  ba:	4100                	lw	s0,0(a0)
  bc:	665f 0030 5155      	0x51550030665f
  c2:	7449                	lui	s0,0xffff2
  c4:	7079                	c.lui	zero,0xffffe
  c6:	0065                	c.nop	25
  c8:	5f5f 6c63 5f7a      	0x5f7a6c635f5f
  ce:	6174                	flw	fa3,68(a0)
  d0:	0062                	c.slli	zero,0x18
  d2:	2e2e                	fld	ft8,200(sp)
  d4:	2f2e2e2f          	0x2f2e2e2f
  d8:	2e2e                	fld	ft8,200(sp)
  da:	722f2e2f          	0x722f2e2f
  de:	7369                	lui	t1,0xffffa
  e0:	672d7663          	bgeu	s10,s2,74c <calloc_beebs+0x44>
  e4:	6c2f6363          	bltu	t5,sp,7aa <realloc_beebs+0x2a>
  e8:	6269                	lui	tp,0x1a
  ea:	2f636367          	0x2f636367
  ee:	74666f73          	csrrsi	t5,0x746,12
  f2:	662d                	lui	a2,0xb
  f4:	2f70                	fld	fa2,216(a4)
  f6:	6461                	lui	s0,0x18
  f8:	6464                	flw	fs1,76(s0)
  fa:	3366                	fld	ft6,120(sp)
  fc:	632e                	flw	ft6,200(sp)
  fe:	4200                	lw	s0,0(a2)
 100:	665f 0030 5f42      	0x5f420030665f
 106:	3166                	fld	ft2,120(sp)
 108:	6c00                	flw	fs0,24(s0)
 10a:	20676e6f          	jal	t3,76310 <TOHOST_ADDR+0x7455c>
 10e:	6f6c                	flw	fa1,92(a4)
 110:	676e                	flw	fa4,216(sp)
 112:	7520                	flw	fs0,104(a0)
 114:	736e                	flw	ft6,248(sp)
 116:	6769                	lui	a4,0x1a
 118:	656e                	flw	fa0,216(sp)
 11a:	2064                	fld	fs1,192(s0)
 11c:	6e69                	lui	t3,0x1a
 11e:	0074                	addi	a3,sp,12
 120:	465f 5f50 4441      	0x44415f50465f
 126:	5f44                	lw	s1,60(a4)
 128:	4e49                	li	t3,18
 12a:	4554                	lw	a3,12(a0)
 12c:	4e52                	lw	t3,20(sp)
 12e:	4c41                	li	s8,16
 130:	645f 6669 0066      	0x666669645f
 136:	465f 5f50 4150      	0x41505f50465f
 13c:	535f4b43          	fmadd.d	fs6,ft10,fs5,fa0,rmm
 140:	4d45                	li	s10,17
 142:	5249                	li	tp,-14
 144:	5741                	li	a4,-16
 146:	695f 5f73 6974      	0x69745f73695f
 14c:	796e                	flw	fs2,248(sp)
 14e:	4700                	lw	s0,8(a4)
 150:	554e                	lw	a0,240(sp)
 152:	4320                	lw	s0,64(a4)
 154:	3731                	jal	60 <_start+0x60>
 156:	3820                	fld	fs0,112(s0)
 158:	332e                	fld	ft6,232(sp)
 15a:	302e                	fld	ft0,232(sp)
 15c:	2d20                	fld	fs0,88(a0)
 15e:	636d                	lui	t1,0x1b
 160:	6f6d                	lui	t5,0x1b
 162:	6564                	flw	fs1,76(a0)
 164:	3d6c                	fld	fa1,248(a0)
 166:	656d                	lui	a0,0x1b
 168:	6c64                	flw	fs1,92(s0)
 16a:	2d20776f          	jal	a4,743c <TOHOST_ADDR+0x5688>
 16e:	636d                	lui	t1,0x1b
 170:	6f6d                	lui	t5,0x1b
 172:	6564                	flw	fs1,76(a0)
 174:	3d6c                	fld	fa1,248(a0)
 176:	656d                	lui	a0,0x1b
 178:	6c64                	flw	fs1,92(s0)
 17a:	2d20776f          	jal	a4,744c <TOHOST_ADDR+0x5698>
 17e:	746d                	lui	s0,0xffffb
 180:	6e75                	lui	t3,0x1d
 182:	3d65                	jal	3a <_start+0x3a>
 184:	6f72                	flw	ft10,28(sp)
 186:	74656b63          	bltu	a0,t1,8dc <simrv_puti+0x9c>
 18a:	2d20                	fld	fs0,88(a0)
 18c:	616d                	addi	sp,sp,240
 18e:	6372                	flw	ft6,28(sp)
 190:	3d68                	fld	fa0,248(a0)
 192:	7672                	flw	fa2,60(sp)
 194:	20693233          	0x20693233
 198:	6d2d                	lui	s10,0xb
 19a:	6261                	lui	tp,0x18
 19c:	3d69                	jal	36 <_start+0x36>
 19e:	6c69                	lui	s8,0x1a
 1a0:	3370                	fld	fa2,224(a4)
 1a2:	2032                	fld	ft0,264(sp)
 1a4:	672d                	lui	a4,0xb
 1a6:	2d20                	fld	fs0,88(a0)
 1a8:	2d20734f          	0x2d20734f
 1ac:	2d20324f          	0x2d20324f
 1b0:	2d20734f          	0x2d20734f
 1b4:	6266                	flw	ft4,88(sp)
 1b6:	6975                	lui	s2,0x1d
 1b8:	646c                	flw	fa1,76(s0)
 1ba:	6e69                	lui	t3,0x1a
 1bc:	696c2d67          	0x696c2d67
 1c0:	6762                	flw	fa4,24(sp)
 1c2:	2d206363          	bltu	zero,s2,488 <ludcmp+0x37c>
 1c6:	6e66                	flw	ft8,88(sp)
 1c8:	74732d6f          	jal	s10,3310e <TOHOST_ADDR+0x3135a>
 1cc:	6361                	lui	t1,0x18
 1ce:	72702d6b          	0x72702d6b
 1d2:	6365746f          	jal	s0,57808 <TOHOST_ADDR+0x55a54>
 1d6:	6f74                	flw	fa3,92(a4)
 1d8:	2072                	fld	ft0,280(sp)
 1da:	662d                	lui	a2,0xb
 1dc:	6976                	flw	fs2,92(sp)
 1de:	69626973          	csrrsi	s2,0x696,4
 1e2:	696c                	flw	fa1,84(a0)
 1e4:	7974                	flw	fa3,116(a0)
 1e6:	683d                	lui	a6,0xf
 1e8:	6469                	lui	s0,0x1a
 1ea:	6564                	flw	fs1,76(a0)
 1ec:	006e                	c.slli	zero,0x1b
 1ee:	465f 5f50 4150      	0x41505f50465f
 1f4:	535f4b43          	fmadd.d	fs6,ft10,fs5,fa0,rmm
 1f8:	4d45                	li	s10,17
 1fa:	5249                	li	tp,-14
 1fc:	5741                	li	a4,-16
 1fe:	545f 665f 0030      	0x30665f545f
 204:	6f6c                	flw	fa1,92(a4)
 206:	676e                	flw	fa4,216(sp)
 208:	6c20                	flw	fs0,88(s0)
 20a:	20676e6f          	jal	t3,76410 <TOHOST_ADDR+0x7465c>
 20e:	6e69                	lui	t3,0x1a
 210:	0074                	addi	a3,sp,12
 212:	465f 5f50 4150      	0x41505f50465f
 218:	535f4b43          	fmadd.d	fs6,ft10,fs5,fa0,rmm
 21c:	4d45                	li	s10,17
 21e:	5249                	li	tp,-14
 220:	5741                	li	a4,-16
 222:	545f 665f 0031      	0x31665f545f
 228:	465f 5f50 4441      	0x44415f50465f
 22e:	5f44                	lw	s1,60(a4)
 230:	4e49                	li	t3,18
 232:	4554                	lw	a3,12(a0)
 234:	4e52                	lw	t3,20(sp)
 236:	4c41                	li	s8,16
 238:	655f 6964 6666      	0x66666964655f
 23e:	2f00                	fld	fs0,24(a4)
 240:	6f68                	flw	fa0,92(a4)
 242:	656d                	lui	a0,0x1b
 244:	79696d2f          	0x79696d2f
 248:	7a61                	lui	s4,0xffff8
 24a:	6b61                	lui	s6,0x18
 24c:	2f69                	jal	9e6 <__adddf3+0x72>
 24e:	6c2e                	flw	fs8,200(sp)
 250:	6c61636f          	jal	t1,16916 <TOHOST_ADDR+0x14b62>
 254:	7369722f          	0x7369722f
 258:	672d7663          	bgeu	s10,s2,8c4 <simrv_puti+0x84>
 25c:	756e                	flw	fa0,248(sp)
 25e:	742d                	lui	s0,0xfffeb
 260:	636c6f6f          	jal	t5,c6896 <TOHOST_ADDR+0xc4ae2>
 264:	6168                	flw	fa0,68(a0)
 266:	6e69                	lui	t3,0x1a
 268:	6975622f          	0x6975622f
 26c:	646c                	flw	fa1,76(s0)
 26e:	672d                	lui	a4,0xb
 270:	6e2d6363          	bltu	s10,sp,956 <simrv_puth+0x66>
 274:	7765                	lui	a4,0xffff9
 276:	696c                	flw	fa1,84(a0)
 278:	2d62                	fld	fs10,24(sp)
 27a:	67617473          	csrrci	s0,0x676,2
 27e:	3265                	jal	fffffc26 <TOHOST_ADDR+0xffffde72>
 280:	7369722f          	0x7369722f
 284:	32337663          	bgeu	t1,gp,5b0 <benchmark_body+0xf4>
 288:	752d                	lui	a0,0xfffeb
 28a:	6b6e                	flw	fs6,216(sp)
 28c:	6f6e                	flw	ft10,216(sp)
 28e:	652d6e77          	0x652d6e77
 292:	666c                	flw	fa1,76(a2)
 294:	62696c2f          	0x62696c2f
 298:	00636367          	0x636367
 29c:	465f 5f50 4150      	0x41505f50465f
 2a2:	535f4b43          	fmadd.d	fs6,ft10,fs5,fa0,rmm
 2a6:	4d45                	li	s10,17
 2a8:	5249                	li	tp,-14
 2aa:	5741                	li	a4,-16
 2ac:	545f 635f 7300      	0x7300635f545f
 2b2:	6275                	lui	tp,0x1d
 2b4:	645f 6e6f 0065      	0x656e6f645f
 2ba:	6461                	lui	s0,0x18
 2bc:	3164                	fld	fs1,224(a0)
 2be:	6100                	flw	fs0,0(a0)
 2c0:	6464                	flw	fs1,76(s0)
 2c2:	0032                	c.slli	zero,0xc
 2c4:	6461                	lui	s0,0x18
 2c6:	3364                	fld	fs1,224(a4)
 2c8:	6200                	flw	fs0,0(a2)
 2ca:	7469                	lui	s0,0xffffa
 2cc:	465f0073          	0x465f0073
 2d0:	5f50                	lw	a2,60(a4)
 2d2:	4e55                	li	t3,21
 2d4:	4f49                	li	t5,18
 2d6:	5f4e                	lw	t5,240(sp)
 2d8:	0044                	addi	s1,sp,4
 2da:	665f 6d72 5200      	0x52006d72665f
 2e0:	665f 0031 2e2e      	0x2e2e0031665f
 2e6:	2f2e2e2f          	0x2f2e2e2f
 2ea:	2e2e                	fld	ft8,200(sp)
 2ec:	722f2e2f          	0x722f2e2f
 2f0:	7369                	lui	t1,0xffffa
 2f2:	672d7663          	bgeu	s10,s2,95e <simrv_puth+0x6e>
 2f6:	6c2f6363          	bltu	t5,sp,9bc <__adddf3+0x48>
 2fa:	6269                	lui	tp,0x1a
 2fc:	2f636367          	0x2f636367
 300:	74666f73          	csrrsi	t5,0x746,12
 304:	662d                	lui	a2,0xb
 306:	2f70                	fld	fa2,216(a4)
 308:	6966                	flw	fs2,88(sp)
 30a:	6478                	flw	fa4,76(s0)
 30c:	7366                	flw	ft6,120(sp)
 30e:	2e69                	jal	6a8 <check_heap_beebs+0x4>
 310:	465f0063          	beq	t5,t0,770 <calloc_beebs+0x68>
 314:	5f50                	lw	a2,60(a4)
 316:	4f54                	lw	a3,28(a4)
 318:	495f 544e 695f      	0x695f544e495f
 31e:	656e                	flw	fa0,216(sp)
 320:	6178                	flw	fa4,68(a0)
 322:	5f007463          	bgeu	zero,a6,90a <simrv_puth+0x1a>
 326:	665f 7869 6664      	0x66647869665f
 32c:	55006973          	csrrsi	s2,0x550,0
 330:	79744953          	0x79744953
 334:	6570                	flw	fa2,76(a0)
 336:	2e00                	fld	fs0,24(a2)
 338:	2f2e                	fld	ft10,200(sp)
 33a:	2e2e                	fld	ft8,200(sp)
 33c:	2f2e2e2f          	0x2f2e2e2f
 340:	2f2e                	fld	ft10,200(sp)
 342:	6972                	flw	fs2,28(sp)
 344:	2d766373          	csrrsi	t1,0x2d7,12
 348:	2f636367          	0x2f636367
 34c:	696c                	flw	fa1,84(a0)
 34e:	6762                	flw	fa4,24(sp)
 350:	732f6363          	bltu	t5,s2,a76 <__adddf3+0x102>
 354:	2d74666f          	jal	a2,46e2a <TOHOST_ADDR+0x45076>
 358:	7066                	flw	ft0,120(sp)
 35a:	6f6c662f          	0x6f6c662f
 35e:	7461                	lui	s0,0xffff8
 360:	66646973          	csrrsi	s2,0x666,8
 364:	632e                	flw	ft6,200(sp)
 366:	7000                	flw	fs0,32(s0)
 368:	6361                	lui	t1,0x18
 36a:	65735f6b          	0x65735f6b
 36e:	696d                	lui	s2,0x1b
 370:	6172                	flw	ft2,28(sp)
 372:	465f0077          	0x465f0077
 376:	5f50                	lw	a2,60(a4)
 378:	5246                	lw	tp,112(sp)
 37a:	495f4d4f          	fnmadd.s	fs10,ft10,fs5,fs1,rmm
 37e:	544e                	lw	s0,240(sp)
 380:	755f 0072 465f      	0x465f0072755f
 386:	5f50                	lw	a2,60(a4)
 388:	5246                	lw	tp,112(sp)
 38a:	495f4d4f          	fnmadd.s	fs10,ft10,fs5,fs1,rmm
 38e:	544e                	lw	s0,240(sp)
 390:	6c5f 007a 5f5f      	0x5f5f007a6c5f
 396:	6c66                	flw	fs8,88(sp)
 398:	7374616f          	jal	sp,472ce <TOHOST_ADDR+0x4551a>
 39c:	6469                	lui	s0,0x1a
 39e:	0066                	c.slli	zero,0x19
 3a0:	2e2e                	fld	ft8,200(sp)
 3a2:	2f2e2e2f          	0x2f2e2e2f
 3a6:	2e2e                	fld	ft8,200(sp)
 3a8:	722f2e2f          	0x722f2e2f
 3ac:	7369                	lui	t1,0xffffa
 3ae:	672d7663          	bgeu	s10,s2,a1a <__adddf3+0xa6>
 3b2:	6c2f6363          	bltu	t5,sp,a78 <__adddf3+0x104>
 3b6:	6269                	lui	tp,0x1a
 3b8:	2f636367          	0x2f636367
 3bc:	666e6f63          	bltu	t3,t1,a3a <__adddf3+0xc6>
 3c0:	6769                	lui	a4,0x1a
 3c2:	7369722f          	0x7369722f
 3c6:	6d2f7663          	bgeu	t5,s2,a92 <__adddf3+0x11e>
 3ca:	6c75                	lui	s8,0x1d
 3cc:	6964                	flw	fs1,84(a0)
 3ce:	00532e33          	slt	t3,t1,t0
 3d2:	20554e47          	fmsub.s	ft8,fa0,ft5,ft4,rmm
 3d6:	5341                	li	t1,-16
 3d8:	3220                	fld	fs0,96(a2)
 3da:	332e                	fld	ft6,232(sp)
 3dc:	0032                	c.slli	zero,0xc
 3de:	2e2e                	fld	ft8,200(sp)
 3e0:	2f2e2e2f          	0x2f2e2e2f
 3e4:	2e2e                	fld	ft8,200(sp)
 3e6:	722f2e2f          	0x722f2e2f
 3ea:	7369                	lui	t1,0xffffa
 3ec:	672d7663          	bgeu	s10,s2,a58 <__adddf3+0xe4>
 3f0:	6c2f6363          	bltu	t5,sp,ab6 <__adddf3+0x142>
 3f4:	6269                	lui	tp,0x1a
 3f6:	2f636367          	0x2f636367
 3fa:	666e6f63          	bltu	t3,t1,a78 <__adddf3+0x104>
 3fe:	6769                	lui	a4,0x1a
 400:	7369722f          	0x7369722f
 404:	642f7663          	bgeu	t5,sp,a50 <__adddf3+0xdc>
 408:	7669                	lui	a2,0xffffa
 40a:	532e                	lw	t1,232(sp)
 40c:	7300                	flw	fs0,32(a4)
 40e:	6f68                	flw	fa0,92(a4)
 410:	7472                	flw	fs0,60(sp)
 412:	6920                	flw	fs0,80(a0)
 414:	746e                	flw	fs0,248(sp)
 416:	6800                	flw	fs0,16(s0)
 418:	6174                	flw	fa3,68(a0)
 41a:	5f62                	lw	t5,56(sp)
 41c:	6168                	flw	fa0,68(a0)
 41e:	705f6873          	csrrsi	a6,0x705,30
 422:	746e696f          	jal	s2,e6b68 <TOHOST_ADDR+0xe4db4>
 426:	7265                	lui	tp,0xffff9
 428:	5f00                	lw	s0,56(a4)
 42a:	6172                	flw	ft2,28(sp)
 42c:	646e                	flw	fs0,216(sp)
 42e:	3834                	fld	fa3,112(s0)
 430:	5f00                	lw	s0,56(a4)
 432:	6d65                	lui	s10,0x19
 434:	7265                	lui	tp,0xffff9
 436:	636e6567          	0x636e6567
 43a:	0079                	c.nop	30
 43c:	645f 7961 696c      	0x696c7961645f
 442:	00746867          	0x746867
 446:	706d6f63          	bltu	s10,t1,b64 <__adddf3+0x1f0>
 44a:	656c                	flw	fa1,76(a0)
 44c:	2078                	fld	fa4,192(s0)
 44e:	6f64                	flw	fs1,92(a4)
 450:	6275                	lui	tp,0x1d
 452:	656c                	flw	fa1,76(a0)
 454:	5f00                	lw	s0,56(a4)
 456:	64746567          	0x64746567
 45a:	7461                	lui	s0,0xffff8
 45c:	5f65                	li	t5,-7
 45e:	7265                	lui	tp,0xffff9
 460:	0072                	c.slli	zero,0x1c
 462:	645f 7461 0061      	0x617461645f
 468:	775f 7263 6f74      	0x6f747263775f
 46e:	626d                	lui	tp,0x1b
 470:	735f 6174 6574      	0x65746174735f
 476:	5f00                	lw	s0,56(a4)
 478:	72736377          	0x72736377
 47c:	6f74                	flw	fa3,92(a4)
 47e:	626d                	lui	tp,0x1b
 480:	74735f73          	csrrwi	t5,0x747,6
 484:	7461                	lui	s0,0xffff8
 486:	0065                	c.nop	25
 488:	6c5f 6662 6973      	0x697366626c5f
 48e:	657a                	flw	fa0,156(sp)
 490:	6300                	flw	fs0,0(a4)
 492:	6c706d6f          	jal	s10,7358 <TOHOST_ADDR+0x55a4>
 496:	7865                	lui	a6,0xffff9
 498:	6c20                	flw	fs0,88(s0)
 49a:	20676e6f          	jal	t3,766a0 <TOHOST_ADDR+0x748ec>
 49e:	6f64                	flw	fs1,92(a4)
 4a0:	6275                	lui	tp,0x1d
 4a2:	656c                	flw	fa1,76(a0)
 4a4:	7200                	flw	fs0,32(a2)
 4a6:	7369                	lui	t1,0xffffa
 4a8:	615f7663          	bgeu	t5,s5,ab4 <__adddf3+0x140>
 4ac:	6962                	flw	fs2,24(sp)
 4ae:	5f00                	lw	s0,56(a4)
 4b0:	6c5f 636f 6c61      	0x6c61636f6c5f
 4b6:	5f65                	li	t5,-7
 4b8:	0074                	addi	a3,sp,12
 4ba:	6d5f 7262 6f74      	0x6f7472626d5f
 4c0:	735f6377          	0x735f6377
 4c4:	6174                	flw	fa3,68(a0)
 4c6:	6574                	flw	fa3,76(a0)
 4c8:	5f00                	lw	s0,56(a4)
 4ca:	7a74                	flw	fa3,116(a2)
 4cc:	616e                	flw	ft2,216(sp)
 4ce:	656d                	lui	a0,0x1b
 4d0:	5f00                	lw	s0,56(a4)
 4d2:	6f746377          	0x6f746377
 4d6:	626d                	lui	tp,0x1b
 4d8:	735f 6174 6574      	0x65746174735f
 4de:	5f00                	lw	s0,56(a4)
 4e0:	745f 5f6d 6573      	0x65735f6d745f
 4e6:	635f0063          	beq	t5,s5,b06 <__adddf3+0x192>
 4ea:	6f6c                	flw	fa1,92(a4)
 4ec:	5f006573          	csrrsi	a0,0x5f0,0
 4f0:	6275                	lui	tp,0x1d
 4f2:	6675                	lui	a2,0x1d
 4f4:	5f00                	lw	s0,56(a4)
 4f6:	6162                	flw	ft2,24(sp)
 4f8:	5f006573          	csrrsi	a0,0x5f0,0
 4fc:	745f 5f6d 6f68      	0x6f685f6d745f
 502:	7275                	lui	tp,0xffffd
 504:	7500                	flw	fs0,40(a0)
 506:	736e                	flw	ft6,248(sp)
 508:	6570                	flw	fa2,76(a0)
 50a:	735f7663          	bgeu	t5,s5,c36 <__adddf3+0x2c2>
 50e:	7274                	flw	fa3,100(a2)
 510:	6e69                	lui	t3,0x1a
 512:	5f007367          	0x5f007367
 516:	735f 0066 6f5f      	0x6f5f0066735f
 51c:	5f6e                	lw	t5,248(sp)
 51e:	7865                	lui	a6,0xffff9
 520:	7469                	lui	s0,0xffffa
 522:	615f 6772 0073      	0x736772615f
 528:	635f 6f6f 696b      	0x696b6f6f635f
 52e:	0065                	c.nop	25
 530:	5f5f 6773 756c      	0x756c67735f5f
 536:	0065                	c.nop	25
 538:	665f 616c 7367      	0x7367616c665f
 53e:	5f00                	lw	s0,56(a4)
 540:	7369                	lui	t1,0xffffa
 542:	635f 6178 5f00      	0x5f006178635f
 548:	00736477          	0x736477
 54c:	5f5f 4946 454c      	0x454c49465f5f
 552:	5f00                	lw	s0,56(a4)
 554:	6572                	flw	fa0,28(sp)
 556:	746c7573          	csrrci	a0,0x746,24
 55a:	6b5f 5f00 7973      	0x79735f006b5f
 560:	72655f73          	csrrwi	t5,0x726,10
 564:	6c72                	flw	fs8,28(sp)
 566:	7369                	lui	t1,0xffffa
 568:	0074                	addi	a3,sp,12
 56a:	635f 7476 7562      	0x75627476635f
 570:	0066                	c.slli	zero,0x19
 572:	6d5f 7362 7472      	0x747273626d5f
 578:	7363776f          	jal	a4,37cae <TOHOST_ADDR+0x35efa>
 57c:	735f 6174 6574      	0x65746174735f
 582:	5f00                	lw	s0,56(a4)
 584:	626d                	lui	tp,0x1b
 586:	6c72                	flw	fs8,28(sp)
 588:	6e65                	lui	t3,0x19
 58a:	735f 6174 6574      	0x65746174735f
 590:	7200                	flw	fs0,32(a2)
 592:	7369                	lui	t1,0xffffa
 594:	635f7663          	bgeu	t5,s5,bc0 <__adddf3+0x24c>
 598:	6f6d                	lui	t5,0x1b
 59a:	6564                	flw	fs1,76(a0)
 59c:	006c                	addi	a1,sp,12
 59e:	665f 616e 6772      	0x6772616e665f
 5a4:	665f0073          	0x665f0073
 5a8:	736e                	flw	ft6,248(sp)
 5aa:	5f00                	lw	s0,56(a4)
 5ac:	6e676973          	csrrsi	s2,0x6e6,14
 5b0:	5f00                	lw	s0,56(a4)
 5b2:	65647473          	csrrci	s0,0x656,8
 5b6:	7272                	flw	ft4,60(sp)
 5b8:	5f00                	lw	s0,56(a4)
 5ba:	6942                	flw	fs2,16(sp)
 5bc:	746e6967          	0x746e6967
 5c0:	5f00                	lw	s0,56(a4)
 5c2:	6d6d6167          	0x6d6d6167
 5c6:	5f61                	li	t5,-8
 5c8:	6e676973          	csrrsi	s2,0x6e6,14
 5cc:	006d6167          	0x6d6167
 5d0:	6e5f 616d 6c6c      	0x6c6c616d6e5f
 5d6:	5f00636f          	jal	t1,6bc6 <TOHOST_ADDR+0x4e12>
 5da:	745f 006d 6972      	0x6972006d745f
 5e0:	5f766373          	csrrsi	t1,0x5f7,12
 5e4:	6261                	lui	tp,0x18
 5e6:	5f69                	li	t5,-6
 5e8:	7974                	flw	fa3,116(a0)
 5ea:	6570                	flw	fa2,76(a0)
 5ec:	5f00                	lw	s0,56(a4)
 5ee:	626d                	lui	tp,0x1b
 5f0:	74617473          	csrrci	s0,0x746,2
 5f4:	0065                	c.nop	25
 5f6:	5f5f 6377 6268      	0x626863775f5f
 5fc:	5f00                	lw	s0,56(a4)
 5fe:	6c747663          	bgeu	s0,t2,cca <__adddf3+0x356>
 602:	6e65                	lui	t3,0x19
 604:	5f00                	lw	s0,56(a4)
 606:	6966                	flw	fs2,88(sp)
 608:	656c                	flw	fa1,76(a0)
 60a:	6800                	flw	fs0,16(s0)
 60c:	7361                	lui	t1,0xffff8
 60e:	7668                	flw	fa0,108(a2)
 610:	6c61                	lui	s8,0x18
 612:	745f 5f00 696e      	0x696e5f00745f
 618:	0073626f          	jal	tp,36e1e <TOHOST_ADDR+0x3506a>
 61c:	5f5f 6c63 737a      	0x737a6c635f5f
 622:	3269                	jal	ffffffac <TOHOST_ADDR+0xffffe1f8>
 624:	5f00                	lw	s0,56(a4)
 626:	7461                	lui	s0,0xffff8
 628:	7865                	lui	a6,0xffff9
 62a:	7469                	lui	s0,0xffffa
 62c:	0030                	addi	a2,sp,8
 62e:	735f 6769 616e      	0x616e6769735f
 634:	5f6c                	lw	a1,124(a4)
 636:	7562                	flw	fa0,56(sp)
 638:	0066                	c.slli	zero,0x19
 63a:	615f 6373 6974      	0x69746373615f
 640:	656d                	lui	a0,0x1b
 642:	625f 6675 5f00      	0x5f006675625f
 648:	6572                	flw	fa0,28(sp)
 64a:	746c7573          	csrrci	a0,0x746,24
 64e:	5f00                	lw	s0,56(a4)
 650:	775f 6863 4100      	0x41006863775f
 656:	4942                	lw	s2,16(sp)
 658:	495f 504c 3233      	0x3233504c495f
 65e:	0046                	c.slli	zero,0x11
 660:	6e65                	lui	t3,0x19
 662:	6976                	flw	fs2,92(sp)
 664:	6f72                	flw	ft10,28(sp)
 666:	006e                	c.slli	zero,0x1b
 668:	746e6977          	0x746e6977
 66c:	745f 5f00 6f6c      	0x6f6c5f00745f
 672:	41006b63          	bltu	zero,a6,a88 <__adddf3+0x114>
 676:	4942                	lw	s2,16(sp)
 678:	495f 504c 3233      	0x3233504c495f
 67e:	0044                	addi	s1,sp,4
 680:	4241                	li	tp,16
 682:	5f49                	li	t5,-14
 684:	4c49                	li	s8,18
 686:	3350                	fld	fa2,160(a4)
 688:	4532                	lw	a0,12(sp)
 68a:	5f00                	lw	s0,56(a4)
 68c:	756d                	lui	a0,0xffffb
 68e:	746c                	flw	fa1,108(s0)
 690:	7500                	flw	fs0,40(a0)
 692:	736e                	flw	ft6,248(sp)
 694:	6570                	flw	fa2,76(a0)
 696:	74735f63          	bge	t1,t2,df4 <__adddf3+0x480>
 69a:	6972                	flw	fs2,28(sp)
 69c:	676e                	flw	fa4,216(sp)
 69e:	706f0073          	0x706f0073
 6a2:	7274                	flw	fa3,100(a2)
 6a4:	7365                	lui	t1,0xffff9
 6a6:	7465                	lui	s0,0xffff9
 6a8:	5f00                	lw	s0,56(a4)
 6aa:	74697277          	0x74697277
 6ae:	0065                	c.nop	25
 6b0:	5f5f 6d74 795f      	0x795f6d745f5f
 6b6:	6165                	addi	sp,sp,112
 6b8:	0072                	c.slli	zero,0x1c
 6ba:	755f 756e 6573      	0x6573756e755f
 6c0:	5f64                	lw	s1,124(a4)
 6c2:	6172                	flw	ft2,28(sp)
 6c4:	646e                	flw	fs0,216(sp)
 6c6:	7200                	flw	fs0,32(a2)
 6c8:	7369                	lui	t1,0xffffa
 6ca:	635f7663          	bgeu	t5,s5,cf6 <__adddf3+0x382>
 6ce:	5f65646f          	jal	s0,56cc4 <TOHOST_ADDR+0x54f10>
 6d2:	6f6d                	lui	t5,0x1b
 6d4:	6564                	flw	fs1,76(a0)
 6d6:	006c                	addi	a1,sp,12
 6d8:	6f5f 6666 6573      	0x657366666f5f
 6de:	0074                	addi	a3,sp,12
 6e0:	6974706f          	j	48576 <TOHOST_ADDR+0x467c2>
 6e4:	646e                	flw	fs0,216(sp)
 6e6:	5f00                	lw	s0,56(a4)
 6e8:	656e                	flw	fa0,216(sp)
 6ea:	7478                	flw	fa4,108(s0)
 6ec:	0066                	c.slli	zero,0x19
 6ee:	706d6f63          	bltu	s10,t1,e0c <__adddf3+0x498>
 6f2:	656c                	flw	fa1,76(a0)
 6f4:	2078                	fld	fa4,192(s0)
 6f6:	6c66                	flw	fs8,88(sp)
 6f8:	0074616f          	jal	sp,46efe <TOHOST_ADDR+0x4514a>
 6fc:	5f5f 6d74 6d5f      	0x6d5f6d745f5f
 702:	5f006e6f          	jal	t3,6cf2 <TOHOST_ADDR+0x4f3e>
 706:	7461                	lui	s0,0xffff8
 708:	7865                	lui	a6,0xffff9
 70a:	7469                	lui	s0,0xffffa
 70c:	7300                	flw	fs0,32(a4)
 70e:	6275                	lui	tp,0x1d
 710:	6174706f          	j	48526 <TOHOST_ADDR+0x46772>
 714:	6772                	flw	fa4,28(sp)
 716:	5f00                	lw	s0,56(a4)
 718:	735f 6964 6964      	0x69646964735f
 71e:	696e                	flw	fs2,216(sp)
 720:	0074                	addi	a3,sp,12
 722:	6f5f 6666 745f      	0x745f66666f5f
 728:	5f00                	lw	s0,56(a4)
 72a:	7266                	flw	ft4,120(sp)
 72c:	6565                	lui	a0,0x19
 72e:	696c                	flw	fa1,84(a0)
 730:	5f007473          	csrrci	s0,0x5f0,0
 734:	6974                	flw	fa3,84(a0)
 736:	656d                	lui	a0,0x1b
 738:	6f7a                	flw	ft10,156(sp)
 73a:	656e                	flw	fa0,216(sp)
 73c:	5f00                	lw	s0,56(a4)
 73e:	626d                	lui	tp,0x1b
 740:	74617473          	csrrci	s0,0x746,2
 744:	5f65                	li	t5,-7
 746:	0074                	addi	a3,sp,12
 748:	4c5f 434f 5f4b      	0x5f4b434f4c5f
 74e:	4552                	lw	a0,20(sp)
 750:	53525543          	fmadd.d	fa0,ft4,fs5,fa0,unknown
 754:	5649                	li	a2,-14
 756:	5f45                	li	t5,-15
 758:	0054                	addi	a3,sp,4
 75a:	725f 6165 0064      	0x646165725f
 760:	4241                	li	tp,16
 762:	5f49                	li	t5,-14
 764:	504c                	lw	a1,36(s0)
 766:	3436                	fld	fs0,360(sp)
 768:	4100                	lw	s0,0(a0)
 76a:	4942                	lw	s2,16(sp)
 76c:	495f 504c 3233      	0x3233504c495f
 772:	5f00                	lw	s0,56(a4)
 774:	7364                	flw	fs1,100(a4)
 776:	61685f6f          	jal	t5,85d8c <TOHOST_ADDR+0x83fd8>
 77a:	646e                	flw	fs0,216(sp)
 77c:	656c                	flw	fa1,76(a0)
 77e:	4300                	lw	s0,0(a4)
 780:	5f4d                	li	t5,-13
 782:	454d                	li	a0,19
 784:	4144                	lw	s1,4(a0)
 786:	594e                	lw	s2,240(sp)
 788:	5f00                	lw	s0,56(a4)
 78a:	656e                	flw	fa0,216(sp)
 78c:	685f0077          	0x685f0077
 790:	655f 7272 6f6e      	0x6f6e7272655f
 796:	5f00                	lw	s0,56(a4)
 798:	6c66                	flw	fs8,88(sp)
 79a:	5f6b636f          	jal	t1,b6d90 <TOHOST_ADDR+0xb4fdc>
 79e:	0074                	addi	a3,sp,12
 7a0:	5f5f 6d74 795f      	0x795f6d745f5f
 7a6:	6164                	flw	fs1,68(a0)
 7a8:	0079                	c.nop	30
 7aa:	5f5f 6273 6675      	0x667562735f5f
 7b0:	5f00                	lw	s0,56(a4)
 7b2:	6c66                	flw	fs8,88(sp)
 7b4:	6761                	lui	a4,0x18
 7b6:	5f003273          	csrrc	tp,0x5f0,zero
 7ba:	6f69                	lui	t5,0x1a
 7bc:	7362                	flw	ft6,56(sp)
 7be:	4300                	lw	s0,0(a4)
 7c0:	5f4d                	li	t5,-13
 7c2:	454d                	li	a0,19
 7c4:	4c44                	lw	s1,28(s0)
 7c6:	6800574f          	fnmadd.s	fa4,ft0,ft0,fa3,unknown
 7ca:	6174                	flw	fa3,68(a0)
 7cc:	5f62                	lw	t5,56(sp)
 7ce:	6168                	flw	fa0,68(a0)
 7d0:	5f006873          	csrrsi	a6,0x5f0,0
 7d4:	735f 4946 454c      	0x454c4946735f
 7da:	5f00                	lw	s0,56(a4)
 7dc:	5f737973          	csrrci	s2,0x5f7,6
 7e0:	656e                	flw	fa0,216(sp)
 7e2:	7272                	flw	ft4,60(sp)
 7e4:	5f00                	lw	s0,56(a4)
 7e6:	6172                	flw	ft2,28(sp)
 7e8:	646e                	flw	fs0,216(sp)
 7ea:	6e5f 7865 0074      	0x7478656e5f
 7f0:	6d5f 6c62 6e65      	0x6e656c626d5f
 7f6:	735f 6174 6574      	0x65746174735f
 7fc:	5f00                	lw	s0,56(a4)
 7fe:	6e69                	lui	t3,0x1a
 800:	695f0063          	beq	t5,s5,e80 <__adddf3+0x50c>
 804:	646e                	flw	fs0,216(sp)
 806:	5f00                	lw	s0,56(a4)
 808:	6f6c                	flw	fa1,92(a4)
 80a:	656c6163          	bltu	s8,s6,e4c <__adddf3+0x4d8>
 80e:	5f00                	lw	s0,56(a4)
 810:	635f 656c 6e61      	0x6e61656c635f
 816:	7075                	c.lui	zero,0xffffd
 818:	5f00                	lw	s0,56(a4)
 81a:	6e75                	lui	t3,0x1d
 81c:	63657073          	csrci	0x636,10
 820:	6669                	lui	a2,0x1a
 822:	6569                	lui	a0,0x1a
 824:	5f64                	lw	s1,124(a4)
 826:	6f6c                	flw	fa1,92(a4)
 828:	656c6163          	bltu	s8,s6,e6a <__adddf3+0x4f6>
 82c:	695f 666e 006f      	0x6f666e695f
 832:	6d5f 7861 6477      	0x647778616d5f
 838:	725f0073          	0x725f0073
 83c:	6565                	lui	a0,0x19
 83e:	746e                	flw	fs0,248(sp)
 840:	5f00                	lw	s0,56(a4)
 842:	64656573          	csrrsi	a0,0x646,10
 846:	5f00                	lw	s0,56(a4)
 848:	635f 756f 746e      	0x746e756f635f
 84e:	5f00                	lw	s0,56(a4)
 850:	765f 6c61 6575      	0x65756c61765f
 856:	5f00                	lw	s0,56(a4)
 858:	6b656573          	csrrsi	a0,0x6b6,10
 85c:	5f00                	lw	s0,56(a4)
 85e:	7066                	flw	ft0,120(sp)
 860:	745f736f          	jal	t1,f87a4 <TOHOST_ADDR+0xf69f0>
 864:	5f00                	lw	s0,56(a4)
 866:	6c62                	flw	fs8,24(sp)
 868:	7a69736b          	0x7a69736b
 86c:	0065                	c.nop	25
 86e:	735f 7a69 0065      	0x657a69735f
 874:	6574706f          	j	486ca <TOHOST_ADDR+0x46916>
 878:	7272                	flw	ft4,60(sp)
 87a:	5f00                	lw	s0,56(a4)
 87c:	74727473          	csrrci	s0,0x747,4
 880:	6c5f6b6f          	jal	s6,f7744 <TOHOST_ADDR+0xf5990>
 884:	7361                	lui	t1,0xffff8
 886:	0074                	addi	a3,sp,12
 888:	505f4d43          	fmadd.s	fs10,ft10,ft5,fa0,rmm
 88c:	4349                	li	t1,18
 88e:	5f00                	lw	s0,56(a4)
 890:	6e66                	flw	ft8,88(sp)
 892:	7974                	flw	fa3,116(a0)
 894:	6570                	flw	fa2,76(a0)
 896:	615f0073          	0x615f0073
 89a:	6464                	flw	fs1,76(s0)
 89c:	5f00                	lw	s0,56(a4)
 89e:	555f 6f4c 676e      	0x676e6f4c555f
 8a4:	6800                	flw	fs0,16(s0)
 8a6:	6174                	flw	fa3,68(a0)
 8a8:	5f62                	lw	t5,56(sp)
 8aa:	7165                	addi	sp,sp,-400
 8ac:	705f 696f 746e      	0x746e696f705f
 8b2:	7265                	lui	tp,0xffff9
 8b4:	5f00                	lw	s0,56(a4)
 8b6:	785f 0072 675f      	0x675f0072785f
 8bc:	6f6c                	flw	fa1,92(a4)
 8be:	6162                	flw	ft2,24(sp)
 8c0:	5f6c                	lw	a1,124(a4)
 8c2:	6d69                	lui	s10,0x1a
 8c4:	7570                	flw	fa2,108(a0)
 8c6:	6572                	flw	fa0,28(sp)
 8c8:	705f 7274 5f00      	0x5f007274705f
 8ce:	6f647473          	csrrci	s0,0x6f6,8
 8d2:	7475                	lui	s0,0xffffd
 8d4:	5f00                	lw	s0,56(a4)
 8d6:	745f 5f6d 6477      	0x64775f6d745f
 8dc:	7961                	lui	s2,0xffff8
 8de:	5f00                	lw	s0,56(a4)
 8e0:	65756c67          	0x65756c67
 8e4:	5f00                	lw	s0,56(a4)
 8e6:	69647473          	csrrci	s0,0x696,8
 8ea:	006e                	c.slli	zero,0x1b
 8ec:	735f 6973 657a      	0x657a6973735f
 8f2:	745f 5f00 366c      	0x366c5f00745f
 8f8:	6134                	flw	fa3,64(a0)
 8fa:	625f 6675 5f00      	0x5f006675625f
 900:	5f676973          	csrrsi	s2,0x5f6,14
 904:	7566                	flw	fa0,120(sp)
 906:	636e                	flw	ft6,216(sp)
 908:	5f00                	lw	s0,56(a4)
 90a:	705f 706f 6f63      	0x6f63706f705f
 910:	6e75                	lui	t3,0x1d
 912:	5f74                	lw	a3,124(a4)
 914:	6174                	flw	fa3,68(a0)
 916:	0062                	c.slli	zero,0x18
 918:	6e5f 7562 0066      	0x6675626e5f
 91e:	755f 756e 6573      	0x6573756e755f
 924:	0064                	addi	s1,sp,12
 926:	5f5f 6d74 695f      	0x695f6d745f5f
 92c:	74736473          	csrrsi	s0,0x747,6
 930:	5f00                	lw	s0,56(a4)
 932:	6f6c                	flw	fa1,92(a4)
 934:	746c6163          	bltu	s8,t1,1076 <__adddf3+0x702>
 938:	6d69                	lui	s10,0x1a
 93a:	5f65                	li	t5,-7
 93c:	7562                	flw	fa0,56(sp)
 93e:	0066                	c.slli	zero,0x19
 940:	5f5f 6d74 6d5f      	0x6d5f6d745f5f
 946:	6e69                	lui	t3,0x1a
 948:	5f00                	lw	s0,56(a4)
 94a:	3472                	fld	fs0,312(sp)
 94c:	0038                	addi	a4,sp,8
 94e:	4241                	li	tp,16
 950:	5f49                	li	t5,-14
 952:	504c                	lw	a1,36(s0)
 954:	3436                	fld	fs0,360(sp)
 956:	0044                	addi	s1,sp,4
 958:	6f74706f          	j	4884e <TOHOST_ADDR+0x46a9a>
 95c:	7470                	flw	fa2,108(s0)
 95e:	4100                	lw	s0,0(a0)
 960:	4942                	lw	s2,16(sp)
 962:	4c5f 3650 4634      	0x463436504c5f
 968:	5f00                	lw	s0,56(a4)
 96a:	626d                	lui	tp,0x1b
 96c:	6f74                	flw	fa3,92(a4)
 96e:	735f6377          	0x735f6377
 972:	6174                	flw	fa3,68(a0)
 974:	6574                	flw	fa3,76(a0)
 976:	5f00                	lw	s0,56(a4)
 978:	3570                	fld	fa2,232(a0)
 97a:	2e2e0073          	0x2e2e0073
 97e:	2f2e2e2f          	0x2f2e2e2f
 982:	2e2e                	fld	ft8,200(sp)
 984:	722f2e2f          	0x722f2e2f
 988:	7369                	lui	t1,0xffffa
 98a:	672d7663          	bgeu	s10,s2,ff6 <__adddf3+0x682>
 98e:	6c2f6363          	bltu	t5,sp,1054 <__adddf3+0x6e0>
 992:	6269                	lui	tp,0x1a
 994:	2f636367          	0x2f636367
 998:	696c                	flw	fa1,84(a0)
 99a:	6762                	flw	fa4,24(sp)
 99c:	2e326363          	bltu	tp,gp,c82 <__adddf3+0x30e>
 9a0:	5f5f0063          	beq	t5,s5,f80 <__adddf3+0x60c>
 9a4:	6d74                	flw	fa3,92(a0)
 9a6:	6d5f 6164 0079      	0x7961646d5f
 9ac:	7468                	flw	fa0,108(s0)
 9ae:	6261                	lui	tp,0x18
 9b0:	655f 0071       	0x71655f

Disassembly of section .debug_frame:

00000000 <.debug_frame>:
   0:	000c                	0xc
   2:	0000                	unimp
   4:	ffff                	0xffff
   6:	ffff                	0xffff
   8:	0001                	nop
   a:	7c01                	lui	s8,0xfffe0
   c:	0d01                	addi	s10,s10,0
   e:	0002                	c.slli64	zero
  10:	0030                	addi	a2,sp,8
  12:	0000                	unimp
  14:	0000                	unimp
  16:	0000                	unimp
  18:	0974                	addi	a3,sp,156
  1a:	0000                	unimp
  1c:	07c0                	addi	s0,sp,964
  1e:	0000                	unimp
  20:	0e58                	addi	a4,sp,788
  22:	5c20                	lw	s0,120(s0)
  24:	0389                	addi	t2,t2,2
  26:	0492                	slli	s1,s1,0x4
  28:	8158                	0x8158
  2a:	8801                	andi	s0,s0,0
  2c:	9302                	jalr	t1
  2e:	0305                	addi	t1,t1,1
  30:	06fc                	addi	a5,sp,844
  32:	c10a                	sw	sp,128(sp)
  34:	c844                	sw	s1,20(s0)
  36:	c954                	sw	a3,20(a0)
  38:	d244                	sw	s1,36(a2)
  3a:	d344                	sw	s1,36(a4)
  3c:	0e48                	addi	a0,sp,788
  3e:	4400                	lw	s0,8(s0)
  40:	0000000b          	0xb
  44:	000c                	0xc
  46:	0000                	unimp
  48:	ffff                	0xffff
  4a:	ffff                	0xffff
  4c:	0001                	nop
  4e:	7c01                	lui	s8,0xfffe0
  50:	0d01                	addi	s10,s10,0
  52:	0002                	c.slli64	zero
  54:	000c                	0xc
  56:	0000                	unimp
  58:	0044                	addi	s1,sp,4
  5a:	0000                	unimp
  5c:	1134                	addi	a3,sp,168
  5e:	0000                	unimp
  60:	0080                	addi	s0,sp,64
  62:	0000                	unimp
  64:	000c                	0xc
  66:	0000                	unimp
  68:	ffff                	0xffff
  6a:	ffff                	0xffff
  6c:	0001                	nop
  6e:	7c01                	lui	s8,0xfffe0
  70:	0d01                	addi	s10,s10,0
  72:	0002                	c.slli64	zero
  74:	0024                	addi	s1,sp,8
  76:	0000                	unimp
  78:	0064                	addi	s1,sp,12
  7a:	0000                	unimp
  7c:	11b4                	addi	a3,sp,232
  7e:	0000                	unimp
  80:	00ac                	addi	a1,sp,72
  82:	0000                	unimp
  84:	0e44                	addi	s1,sp,788
  86:	4c10                	lw	a2,24(s0)
  88:	0181                	addi	gp,gp,0
  8a:	0288                	addi	a0,sp,320
  8c:	0389                	addi	t2,t2,2
  8e:	6402                	flw	fs0,0(sp)
  90:	c10a                	sw	sp,128(sp)
  92:	c848                	sw	a0,20(s0)
  94:	c944                	sw	s1,20(a0)
  96:	0e48                	addi	a0,sp,788
  98:	4400                	lw	s0,8(s0)
  9a:	000c000b          	0xc000b
  9e:	0000                	unimp
  a0:	ffff                	0xffff
  a2:	ffff                	0xffff
  a4:	0001                	nop
  a6:	7c01                	lui	s8,0xfffe0
  a8:	0d01                	addi	s10,s10,0
  aa:	0002                	c.slli64	zero
  ac:	000c                	0xc
  ae:	0000                	unimp
  b0:	009c                	addi	a5,sp,64
  b2:	0000                	unimp
  b4:	1338                	addi	a4,sp,424
  b6:	0000                	unimp
  b8:	004c                	addi	a1,sp,4
	...
