
bd/src/wikisort/wikisort:     file format elf32-littleriscv


Disassembly of section .init:

00000000 <_start>:
   0:	00000013          	nop
   4:	00000033          	add	zero,zero,zero
   8:	000000b3          	add	ra,zero,zero
   c:	00000133          	add	sp,zero,zero
  10:	000001b3          	add	gp,zero,zero
  14:	00000233          	add	tp,zero,zero
  18:	000002b3          	add	t0,zero,zero
  1c:	00000333          	add	t1,zero,zero
  20:	000003b3          	add	t2,zero,zero
  24:	00000433          	add	s0,zero,zero
  28:	000004b3          	add	s1,zero,zero
  2c:	00000533          	add	a0,zero,zero
  30:	000005b3          	add	a1,zero,zero
  34:	00000633          	add	a2,zero,zero
  38:	000006b3          	add	a3,zero,zero
  3c:	00000733          	add	a4,zero,zero
  40:	000007b3          	add	a5,zero,zero
  44:	00000833          	add	a6,zero,zero
  48:	000008b3          	add	a7,zero,zero
  4c:	00000933          	add	s2,zero,zero
  50:	000009b3          	add	s3,zero,zero
  54:	00000a33          	add	s4,zero,zero
  58:	00000ab3          	add	s5,zero,zero
  5c:	00000b33          	add	s6,zero,zero
  60:	00000bb3          	add	s7,zero,zero
  64:	00000c33          	add	s8,zero,zero
  68:	00000cb3          	add	s9,zero,zero
  6c:	00000d33          	add	s10,zero,zero
  70:	00000db3          	add	s11,zero,zero
  74:	00000e33          	add	t3,zero,zero
  78:	00000eb3          	add	t4,zero,zero
  7c:	00000f33          	add	t5,zero,zero
  80:	00000fb3          	add	t6,zero,zero
  84:	00010137          	lui	sp,0x10
  88:	10d0406f          	j	4994 <main>
  8c:	00000013          	nop

Disassembly of section .text:

00000090 <TestCompare>:
      90:	ff010113          	addi	sp,sp,-16 # fff0 <_impure_ptr+0x96d0>
      94:	00c52533          	slt	a0,a0,a2
      98:	01010113          	addi	sp,sp,16
      9c:	00008067          	ret

000000a0 <TestingAscending>:
      a0:	00008067          	ret

000000a4 <TestingDescending>:
      a4:	40a58533          	sub	a0,a1,a0
      a8:	00008067          	ret

000000ac <TestingEqual>:
      ac:	3e800513          	li	a0,1000
      b0:	00008067          	ret

000000b4 <TestingRandom>:
      b4:	52d0106f          	j	1de0 <rand_beebs>

000000b8 <TestingMostlyDescending>:
      b8:	fe010113          	addi	sp,sp,-32
      bc:	00112e23          	sw	ra,28(sp)
      c0:	00812c23          	sw	s0,24(sp)
      c4:	00912a23          	sw	s1,20(sp)
      c8:	01212823          	sw	s2,16(sp)
      cc:	01312623          	sw	s3,12(sp)
      d0:	00050913          	mv	s2,a0
      d4:	00058993          	mv	s3,a1
      d8:	509010ef          	jal	ra,1de0 <rand_beebs>
      dc:	33c040ef          	jal	ra,4418 <__floatsidf>
      e0:	000067b7          	lui	a5,0x6
      e4:	8287a603          	lw	a2,-2008(a5) # 5828 <_global_impure_ptr+0x4>
      e8:	82c7a683          	lw	a3,-2004(a5)
      ec:	381020ef          	jal	ra,2c6c <__divdf3>
      f0:	000067b7          	lui	a5,0x6
      f4:	8307a603          	lw	a2,-2000(a5) # 5830 <_global_impure_ptr+0xc>
      f8:	8347a683          	lw	a3,-1996(a5)
      fc:	420030ef          	jal	ra,351c <__muldf3>
     100:	00050413          	mv	s0,a0
     104:	41298533          	sub	a0,s3,s2
     108:	00058493          	mv	s1,a1
     10c:	30c040ef          	jal	ra,4418 <__floatsidf>
     110:	00050613          	mv	a2,a0
     114:	00058693          	mv	a3,a1
     118:	00040513          	mv	a0,s0
     11c:	00048593          	mv	a1,s1
     120:	38c020ef          	jal	ra,24ac <__adddf3>
     124:	000067b7          	lui	a5,0x6
     128:	8387a603          	lw	a2,-1992(a5) # 5838 <_global_impure_ptr+0x14>
     12c:	83c7a683          	lw	a3,-1988(a5)
     130:	259030ef          	jal	ra,3b88 <__subdf3>
     134:	264040ef          	jal	ra,4398 <__fixdfsi>
     138:	01c12083          	lw	ra,28(sp)
     13c:	01812403          	lw	s0,24(sp)
     140:	01412483          	lw	s1,20(sp)
     144:	01012903          	lw	s2,16(sp)
     148:	00c12983          	lw	s3,12(sp)
     14c:	02010113          	addi	sp,sp,32
     150:	00008067          	ret

00000154 <TestingMostlyAscending>:
     154:	ff010113          	addi	sp,sp,-16
     158:	00112623          	sw	ra,12(sp)
     15c:	00812423          	sw	s0,8(sp)
     160:	00912223          	sw	s1,4(sp)
     164:	01212023          	sw	s2,0(sp)
     168:	00050913          	mv	s2,a0
     16c:	475010ef          	jal	ra,1de0 <rand_beebs>
     170:	2a8040ef          	jal	ra,4418 <__floatsidf>
     174:	000067b7          	lui	a5,0x6
     178:	8287a603          	lw	a2,-2008(a5) # 5828 <_global_impure_ptr+0x4>
     17c:	82c7a683          	lw	a3,-2004(a5)
     180:	2ed020ef          	jal	ra,2c6c <__divdf3>
     184:	000067b7          	lui	a5,0x6
     188:	8307a603          	lw	a2,-2000(a5) # 5830 <_global_impure_ptr+0xc>
     18c:	8347a683          	lw	a3,-1996(a5)
     190:	38c030ef          	jal	ra,351c <__muldf3>
     194:	00050413          	mv	s0,a0
     198:	00090513          	mv	a0,s2
     19c:	00058493          	mv	s1,a1
     1a0:	278040ef          	jal	ra,4418 <__floatsidf>
     1a4:	00050613          	mv	a2,a0
     1a8:	00058693          	mv	a3,a1
     1ac:	00040513          	mv	a0,s0
     1b0:	00048593          	mv	a1,s1
     1b4:	2f8020ef          	jal	ra,24ac <__adddf3>
     1b8:	000067b7          	lui	a5,0x6
     1bc:	8387a603          	lw	a2,-1992(a5) # 5838 <_global_impure_ptr+0x14>
     1c0:	83c7a683          	lw	a3,-1988(a5)
     1c4:	1c5030ef          	jal	ra,3b88 <__subdf3>
     1c8:	1d0040ef          	jal	ra,4398 <__fixdfsi>
     1cc:	00c12083          	lw	ra,12(sp)
     1d0:	00812403          	lw	s0,8(sp)
     1d4:	00412483          	lw	s1,4(sp)
     1d8:	00012903          	lw	s2,0(sp)
     1dc:	01010113          	addi	sp,sp,16
     1e0:	00008067          	ret

000001e4 <TestingJittered>:
     1e4:	ff010113          	addi	sp,sp,-16
     1e8:	00112623          	sw	ra,12(sp)
     1ec:	00812423          	sw	s0,8(sp)
     1f0:	00050413          	mv	s0,a0
     1f4:	3ed010ef          	jal	ra,1de0 <rand_beebs>
     1f8:	220040ef          	jal	ra,4418 <__floatsidf>
     1fc:	000067b7          	lui	a5,0x6
     200:	8287a603          	lw	a2,-2008(a5) # 5828 <_global_impure_ptr+0x4>
     204:	82c7a683          	lw	a3,-2004(a5)
     208:	265020ef          	jal	ra,2c6c <__divdf3>
     20c:	000067b7          	lui	a5,0x6
     210:	8407a603          	lw	a2,-1984(a5) # 5840 <_global_impure_ptr+0x1c>
     214:	8447a683          	lw	a3,-1980(a5)
     218:	220030ef          	jal	ra,3438 <__ledf2>
     21c:	00a05463          	blez	a0,224 <TestingJittered+0x40>
     220:	ffe40413          	addi	s0,s0,-2
     224:	00040513          	mv	a0,s0
     228:	00c12083          	lw	ra,12(sp)
     22c:	00812403          	lw	s0,8(sp)
     230:	01010113          	addi	sp,sp,16
     234:	00008067          	ret

00000238 <TestingMostlyEqual>:
     238:	ff010113          	addi	sp,sp,-16
     23c:	00112623          	sw	ra,12(sp)
     240:	3a1010ef          	jal	ra,1de0 <rand_beebs>
     244:	41f55793          	srai	a5,a0,0x1f
     248:	01e7d793          	srli	a5,a5,0x1e
     24c:	00c12083          	lw	ra,12(sp)
     250:	00f50533          	add	a0,a0,a5
     254:	00357513          	andi	a0,a0,3
     258:	40f50533          	sub	a0,a0,a5
     25c:	3e850513          	addi	a0,a0,1000
     260:	01010113          	addi	sp,sp,16
     264:	00008067          	ret

00000268 <TestingPathological>:
     268:	00050793          	mv	a5,a0
     26c:	02050663          	beqz	a0,298 <TestingPathological+0x30>
     270:	01f5d713          	srli	a4,a1,0x1f
     274:	00b70733          	add	a4,a4,a1
     278:	40175713          	srai	a4,a4,0x1
     27c:	00b00513          	li	a0,11
     280:	00e7ce63          	blt	a5,a4,29c <TestingPathological+0x34>
     284:	fff58513          	addi	a0,a1,-1
     288:	40a78533          	sub	a0,a5,a0
     28c:	00153513          	seqz	a0,a0
     290:	00950513          	addi	a0,a0,9
     294:	00008067          	ret
     298:	00a00513          	li	a0,10
     29c:	00008067          	ret

000002a0 <Min>:
     2a0:	00a5d463          	bge	a1,a0,2a8 <Min+0x8>
     2a4:	00058513          	mv	a0,a1
     2a8:	00008067          	ret

000002ac <Max>:
     2ac:	00b55463          	bge	a0,a1,2b4 <Max+0x8>
     2b0:	00058513          	mv	a0,a1
     2b4:	00008067          	ret

000002b8 <Range_length>:
     2b8:	ff010113          	addi	sp,sp,-16
     2bc:	40a58533          	sub	a0,a1,a0
     2c0:	01010113          	addi	sp,sp,16
     2c4:	00008067          	ret

000002c8 <MakeRange>:
     2c8:	ff010113          	addi	sp,sp,-16
     2cc:	01010113          	addi	sp,sp,16
     2d0:	00008067          	ret

000002d4 <FloorPowerOfTwo>:
     2d4:	40155793          	srai	a5,a0,0x1
     2d8:	00a7e533          	or	a0,a5,a0
     2dc:	40255793          	srai	a5,a0,0x2
     2e0:	00a7e533          	or	a0,a5,a0
     2e4:	40455793          	srai	a5,a0,0x4
     2e8:	00a7e7b3          	or	a5,a5,a0
     2ec:	4087d513          	srai	a0,a5,0x8
     2f0:	00f56533          	or	a0,a0,a5
     2f4:	41055793          	srai	a5,a0,0x10
     2f8:	00a7e7b3          	or	a5,a5,a0
     2fc:	4017d513          	srai	a0,a5,0x1
     300:	40a78533          	sub	a0,a5,a0
     304:	00008067          	ret

00000308 <BinaryFirst>:
     308:	fc010113          	addi	sp,sp,-64
     30c:	02912a23          	sw	s1,52(sp)
     310:	03412423          	sw	s4,40(sp)
     314:	03512223          	sw	s5,36(sp)
     318:	03612023          	sw	s6,32(sp)
     31c:	01712e23          	sw	s7,28(sp)
     320:	02112e23          	sw	ra,60(sp)
     324:	02812c23          	sw	s0,56(sp)
     328:	03212823          	sw	s2,48(sp)
     32c:	03312623          	sw	s3,44(sp)
     330:	fff68b93          	addi	s7,a3,-1
     334:	00060493          	mv	s1,a2
     338:	00050a13          	mv	s4,a0
     33c:	00058b13          	mv	s6,a1
     340:	00070a93          	mv	s5,a4
     344:	05765263          	bge	a2,s7,388 <BinaryFirst+0x80>
     348:	00359993          	slli	s3,a1,0x3
     34c:	013509b3          	add	s3,a0,s3
     350:	000b8913          	mv	s2,s7
     354:	40990433          	sub	s0,s2,s1
     358:	40145413          	srai	s0,s0,0x1
     35c:	00940433          	add	s0,s0,s1
     360:	00341793          	slli	a5,s0,0x3
     364:	00fa07b3          	add	a5,s4,a5
     368:	0009a603          	lw	a2,0(s3)
     36c:	0049a683          	lw	a3,4(s3)
     370:	0007a503          	lw	a0,0(a5)
     374:	0047a583          	lw	a1,4(a5)
     378:	000a80e7          	jalr	s5
     37c:	06050663          	beqz	a0,3e8 <BinaryFirst+0xe0>
     380:	00140493          	addi	s1,s0,1
     384:	fd24c8e3          	blt	s1,s2,354 <BinaryFirst+0x4c>
     388:	029b9863          	bne	s7,s1,3b8 <BinaryFirst+0xb0>
     38c:	00349793          	slli	a5,s1,0x3
     390:	003b1b13          	slli	s6,s6,0x3
     394:	016a0b33          	add	s6,s4,s6
     398:	00fa0a33          	add	s4,s4,a5
     39c:	000b2603          	lw	a2,0(s6)
     3a0:	004b2683          	lw	a3,4(s6)
     3a4:	000a2503          	lw	a0,0(s4)
     3a8:	004a2583          	lw	a1,4(s4)
     3ac:	000a80e7          	jalr	s5
     3b0:	00a03533          	snez	a0,a0
     3b4:	00a484b3          	add	s1,s1,a0
     3b8:	03c12083          	lw	ra,60(sp)
     3bc:	03812403          	lw	s0,56(sp)
     3c0:	00048513          	mv	a0,s1
     3c4:	03012903          	lw	s2,48(sp)
     3c8:	03412483          	lw	s1,52(sp)
     3cc:	02c12983          	lw	s3,44(sp)
     3d0:	02812a03          	lw	s4,40(sp)
     3d4:	02412a83          	lw	s5,36(sp)
     3d8:	02012b03          	lw	s6,32(sp)
     3dc:	01c12b83          	lw	s7,28(sp)
     3e0:	04010113          	addi	sp,sp,64
     3e4:	00008067          	ret
     3e8:	00040913          	mv	s2,s0
     3ec:	f724c4e3          	blt	s1,s2,354 <BinaryFirst+0x4c>
     3f0:	f99ff06f          	j	388 <BinaryFirst+0x80>

000003f4 <BinaryLast>:
     3f4:	fc010113          	addi	sp,sp,-64
     3f8:	02912a23          	sw	s1,52(sp)
     3fc:	03412423          	sw	s4,40(sp)
     400:	03512223          	sw	s5,36(sp)
     404:	03612023          	sw	s6,32(sp)
     408:	01712e23          	sw	s7,28(sp)
     40c:	02112e23          	sw	ra,60(sp)
     410:	02812c23          	sw	s0,56(sp)
     414:	03212823          	sw	s2,48(sp)
     418:	03312623          	sw	s3,44(sp)
     41c:	fff68b13          	addi	s6,a3,-1
     420:	00060493          	mv	s1,a2
     424:	00050a13          	mv	s4,a0
     428:	00058b93          	mv	s7,a1
     42c:	00070a93          	mv	s5,a4
     430:	05665263          	bge	a2,s6,474 <BinaryLast+0x80>
     434:	00359993          	slli	s3,a1,0x3
     438:	013509b3          	add	s3,a0,s3
     43c:	000b0913          	mv	s2,s6
     440:	40990433          	sub	s0,s2,s1
     444:	40145413          	srai	s0,s0,0x1
     448:	00940433          	add	s0,s0,s1
     44c:	00341793          	slli	a5,s0,0x3
     450:	00fa07b3          	add	a5,s4,a5
     454:	0007a603          	lw	a2,0(a5)
     458:	0047a683          	lw	a3,4(a5)
     45c:	0009a503          	lw	a0,0(s3)
     460:	0049a583          	lw	a1,4(s3)
     464:	000a80e7          	jalr	s5
     468:	06051663          	bnez	a0,4d4 <BinaryLast+0xe0>
     46c:	00140493          	addi	s1,s0,1
     470:	fd24c8e3          	blt	s1,s2,440 <BinaryLast+0x4c>
     474:	029b1863          	bne	s6,s1,4a4 <BinaryLast+0xb0>
     478:	00349793          	slli	a5,s1,0x3
     47c:	003b9b93          	slli	s7,s7,0x3
     480:	00fa07b3          	add	a5,s4,a5
     484:	017a0a33          	add	s4,s4,s7
     488:	0007a603          	lw	a2,0(a5)
     48c:	0047a683          	lw	a3,4(a5)
     490:	000a2503          	lw	a0,0(s4)
     494:	004a2583          	lw	a1,4(s4)
     498:	000a80e7          	jalr	s5
     49c:	00153513          	seqz	a0,a0
     4a0:	00a484b3          	add	s1,s1,a0
     4a4:	03c12083          	lw	ra,60(sp)
     4a8:	03812403          	lw	s0,56(sp)
     4ac:	00048513          	mv	a0,s1
     4b0:	03012903          	lw	s2,48(sp)
     4b4:	03412483          	lw	s1,52(sp)
     4b8:	02c12983          	lw	s3,44(sp)
     4bc:	02812a03          	lw	s4,40(sp)
     4c0:	02412a83          	lw	s5,36(sp)
     4c4:	02012b03          	lw	s6,32(sp)
     4c8:	01c12b83          	lw	s7,28(sp)
     4cc:	04010113          	addi	sp,sp,64
     4d0:	00008067          	ret
     4d4:	00040913          	mv	s2,s0
     4d8:	f724c4e3          	blt	s1,s2,440 <BinaryLast+0x4c>
     4dc:	f99ff06f          	j	474 <BinaryLast+0x80>

000004e0 <InsertionSort>:
     4e0:	fb010113          	addi	sp,sp,-80
     4e4:	03512a23          	sw	s5,52(sp)
     4e8:	00158a93          	addi	s5,a1,1
     4ec:	03412c23          	sw	s4,56(sp)
     4f0:	03712623          	sw	s7,44(sp)
     4f4:	003a9a13          	slli	s4,s5,0x3
     4f8:	00359b93          	slli	s7,a1,0x3
     4fc:	04112623          	sw	ra,76(sp)
     500:	04812423          	sw	s0,72(sp)
     504:	04912223          	sw	s1,68(sp)
     508:	05212023          	sw	s2,64(sp)
     50c:	03312e23          	sw	s3,60(sp)
     510:	03612823          	sw	s6,48(sp)
     514:	00b12423          	sw	a1,8(sp)
     518:	00c12623          	sw	a2,12(sp)
     51c:	01450a33          	add	s4,a0,s4
     520:	01750bb3          	add	s7,a0,s7
     524:	08cad463          	bge	s5,a2,5ac <InsertionSort+0xcc>
     528:	00058913          	mv	s2,a1
     52c:	00060b13          	mv	s6,a2
     530:	00068993          	mv	s3,a3
     534:	000a2683          	lw	a3,0(s4)
     538:	004a2703          	lw	a4,4(s4)
     53c:	000a0793          	mv	a5,s4
     540:	00d12c23          	sw	a3,24(sp)
     544:	00e12e23          	sw	a4,28(sp)
     548:	000a0413          	mv	s0,s4
     54c:	000a8493          	mv	s1,s5
     550:	03594063          	blt	s2,s5,570 <InsertionSort+0x90>
     554:	03c0006f          	j	590 <InsertionSort+0xb0>
     558:	ff842683          	lw	a3,-8(s0)
     55c:	ffc42703          	lw	a4,-4(s0)
     560:	00d42023          	sw	a3,0(s0)
     564:	00e42223          	sw	a4,4(s0)
     568:	ff878413          	addi	s0,a5,-8
     56c:	07248663          	beq	s1,s2,5d8 <InsertionSort+0xf8>
     570:	ff842603          	lw	a2,-8(s0)
     574:	ffc42683          	lw	a3,-4(s0)
     578:	01812503          	lw	a0,24(sp)
     57c:	01c12583          	lw	a1,28(sp)
     580:	fff48493          	addi	s1,s1,-1
     584:	000980e7          	jalr	s3
     588:	00040793          	mv	a5,s0
     58c:	fc0516e3          	bnez	a0,558 <InsertionSort+0x78>
     590:	01812703          	lw	a4,24(sp)
     594:	001a8a93          	addi	s5,s5,1
     598:	008a0a13          	addi	s4,s4,8
     59c:	00e7a023          	sw	a4,0(a5)
     5a0:	01c12703          	lw	a4,28(sp)
     5a4:	00e7a223          	sw	a4,4(a5)
     5a8:	f95b16e3          	bne	s6,s5,534 <InsertionSort+0x54>
     5ac:	04c12083          	lw	ra,76(sp)
     5b0:	04812403          	lw	s0,72(sp)
     5b4:	04412483          	lw	s1,68(sp)
     5b8:	04012903          	lw	s2,64(sp)
     5bc:	03c12983          	lw	s3,60(sp)
     5c0:	03812a03          	lw	s4,56(sp)
     5c4:	03412a83          	lw	s5,52(sp)
     5c8:	03012b03          	lw	s6,48(sp)
     5cc:	02c12b83          	lw	s7,44(sp)
     5d0:	05010113          	addi	sp,sp,80
     5d4:	00008067          	ret
     5d8:	01812703          	lw	a4,24(sp)
     5dc:	000b8793          	mv	a5,s7
     5e0:	001a8a93          	addi	s5,s5,1
     5e4:	00e7a023          	sw	a4,0(a5)
     5e8:	01c12703          	lw	a4,28(sp)
     5ec:	008a0a13          	addi	s4,s4,8
     5f0:	00e7a223          	sw	a4,4(a5)
     5f4:	f55b10e3          	bne	s6,s5,534 <InsertionSort+0x54>
     5f8:	fb5ff06f          	j	5ac <InsertionSort+0xcc>

000005fc <Reverse>:
     5fc:	40b60833          	sub	a6,a2,a1
     600:	01f85793          	srli	a5,a6,0x1f
     604:	010787b3          	add	a5,a5,a6
     608:	ff010113          	addi	sp,sp,-16
     60c:	4017d793          	srai	a5,a5,0x1
     610:	00b12423          	sw	a1,8(sp)
     614:	00c12623          	sw	a2,12(sp)
     618:	fff78713          	addi	a4,a5,-1
     61c:	04074863          	bltz	a4,66c <Reverse+0x70>
     620:	00b70733          	add	a4,a4,a1
     624:	40f607b3          	sub	a5,a2,a5
     628:	00371713          	slli	a4,a4,0x3
     62c:	00379793          	slli	a5,a5,0x3
     630:	00361693          	slli	a3,a2,0x3
     634:	00e50733          	add	a4,a0,a4
     638:	00f507b3          	add	a5,a0,a5
     63c:	00d50533          	add	a0,a0,a3
     640:	0007a583          	lw	a1,0(a5)
     644:	00072603          	lw	a2,0(a4)
     648:	00472683          	lw	a3,4(a4)
     64c:	00b72023          	sw	a1,0(a4)
     650:	0047a583          	lw	a1,4(a5)
     654:	ff870713          	addi	a4,a4,-8
     658:	00878793          	addi	a5,a5,8
     65c:	00b72623          	sw	a1,12(a4)
     660:	fec7ac23          	sw	a2,-8(a5)
     664:	fed7ae23          	sw	a3,-4(a5)
     668:	fca79ce3          	bne	a5,a0,640 <Reverse+0x44>
     66c:	01010113          	addi	sp,sp,16
     670:	00008067          	ret

00000674 <BlockSwap>:
     674:	04d05663          	blez	a3,6c0 <BlockSwap+0x4c>
     678:	00b686b3          	add	a3,a3,a1
     67c:	00361613          	slli	a2,a2,0x3
     680:	00359593          	slli	a1,a1,0x3
     684:	00369693          	slli	a3,a3,0x3
     688:	00b505b3          	add	a1,a0,a1
     68c:	00c50633          	add	a2,a0,a2
     690:	00d50533          	add	a0,a0,a3
     694:	00062683          	lw	a3,0(a2)
     698:	0005a703          	lw	a4,0(a1)
     69c:	0045a783          	lw	a5,4(a1)
     6a0:	00d5a023          	sw	a3,0(a1)
     6a4:	00462683          	lw	a3,4(a2)
     6a8:	00858593          	addi	a1,a1,8
     6ac:	00860613          	addi	a2,a2,8
     6b0:	fed5ae23          	sw	a3,-4(a1)
     6b4:	fee62c23          	sw	a4,-8(a2)
     6b8:	fef62e23          	sw	a5,-4(a2)
     6bc:	fca59ce3          	bne	a1,a0,694 <BlockSwap+0x20>
     6c0:	00008067          	ret

000006c4 <Rotate>:
     6c4:	fc010113          	addi	sp,sp,-64
     6c8:	02112e23          	sw	ra,60(sp)
     6cc:	02812c23          	sw	s0,56(sp)
     6d0:	02912a23          	sw	s1,52(sp)
     6d4:	03212823          	sw	s2,48(sp)
     6d8:	03312623          	sw	s3,44(sp)
     6dc:	03412423          	sw	s4,40(sp)
     6e0:	03512223          	sw	s5,36(sp)
     6e4:	00c12423          	sw	a2,8(sp)
     6e8:	00d12623          	sw	a3,12(sp)
     6ec:	10c68063          	beq	a3,a2,7ec <Rotate+0x128>
     6f0:	00060913          	mv	s2,a2
     6f4:	00068493          	mv	s1,a3
     6f8:	00050a13          	mv	s4,a0
     6fc:	00058413          	mv	s0,a1
     700:	00c589b3          	add	s3,a1,a2
     704:	0c05ca63          	bltz	a1,7d8 <Rotate+0x114>
     708:	41348ab3          	sub	s5,s1,s3
     70c:	048adc63          	bge	s5,s0,764 <Rotate+0xa0>
     710:	1157d063          	bge	a5,s5,810 <Rotate+0x14c>
     714:	00090593          	mv	a1,s2
     718:	00098613          	mv	a2,s3
     71c:	000a0513          	mv	a0,s4
     720:	eddff0ef          	jal	ra,5fc <Reverse>
     724:	00098593          	mv	a1,s3
     728:	00048613          	mv	a2,s1
     72c:	000a0513          	mv	a0,s4
     730:	ecdff0ef          	jal	ra,5fc <Reverse>
     734:	03812403          	lw	s0,56(sp)
     738:	00812583          	lw	a1,8(sp)
     73c:	00c12603          	lw	a2,12(sp)
     740:	03c12083          	lw	ra,60(sp)
     744:	03412483          	lw	s1,52(sp)
     748:	03012903          	lw	s2,48(sp)
     74c:	02c12983          	lw	s3,44(sp)
     750:	02412a83          	lw	s5,36(sp)
     754:	000a0513          	mv	a0,s4
     758:	02812a03          	lw	s4,40(sp)
     75c:	04010113          	addi	sp,sp,64
     760:	e9dff06f          	j	5fc <Reverse>
     764:	fa87c8e3          	blt	a5,s0,714 <Rotate+0x50>
     768:	00391493          	slli	s1,s2,0x3
     76c:	009a04b3          	add	s1,s4,s1
     770:	00341413          	slli	s0,s0,0x3
     774:	00070513          	mv	a0,a4
     778:	00040613          	mv	a2,s0
     77c:	00048593          	mv	a1,s1
     780:	00e12223          	sw	a4,4(sp)
     784:	6f9030ef          	jal	ra,467c <memcpy>
     788:	00399593          	slli	a1,s3,0x3
     78c:	003a9613          	slli	a2,s5,0x3
     790:	00ba05b3          	add	a1,s4,a1
     794:	00048513          	mv	a0,s1
     798:	000040ef          	jal	ra,4798 <memmove>
     79c:	00412703          	lw	a4,4(sp)
     7a0:	012a8933          	add	s2,s5,s2
     7a4:	00391513          	slli	a0,s2,0x3
     7a8:	00040613          	mv	a2,s0
     7ac:	00070593          	mv	a1,a4
     7b0:	00aa0533          	add	a0,s4,a0
     7b4:	03812403          	lw	s0,56(sp)
     7b8:	03c12083          	lw	ra,60(sp)
     7bc:	03412483          	lw	s1,52(sp)
     7c0:	03012903          	lw	s2,48(sp)
     7c4:	02c12983          	lw	s3,44(sp)
     7c8:	02812a03          	lw	s4,40(sp)
     7cc:	02412a83          	lw	s5,36(sp)
     7d0:	04010113          	addi	sp,sp,64
     7d4:	6a90306f          	j	467c <memcpy>
     7d8:	00b689b3          	add	s3,a3,a1
     7dc:	40c98433          	sub	s0,s3,a2
     7e0:	41348ab3          	sub	s5,s1,s3
     7e4:	f28ac6e3          	blt	s5,s0,710 <Rotate+0x4c>
     7e8:	f7dff06f          	j	764 <Rotate+0xa0>
     7ec:	03c12083          	lw	ra,60(sp)
     7f0:	03812403          	lw	s0,56(sp)
     7f4:	03412483          	lw	s1,52(sp)
     7f8:	03012903          	lw	s2,48(sp)
     7fc:	02c12983          	lw	s3,44(sp)
     800:	02812a03          	lw	s4,40(sp)
     804:	02412a83          	lw	s5,36(sp)
     808:	04010113          	addi	sp,sp,64
     80c:	00008067          	ret
     810:	003a9a93          	slli	s5,s5,0x3
     814:	00399593          	slli	a1,s3,0x3
     818:	00070513          	mv	a0,a4
     81c:	000a8613          	mv	a2,s5
     820:	00ba05b3          	add	a1,s4,a1
     824:	00e12223          	sw	a4,4(sp)
     828:	00391913          	slli	s2,s2,0x3
     82c:	651030ef          	jal	ra,467c <memcpy>
     830:	408484b3          	sub	s1,s1,s0
     834:	012a0933          	add	s2,s4,s2
     838:	00349513          	slli	a0,s1,0x3
     83c:	00341613          	slli	a2,s0,0x3
     840:	00090593          	mv	a1,s2
     844:	00aa0533          	add	a0,s4,a0
     848:	751030ef          	jal	ra,4798 <memmove>
     84c:	00412703          	lw	a4,4(sp)
     850:	000a8613          	mv	a2,s5
     854:	00090513          	mv	a0,s2
     858:	00070593          	mv	a1,a4
     85c:	f59ff06f          	j	7b4 <Rotate+0xf0>

00000860 <WikiMerge>:
     860:	f9010113          	addi	sp,sp,-112
     864:	07412e03          	lw	t3,116(sp)
     868:	05512a23          	sw	s5,84(sp)
     86c:	02e12223          	sw	a4,36(sp)
     870:	40d70ab3          	sub	s5,a4,a3
     874:	40f80733          	sub	a4,a6,a5
     878:	06812423          	sw	s0,104(sp)
     87c:	05412c23          	sw	s4,88(sp)
     880:	05612823          	sw	s6,80(sp)
     884:	03b12e23          	sw	s11,60(sp)
     888:	06112623          	sw	ra,108(sp)
     88c:	06912223          	sw	s1,100(sp)
     890:	07212023          	sw	s2,96(sp)
     894:	05312e23          	sw	s3,92(sp)
     898:	05712623          	sw	s7,76(sp)
     89c:	05812423          	sw	s8,72(sp)
     8a0:	05912223          	sw	s9,68(sp)
     8a4:	05a12023          	sw	s10,64(sp)
     8a8:	00d12a23          	sw	a3,20(sp)
     8ac:	02b12423          	sw	a1,40(sp)
     8b0:	02c12623          	sw	a2,44(sp)
     8b4:	02d12023          	sw	a3,32(sp)
     8b8:	00f12c23          	sw	a5,24(sp)
     8bc:	01012e23          	sw	a6,28(sp)
     8c0:	00e12623          	sw	a4,12(sp)
     8c4:	00078a13          	mv	s4,a5
     8c8:	00050d93          	mv	s11,a0
     8cc:	00088b13          	mv	s6,a7
     8d0:	07012403          	lw	s0,112(sp)
     8d4:	0b5e4463          	blt	t3,s5,97c <WikiMerge+0x11c>
     8d8:	00369493          	slli	s1,a3,0x3
     8dc:	003a9913          	slli	s2,s5,0x3
     8e0:	009504b3          	add	s1,a0,s1
     8e4:	01240933          	add	s2,s0,s2
     8e8:	04e05663          	blez	a4,934 <WikiMerge+0xd4>
     8ec:	05505463          	blez	s5,934 <WikiMerge+0xd4>
     8f0:	003a1a13          	slli	s4,s4,0x3
     8f4:	00381313          	slli	t1,a6,0x3
     8f8:	01450a33          	add	s4,a0,s4
     8fc:	00650db3          	add	s11,a0,t1
     900:	00042603          	lw	a2,0(s0)
     904:	00442683          	lw	a3,4(s0)
     908:	000a2503          	lw	a0,0(s4)
     90c:	004a2583          	lw	a1,4(s4)
     910:	00848493          	addi	s1,s1,8
     914:	000b00e7          	jalr	s6
     918:	1e051263          	bnez	a0,afc <WikiMerge+0x29c>
     91c:	00042783          	lw	a5,0(s0)
     920:	00840413          	addi	s0,s0,8
     924:	fef4ac23          	sw	a5,-8(s1)
     928:	ffc42783          	lw	a5,-4(s0)
     92c:	fef4ae23          	sw	a5,-4(s1)
     930:	fc8918e3          	bne	s2,s0,900 <WikiMerge+0xa0>
     934:	40890633          	sub	a2,s2,s0
     938:	00040593          	mv	a1,s0
     93c:	06812403          	lw	s0,104(sp)
     940:	06c12083          	lw	ra,108(sp)
     944:	06012903          	lw	s2,96(sp)
     948:	05c12983          	lw	s3,92(sp)
     94c:	05812a03          	lw	s4,88(sp)
     950:	05412a83          	lw	s5,84(sp)
     954:	05012b03          	lw	s6,80(sp)
     958:	04c12b83          	lw	s7,76(sp)
     95c:	04812c03          	lw	s8,72(sp)
     960:	04412c83          	lw	s9,68(sp)
     964:	04012d03          	lw	s10,64(sp)
     968:	03c12d83          	lw	s11,60(sp)
     96c:	00048513          	mv	a0,s1
     970:	06412483          	lw	s1,100(sp)
     974:	07010113          	addi	sp,sp,112
     978:	5050306f          	j	467c <memcpy>
     97c:	00c12783          	lw	a5,12(sp)
     980:	00b12823          	sw	a1,16(sp)
     984:	0cf05863          	blez	a5,a54 <WikiMerge+0x1f4>
     988:	13505063          	blez	s5,aa8 <WikiMerge+0x248>
     98c:	01412783          	lw	a5,20(sp)
     990:	00000493          	li	s1,0
     994:	00000c93          	li	s9,0
     998:	00379d13          	slli	s10,a5,0x3
     99c:	01a50d33          	add	s10,a0,s10
     9a0:	00000413          	li	s0,0
     9a4:	000a0c13          	mv	s8,s4
     9a8:	00058b93          	mv	s7,a1
     9ac:	003c1913          	slli	s2,s8,0x3
     9b0:	003b9993          	slli	s3,s7,0x3
     9b4:	012d8933          	add	s2,s11,s2
     9b8:	013d89b3          	add	s3,s11,s3
     9bc:	0009a603          	lw	a2,0(s3)
     9c0:	0049a683          	lw	a3,4(s3)
     9c4:	00092503          	lw	a0,0(s2)
     9c8:	00492583          	lw	a1,4(s2)
     9cc:	00148493          	addi	s1,s1,1
     9d0:	000b00e7          	jalr	s6
     9d4:	02051e63          	bnez	a0,a10 <WikiMerge+0x1b0>
     9d8:	0009a583          	lw	a1,0(s3)
     9dc:	000d2603          	lw	a2,0(s10)
     9e0:	004d2683          	lw	a3,4(s10)
     9e4:	00bd2023          	sw	a1,0(s10)
     9e8:	0049a583          	lw	a1,4(s3)
     9ec:	01012783          	lw	a5,16(sp)
     9f0:	00140413          	addi	s0,s0,1
     9f4:	00bd2223          	sw	a1,4(s10)
     9f8:	00c9a023          	sw	a2,0(s3)
     9fc:	00d9a223          	sw	a3,4(s3)
     a00:	00f40bb3          	add	s7,s0,a5
     a04:	0f545063          	bge	s0,s5,ae4 <WikiMerge+0x284>
     a08:	008d0d13          	addi	s10,s10,8
     a0c:	fa1ff06f          	j	9ac <WikiMerge+0x14c>
     a10:	00092583          	lw	a1,0(s2)
     a14:	000d2603          	lw	a2,0(s10)
     a18:	004d2683          	lw	a3,4(s10)
     a1c:	00bd2023          	sw	a1,0(s10)
     a20:	00492583          	lw	a1,4(s2)
     a24:	00c12783          	lw	a5,12(sp)
     a28:	001c8c93          	addi	s9,s9,1
     a2c:	00bd2223          	sw	a1,4(s10)
     a30:	00c92023          	sw	a2,0(s2)
     a34:	00d92223          	sw	a3,4(s2)
     a38:	014c8c33          	add	s8,s9,s4
     a3c:	fcfcc6e3          	blt	s9,a5,a08 <WikiMerge+0x1a8>
     a40:	01412783          	lw	a5,20(sp)
     a44:	408a8ab3          	sub	s5,s5,s0
     a48:	01712823          	sw	s7,16(sp)
     a4c:	009787b3          	add	a5,a5,s1
     a50:	00f12a23          	sw	a5,20(sp)
     a54:	05505a63          	blez	s5,aa8 <WikiMerge+0x248>
     a58:	01012783          	lw	a5,16(sp)
     a5c:	01412703          	lw	a4,20(sp)
     a60:	00fa8ab3          	add	s5,s5,a5
     a64:	00371713          	slli	a4,a4,0x3
     a68:	00379793          	slli	a5,a5,0x3
     a6c:	003a9a93          	slli	s5,s5,0x3
     a70:	00fd87b3          	add	a5,s11,a5
     a74:	00ed8733          	add	a4,s11,a4
     a78:	015d8db3          	add	s11,s11,s5
     a7c:	00072583          	lw	a1,0(a4)
     a80:	0007a603          	lw	a2,0(a5)
     a84:	0047a683          	lw	a3,4(a5)
     a88:	00b7a023          	sw	a1,0(a5)
     a8c:	00472583          	lw	a1,4(a4)
     a90:	00878793          	addi	a5,a5,8
     a94:	00870713          	addi	a4,a4,8
     a98:	feb7ae23          	sw	a1,-4(a5)
     a9c:	fec72c23          	sw	a2,-8(a4)
     aa0:	fed72e23          	sw	a3,-4(a4)
     aa4:	fcfd9ce3          	bne	s11,a5,a7c <WikiMerge+0x21c>
     aa8:	06c12083          	lw	ra,108(sp)
     aac:	06812403          	lw	s0,104(sp)
     ab0:	06412483          	lw	s1,100(sp)
     ab4:	06012903          	lw	s2,96(sp)
     ab8:	05c12983          	lw	s3,92(sp)
     abc:	05812a03          	lw	s4,88(sp)
     ac0:	05412a83          	lw	s5,84(sp)
     ac4:	05012b03          	lw	s6,80(sp)
     ac8:	04c12b83          	lw	s7,76(sp)
     acc:	04812c03          	lw	s8,72(sp)
     ad0:	04412c83          	lw	s9,68(sp)
     ad4:	04012d03          	lw	s10,64(sp)
     ad8:	03c12d83          	lw	s11,60(sp)
     adc:	07010113          	addi	sp,sp,112
     ae0:	00008067          	ret
     ae4:	01412783          	lw	a5,20(sp)
     ae8:	01712823          	sw	s7,16(sp)
     aec:	408a8ab3          	sub	s5,s5,s0
     af0:	009787b3          	add	a5,a5,s1
     af4:	00f12a23          	sw	a5,20(sp)
     af8:	f5dff06f          	j	a54 <WikiMerge+0x1f4>
     afc:	000a2783          	lw	a5,0(s4)
     b00:	008a0a13          	addi	s4,s4,8
     b04:	fef4ac23          	sw	a5,-8(s1)
     b08:	ffca2783          	lw	a5,-4(s4)
     b0c:	fef4ae23          	sw	a5,-4(s1)
     b10:	df4d98e3          	bne	s11,s4,900 <WikiMerge+0xa0>
     b14:	e21ff06f          	j	934 <WikiMerge+0xd4>

00000b18 <WikiSort>:
     b18:	eb010113          	addi	sp,sp,-336
     b1c:	fffff337          	lui	t1,0xfffff
     b20:	13712623          	sw	s7,300(sp)
     b24:	14112623          	sw	ra,332(sp)
     b28:	14812423          	sw	s0,328(sp)
     b2c:	14912223          	sw	s1,324(sp)
     b30:	15212023          	sw	s2,320(sp)
     b34:	13312e23          	sw	s3,316(sp)
     b38:	13412c23          	sw	s4,312(sp)
     b3c:	13512a23          	sw	s5,308(sp)
     b40:	13612823          	sw	s6,304(sp)
     b44:	13812423          	sw	s8,296(sp)
     b48:	13912223          	sw	s9,292(sp)
     b4c:	13a12023          	sw	s10,288(sp)
     b50:	11b12e23          	sw	s11,284(sp)
     b54:	00610133          	add	sp,sp,t1
     b58:	04b12a23          	sw	a1,84(sp)
     b5c:	02000793          	li	a5,32
     b60:	00060b93          	mv	s7,a2
     b64:	00b7c463          	blt	a5,a1,b6c <WikiSort+0x54>
     b68:	0040106f          	j	1b6c <WikiSort+0x1054>
     b6c:	05412a83          	lw	s5,84(sp)
     b70:	00050d13          	mv	s10,a0
     b74:	00000493          	li	s1,0
     b78:	401ad793          	srai	a5,s5,0x1
     b7c:	0157e733          	or	a4,a5,s5
     b80:	40275793          	srai	a5,a4,0x2
     b84:	00e7e7b3          	or	a5,a5,a4
     b88:	4047d713          	srai	a4,a5,0x4
     b8c:	00f76733          	or	a4,a4,a5
     b90:	40875793          	srai	a5,a4,0x8
     b94:	00e7e733          	or	a4,a5,a4
     b98:	41075793          	srai	a5,a4,0x10
     b9c:	00e7e7b3          	or	a5,a5,a4
     ba0:	4017d713          	srai	a4,a5,0x1
     ba4:	40e78733          	sub	a4,a5,a4
     ba8:	41f75793          	srai	a5,a4,0x1f
     bac:	00f7f793          	andi	a5,a5,15
     bb0:	00e787b3          	add	a5,a5,a4
     bb4:	4047d913          	srai	s2,a5,0x4
     bb8:	00090593          	mv	a1,s2
     bbc:	000a8513          	mv	a0,s5
     bc0:	06e12e23          	sw	a4,124(sp)
     bc4:	03212e23          	sw	s2,60(sp)
     bc8:	1a5030ef          	jal	ra,456c <__modsi3>
     bcc:	02a12c23          	sw	a0,56(sp)
     bd0:	00050993          	mv	s3,a0
     bd4:	00090593          	mv	a1,s2
     bd8:	000a8513          	mv	a0,s5
     bdc:	10d030ef          	jal	ra,44e8 <__divsi3>
     be0:	000016b7          	lui	a3,0x1
     be4:	0a068693          	addi	a3,a3,160 # 10a0 <WikiSort+0x588>
     be8:	07010613          	addi	a2,sp,112
     bec:	fffff737          	lui	a4,0xfffff
     bf0:	00c686b3          	add	a3,a3,a2
     bf4:	00e68733          	add	a4,a3,a4
     bf8:	00050a13          	mv	s4,a0
     bfc:	02a12823          	sw	a0,48(sp)
     c00:	00000793          	li	a5,0
     c04:	00e12823          	sw	a4,16(sp)
     c08:	0080006f          	j	c10 <WikiSort+0xf8>
     c0c:	00040793          	mv	a5,s0
     c10:	013484b3          	add	s1,s1,s3
     c14:	00078593          	mv	a1,a5
     c18:	000b8693          	mv	a3,s7
     c1c:	000d0513          	mv	a0,s10
     c20:	00fa0433          	add	s0,s4,a5
     c24:	0124c663          	blt	s1,s2,c30 <WikiSort+0x118>
     c28:	00140413          	addi	s0,s0,1
     c2c:	412484b3          	sub	s1,s1,s2
     c30:	01012703          	lw	a4,16(sp)
     c34:	00040613          	mv	a2,s0
     c38:	faf72423          	sw	a5,-88(a4) # ffffefa8 <_impure_ptr+0xffff8688>
     c3c:	fa872623          	sw	s0,-84(a4)
     c40:	8a1ff0ef          	jal	ra,4e0 <InsertionSort>
     c44:	fd5444e3          	blt	s0,s5,c0c <WikiSort+0xf4>
     c48:	07c12703          	lw	a4,124(sp)
     c4c:	01000793          	li	a5,16
     c50:	06f12223          	sw	a5,100(sp)
     c54:	68e7d463          	bge	a5,a4,12dc <WikiSort+0x7c4>
     c58:	200007b7          	lui	a5,0x20000
     c5c:	00001737          	lui	a4,0x1
     c60:	fff78793          	addi	a5,a5,-1 # 1fffffff <_impure_ptr+0x1fff96df>
     c64:	0a070713          	addi	a4,a4,160 # 10a0 <WikiSort+0x588>
     c68:	07010693          	addi	a3,sp,112
     c6c:	02f12223          	sw	a5,36(sp)
     c70:	00d70733          	add	a4,a4,a3
     c74:	fffff7b7          	lui	a5,0xfffff
     c78:	00f70db3          	add	s11,a4,a5
     c7c:	000b8c13          	mv	s8,s7
     c80:	03012403          	lw	s0,48(sp)
     c84:	00000c93          	li	s9,0
     c88:	000d0b93          	mv	s7,s10
     c8c:	00040513          	mv	a0,s0
     c90:	788030ef          	jal	ra,4418 <__floatsidf>
     c94:	4a8010ef          	jal	ra,213c <sqrt>
     c98:	700030ef          	jal	ra,4398 <__fixdfsi>
     c9c:	00050a13          	mv	s4,a0
     ca0:	00050593          	mv	a1,a0
     ca4:	00040513          	mv	a0,s0
     ca8:	041030ef          	jal	ra,44e8 <__divsi3>
     cac:	00150793          	addi	a5,a0,1
     cb0:	04f12c23          	sw	a5,88(sp)
     cb4:	00179793          	slli	a5,a5,0x1
     cb8:	06f12c23          	sw	a5,120(sp)
     cbc:	003a1793          	slli	a5,s4,0x3
     cc0:	04a12e23          	sw	a0,92(sp)
     cc4:	04f12223          	sw	a5,68(sp)
     cc8:	02012023          	sw	zero,32(sp)
     ccc:	06012623          	sw	zero,108(sp)
     cd0:	02012a23          	sw	zero,52(sp)
     cd4:	02012423          	sw	zero,40(sp)
     cd8:	04012623          	sw	zero,76(sp)
     cdc:	02012623          	sw	zero,44(sp)
     ce0:	06012023          	sw	zero,96(sp)
     ce4:	06012823          	sw	zero,112(sp)
     ce8:	06012423          	sw	zero,104(sp)
     cec:	02c12703          	lw	a4,44(sp)
     cf0:	03812783          	lw	a5,56(sp)
     cf4:	00e787b3          	add	a5,a5,a4
     cf8:	03012703          	lw	a4,48(sp)
     cfc:	019704b3          	add	s1,a4,s9
     d00:	03c12703          	lw	a4,60(sp)
     d04:	00e7c663          	blt	a5,a4,d10 <WikiSort+0x1f8>
     d08:	40e787b3          	sub	a5,a5,a4
     d0c:	00148493          	addi	s1,s1,1
     d10:	03812703          	lw	a4,56(sp)
     d14:	03c12683          	lw	a3,60(sp)
     d18:	00e787b3          	add	a5,a5,a4
     d1c:	03012703          	lw	a4,48(sp)
     d20:	02f12623          	sw	a5,44(sp)
     d24:	00e48733          	add	a4,s1,a4
     d28:	00e12a23          	sw	a4,20(sp)
     d2c:	00d7ca63          	blt	a5,a3,d40 <WikiSort+0x228>
     d30:	40d787b3          	sub	a5,a5,a3
     d34:	02f12623          	sw	a5,44(sp)
     d38:	00170793          	addi	a5,a4,1
     d3c:	00f12a23          	sw	a5,20(sp)
     d40:	02412703          	lw	a4,36(sp)
     d44:	01412783          	lw	a5,20(sp)
     d48:	003c9913          	slli	s2,s9,0x3
     d4c:	012b8933          	add	s2,s7,s2
     d50:	00e787b3          	add	a5,a5,a4
     d54:	00379793          	slli	a5,a5,0x3
     d58:	00fb87b3          	add	a5,s7,a5
     d5c:	0007a503          	lw	a0,0(a5) # fffff000 <_impure_ptr+0xffff86e0>
     d60:	0047a583          	lw	a1,4(a5)
     d64:	02012703          	lw	a4,32(sp)
     d68:	04c12783          	lw	a5,76(sp)
     d6c:	00092603          	lw	a2,0(s2)
     d70:	00492683          	lw	a3,4(s2)
     d74:	40e787b3          	sub	a5,a5,a4
     d78:	04f12423          	sw	a5,72(sp)
     d7c:	000c00e7          	jalr	s8
     d80:	4c051663          	bnez	a0,124c <WikiSort+0x734>
     d84:	00349793          	slli	a5,s1,0x3
     d88:	00fb87b3          	add	a5,s7,a5
     d8c:	ff87a603          	lw	a2,-8(a5)
     d90:	ffc7a683          	lw	a3,-4(a5)
     d94:	0007a503          	lw	a0,0(a5)
     d98:	0047a583          	lw	a1,4(a5)
     d9c:	000c00e7          	jalr	s8
     da0:	3c050663          	beqz	a0,116c <WikiSort+0x654>
     da4:	419487b3          	sub	a5,s1,s9
     da8:	00f12823          	sw	a5,16(sp)
     dac:	20000713          	li	a4,512
     db0:	00f75ae3          	bge	a4,a5,15c4 <WikiSort+0xaac>
     db4:	01412783          	lw	a5,20(sp)
     db8:	04f12023          	sw	a5,64(sp)
     dbc:	04812783          	lw	a5,72(sp)
     dc0:	56f05463          	blez	a5,1328 <WikiSort+0x810>
     dc4:	01012503          	lw	a0,16(sp)
     dc8:	000a0593          	mv	a1,s4
     dcc:	7a0030ef          	jal	ra,456c <__modsi3>
     dd0:	01950ab3          	add	s5,a0,s9
     dd4:	001a8693          	addi	a3,s5,1
     dd8:	000a8413          	mv	s0,s5
     ddc:	7896da63          	bge	a3,s1,1570 <WikiSort+0xa58>
     de0:	02012783          	lw	a5,32(sp)
     de4:	04412883          	lw	a7,68(sp)
     de8:	003a9313          	slli	t1,s5,0x3
     dec:	00379793          	slli	a5,a5,0x3
     df0:	00fb87b3          	add	a5,s7,a5
     df4:	006b8733          	add	a4,s7,t1
     df8:	00872803          	lw	a6,8(a4)
     dfc:	0007a583          	lw	a1,0(a5)
     e00:	0047a603          	lw	a2,4(a5)
     e04:	0107a023          	sw	a6,0(a5)
     e08:	00c72803          	lw	a6,12(a4)
     e0c:	00878793          	addi	a5,a5,8
     e10:	014686b3          	add	a3,a3,s4
     e14:	ff07ae23          	sw	a6,-4(a5)
     e18:	00b72423          	sw	a1,8(a4)
     e1c:	00c72623          	sw	a2,12(a4)
     e20:	01170733          	add	a4,a4,a7
     e24:	fc96cae3          	blt	a3,s1,df8 <WikiSort+0x2e0>
     e28:	04012783          	lw	a5,64(sp)
     e2c:	40978b33          	sub	s6,a5,s1
     e30:	016a5463          	bge	s4,s6,e38 <WikiSort+0x320>
     e34:	000a0b13          	mv	s6,s4
     e38:	006b87b3          	add	a5,s7,t1
     e3c:	0007a703          	lw	a4,0(a5)
     e40:	0047a783          	lw	a5,4(a5)
     e44:	009b0b33          	add	s6,s6,s1
     e48:	f8eda823          	sw	a4,-112(s11)
     e4c:	f8fdaa23          	sw	a5,-108(s11)
     e50:	20000793          	li	a5,512
     e54:	72a7c263          	blt	a5,a0,1578 <WikiSort+0xa60>
     e58:	00351613          	slli	a2,a0,0x3
     e5c:	00090593          	mv	a1,s2
     e60:	000d8513          	mv	a0,s11
     e64:	019030ef          	jal	ra,467c <memcpy>
     e68:	02812783          	lw	a5,40(sp)
     e6c:	00379813          	slli	a6,a5,0x3
     e70:	010b87b3          	add	a5,s7,a6
     e74:	00000813          	li	a6,0
     e78:	01912c23          	sw	s9,24(sp)
     e7c:	00040d13          	mv	s10,s0
     e80:	000b8c93          	mv	s9,s7
     e84:	04f12823          	sw	a5,80(sp)
     e88:	00912823          	sw	s1,16(sp)
     e8c:	00000913          	li	s2,0
     e90:	00012e23          	sw	zero,28(sp)
     e94:	000a8b93          	mv	s7,s5
     e98:	00080413          	mv	s0,a6
     e9c:	408907b3          	sub	a5,s2,s0
     ea0:	22f05463          	blez	a5,10c8 <WikiSort+0x5b0>
     ea4:	02412783          	lw	a5,36(sp)
     ea8:	f90da603          	lw	a2,-112(s11)
     eac:	f94da683          	lw	a3,-108(s11)
     eb0:	00f907b3          	add	a5,s2,a5
     eb4:	00379793          	slli	a5,a5,0x3
     eb8:	00fc87b3          	add	a5,s9,a5
     ebc:	0007a503          	lw	a0,0(a5)
     ec0:	0047a583          	lw	a1,4(a5)
     ec4:	000c00e7          	jalr	s8
     ec8:	20051063          	bnez	a0,10c8 <WikiSort+0x5b0>
     ecc:	00040613          	mv	a2,s0
     ed0:	00090693          	mv	a3,s2
     ed4:	f88da423          	sw	s0,-120(s11)
     ed8:	f92da623          	sw	s2,-116(s11)
     edc:	000c0713          	mv	a4,s8
     ee0:	000d0593          	mv	a1,s10
     ee4:	000c8513          	mv	a0,s9
     ee8:	c20ff0ef          	jal	ra,308 <BinaryFirst>
     eec:	00050413          	mv	s0,a0
     ef0:	40a90933          	sub	s2,s2,a0
     ef4:	017a09b3          	add	s3,s4,s7
     ef8:	05405463          	blez	s4,f40 <WikiSort+0x428>
     efc:	003b9793          	slli	a5,s7,0x3
     f00:	003d1713          	slli	a4,s10,0x3
     f04:	00399513          	slli	a0,s3,0x3
     f08:	00fc87b3          	add	a5,s9,a5
     f0c:	00ec8733          	add	a4,s9,a4
     f10:	00ac8533          	add	a0,s9,a0
     f14:	00072583          	lw	a1,0(a4)
     f18:	0007a603          	lw	a2,0(a5)
     f1c:	0047a683          	lw	a3,4(a5)
     f20:	00b7a023          	sw	a1,0(a5)
     f24:	00472583          	lw	a1,4(a4)
     f28:	00878793          	addi	a5,a5,8
     f2c:	00870713          	addi	a4,a4,8
     f30:	feb7ae23          	sw	a1,-4(a5)
     f34:	fec72c23          	sw	a2,-8(a4)
     f38:	fed72e23          	sw	a3,-4(a4)
     f3c:	fcf51ce3          	bne	a0,a5,f14 <WikiSort+0x3fc>
     f40:	01c12303          	lw	t1,28(sp)
     f44:	02012783          	lw	a5,32(sp)
     f48:	001b8e93          	addi	t4,s7,1
     f4c:	003e9d13          	slli	s10,t4,0x3
     f50:	00f30733          	add	a4,t1,a5
     f54:	00371713          	slli	a4,a4,0x3
     f58:	00ec8733          	add	a4,s9,a4
     f5c:	00072683          	lw	a3,0(a4)
     f60:	01ac87b3          	add	a5,s9,s10
     f64:	0007a603          	lw	a2,0(a5)
     f68:	00d7a023          	sw	a3,0(a5)
     f6c:	00472583          	lw	a1,4(a4)
     f70:	0047a683          	lw	a3,4(a5)
     f74:	20000513          	li	a0,512
     f78:	00a12223          	sw	a0,4(sp)
     f7c:	00b7a223          	sw	a1,4(a5)
     f80:	01812f03          	lw	t5,24(sp)
     f84:	02812e03          	lw	t3,40(sp)
     f88:	03412e83          	lw	t4,52(sp)
     f8c:	00c72023          	sw	a2,0(a4)
     f90:	00d72223          	sw	a3,4(a4)
     f94:	01b12023          	sw	s11,0(sp)
     f98:	000c8513          	mv	a0,s9
     f9c:	00130313          	addi	t1,t1,1 # fffff001 <_impure_ptr+0xffff86e1>
     fa0:	000c0893          	mv	a7,s8
     fa4:	000a8793          	mv	a5,s5
     fa8:	00040813          	mv	a6,s0
     fac:	000f0693          	mv	a3,t5
     fb0:	000a8713          	mv	a4,s5
     fb4:	000e0593          	mv	a1,t3
     fb8:	000e8613          	mv	a2,t4
     fbc:	fd5dac23          	sw	s5,-40(s11)
     fc0:	fc8dae23          	sw	s0,-36(s11)
     fc4:	f7cdac23          	sw	t3,-136(s11)
     fc8:	f7ddae23          	sw	t4,-132(s11)
     fcc:	f9eda023          	sw	t5,-128(s11)
     fd0:	f95da223          	sw	s5,-124(s11)
     fd4:	00612e23          	sw	t1,28(sp)
     fd8:	889ff0ef          	jal	ra,860 <WikiMerge>
     fdc:	20000513          	li	a0,512
     fe0:	1b454063          	blt	a0,s4,1180 <WikiSort+0x668>
     fe4:	04412603          	lw	a2,68(sp)
     fe8:	ff8d0593          	addi	a1,s10,-8
     fec:	00bc85b3          	add	a1,s9,a1
     ff0:	000d8513          	mv	a0,s11
     ff4:	688030ef          	jal	ra,467c <memcpy>
     ff8:	41298733          	sub	a4,s3,s2
     ffc:	05205663          	blez	s2,1048 <WikiSort+0x530>
    1000:	00890533          	add	a0,s2,s0
    1004:	00341793          	slli	a5,s0,0x3
    1008:	00371713          	slli	a4,a4,0x3
    100c:	00351513          	slli	a0,a0,0x3
    1010:	00fc87b3          	add	a5,s9,a5
    1014:	00ec8733          	add	a4,s9,a4
    1018:	00ac8533          	add	a0,s9,a0
    101c:	00072583          	lw	a1,0(a4)
    1020:	0007a603          	lw	a2,0(a5)
    1024:	0047a683          	lw	a3,4(a5)
    1028:	00b7a023          	sw	a1,0(a5)
    102c:	00472583          	lw	a1,4(a4)
    1030:	00878793          	addi	a5,a5,8
    1034:	00870713          	addi	a4,a4,8
    1038:	feb7ae23          	sw	a1,-4(a5)
    103c:	fec72c23          	sw	a2,-8(a4)
    1040:	fed72e23          	sw	a3,-4(a4)
    1044:	fca79ce3          	bne	a5,a0,101c <WikiSort+0x504>
    1048:	412b87b3          	sub	a5,s7,s2
    104c:	01478ab3          	add	s5,a5,s4
    1050:	00f12c23          	sw	a5,24(sp)
    1054:	012a8933          	add	s2,s5,s2
    1058:	0c998463          	beq	s3,s1,1120 <WikiSort+0x608>
    105c:	00198d13          	addi	s10,s3,1
    1060:	01aa0433          	add	s0,s4,s10
    1064:	2a945e63          	bge	s0,s1,1320 <WikiSort+0x808>
    1068:	003d1713          	slli	a4,s10,0x3
    106c:	00341793          	slli	a5,s0,0x3
    1070:	00ec8733          	add	a4,s9,a4
    1074:	00fc87b3          	add	a5,s9,a5
    1078:	00072603          	lw	a2,0(a4)
    107c:	00472683          	lw	a3,4(a4)
    1080:	0007a503          	lw	a0,0(a5)
    1084:	0047a583          	lw	a1,4(a5)
    1088:	000c00e7          	jalr	s8
    108c:	00050463          	beqz	a0,1094 <WikiSort+0x57c>
    1090:	00040d13          	mv	s10,s0
    1094:	01440433          	add	s0,s0,s4
    1098:	fc9448e3          	blt	s0,s1,1068 <WikiSort+0x550>
    109c:	fffd0d13          	addi	s10,s10,-1
    10a0:	003d1793          	slli	a5,s10,0x3
    10a4:	00fc87b3          	add	a5,s9,a5
    10a8:	0007a703          	lw	a4,0(a5)
    10ac:	0047a783          	lw	a5,4(a5)
    10b0:	000a8413          	mv	s0,s5
    10b4:	f8eda823          	sw	a4,-112(s11)
    10b8:	f8fdaa23          	sw	a5,-108(s11)
    10bc:	408907b3          	sub	a5,s2,s0
    10c0:	00098b93          	mv	s7,s3
    10c4:	def040e3          	bgtz	a5,ea4 <WikiSort+0x38c>
    10c8:	01012783          	lw	a5,16(sp)
    10cc:	e16780e3          	beq	a5,s6,ecc <WikiSort+0x3b4>
    10d0:	01012783          	lw	a5,16(sp)
    10d4:	40fb09b3          	sub	s3,s6,a5
    10d8:	0f49d663          	bge	s3,s4,11c4 <WikiSort+0x6ac>
    10dc:	000b8613          	mv	a2,s7
    10e0:	01012b83          	lw	s7,16(sp)
    10e4:	000b0693          	mv	a3,s6
    10e8:	01360933          	add	s2,a2,s3
    10ec:	416b85b3          	sub	a1,s7,s6
    10f0:	ff6da223          	sw	s6,-28(s11)
    10f4:	00000793          	li	a5,0
    10f8:	000d8713          	mv	a4,s11
    10fc:	000c8513          	mv	a0,s9
    1100:	fecda023          	sw	a2,-32(s11)
    1104:	00060413          	mv	s0,a2
    1108:	000b8b13          	mv	s6,s7
    110c:	db8ff0ef          	jal	ra,6c4 <Rotate>
    1110:	013484b3          	add	s1,s1,s3
    1114:	013d0d33          	add	s10,s10,s3
    1118:	00090b93          	mv	s7,s2
    111c:	d81ff06f          	j	e9c <WikiSort+0x384>
    1120:	000c8b93          	mv	s7,s9
    1124:	04012303          	lw	t1,64(sp)
    1128:	01812c83          	lw	s9,24(sp)
    112c:	f78da583          	lw	a1,-136(s11)
    1130:	f7cda603          	lw	a2,-132(s11)
    1134:	20000793          	li	a5,512
    1138:	00f12223          	sw	a5,4(sp)
    113c:	01b12023          	sw	s11,0(sp)
    1140:	000c0893          	mv	a7,s8
    1144:	000a8793          	mv	a5,s5
    1148:	00030813          	mv	a6,t1
    114c:	000c8693          	mv	a3,s9
    1150:	000a8713          	mv	a4,s5
    1154:	000b8513          	mv	a0,s7
    1158:	ff5da423          	sw	s5,-24(s11)
    115c:	fe6da623          	sw	t1,-20(s11)
    1160:	f99da023          	sw	s9,-128(s11)
    1164:	f95da223          	sw	s5,-124(s11)
    1168:	ef8ff0ef          	jal	ra,860 <WikiMerge>
    116c:	01412783          	lw	a5,20(sp)
    1170:	05412703          	lw	a4,84(sp)
    1174:	10e7d663          	bge	a5,a4,1280 <WikiSort+0x768>
    1178:	01412c83          	lw	s9,20(sp)
    117c:	b71ff06f          	j	cec <WikiSort+0x1d4>
    1180:	05012703          	lw	a4,80(sp)
    1184:	ff8d0793          	addi	a5,s10,-8
    1188:	00399513          	slli	a0,s3,0x3
    118c:	00fc87b3          	add	a5,s9,a5
    1190:	00ac8533          	add	a0,s9,a0
    1194:	00072583          	lw	a1,0(a4)
    1198:	0007a603          	lw	a2,0(a5)
    119c:	0047a683          	lw	a3,4(a5)
    11a0:	00b7a023          	sw	a1,0(a5)
    11a4:	00472583          	lw	a1,4(a4)
    11a8:	00878793          	addi	a5,a5,8
    11ac:	00870713          	addi	a4,a4,8
    11b0:	feb7ae23          	sw	a1,-4(a5)
    11b4:	fec72c23          	sw	a2,-8(a4)
    11b8:	fed72e23          	sw	a3,-4(a4)
    11bc:	fcf51ce3          	bne	a0,a5,1194 <WikiSort+0x67c>
    11c0:	e39ff06f          	j	ff8 <WikiSort+0x4e0>
    11c4:	017a09b3          	add	s3,s4,s7
    11c8:	05405663          	blez	s4,1214 <WikiSort+0x6fc>
    11cc:	01012703          	lw	a4,16(sp)
    11d0:	003b9793          	slli	a5,s7,0x3
    11d4:	00399513          	slli	a0,s3,0x3
    11d8:	00371713          	slli	a4,a4,0x3
    11dc:	00fc87b3          	add	a5,s9,a5
    11e0:	00ec8733          	add	a4,s9,a4
    11e4:	00ac8533          	add	a0,s9,a0
    11e8:	00072583          	lw	a1,0(a4)
    11ec:	0007a603          	lw	a2,0(a5)
    11f0:	0047a683          	lw	a3,4(a5)
    11f4:	00b7a023          	sw	a1,0(a5)
    11f8:	00472583          	lw	a1,4(a4)
    11fc:	00878793          	addi	a5,a5,8
    1200:	00870713          	addi	a4,a4,8
    1204:	feb7ae23          	sw	a1,-4(a5)
    1208:	fec72c23          	sw	a2,-8(a4)
    120c:	fed72e23          	sw	a3,-4(a4)
    1210:	fcf51ce3          	bne	a0,a5,11e8 <WikiSort+0x6d0>
    1214:	00098913          	mv	s2,s3
    1218:	01ab9463          	bne	s7,s10,1220 <WikiSort+0x708>
    121c:	00048d13          	mv	s10,s1
    1220:	01012783          	lw	a5,16(sp)
    1224:	016a0b33          	add	s6,s4,s6
    1228:	014484b3          	add	s1,s1,s4
    122c:	014787b3          	add	a5,a5,s4
    1230:	00f12823          	sw	a5,16(sp)
    1234:	04012783          	lw	a5,64(sp)
    1238:	0167d463          	bge	a5,s6,1240 <WikiSort+0x728>
    123c:	00078b13          	mv	s6,a5
    1240:	000b8413          	mv	s0,s7
    1244:	00098b93          	mv	s7,s3
    1248:	c55ff06f          	j	e9c <WikiSort+0x384>
    124c:	01412803          	lw	a6,20(sp)
    1250:	20000793          	li	a5,512
    1254:	000d8713          	mv	a4,s11
    1258:	000c8613          	mv	a2,s9
    125c:	00080693          	mv	a3,a6
    1260:	419485b3          	sub	a1,s1,s9
    1264:	000b8513          	mv	a0,s7
    1268:	fb9da823          	sw	s9,-80(s11)
    126c:	fb0daa23          	sw	a6,-76(s11)
    1270:	c54ff0ef          	jal	ra,6c4 <Rotate>
    1274:	01412783          	lw	a5,20(sp)
    1278:	05412703          	lw	a4,84(sp)
    127c:	eee7cee3          	blt	a5,a4,1178 <WikiSort+0x660>
    1280:	04812783          	lw	a5,72(sp)
    1284:	000b8d13          	mv	s10,s7
    1288:	64f04e63          	bgtz	a5,18e4 <WikiSort+0xdcc>
    128c:	03012703          	lw	a4,48(sp)
    1290:	03812783          	lw	a5,56(sp)
    1294:	00171713          	slli	a4,a4,0x1
    1298:	02e12823          	sw	a4,48(sp)
    129c:	03c12703          	lw	a4,60(sp)
    12a0:	00179793          	slli	a5,a5,0x1
    12a4:	02f12c23          	sw	a5,56(sp)
    12a8:	02e7c063          	blt	a5,a4,12c8 <WikiSort+0x7b0>
    12ac:	03812783          	lw	a5,56(sp)
    12b0:	03c12703          	lw	a4,60(sp)
    12b4:	40e787b3          	sub	a5,a5,a4
    12b8:	02f12c23          	sw	a5,56(sp)
    12bc:	03012783          	lw	a5,48(sp)
    12c0:	00178793          	addi	a5,a5,1
    12c4:	02f12823          	sw	a5,48(sp)
    12c8:	06412783          	lw	a5,100(sp)
    12cc:	07c12703          	lw	a4,124(sp)
    12d0:	00179793          	slli	a5,a5,0x1
    12d4:	06f12223          	sw	a5,100(sp)
    12d8:	9ae7c4e3          	blt	a5,a4,c80 <WikiSort+0x168>
    12dc:	00001337          	lui	t1,0x1
    12e0:	00610133          	add	sp,sp,t1
    12e4:	14c12083          	lw	ra,332(sp)
    12e8:	14812403          	lw	s0,328(sp)
    12ec:	14412483          	lw	s1,324(sp)
    12f0:	14012903          	lw	s2,320(sp)
    12f4:	13c12983          	lw	s3,316(sp)
    12f8:	13812a03          	lw	s4,312(sp)
    12fc:	13412a83          	lw	s5,308(sp)
    1300:	13012b03          	lw	s6,304(sp)
    1304:	12c12b83          	lw	s7,300(sp)
    1308:	12812c03          	lw	s8,296(sp)
    130c:	12412c83          	lw	s9,292(sp)
    1310:	12012d03          	lw	s10,288(sp)
    1314:	11c12d83          	lw	s11,284(sp)
    1318:	15010113          	addi	sp,sp,336
    131c:	00008067          	ret
    1320:	00098d13          	mv	s10,s3
    1324:	d7dff06f          	j	10a0 <WikiSort+0x588>
    1328:	001c8413          	addi	s0,s9,1
    132c:	02945ce3          	bge	s0,s1,1b64 <WikiSort+0x104c>
    1330:	05c12d03          	lw	s10,92(sp)
    1334:	00090a93          	mv	s5,s2
    1338:	00100993          	li	s3,1
    133c:	000a8b13          	mv	s6,s5
    1340:	008a8a93          	addi	s5,s5,8
    1344:	000aa603          	lw	a2,0(s5)
    1348:	004aa683          	lw	a3,4(s5)
    134c:	004b2583          	lw	a1,4(s6)
    1350:	000b2503          	lw	a0,0(s6)
    1354:	000c00e7          	jalr	s8
    1358:	00051e63          	bnez	a0,1374 <WikiSort+0x85c>
    135c:	000b2603          	lw	a2,0(s6)
    1360:	004b2683          	lw	a3,4(s6)
    1364:	000aa503          	lw	a0,0(s5)
    1368:	004aa583          	lw	a1,4(s5)
    136c:	000c00e7          	jalr	s8
    1370:	00050863          	beqz	a0,1380 <WikiSort+0x868>
    1374:	00198793          	addi	a5,s3,1
    1378:	2b3d0663          	beq	s10,s3,1624 <WikiSort+0xb0c>
    137c:	00078993          	mv	s3,a5
    1380:	00140413          	addi	s0,s0,1
    1384:	fa941ce3          	bne	s0,s1,133c <WikiSort+0x824>
    1388:	05812783          	lw	a5,88(sp)
    138c:	20000713          	li	a4,512
    1390:	2af74263          	blt	a4,a5,1634 <WikiSort+0xb1c>
    1394:	42f99c63          	bne	s3,a5,17cc <WikiSort+0xcb4>
    1398:	01412983          	lw	s3,20(sp)
    139c:	00878b33          	add	s6,a5,s0
    13a0:	019787b3          	add	a5,a5,s9
    13a4:	04f12623          	sw	a5,76(sp)
    13a8:	03912a23          	sw	s9,52(sp)
    13ac:	03912423          	sw	s9,40(sp)
    13b0:	07312a23          	sw	s3,116(sp)
    13b4:	408b07b3          	sub	a5,s6,s0
    13b8:	01978733          	add	a4,a5,s9
    13bc:	00371913          	slli	s2,a4,0x3
    13c0:	06e12023          	sw	a4,96(sp)
    13c4:	40e48733          	sub	a4,s1,a4
    13c8:	00e12823          	sw	a4,16(sp)
    13cc:	012b8933          	add	s2,s7,s2
    13d0:	0af05263          	blez	a5,1474 <WikiSort+0x95c>
    13d4:	00000b13          	li	s6,0
    13d8:	00341d13          	slli	s10,s0,0x3
    13dc:	01212c23          	sw	s2,24(sp)
    13e0:	00912e23          	sw	s1,28(sp)
    13e4:	01ab8d33          	add	s10,s7,s10
    13e8:	000b0493          	mv	s1,s6
    13ec:	00040913          	mv	s2,s0
    13f0:	00078b13          	mv	s6,a5
    13f4:	ff8d0a93          	addi	s5,s10,-8
    13f8:	03990a63          	beq	s2,s9,142c <WikiSort+0x914>
    13fc:	000d2603          	lw	a2,0(s10)
    1400:	004d2683          	lw	a3,4(s10)
    1404:	004aa583          	lw	a1,4(s5)
    1408:	ff8d2503          	lw	a0,-8(s10)
    140c:	000c00e7          	jalr	s8
    1410:	00051e63          	bnez	a0,142c <WikiSort+0x914>
    1414:	ff8d2603          	lw	a2,-8(s10)
    1418:	004d2583          	lw	a1,4(s10)
    141c:	004aa683          	lw	a3,4(s5)
    1420:	000d2503          	lw	a0,0(s10)
    1424:	000c00e7          	jalr	s8
    1428:	02050c63          	beqz	a0,1460 <WikiSort+0x948>
    142c:	00140413          	addi	s0,s0,1
    1430:	00190313          	addi	t1,s2,1
    1434:	409005b3          	neg	a1,s1
    1438:	00040693          	mv	a3,s0
    143c:	fc8da623          	sw	s0,-52(s11)
    1440:	20000793          	li	a5,512
    1444:	000d8713          	mv	a4,s11
    1448:	00030613          	mv	a2,t1
    144c:	000b8513          	mv	a0,s7
    1450:	fc6da423          	sw	t1,-56(s11)
    1454:	00990433          	add	s0,s2,s1
    1458:	a6cff0ef          	jal	ra,6c4 <Rotate>
    145c:	00148493          	addi	s1,s1,1
    1460:	fff90913          	addi	s2,s2,-1
    1464:	000a8d13          	mv	s10,s5
    1468:	f964c6e3          	blt	s1,s6,13f4 <WikiSort+0x8dc>
    146c:	01812903          	lw	s2,24(sp)
    1470:	01c12483          	lw	s1,28(sp)
    1474:	05812783          	lw	a5,88(sp)
    1478:	03912023          	sw	s9,32(sp)
    147c:	04f12423          	sw	a5,72(sp)
    1480:	07412783          	lw	a5,116(sp)
    1484:	413787b3          	sub	a5,a5,s3
    1488:	00f12c23          	sw	a5,24(sp)
    148c:	0af05463          	blez	a5,1534 <WikiSort+0xa1c>
    1490:	01412783          	lw	a5,20(sp)
    1494:	01812a83          	lw	s5,24(sp)
    1498:	00000b13          	li	s6,0
    149c:	00399d13          	slli	s10,s3,0x3
    14a0:	fff78793          	addi	a5,a5,-1
    14a4:	01212e23          	sw	s2,28(sp)
    14a8:	04912023          	sw	s1,64(sp)
    14ac:	01ab8d33          	add	s10,s7,s10
    14b0:	000b0493          	mv	s1,s6
    14b4:	00098913          	mv	s2,s3
    14b8:	00078b13          	mv	s6,a5
    14bc:	008d0413          	addi	s0,s10,8
    14c0:	03690a63          	beq	s2,s6,14f4 <WikiSort+0x9dc>
    14c4:	008d2603          	lw	a2,8(s10)
    14c8:	004d2583          	lw	a1,4(s10)
    14cc:	00442683          	lw	a3,4(s0)
    14d0:	000d2503          	lw	a0,0(s10)
    14d4:	000c00e7          	jalr	s8
    14d8:	00051e63          	bnez	a0,14f4 <WikiSort+0x9dc>
    14dc:	000d2603          	lw	a2,0(s10)
    14e0:	004d2683          	lw	a3,4(s10)
    14e4:	008d2503          	lw	a0,8(s10)
    14e8:	00442583          	lw	a1,4(s0)
    14ec:	000c00e7          	jalr	s8
    14f0:	02050863          	beqz	a0,1520 <WikiSort+0xa08>
    14f4:	00098613          	mv	a2,s3
    14f8:	00048593          	mv	a1,s1
    14fc:	fd3da823          	sw	s3,-48(s11)
    1500:	20000793          	li	a5,512
    1504:	000d8713          	mv	a4,s11
    1508:	00090693          	mv	a3,s2
    150c:	000b8513          	mv	a0,s7
    1510:	fd2daa23          	sw	s2,-44(s11)
    1514:	409909b3          	sub	s3,s2,s1
    1518:	9acff0ef          	jal	ra,6c4 <Rotate>
    151c:	00148493          	addi	s1,s1,1
    1520:	00190913          	addi	s2,s2,1
    1524:	00040d13          	mv	s10,s0
    1528:	f954cae3          	blt	s1,s5,14bc <WikiSort+0x9a4>
    152c:	01c12903          	lw	s2,28(sp)
    1530:	04012483          	lw	s1,64(sp)
    1534:	01412703          	lw	a4,20(sp)
    1538:	01812783          	lw	a5,24(sp)
    153c:	01012503          	lw	a0,16(sp)
    1540:	07912823          	sw	s9,112(sp)
    1544:	06012c83          	lw	s9,96(sp)
    1548:	40f707b3          	sub	a5,a4,a5
    154c:	000a0593          	mv	a1,s4
    1550:	06f12423          	sw	a5,104(sp)
    1554:	04f12023          	sw	a5,64(sp)
    1558:	06e12623          	sw	a4,108(sp)
    155c:	010030ef          	jal	ra,456c <__modsi3>
    1560:	01950ab3          	add	s5,a0,s9
    1564:	001a8693          	addi	a3,s5,1
    1568:	000a8413          	mv	s0,s5
    156c:	8696cae3          	blt	a3,s1,de0 <WikiSort+0x2c8>
    1570:	003a9313          	slli	t1,s5,0x3
    1574:	8b5ff06f          	j	e28 <WikiSort+0x310>
    1578:	02812703          	lw	a4,40(sp)
    157c:	003c9793          	slli	a5,s9,0x3
    1580:	003a9513          	slli	a0,s5,0x3
    1584:	00371813          	slli	a6,a4,0x3
    1588:	00fb87b3          	add	a5,s7,a5
    158c:	010b8733          	add	a4,s7,a6
    1590:	00ab8533          	add	a0,s7,a0
    1594:	00072583          	lw	a1,0(a4)
    1598:	0007a603          	lw	a2,0(a5)
    159c:	0047a683          	lw	a3,4(a5)
    15a0:	00b7a023          	sw	a1,0(a5)
    15a4:	00472583          	lw	a1,4(a4)
    15a8:	00878793          	addi	a5,a5,8
    15ac:	00870713          	addi	a4,a4,8
    15b0:	feb7ae23          	sw	a1,-4(a5)
    15b4:	fec72c23          	sw	a2,-8(a4)
    15b8:	fed72e23          	sw	a3,-4(a4)
    15bc:	fcf51ce3          	bne	a0,a5,1594 <WikiSort+0xa7c>
    15c0:	8b1ff06f          	j	e70 <WikiSort+0x358>
    15c4:	00379613          	slli	a2,a5,0x3
    15c8:	00090593          	mv	a1,s2
    15cc:	000d8513          	mv	a0,s11
    15d0:	0ac030ef          	jal	ra,467c <memcpy>
    15d4:	01412303          	lw	t1,20(sp)
    15d8:	20000793          	li	a5,512
    15dc:	00f12223          	sw	a5,4(sp)
    15e0:	01b12023          	sw	s11,0(sp)
    15e4:	000c0893          	mv	a7,s8
    15e8:	00048793          	mv	a5,s1
    15ec:	00030813          	mv	a6,t1
    15f0:	000c8693          	mv	a3,s9
    15f4:	00048713          	mv	a4,s1
    15f8:	00000593          	li	a1,0
    15fc:	00000613          	li	a2,0
    1600:	000b8513          	mv	a0,s7
    1604:	fa0dac23          	sw	zero,-72(s11)
    1608:	fa0dae23          	sw	zero,-68(s11)
    160c:	f99dac23          	sw	s9,-104(s11)
    1610:	f89dae23          	sw	s1,-100(s11)
    1614:	fa9da023          	sw	s1,-96(s11)
    1618:	fa6da223          	sw	t1,-92(s11)
    161c:	a44ff0ef          	jal	ra,860 <WikiMerge>
    1620:	b4dff06f          	j	116c <WikiSort+0x654>
    1624:	00078993          	mv	s3,a5
    1628:	05812783          	lw	a5,88(sp)
    162c:	20000713          	li	a4,512
    1630:	d6f752e3          	bge	a4,a5,1394 <WikiSort+0x87c>
    1634:	00140a93          	addi	s5,s0,1
    1638:	089ad663          	bge	s5,s1,16c4 <WikiSort+0xbac>
    163c:	00341b13          	slli	s6,s0,0x3
    1640:	01212c23          	sw	s2,24(sp)
    1644:	000a8913          	mv	s2,s5
    1648:	00040a93          	mv	s5,s0
    164c:	05c12403          	lw	s0,92(sp)
    1650:	016b8b33          	add	s6,s7,s6
    1654:	00000d13          	li	s10,0
    1658:	01312e23          	sw	s3,28(sp)
    165c:	000b0993          	mv	s3,s6
    1660:	008b0b13          	addi	s6,s6,8
    1664:	000b2603          	lw	a2,0(s6)
    1668:	004b2683          	lw	a3,4(s6)
    166c:	0049a583          	lw	a1,4(s3)
    1670:	0009a503          	lw	a0,0(s3)
    1674:	000c00e7          	jalr	s8
    1678:	00051e63          	bnez	a0,1694 <WikiSort+0xb7c>
    167c:	0009a603          	lw	a2,0(s3)
    1680:	0049a683          	lw	a3,4(s3)
    1684:	000b2503          	lw	a0,0(s6)
    1688:	004b2583          	lw	a1,4(s6)
    168c:	000c00e7          	jalr	s8
    1690:	00050863          	beqz	a0,16a0 <WikiSort+0xb88>
    1694:	001d0713          	addi	a4,s10,1
    1698:	3fa40063          	beq	s0,s10,1a78 <WikiSort+0xf60>
    169c:	00070d13          	mv	s10,a4
    16a0:	00190913          	addi	s2,s2,1
    16a4:	fa991ce3          	bne	s2,s1,165c <WikiSort+0xb44>
    16a8:	05812703          	lw	a4,88(sp)
    16ac:	000d0793          	mv	a5,s10
    16b0:	000a8413          	mv	s0,s5
    16b4:	01c12983          	lw	s3,28(sp)
    16b8:	00090a93          	mv	s5,s2
    16bc:	01812903          	lw	s2,24(sp)
    16c0:	3ce78a63          	beq	a5,a4,1a94 <WikiSort+0xf7c>
    16c4:	01412783          	lw	a5,20(sp)
    16c8:	ffe78a93          	addi	s5,a5,-2
    16cc:	05812783          	lw	a5,88(sp)
    16d0:	40f98063          	beq	s3,a5,1ad0 <WikiSort+0xfb8>
    16d4:	069ac063          	blt	s5,s1,1734 <WikiSort+0xc1c>
    16d8:	05c12d03          	lw	s10,92(sp)
    16dc:	003a9993          	slli	s3,s5,0x3
    16e0:	013b89b3          	add	s3,s7,s3
    16e4:	00100413          	li	s0,1
    16e8:	00898b13          	addi	s6,s3,8
    16ec:	0089a603          	lw	a2,8(s3)
    16f0:	0049a583          	lw	a1,4(s3)
    16f4:	0009a503          	lw	a0,0(s3)
    16f8:	004b2683          	lw	a3,4(s6)
    16fc:	000c00e7          	jalr	s8
    1700:	00051e63          	bnez	a0,171c <WikiSort+0xc04>
    1704:	0009a603          	lw	a2,0(s3)
    1708:	0049a683          	lw	a3,4(s3)
    170c:	0089a503          	lw	a0,8(s3)
    1710:	004b2583          	lw	a1,4(s6)
    1714:	000c00e7          	jalr	s8
    1718:	00050863          	beqz	a0,1728 <WikiSort+0xc10>
    171c:	00140793          	addi	a5,s0,1
    1720:	008d0a63          	beq	s10,s0,1734 <WikiSort+0xc1c>
    1724:	00078413          	mv	s0,a5
    1728:	fffa8a93          	addi	s5,s5,-1
    172c:	ff898993          	addi	s3,s3,-8
    1730:	fa9adce3          	bge	s5,s1,16e8 <WikiSort+0xbd0>
    1734:	fffa8993          	addi	s3,s5,-1
    1738:	1099c863          	blt	s3,s1,1848 <WikiSort+0xd30>
    173c:	05c12d03          	lw	s10,92(sp)
    1740:	003a9a93          	slli	s5,s5,0x3
    1744:	015b8ab3          	add	s5,s7,s5
    1748:	00000413          	li	s0,0
    174c:	ff8a8b13          	addi	s6,s5,-8
    1750:	000aa603          	lw	a2,0(s5)
    1754:	004aa683          	lw	a3,4(s5)
    1758:	ff8aa503          	lw	a0,-8(s5)
    175c:	004b2583          	lw	a1,4(s6)
    1760:	000c00e7          	jalr	s8
    1764:	00051e63          	bnez	a0,1780 <WikiSort+0xc68>
    1768:	ff8aa603          	lw	a2,-8(s5)
    176c:	000aa503          	lw	a0,0(s5)
    1770:	004aa583          	lw	a1,4(s5)
    1774:	004b2683          	lw	a3,4(s6)
    1778:	000c00e7          	jalr	s8
    177c:	00050863          	beqz	a0,178c <WikiSort+0xc74>
    1780:	00140793          	addi	a5,s0,1
    1784:	328d0e63          	beq	s10,s0,1ac0 <WikiSort+0xfa8>
    1788:	00078413          	mv	s0,a5
    178c:	fff98993          	addi	s3,s3,-1
    1790:	000b0a93          	mv	s5,s6
    1794:	fa99dce3          	bge	s3,s1,174c <WikiSort+0xc34>
    1798:	05812783          	lw	a5,88(sp)
    179c:	0af41663          	bne	s0,a5,1848 <WikiSort+0xd30>
    17a0:	05812703          	lw	a4,88(sp)
    17a4:	01412783          	lw	a5,20(sp)
    17a8:	07812683          	lw	a3,120(sp)
    17ac:	40e787b3          	sub	a5,a5,a4
    17b0:	013686b3          	add	a3,a3,s3
    17b4:	40e78733          	sub	a4,a5,a4
    17b8:	02f12023          	sw	a5,32(sp)
    17bc:	06d12a23          	sw	a3,116(sp)
    17c0:	02e12423          	sw	a4,40(sp)
    17c4:	02f12a23          	sw	a5,52(sp)
    17c8:	2980006f          	j	1a60 <WikiSort+0xf48>
    17cc:	01412783          	lw	a5,20(sp)
    17d0:	ffe78993          	addi	s3,a5,-2
    17d4:	3e99c463          	blt	s3,s1,1bbc <WikiSort+0x10a4>
    17d8:	05c12d03          	lw	s10,92(sp)
    17dc:	00399a93          	slli	s5,s3,0x3
    17e0:	015b8ab3          	add	s5,s7,s5
    17e4:	00100413          	li	s0,1
    17e8:	008a8b13          	addi	s6,s5,8
    17ec:	008aa603          	lw	a2,8(s5)
    17f0:	004aa583          	lw	a1,4(s5)
    17f4:	000aa503          	lw	a0,0(s5)
    17f8:	004b2683          	lw	a3,4(s6)
    17fc:	000c00e7          	jalr	s8
    1800:	00051e63          	bnez	a0,181c <WikiSort+0xd04>
    1804:	000aa603          	lw	a2,0(s5)
    1808:	004aa683          	lw	a3,4(s5)
    180c:	008aa503          	lw	a0,8(s5)
    1810:	004b2583          	lw	a1,4(s6)
    1814:	000c00e7          	jalr	s8
    1818:	00050863          	beqz	a0,1828 <WikiSort+0xd10>
    181c:	00140793          	addi	a5,s0,1
    1820:	208d0c63          	beq	s10,s0,1a38 <WikiSort+0xf20>
    1824:	00078413          	mv	s0,a5
    1828:	fff98993          	addi	s3,s3,-1
    182c:	ff8a8a93          	addi	s5,s5,-8
    1830:	fa99dce3          	bge	s3,s1,17e8 <WikiSort+0xcd0>
    1834:	05812783          	lw	a5,88(sp)
    1838:	20f40663          	beq	s0,a5,1a44 <WikiSort+0xf2c>
    183c:	05812703          	lw	a4,88(sp)
    1840:	013407b3          	add	a5,s0,s3
    1844:	38e45063          	bge	s0,a4,1bc4 <WikiSort+0x10ac>
    1848:	01412783          	lw	a5,20(sp)
    184c:	409787b3          	sub	a5,a5,s1
    1850:	90f05ee3          	blez	a5,116c <WikiSort+0x654>
    1854:	01412903          	lw	s2,20(sp)
    1858:	0080006f          	j	1860 <WikiSort+0xd48>
    185c:	90f058e3          	blez	a5,116c <WikiSort+0x654>
    1860:	00048613          	mv	a2,s1
    1864:	000c8593          	mv	a1,s9
    1868:	000c0713          	mv	a4,s8
    186c:	00090693          	mv	a3,s2
    1870:	fa9da023          	sw	s1,-96(s11)
    1874:	000b8513          	mv	a0,s7
    1878:	fb2da223          	sw	s2,-92(s11)
    187c:	a8dfe0ef          	jal	ra,308 <BinaryFirst>
    1880:	00050413          	mv	s0,a0
    1884:	40a485b3          	sub	a1,s1,a0
    1888:	000c8613          	mv	a2,s9
    188c:	20000793          	li	a5,512
    1890:	00050693          	mv	a3,a0
    1894:	000d8713          	mv	a4,s11
    1898:	000b8513          	mv	a0,s7
    189c:	fd9da023          	sw	s9,-64(s11)
    18a0:	fc8da223          	sw	s0,-60(s11)
    18a4:	e21fe0ef          	jal	ra,6c4 <Rotate>
    18a8:	409409b3          	sub	s3,s0,s1
    18ac:	00048693          	mv	a3,s1
    18b0:	000c8613          	mv	a2,s9
    18b4:	019985b3          	add	a1,s3,s9
    18b8:	f89dae23          	sw	s1,-100(s11)
    18bc:	f99dac23          	sw	s9,-104(s11)
    18c0:	000c0713          	mv	a4,s8
    18c4:	000b8513          	mv	a0,s7
    18c8:	b2dfe0ef          	jal	ra,3f4 <BinaryLast>
    18cc:	00040493          	mv	s1,s0
    18d0:	40a40433          	sub	s0,s0,a0
    18d4:	00050c93          	mv	s9,a0
    18d8:	409907b3          	sub	a5,s2,s1
    18dc:	f88040e3          	bgtz	s0,185c <WikiSort+0xd44>
    18e0:	88dff06f          	j	116c <WikiSort+0x654>
    18e4:	02812783          	lw	a5,40(sp)
    18e8:	03412703          	lw	a4,52(sp)
    18ec:	000c0693          	mv	a3,s8
    18f0:	00078593          	mv	a1,a5
    18f4:	f6fda823          	sw	a5,-144(s11)
    18f8:	00070613          	mv	a2,a4
    18fc:	000b8513          	mv	a0,s7
    1900:	f6edaa23          	sw	a4,-140(s11)
    1904:	bddfe0ef          	jal	ra,4e0 <InsertionSort>
    1908:	06012483          	lw	s1,96(sp)
    190c:	07012903          	lw	s2,112(sp)
    1910:	412487b3          	sub	a5,s1,s2
    1914:	08f05263          	blez	a5,1998 <WikiSort+0xe80>
    1918:	06012403          	lw	s0,96(sp)
    191c:	06812983          	lw	s3,104(sp)
    1920:	0100006f          	j	1930 <WikiSort+0xe18>
    1924:	412407b3          	sub	a5,s0,s2
    1928:	00148493          	addi	s1,s1,1
    192c:	06f05663          	blez	a5,1998 <WikiSort+0xe80>
    1930:	00391713          	slli	a4,s2,0x3
    1934:	00349793          	slli	a5,s1,0x3
    1938:	00ed0733          	add	a4,s10,a4
    193c:	00fd07b3          	add	a5,s10,a5
    1940:	40848a33          	sub	s4,s1,s0
    1944:	00998e63          	beq	s3,s1,1960 <WikiSort+0xe48>
    1948:	00072603          	lw	a2,0(a4)
    194c:	00472683          	lw	a3,4(a4)
    1950:	0047a583          	lw	a1,4(a5)
    1954:	0007a503          	lw	a0,0(a5)
    1958:	000c00e7          	jalr	s8
    195c:	fc0514e3          	bnez	a0,1924 <WikiSort+0xe0c>
    1960:	00090613          	mv	a2,s2
    1964:	409405b3          	sub	a1,s0,s1
    1968:	20000793          	li	a5,512
    196c:	ff2da823          	sw	s2,-16(s11)
    1970:	000d8713          	mv	a4,s11
    1974:	00048693          	mv	a3,s1
    1978:	000d0513          	mv	a0,s10
    197c:	fe9daa23          	sw	s1,-12(s11)
    1980:	001a0a13          	addi	s4,s4,1
    1984:	d41fe0ef          	jal	ra,6c4 <Rotate>
    1988:	01490933          	add	s2,s2,s4
    198c:	00048413          	mv	s0,s1
    1990:	412407b3          	sub	a5,s0,s2
    1994:	f8f04ee3          	bgtz	a5,1930 <WikiSort+0xe18>
    1998:	06c12783          	lw	a5,108(sp)
    199c:	06812483          	lw	s1,104(sp)
    19a0:	40978933          	sub	s2,a5,s1
    19a4:	8f2054e3          	blez	s2,128c <WikiSort+0x774>
    19a8:	06c12a03          	lw	s4,108(sp)
    19ac:	07012983          	lw	s3,112(sp)
    19b0:	06812403          	lw	s0,104(sp)
    19b4:	02412783          	lw	a5,36(sp)
    19b8:	40940ab3          	sub	s5,s0,s1
    19bc:	00f48733          	add	a4,s1,a5
    19c0:	00fa07b3          	add	a5,s4,a5
    19c4:	00371713          	slli	a4,a4,0x3
    19c8:	00379793          	slli	a5,a5,0x3
    19cc:	00ed0733          	add	a4,s10,a4
    19d0:	00fd07b3          	add	a5,s10,a5
    19d4:	02998463          	beq	s3,s1,19fc <WikiSort+0xee4>
    19d8:	00072603          	lw	a2,0(a4)
    19dc:	00472683          	lw	a3,4(a4)
    19e0:	0047a583          	lw	a1,4(a5)
    19e4:	0007a503          	lw	a0,0(a5)
    19e8:	000c00e7          	jalr	s8
    19ec:	00050863          	beqz	a0,19fc <WikiSort+0xee4>
    19f0:	fff48493          	addi	s1,s1,-1
    19f4:	fd2040e3          	bgtz	s2,19b4 <WikiSort+0xe9c>
    19f8:	895ff06f          	j	128c <WikiSort+0x774>
    19fc:	000a8593          	mv	a1,s5
    1a00:	001a8a93          	addi	s5,s5,1
    1a04:	000a0693          	mv	a3,s4
    1a08:	ff4dae23          	sw	s4,-4(s11)
    1a0c:	415a0a33          	sub	s4,s4,s5
    1a10:	20000793          	li	a5,512
    1a14:	000d8713          	mv	a4,s11
    1a18:	00048613          	mv	a2,s1
    1a1c:	000d0513          	mv	a0,s10
    1a20:	fe9dac23          	sw	s1,-8(s11)
    1a24:	409a0933          	sub	s2,s4,s1
    1a28:	c9dfe0ef          	jal	ra,6c4 <Rotate>
    1a2c:	00048413          	mv	s0,s1
    1a30:	f92042e3          	bgtz	s2,19b4 <WikiSort+0xe9c>
    1a34:	859ff06f          	j	128c <WikiSort+0x774>
    1a38:	00078413          	mv	s0,a5
    1a3c:	05812783          	lw	a5,88(sp)
    1a40:	def41ee3          	bne	s0,a5,183c <WikiSort+0xd24>
    1a44:	01378733          	add	a4,a5,s3
    1a48:	06e12a23          	sw	a4,116(sp)
    1a4c:	01412703          	lw	a4,20(sp)
    1a50:	03912a23          	sw	s9,52(sp)
    1a54:	03912423          	sw	s9,40(sp)
    1a58:	40f707b3          	sub	a5,a4,a5
    1a5c:	02f12023          	sw	a5,32(sp)
    1a60:	05812783          	lw	a5,88(sp)
    1a64:	07912023          	sw	s9,96(sp)
    1a68:	04f12423          	sw	a5,72(sp)
    1a6c:	01412783          	lw	a5,20(sp)
    1a70:	04f12623          	sw	a5,76(sp)
    1a74:	a0dff06f          	j	1480 <WikiSort+0x968>
    1a78:	00070793          	mv	a5,a4
    1a7c:	05812703          	lw	a4,88(sp)
    1a80:	000a8413          	mv	s0,s5
    1a84:	01c12983          	lw	s3,28(sp)
    1a88:	00090a93          	mv	s5,s2
    1a8c:	01812903          	lw	s2,24(sp)
    1a90:	c2e79ae3          	bne	a5,a4,16c4 <WikiSort+0xbac>
    1a94:	019707b3          	add	a5,a4,s9
    1a98:	07812703          	lw	a4,120(sp)
    1a9c:	01412983          	lw	s3,20(sp)
    1aa0:	04f12623          	sw	a5,76(sp)
    1aa4:	01570b33          	add	s6,a4,s5
    1aa8:	01970733          	add	a4,a4,s9
    1aac:	02e12a23          	sw	a4,52(sp)
    1ab0:	02f12423          	sw	a5,40(sp)
    1ab4:	07312a23          	sw	s3,116(sp)
    1ab8:	000a8413          	mv	s0,s5
    1abc:	8f9ff06f          	j	13b4 <WikiSort+0x89c>
    1ac0:	00078413          	mv	s0,a5
    1ac4:	05812783          	lw	a5,88(sp)
    1ac8:	d8f410e3          	bne	s0,a5,1848 <WikiSort+0xd30>
    1acc:	cd5ff06f          	j	17a0 <WikiSort+0xc88>
    1ad0:	d69acce3          	blt	s5,s1,1848 <WikiSort+0xd30>
    1ad4:	05c12d03          	lw	s10,92(sp)
    1ad8:	003a9913          	slli	s2,s5,0x3
    1adc:	012b8933          	add	s2,s7,s2
    1ae0:	00100993          	li	s3,1
    1ae4:	00890b13          	addi	s6,s2,8
    1ae8:	00892603          	lw	a2,8(s2)
    1aec:	00492583          	lw	a1,4(s2)
    1af0:	00092503          	lw	a0,0(s2)
    1af4:	004b2683          	lw	a3,4(s6)
    1af8:	000c00e7          	jalr	s8
    1afc:	00051e63          	bnez	a0,1b18 <WikiSort+0x1000>
    1b00:	00092603          	lw	a2,0(s2)
    1b04:	00492683          	lw	a3,4(s2)
    1b08:	00892503          	lw	a0,8(s2)
    1b0c:	004b2583          	lw	a1,4(s6)
    1b10:	000c00e7          	jalr	s8
    1b14:	00050863          	beqz	a0,1b24 <WikiSort+0x100c>
    1b18:	00198793          	addi	a5,s3,1
    1b1c:	093d0863          	beq	s10,s3,1bac <WikiSort+0x1094>
    1b20:	00078993          	mv	s3,a5
    1b24:	fffa8a93          	addi	s5,s5,-1
    1b28:	ff890913          	addi	s2,s2,-8
    1b2c:	fa9adce3          	bge	s5,s1,1ae4 <WikiSort+0xfcc>
    1b30:	05812783          	lw	a5,88(sp)
    1b34:	d0f99ae3          	bne	s3,a5,1848 <WikiSort+0xd30>
    1b38:	01978733          	add	a4,a5,s9
    1b3c:	04e12623          	sw	a4,76(sp)
    1b40:	01578733          	add	a4,a5,s5
    1b44:	06e12a23          	sw	a4,116(sp)
    1b48:	01412703          	lw	a4,20(sp)
    1b4c:	00878b33          	add	s6,a5,s0
    1b50:	000a8993          	mv	s3,s5
    1b54:	40f707b3          	sub	a5,a4,a5
    1b58:	02f12423          	sw	a5,40(sp)
    1b5c:	02e12a23          	sw	a4,52(sp)
    1b60:	855ff06f          	j	13b4 <WikiSort+0x89c>
    1b64:	00100993          	li	s3,1
    1b68:	821ff06f          	j	1388 <WikiSort+0x870>
    1b6c:	00001737          	lui	a4,0x1
    1b70:	07010693          	addi	a3,sp,112
    1b74:	0a070713          	addi	a4,a4,160 # 10a0 <WikiSort+0x588>
    1b78:	00d70733          	add	a4,a4,a3
    1b7c:	fffff7b7          	lui	a5,0xfffff
    1b80:	00f707b3          	add	a5,a4,a5
    1b84:	00f12823          	sw	a5,16(sp)
    1b88:	01012703          	lw	a4,16(sp)
    1b8c:	05412783          	lw	a5,84(sp)
    1b90:	00060693          	mv	a3,a2
    1b94:	00000593          	li	a1,0
    1b98:	00078613          	mv	a2,a5
    1b9c:	00072023          	sw	zero,0(a4)
    1ba0:	00f72223          	sw	a5,4(a4)
    1ba4:	93dfe0ef          	jal	ra,4e0 <InsertionSort>
    1ba8:	f34ff06f          	j	12dc <WikiSort+0x7c4>
    1bac:	00078993          	mv	s3,a5
    1bb0:	05812783          	lw	a5,88(sp)
    1bb4:	c8f99ae3          	bne	s3,a5,1848 <WikiSort+0xd30>
    1bb8:	f81ff06f          	j	1b38 <WikiSort+0x1020>
    1bbc:	00100413          	li	s0,1
    1bc0:	c75ff06f          	j	1834 <WikiSort+0xd1c>
    1bc4:	04812423          	sw	s0,72(sp)
    1bc8:	07912023          	sw	s9,96(sp)
    1bcc:	04f12623          	sw	a5,76(sp)
    1bd0:	03312023          	sw	s3,32(sp)
    1bd4:	03912423          	sw	s9,40(sp)
    1bd8:	03912a23          	sw	s9,52(sp)
    1bdc:	8a5ff06f          	j	1480 <WikiSort+0x968>

00001be0 <benchmark_body>:
    1be0:	000057b7          	lui	a5,0x5
    1be4:	a0478793          	addi	a5,a5,-1532 # 4a04 <main+0x70>
    1be8:	0007ae03          	lw	t3,0(a5)
    1bec:	0047a303          	lw	t1,4(a5)
    1bf0:	0087a883          	lw	a7,8(a5)
    1bf4:	00c7a803          	lw	a6,12(a5)
    1bf8:	0107a583          	lw	a1,16(a5)
    1bfc:	0147a603          	lw	a2,20(a5)
    1c00:	0187a683          	lw	a3,24(a5)
    1c04:	01c7a703          	lw	a4,28(a5)
    1c08:	0207a783          	lw	a5,32(a5)
    1c0c:	fa010113          	addi	sp,sp,-96
    1c10:	04112e23          	sw	ra,92(sp)
    1c14:	04812c23          	sw	s0,88(sp)
    1c18:	04912a23          	sw	s1,84(sp)
    1c1c:	05212823          	sw	s2,80(sp)
    1c20:	05312623          	sw	s3,76(sp)
    1c24:	05412423          	sw	s4,72(sp)
    1c28:	05512223          	sw	s5,68(sp)
    1c2c:	05612023          	sw	s6,64(sp)
    1c30:	03712e23          	sw	s7,60(sp)
    1c34:	03812c23          	sw	s8,56(sp)
    1c38:	03912a23          	sw	s9,52(sp)
    1c3c:	01c12623          	sw	t3,12(sp)
    1c40:	00612823          	sw	t1,16(sp)
    1c44:	01112a23          	sw	a7,20(sp)
    1c48:	01012c23          	sw	a6,24(sp)
    1c4c:	00b12e23          	sw	a1,28(sp)
    1c50:	02c12023          	sw	a2,32(sp)
    1c54:	02d12223          	sw	a3,36(sp)
    1c58:	02e12423          	sw	a4,40(sp)
    1c5c:	02f12623          	sw	a5,44(sp)
    1c60:	06a05c63          	blez	a0,1cd8 <benchmark_body+0xf8>
    1c64:	00006a37          	lui	s4,0x6
    1c68:	00050c13          	mv	s8,a0
    1c6c:	00000c93          	li	s9,0
    1c70:	00000bb7          	lui	s7,0x0
    1c74:	860a0b13          	addi	s6,s4,-1952 # 5860 <array1>
    1c78:	03010a93          	addi	s5,sp,48
    1c7c:	00000513          	li	a0,0
    1c80:	1c0000ef          	jal	ra,1e40 <srand_beebs>
    1c84:	00c10993          	addi	s3,sp,12
    1c88:	0009a903          	lw	s2,0(s3)
    1c8c:	000b0493          	mv	s1,s6
    1c90:	00000413          	li	s0,0
    1c94:	00040513          	mv	a0,s0
    1c98:	19000593          	li	a1,400
    1c9c:	000900e7          	jalr	s2
    1ca0:	00a4a023          	sw	a0,0(s1)
    1ca4:	0084a223          	sw	s0,4(s1)
    1ca8:	19000793          	li	a5,400
    1cac:	00140413          	addi	s0,s0,1
    1cb0:	00848493          	addi	s1,s1,8
    1cb4:	fef410e3          	bne	s0,a5,1c94 <benchmark_body+0xb4>
    1cb8:	00498993          	addi	s3,s3,4
    1cbc:	090b8613          	addi	a2,s7,144 # 90 <TestCompare>
    1cc0:	19000593          	li	a1,400
    1cc4:	860a0513          	addi	a0,s4,-1952
    1cc8:	e51fe0ef          	jal	ra,b18 <WikiSort>
    1ccc:	fb599ee3          	bne	s3,s5,1c88 <benchmark_body+0xa8>
    1cd0:	001c8c93          	addi	s9,s9,1
    1cd4:	fb9c14e3          	bne	s8,s9,1c7c <benchmark_body+0x9c>
    1cd8:	05c12083          	lw	ra,92(sp)
    1cdc:	05812403          	lw	s0,88(sp)
    1ce0:	05412483          	lw	s1,84(sp)
    1ce4:	05012903          	lw	s2,80(sp)
    1ce8:	04c12983          	lw	s3,76(sp)
    1cec:	04812a03          	lw	s4,72(sp)
    1cf0:	04412a83          	lw	s5,68(sp)
    1cf4:	04012b03          	lw	s6,64(sp)
    1cf8:	03c12b83          	lw	s7,60(sp)
    1cfc:	03812c03          	lw	s8,56(sp)
    1d00:	03412c83          	lw	s9,52(sp)
    1d04:	00000513          	li	a0,0
    1d08:	06010113          	addi	sp,sp,96
    1d0c:	00008067          	ret

00001d10 <verify_benchmark>:
    1d10:	81010113          	addi	sp,sp,-2032
    1d14:	7e112623          	sw	ra,2028(sp)
    1d18:	000016b7          	lui	a3,0x1
    1d1c:	b5010113          	addi	sp,sp,-1200
    1d20:	c8068693          	addi	a3,a3,-896 # c80 <WikiSort+0x168>
    1d24:	01010613          	addi	a2,sp,16
    1d28:	00c686b3          	add	a3,a3,a2
    1d2c:	fffff737          	lui	a4,0xfffff
    1d30:	00e68733          	add	a4,a3,a4
    1d34:	000057b7          	lui	a5,0x5
    1d38:	000016b7          	lui	a3,0x1
    1d3c:	a2878793          	addi	a5,a5,-1496 # 4a28 <main+0x94>
    1d40:	c8068693          	addi	a3,a3,-896 # c80 <WikiSort+0x168>
    1d44:	00e12623          	sw	a4,12(sp)
    1d48:	00d786b3          	add	a3,a5,a3
    1d4c:	38070713          	addi	a4,a4,896 # fffff380 <_impure_ptr+0xffff8a60>
    1d50:	0007a803          	lw	a6,0(a5)
    1d54:	0047a503          	lw	a0,4(a5)
    1d58:	0087a583          	lw	a1,8(a5)
    1d5c:	00c7a603          	lw	a2,12(a5)
    1d60:	01072023          	sw	a6,0(a4)
    1d64:	00a72223          	sw	a0,4(a4)
    1d68:	00b72423          	sw	a1,8(a4)
    1d6c:	00c72623          	sw	a2,12(a4)
    1d70:	01078793          	addi	a5,a5,16
    1d74:	01070713          	addi	a4,a4,16
    1d78:	fcd79ce3          	bne	a5,a3,1d50 <verify_benchmark+0x40>
    1d7c:	00001637          	lui	a2,0x1
    1d80:	01010713          	addi	a4,sp,16
    1d84:	c8060613          	addi	a2,a2,-896 # c80 <WikiSort+0x168>
    1d88:	fffff5b7          	lui	a1,0xfffff
    1d8c:	00e607b3          	add	a5,a2,a4
    1d90:	38058593          	addi	a1,a1,896 # fffff380 <_impure_ptr+0xffff8a60>
    1d94:	00006537          	lui	a0,0x6
    1d98:	00b785b3          	add	a1,a5,a1
    1d9c:	86050513          	addi	a0,a0,-1952 # 5860 <array1>
    1da0:	055020ef          	jal	ra,45f4 <memcmp>
    1da4:	4b010113          	addi	sp,sp,1200
    1da8:	7ec12083          	lw	ra,2028(sp)
    1dac:	00153513          	seqz	a0,a0
    1db0:	7f010113          	addi	sp,sp,2032
    1db4:	00008067          	ret

00001db8 <initialise_benchmark>:
    1db8:	00008067          	ret

00001dbc <warm_caches>:
    1dbc:	e25ff06f          	j	1be0 <benchmark_body>

00001dc0 <benchmark>:
    1dc0:	0c800513          	li	a0,200
    1dc4:	e1dff06f          	j	1be0 <benchmark_body>

00001dc8 <initialise_board>:
    1dc8:	00000513          	li	a0,0
    1dcc:	00008067          	ret

00001dd0 <start_trigger>:
    1dd0:	00000513          	li	a0,0
    1dd4:	00008067          	ret

00001dd8 <stop_trigger>:
    1dd8:	00000513          	li	a0,0
    1ddc:	00008067          	ret

00001de0 <rand_beebs>:
    1de0:	000066b7          	lui	a3,0x6
    1de4:	4ec6a703          	lw	a4,1260(a3) # 64ec <seed>
    1de8:	00871793          	slli	a5,a4,0x8
    1dec:	40e787b3          	sub	a5,a5,a4
    1df0:	00379793          	slli	a5,a5,0x3
    1df4:	00e787b3          	add	a5,a5,a4
    1df8:	00779793          	slli	a5,a5,0x7
    1dfc:	00e787b3          	add	a5,a5,a4
    1e00:	00379793          	slli	a5,a5,0x3
    1e04:	40e787b3          	sub	a5,a5,a4
    1e08:	00579513          	slli	a0,a5,0x5
    1e0c:	00a78533          	add	a0,a5,a0
    1e10:	00251513          	slli	a0,a0,0x2
    1e14:	40e50533          	sub	a0,a0,a4
    1e18:	00251513          	slli	a0,a0,0x2
    1e1c:	000037b7          	lui	a5,0x3
    1e20:	00e50533          	add	a0,a0,a4
    1e24:	03978793          	addi	a5,a5,57 # 3039 <__divdf3+0x3cd>
    1e28:	00f50533          	add	a0,a0,a5
    1e2c:	00151513          	slli	a0,a0,0x1
    1e30:	00155513          	srli	a0,a0,0x1
    1e34:	4ea6a623          	sw	a0,1260(a3)
    1e38:	01055513          	srli	a0,a0,0x10
    1e3c:	00008067          	ret

00001e40 <srand_beebs>:
    1e40:	000067b7          	lui	a5,0x6
    1e44:	4ea7a623          	sw	a0,1260(a5) # 64ec <seed>
    1e48:	00008067          	ret

00001e4c <init_heap_beebs>:
    1e4c:	000067b7          	lui	a5,0x6
    1e50:	00b505b3          	add	a1,a0,a1
    1e54:	4ea7a423          	sw	a0,1256(a5) # 64e8 <heap_ptr>
    1e58:	000067b7          	lui	a5,0x6
    1e5c:	4eb7a223          	sw	a1,1252(a5) # 64e4 <heap_end>
    1e60:	000067b7          	lui	a5,0x6
    1e64:	4e07a023          	sw	zero,1248(a5) # 64e0 <heap_requested>
    1e68:	00008067          	ret

00001e6c <check_heap_beebs>:
    1e6c:	000067b7          	lui	a5,0x6
    1e70:	4e07a703          	lw	a4,1248(a5) # 64e0 <heap_requested>
    1e74:	000067b7          	lui	a5,0x6
    1e78:	4e47a783          	lw	a5,1252(a5) # 64e4 <heap_end>
    1e7c:	00e50533          	add	a0,a0,a4
    1e80:	00a7b533          	sltu	a0,a5,a0
    1e84:	00154513          	xori	a0,a0,1
    1e88:	00008067          	ret

00001e8c <malloc_beebs>:
    1e8c:	000066b7          	lui	a3,0x6
    1e90:	4e06a783          	lw	a5,1248(a3) # 64e0 <heap_requested>
    1e94:	00006637          	lui	a2,0x6
    1e98:	4e862703          	lw	a4,1256(a2) # 64e8 <heap_ptr>
    1e9c:	000065b7          	lui	a1,0x6
    1ea0:	4e45a583          	lw	a1,1252(a1) # 64e4 <heap_end>
    1ea4:	00a787b3          	add	a5,a5,a0
    1ea8:	4ef6a023          	sw	a5,1248(a3)
    1eac:	00a707b3          	add	a5,a4,a0
    1eb0:	00f5ea63          	bltu	a1,a5,1ec4 <malloc_beebs+0x38>
    1eb4:	00050863          	beqz	a0,1ec4 <malloc_beebs+0x38>
    1eb8:	4ef62423          	sw	a5,1256(a2)
    1ebc:	00070513          	mv	a0,a4
    1ec0:	00008067          	ret
    1ec4:	00000713          	li	a4,0
    1ec8:	00070513          	mv	a0,a4
    1ecc:	00008067          	ret

00001ed0 <calloc_beebs>:
    1ed0:	ff010113          	addi	sp,sp,-16
    1ed4:	00112623          	sw	ra,12(sp)
    1ed8:	5ec020ef          	jal	ra,44c4 <__mulsi3>
    1edc:	000066b7          	lui	a3,0x6
    1ee0:	4e06a703          	lw	a4,1248(a3) # 64e0 <heap_requested>
    1ee4:	00006637          	lui	a2,0x6
    1ee8:	4e862783          	lw	a5,1256(a2) # 64e8 <heap_ptr>
    1eec:	000065b7          	lui	a1,0x6
    1ef0:	4e45a583          	lw	a1,1252(a1) # 64e4 <heap_end>
    1ef4:	00a70733          	add	a4,a4,a0
    1ef8:	4ee6a023          	sw	a4,1248(a3)
    1efc:	00a78733          	add	a4,a5,a0
    1f00:	02e5ea63          	bltu	a1,a4,1f34 <calloc_beebs+0x64>
    1f04:	02050863          	beqz	a0,1f34 <calloc_beebs+0x64>
    1f08:	4ee62423          	sw	a4,1256(a2)
    1f0c:	00078c63          	beqz	a5,1f24 <calloc_beebs+0x54>
    1f10:	00050613          	mv	a2,a0
    1f14:	00000593          	li	a1,0
    1f18:	00078513          	mv	a0,a5
    1f1c:	19d020ef          	jal	ra,48b8 <memset>
    1f20:	00050793          	mv	a5,a0
    1f24:	00c12083          	lw	ra,12(sp)
    1f28:	00078513          	mv	a0,a5
    1f2c:	01010113          	addi	sp,sp,16
    1f30:	00008067          	ret
    1f34:	00c12083          	lw	ra,12(sp)
    1f38:	00000793          	li	a5,0
    1f3c:	00078513          	mv	a0,a5
    1f40:	01010113          	addi	sp,sp,16
    1f44:	00008067          	ret

00001f48 <realloc_beebs>:
    1f48:	00006737          	lui	a4,0x6
    1f4c:	4e072783          	lw	a5,1248(a4) # 64e0 <heap_requested>
    1f50:	00006637          	lui	a2,0x6
    1f54:	4e862683          	lw	a3,1256(a2) # 64e8 <heap_ptr>
    1f58:	00006837          	lui	a6,0x6
    1f5c:	4e482803          	lw	a6,1252(a6) # 64e4 <heap_end>
    1f60:	00b787b3          	add	a5,a5,a1
    1f64:	4ef72023          	sw	a5,1248(a4)
    1f68:	00b687b3          	add	a5,a3,a1
    1f6c:	02f86a63          	bltu	a6,a5,1fa0 <realloc_beebs+0x58>
    1f70:	02058863          	beqz	a1,1fa0 <realloc_beebs+0x58>
    1f74:	4ef62423          	sw	a5,1256(a2)
    1f78:	02050063          	beqz	a0,1f98 <realloc_beebs+0x50>
    1f7c:	00068793          	mv	a5,a3
    1f80:	00b505b3          	add	a1,a0,a1
    1f84:	00054703          	lbu	a4,0(a0)
    1f88:	00178793          	addi	a5,a5,1
    1f8c:	00150513          	addi	a0,a0,1
    1f90:	fee78fa3          	sb	a4,-1(a5)
    1f94:	feb518e3          	bne	a0,a1,1f84 <realloc_beebs+0x3c>
    1f98:	00068513          	mv	a0,a3
    1f9c:	00008067          	ret
    1fa0:	00000693          	li	a3,0
    1fa4:	00068513          	mv	a0,a3
    1fa8:	00008067          	ret

00001fac <free_beebs>:
    1fac:	00008067          	ret

00001fb0 <simrv_exit>:
    1fb0:	000077b7          	lui	a5,0x7
    1fb4:	9187a783          	lw	a5,-1768(a5) # 6918 <TOHOST_ADDR>
    1fb8:	00020737          	lui	a4,0x20
    1fbc:	00e7a023          	sw	a4,0(a5)
    1fc0:	0000006f          	j	1fc0 <simrv_exit+0x10>

00001fc4 <simrv_putc>:
    1fc4:	000077b7          	lui	a5,0x7
    1fc8:	9187a703          	lw	a4,-1768(a5) # 6918 <TOHOST_ADDR>
    1fcc:	000107b7          	lui	a5,0x10
    1fd0:	00f56533          	or	a0,a0,a5
    1fd4:	00a72023          	sw	a0,0(a4) # 20000 <_impure_ptr+0x196e0>
    1fd8:	00008067          	ret

00001fdc <simrv_puts>:
    1fdc:	00054783          	lbu	a5,0(a0)
    1fe0:	02078263          	beqz	a5,2004 <simrv_puts+0x28>
    1fe4:	00007737          	lui	a4,0x7
    1fe8:	91872683          	lw	a3,-1768(a4) # 6918 <TOHOST_ADDR>
    1fec:	00010737          	lui	a4,0x10
    1ff0:	00e7e7b3          	or	a5,a5,a4
    1ff4:	00f6a023          	sw	a5,0(a3)
    1ff8:	00150513          	addi	a0,a0,1
    1ffc:	00054783          	lbu	a5,0(a0)
    2000:	fe0798e3          	bnez	a5,1ff0 <simrv_puts+0x14>
    2004:	00008067          	ret

00002008 <simrv_puti>:
    2008:	fd010113          	addi	sp,sp,-48
    200c:	02912223          	sw	s1,36(sp)
    2010:	03212023          	sw	s2,32(sp)
    2014:	01412c23          	sw	s4,24(sp)
    2018:	02112623          	sw	ra,44(sp)
    201c:	02812423          	sw	s0,40(sp)
    2020:	01312e23          	sw	s3,28(sp)
    2024:	00050913          	mv	s2,a0
    2028:	00000493          	li	s1,0
    202c:	00410a13          	addi	s4,sp,4
    2030:	0080006f          	j	2038 <simrv_puti+0x30>
    2034:	00098493          	mv	s1,s3
    2038:	00a00593          	li	a1,10
    203c:	00090513          	mv	a0,s2
    2040:	52c020ef          	jal	ra,456c <__modsi3>
    2044:	03050513          	addi	a0,a0,48
    2048:	00148993          	addi	s3,s1,1
    204c:	0ff57413          	andi	s0,a0,255
    2050:	013a07b3          	add	a5,s4,s3
    2054:	00090513          	mv	a0,s2
    2058:	00a00593          	li	a1,10
    205c:	fe878fa3          	sb	s0,-1(a5) # ffff <_impure_ptr+0x96df>
    2060:	488020ef          	jal	ra,44e8 <__divsi3>
    2064:	00050913          	mv	s2,a0
    2068:	fc0516e3          	bnez	a0,2034 <simrv_puti+0x2c>
    206c:	000077b7          	lui	a5,0x7
    2070:	9187a603          	lw	a2,-1768(a5) # 6918 <TOHOST_ADDR>
    2074:	000106b7          	lui	a3,0x10
    2078:	009a07b3          	add	a5,s4,s1
    207c:	00c0006f          	j	2088 <simrv_puti+0x80>
    2080:	fff7c403          	lbu	s0,-1(a5)
    2084:	00070793          	mv	a5,a4
    2088:	00d46433          	or	s0,s0,a3
    208c:	00862023          	sw	s0,0(a2)
    2090:	fff78713          	addi	a4,a5,-1
    2094:	fefa16e3          	bne	s4,a5,2080 <simrv_puti+0x78>
    2098:	02c12083          	lw	ra,44(sp)
    209c:	02812403          	lw	s0,40(sp)
    20a0:	02412483          	lw	s1,36(sp)
    20a4:	02012903          	lw	s2,32(sp)
    20a8:	01c12983          	lw	s3,28(sp)
    20ac:	01812a03          	lw	s4,24(sp)
    20b0:	03010113          	addi	sp,sp,48
    20b4:	00008067          	ret

000020b8 <simrv_puth>:
    20b8:	ff010113          	addi	sp,sp,-16
    20bc:	00000793          	li	a5,0
    20c0:	00810593          	addi	a1,sp,8
    20c4:	00900e13          	li	t3,9
    20c8:	0140006f          	j	20dc <simrv_puth+0x24>
    20cc:	fe688fa3          	sb	t1,-1(a7)
    20d0:	00455513          	srli	a0,a0,0x4
    20d4:	02050863          	beqz	a0,2104 <simrv_puth+0x4c>
    20d8:	00060793          	mv	a5,a2
    20dc:	00f57713          	andi	a4,a0,15
    20e0:	0ff77693          	andi	a3,a4,255
    20e4:	00178613          	addi	a2,a5,1
    20e8:	03068313          	addi	t1,a3,48 # 10030 <_impure_ptr+0x9710>
    20ec:	00c588b3          	add	a7,a1,a2
    20f0:	03768693          	addi	a3,a3,55
    20f4:	fcee7ce3          	bgeu	t3,a4,20cc <simrv_puth+0x14>
    20f8:	fed88fa3          	sb	a3,-1(a7)
    20fc:	00455513          	srli	a0,a0,0x4
    2100:	fc051ce3          	bnez	a0,20d8 <simrv_puth+0x20>
    2104:	0207c863          	bltz	a5,2134 <simrv_puth+0x7c>
    2108:	00007737          	lui	a4,0x7
    210c:	91872503          	lw	a0,-1768(a4) # 6918 <TOHOST_ADDR>
    2110:	00f587b3          	add	a5,a1,a5
    2114:	00010637          	lui	a2,0x10
    2118:	0080006f          	j	2120 <simrv_puth+0x68>
    211c:	00068793          	mv	a5,a3
    2120:	0007c703          	lbu	a4,0(a5)
    2124:	fff78693          	addi	a3,a5,-1
    2128:	00c76733          	or	a4,a4,a2
    212c:	00e52023          	sw	a4,0(a0)
    2130:	fef596e3          	bne	a1,a5,211c <simrv_puth+0x64>
    2134:	01010113          	addi	sp,sp,16
    2138:	00008067          	ret

0000213c <sqrt>:
    213c:	fe010113          	addi	sp,sp,-32
    2140:	00812c23          	sw	s0,24(sp)
    2144:	00912a23          	sw	s1,20(sp)
    2148:	01212823          	sw	s2,16(sp)
    214c:	01312623          	sw	s3,12(sp)
    2150:	00112e23          	sw	ra,28(sp)
    2154:	00050413          	mv	s0,a0
    2158:	00058493          	mv	s1,a1
    215c:	09c000ef          	jal	ra,21f8 <__ieee754_sqrt>
    2160:	000077b7          	lui	a5,0x7
    2164:	91c7a703          	lw	a4,-1764(a5) # 691c <__fdlib_version>
    2168:	fff00793          	li	a5,-1
    216c:	00050913          	mv	s2,a0
    2170:	00058993          	mv	s3,a1
    2174:	02f70a63          	beq	a4,a5,21a8 <sqrt+0x6c>
    2178:	00040613          	mv	a2,s0
    217c:	00048693          	mv	a3,s1
    2180:	00040513          	mv	a0,s0
    2184:	00048593          	mv	a1,s1
    2188:	1c4020ef          	jal	ra,434c <__unorddf2>
    218c:	00051e63          	bnez	a0,21a8 <sqrt+0x6c>
    2190:	00000613          	li	a2,0
    2194:	00000693          	li	a3,0
    2198:	00040513          	mv	a0,s0
    219c:	00048593          	mv	a1,s1
    21a0:	298010ef          	jal	ra,3438 <__ledf2>
    21a4:	02054463          	bltz	a0,21cc <sqrt+0x90>
    21a8:	01c12083          	lw	ra,28(sp)
    21ac:	01812403          	lw	s0,24(sp)
    21b0:	00090513          	mv	a0,s2
    21b4:	00098593          	mv	a1,s3
    21b8:	01412483          	lw	s1,20(sp)
    21bc:	01012903          	lw	s2,16(sp)
    21c0:	00c12983          	lw	s3,12(sp)
    21c4:	02010113          	addi	sp,sp,32
    21c8:	00008067          	ret
    21cc:	41c020ef          	jal	ra,45e8 <__errno>
    21d0:	02100793          	li	a5,33
    21d4:	00000613          	li	a2,0
    21d8:	00000693          	li	a3,0
    21dc:	00f52023          	sw	a5,0(a0)
    21e0:	00068593          	mv	a1,a3
    21e4:	00060513          	mv	a0,a2
    21e8:	285000ef          	jal	ra,2c6c <__divdf3>
    21ec:	00050913          	mv	s2,a0
    21f0:	00058993          	mv	s3,a1
    21f4:	fb5ff06f          	j	21a8 <sqrt+0x6c>

000021f8 <__ieee754_sqrt>:
    21f8:	ff010113          	addi	sp,sp,-16
    21fc:	7ff00737          	lui	a4,0x7ff00
    2200:	00812423          	sw	s0,8(sp)
    2204:	00912223          	sw	s1,4(sp)
    2208:	00112623          	sw	ra,12(sp)
    220c:	00b77833          	and	a6,a4,a1
    2210:	00058493          	mv	s1,a1
    2214:	00050413          	mv	s0,a0
    2218:	20e80863          	beq	a6,a4,2428 <__ieee754_sqrt+0x230>
    221c:	00058793          	mv	a5,a1
    2220:	00050693          	mv	a3,a0
    2224:	14b05a63          	blez	a1,2378 <__ieee754_sqrt+0x180>
    2228:	4145de13          	srai	t3,a1,0x14
    222c:	240e0e63          	beqz	t3,2488 <__ieee754_sqrt+0x290>
    2230:	00100737          	lui	a4,0x100
    2234:	fff70613          	addi	a2,a4,-1 # fffff <_impure_ptr+0xf96df>
    2238:	00c7f7b3          	and	a5,a5,a2
    223c:	00e7e7b3          	or	a5,a5,a4
    2240:	c01e0e13          	addi	t3,t3,-1023
    2244:	00179713          	slli	a4,a5,0x1
    2248:	001e7613          	andi	a2,t3,1
    224c:	01f6d793          	srli	a5,a3,0x1f
    2250:	00f707b3          	add	a5,a4,a5
    2254:	00169713          	slli	a4,a3,0x1
    2258:	00060a63          	beqz	a2,226c <__ieee754_sqrt+0x74>
    225c:	01f75713          	srli	a4,a4,0x1f
    2260:	00179793          	slli	a5,a5,0x1
    2264:	00e787b3          	add	a5,a5,a4
    2268:	00269713          	slli	a4,a3,0x2
    226c:	401e5e13          	srai	t3,t3,0x1
    2270:	01600593          	li	a1,22
    2274:	00000e93          	li	t4,0
    2278:	00000693          	li	a3,0
    227c:	00200637          	lui	a2,0x200
    2280:	00c68533          	add	a0,a3,a2
    2284:	01f75813          	srli	a6,a4,0x1f
    2288:	fff58593          	addi	a1,a1,-1
    228c:	00a7c863          	blt	a5,a0,229c <__ieee754_sqrt+0xa4>
    2290:	40a787b3          	sub	a5,a5,a0
    2294:	00c506b3          	add	a3,a0,a2
    2298:	00ce8eb3          	add	t4,t4,a2
    229c:	00179793          	slli	a5,a5,0x1
    22a0:	00f807b3          	add	a5,a6,a5
    22a4:	00171713          	slli	a4,a4,0x1
    22a8:	00165613          	srli	a2,a2,0x1
    22ac:	fc059ae3          	bnez	a1,2280 <__ieee754_sqrt+0x88>
    22b0:	00000313          	li	t1,0
    22b4:	02000813          	li	a6,32
    22b8:	80000637          	lui	a2,0x80000
    22bc:	0240006f          	j	22e0 <__ieee754_sqrt+0xe8>
    22c0:	12d78e63          	beq	a5,a3,23fc <__ieee754_sqrt+0x204>
    22c4:	01f75513          	srli	a0,a4,0x1f
    22c8:	00179793          	slli	a5,a5,0x1
    22cc:	fff80813          	addi	a6,a6,-1
    22d0:	00a787b3          	add	a5,a5,a0
    22d4:	00171713          	slli	a4,a4,0x1
    22d8:	00165613          	srli	a2,a2,0x1
    22dc:	04080663          	beqz	a6,2328 <__ieee754_sqrt+0x130>
    22e0:	00b60533          	add	a0,a2,a1
    22e4:	fcf6dee3          	bge	a3,a5,22c0 <__ieee754_sqrt+0xc8>
    22e8:	00c505b3          	add	a1,a0,a2
    22ec:	00068893          	mv	a7,a3
    22f0:	0e054e63          	bltz	a0,23ec <__ieee754_sqrt+0x1f4>
    22f4:	40d787b3          	sub	a5,a5,a3
    22f8:	00a736b3          	sltu	a3,a4,a0
    22fc:	40d787b3          	sub	a5,a5,a3
    2300:	40a70733          	sub	a4,a4,a0
    2304:	01f75513          	srli	a0,a4,0x1f
    2308:	00179793          	slli	a5,a5,0x1
    230c:	fff80813          	addi	a6,a6,-1
    2310:	00c30333          	add	t1,t1,a2
    2314:	00088693          	mv	a3,a7
    2318:	00a787b3          	add	a5,a5,a0
    231c:	00171713          	slli	a4,a4,0x1
    2320:	00165613          	srli	a2,a2,0x1
    2324:	fa081ee3          	bnez	a6,22e0 <__ieee754_sqrt+0xe8>
    2328:	00e7e7b3          	or	a5,a5,a4
    232c:	0e079463          	bnez	a5,2414 <__ieee754_sqrt+0x21c>
    2330:	00135813          	srli	a6,t1,0x1
    2334:	401ed713          	srai	a4,t4,0x1
    2338:	3fe004b7          	lui	s1,0x3fe00
    233c:	001efe93          	andi	t4,t4,1
    2340:	009704b3          	add	s1,a4,s1
    2344:	000e8663          	beqz	t4,2350 <__ieee754_sqrt+0x158>
    2348:	800007b7          	lui	a5,0x80000
    234c:	00f86833          	or	a6,a6,a5
    2350:	014e1713          	slli	a4,t3,0x14
    2354:	00080413          	mv	s0,a6
    2358:	00970733          	add	a4,a4,s1
    235c:	00040513          	mv	a0,s0
    2360:	00c12083          	lw	ra,12(sp)
    2364:	00812403          	lw	s0,8(sp)
    2368:	00412483          	lw	s1,4(sp)
    236c:	00070593          	mv	a1,a4
    2370:	01010113          	addi	sp,sp,16
    2374:	00008067          	ret
    2378:	00159713          	slli	a4,a1,0x1
    237c:	00175713          	srli	a4,a4,0x1
    2380:	00a76833          	or	a6,a4,a0
    2384:	00058713          	mv	a4,a1
    2388:	fc080ae3          	beqz	a6,235c <__ieee754_sqrt+0x164>
    238c:	0c059c63          	bnez	a1,2464 <__ieee754_sqrt+0x26c>
    2390:	00b6d593          	srli	a1,a3,0xb
    2394:	feb78793          	addi	a5,a5,-21 # 7fffffeb <_impure_ptr+0x7fff96cb>
    2398:	00058713          	mv	a4,a1
    239c:	01569693          	slli	a3,a3,0x15
    23a0:	fe0588e3          	beqz	a1,2390 <__ieee754_sqrt+0x198>
    23a4:	0145d613          	srli	a2,a1,0x14
    23a8:	0e061a63          	bnez	a2,249c <__ieee754_sqrt+0x2a4>
    23ac:	00000613          	li	a2,0
    23b0:	0080006f          	j	23b8 <__ieee754_sqrt+0x1c0>
    23b4:	00050613          	mv	a2,a0
    23b8:	00171713          	slli	a4,a4,0x1
    23bc:	00b71593          	slli	a1,a4,0xb
    23c0:	00160513          	addi	a0,a2,1 # 80000001 <_impure_ptr+0x7fff96e1>
    23c4:	fe05d8e3          	bgez	a1,23b4 <__ieee754_sqrt+0x1bc>
    23c8:	02000893          	li	a7,32
    23cc:	00068813          	mv	a6,a3
    23d0:	40a888b3          	sub	a7,a7,a0
    23d4:	00070593          	mv	a1,a4
    23d8:	00a696b3          	sll	a3,a3,a0
    23dc:	01185733          	srl	a4,a6,a7
    23e0:	40c78e33          	sub	t3,a5,a2
    23e4:	00b767b3          	or	a5,a4,a1
    23e8:	e49ff06f          	j	2230 <__ieee754_sqrt+0x38>
    23ec:	fff5c893          	not	a7,a1
    23f0:	01f8d893          	srli	a7,a7,0x1f
    23f4:	011688b3          	add	a7,a3,a7
    23f8:	efdff06f          	j	22f4 <__ieee754_sqrt+0xfc>
    23fc:	eca764e3          	bltu	a4,a0,22c4 <__ieee754_sqrt+0xcc>
    2400:	00c505b3          	add	a1,a0,a2
    2404:	fe0544e3          	bltz	a0,23ec <__ieee754_sqrt+0x1f4>
    2408:	00078893          	mv	a7,a5
    240c:	00000793          	li	a5,0
    2410:	ef1ff06f          	j	2300 <__ieee754_sqrt+0x108>
    2414:	fff00793          	li	a5,-1
    2418:	06f30e63          	beq	t1,a5,2494 <__ieee754_sqrt+0x29c>
    241c:	00130813          	addi	a6,t1,1 # 1001 <WikiSort+0x4e9>
    2420:	00185813          	srli	a6,a6,0x1
    2424:	f11ff06f          	j	2334 <__ieee754_sqrt+0x13c>
    2428:	00050613          	mv	a2,a0
    242c:	00058693          	mv	a3,a1
    2430:	0ec010ef          	jal	ra,351c <__muldf3>
    2434:	00040613          	mv	a2,s0
    2438:	00048693          	mv	a3,s1
    243c:	070000ef          	jal	ra,24ac <__adddf3>
    2440:	00050413          	mv	s0,a0
    2444:	00040513          	mv	a0,s0
    2448:	00c12083          	lw	ra,12(sp)
    244c:	00812403          	lw	s0,8(sp)
    2450:	00058713          	mv	a4,a1
    2454:	00412483          	lw	s1,4(sp)
    2458:	00070593          	mv	a1,a4
    245c:	01010113          	addi	sp,sp,16
    2460:	00008067          	ret
    2464:	00050613          	mv	a2,a0
    2468:	00058693          	mv	a3,a1
    246c:	71c010ef          	jal	ra,3b88 <__subdf3>
    2470:	00050613          	mv	a2,a0
    2474:	00058693          	mv	a3,a1
    2478:	7f4000ef          	jal	ra,2c6c <__divdf3>
    247c:	00050413          	mv	s0,a0
    2480:	00058713          	mv	a4,a1
    2484:	ed9ff06f          	j	235c <__ieee754_sqrt+0x164>
    2488:	00058713          	mv	a4,a1
    248c:	00000793          	li	a5,0
    2490:	f1dff06f          	j	23ac <__ieee754_sqrt+0x1b4>
    2494:	001e8e93          	addi	t4,t4,1
    2498:	e9dff06f          	j	2334 <__ieee754_sqrt+0x13c>
    249c:	00068813          	mv	a6,a3
    24a0:	02000893          	li	a7,32
    24a4:	fff00613          	li	a2,-1
    24a8:	f35ff06f          	j	23dc <__ieee754_sqrt+0x1e4>

000024ac <__adddf3>:
    24ac:	00100837          	lui	a6,0x100
    24b0:	fff80813          	addi	a6,a6,-1 # fffff <_impure_ptr+0xf96df>
    24b4:	00b878b3          	and	a7,a6,a1
    24b8:	00389893          	slli	a7,a7,0x3
    24bc:	01d55793          	srli	a5,a0,0x1d
    24c0:	fe010113          	addi	sp,sp,-32
    24c4:	0145d713          	srli	a4,a1,0x14
    24c8:	00d87833          	and	a6,a6,a3
    24cc:	0117e7b3          	or	a5,a5,a7
    24d0:	0146d893          	srli	a7,a3,0x14
    24d4:	00381813          	slli	a6,a6,0x3
    24d8:	00912a23          	sw	s1,20(sp)
    24dc:	01212823          	sw	s2,16(sp)
    24e0:	7ff77493          	andi	s1,a4,2047
    24e4:	7ff8f893          	andi	a7,a7,2047
    24e8:	01d65713          	srli	a4,a2,0x1d
    24ec:	00112e23          	sw	ra,28(sp)
    24f0:	00812c23          	sw	s0,24(sp)
    24f4:	01312623          	sw	s3,12(sp)
    24f8:	01f5d913          	srli	s2,a1,0x1f
    24fc:	01f6d693          	srli	a3,a3,0x1f
    2500:	01076733          	or	a4,a4,a6
    2504:	00351513          	slli	a0,a0,0x3
    2508:	00361613          	slli	a2,a2,0x3
    250c:	41148833          	sub	a6,s1,a7
    2510:	2cd91463          	bne	s2,a3,27d8 <__adddf3+0x32c>
    2514:	11005e63          	blez	a6,2630 <__adddf3+0x184>
    2518:	04089063          	bnez	a7,2558 <__adddf3+0xac>
    251c:	00c766b3          	or	a3,a4,a2
    2520:	70068063          	beqz	a3,2c20 <__adddf3+0x774>
    2524:	fff80593          	addi	a1,a6,-1
    2528:	02059063          	bnez	a1,2548 <__adddf3+0x9c>
    252c:	00c50633          	add	a2,a0,a2
    2530:	00a63533          	sltu	a0,a2,a0
    2534:	00e787b3          	add	a5,a5,a4
    2538:	00a787b3          	add	a5,a5,a0
    253c:	00060513          	mv	a0,a2
    2540:	00100493          	li	s1,1
    2544:	0700006f          	j	25b4 <__adddf3+0x108>
    2548:	7ff00693          	li	a3,2047
    254c:	02d81063          	bne	a6,a3,256c <__adddf3+0xc0>
    2550:	7ff00493          	li	s1,2047
    2554:	20c0006f          	j	2760 <__adddf3+0x2b4>
    2558:	7ff00693          	li	a3,2047
    255c:	20d48263          	beq	s1,a3,2760 <__adddf3+0x2b4>
    2560:	008006b7          	lui	a3,0x800
    2564:	00d76733          	or	a4,a4,a3
    2568:	00080593          	mv	a1,a6
    256c:	03800693          	li	a3,56
    2570:	0ab6ca63          	blt	a3,a1,2624 <__adddf3+0x178>
    2574:	01f00693          	li	a3,31
    2578:	06b6cc63          	blt	a3,a1,25f0 <__adddf3+0x144>
    257c:	02000813          	li	a6,32
    2580:	40b80833          	sub	a6,a6,a1
    2584:	010716b3          	sll	a3,a4,a6
    2588:	00b658b3          	srl	a7,a2,a1
    258c:	01061633          	sll	a2,a2,a6
    2590:	0116e6b3          	or	a3,a3,a7
    2594:	00c03633          	snez	a2,a2
    2598:	00c6e633          	or	a2,a3,a2
    259c:	00b75733          	srl	a4,a4,a1
    25a0:	00a60633          	add	a2,a2,a0
    25a4:	00f70733          	add	a4,a4,a5
    25a8:	00a637b3          	sltu	a5,a2,a0
    25ac:	00f707b3          	add	a5,a4,a5
    25b0:	00060513          	mv	a0,a2
    25b4:	00879713          	slli	a4,a5,0x8
    25b8:	1a075463          	bgez	a4,2760 <__adddf3+0x2b4>
    25bc:	00148493          	addi	s1,s1,1 # 3fe00001 <_impure_ptr+0x3fdf96e1>
    25c0:	7ff00713          	li	a4,2047
    25c4:	5ce48463          	beq	s1,a4,2b8c <__adddf3+0x6e0>
    25c8:	ff8006b7          	lui	a3,0xff800
    25cc:	fff68693          	addi	a3,a3,-1 # ff7fffff <_impure_ptr+0xff7f96df>
    25d0:	00d7f6b3          	and	a3,a5,a3
    25d4:	00155593          	srli	a1,a0,0x1
    25d8:	00157513          	andi	a0,a0,1
    25dc:	01f69793          	slli	a5,a3,0x1f
    25e0:	00a5e533          	or	a0,a1,a0
    25e4:	00a7e533          	or	a0,a5,a0
    25e8:	0016d793          	srli	a5,a3,0x1
    25ec:	1740006f          	j	2760 <__adddf3+0x2b4>
    25f0:	fe058693          	addi	a3,a1,-32
    25f4:	02000893          	li	a7,32
    25f8:	00d756b3          	srl	a3,a4,a3
    25fc:	00000813          	li	a6,0
    2600:	01158863          	beq	a1,a7,2610 <__adddf3+0x164>
    2604:	04000813          	li	a6,64
    2608:	40b805b3          	sub	a1,a6,a1
    260c:	00b71833          	sll	a6,a4,a1
    2610:	00c86633          	or	a2,a6,a2
    2614:	00c03633          	snez	a2,a2
    2618:	00c6e633          	or	a2,a3,a2
    261c:	00000713          	li	a4,0
    2620:	f81ff06f          	j	25a0 <__adddf3+0xf4>
    2624:	00c76633          	or	a2,a4,a2
    2628:	00c03633          	snez	a2,a2
    262c:	ff1ff06f          	j	261c <__adddf3+0x170>
    2630:	0e080263          	beqz	a6,2714 <__adddf3+0x268>
    2634:	409885b3          	sub	a1,a7,s1
    2638:	02049e63          	bnez	s1,2674 <__adddf3+0x1c8>
    263c:	00a7e6b3          	or	a3,a5,a0
    2640:	52068663          	beqz	a3,2b6c <__adddf3+0x6c0>
    2644:	fff58693          	addi	a3,a1,-1
    2648:	00069c63          	bnez	a3,2660 <__adddf3+0x1b4>
    264c:	00c50533          	add	a0,a0,a2
    2650:	00e787b3          	add	a5,a5,a4
    2654:	00c53633          	sltu	a2,a0,a2
    2658:	00c787b3          	add	a5,a5,a2
    265c:	ee5ff06f          	j	2540 <__adddf3+0x94>
    2660:	7ff00813          	li	a6,2047
    2664:	03059263          	bne	a1,a6,2688 <__adddf3+0x1dc>
    2668:	00070793          	mv	a5,a4
    266c:	00060513          	mv	a0,a2
    2670:	ee1ff06f          	j	2550 <__adddf3+0xa4>
    2674:	7ff00693          	li	a3,2047
    2678:	fed888e3          	beq	a7,a3,2668 <__adddf3+0x1bc>
    267c:	008006b7          	lui	a3,0x800
    2680:	00d7e7b3          	or	a5,a5,a3
    2684:	00058693          	mv	a3,a1
    2688:	03800593          	li	a1,56
    268c:	06d5ce63          	blt	a1,a3,2708 <__adddf3+0x25c>
    2690:	01f00593          	li	a1,31
    2694:	04d5c063          	blt	a1,a3,26d4 <__adddf3+0x228>
    2698:	02000813          	li	a6,32
    269c:	40d80833          	sub	a6,a6,a3
    26a0:	00d55333          	srl	t1,a0,a3
    26a4:	010795b3          	sll	a1,a5,a6
    26a8:	01051533          	sll	a0,a0,a6
    26ac:	0065e5b3          	or	a1,a1,t1
    26b0:	00a03533          	snez	a0,a0
    26b4:	00a5e533          	or	a0,a1,a0
    26b8:	00d7d6b3          	srl	a3,a5,a3
    26bc:	00c50533          	add	a0,a0,a2
    26c0:	00e687b3          	add	a5,a3,a4
    26c4:	00c53633          	sltu	a2,a0,a2
    26c8:	00c787b3          	add	a5,a5,a2
    26cc:	00088493          	mv	s1,a7
    26d0:	ee5ff06f          	j	25b4 <__adddf3+0x108>
    26d4:	fe068593          	addi	a1,a3,-32 # 7fffe0 <_impure_ptr+0x7f96c0>
    26d8:	02000313          	li	t1,32
    26dc:	00b7d5b3          	srl	a1,a5,a1
    26e0:	00000813          	li	a6,0
    26e4:	00668863          	beq	a3,t1,26f4 <__adddf3+0x248>
    26e8:	04000813          	li	a6,64
    26ec:	40d806b3          	sub	a3,a6,a3
    26f0:	00d79833          	sll	a6,a5,a3
    26f4:	00a86533          	or	a0,a6,a0
    26f8:	00a03533          	snez	a0,a0
    26fc:	00a5e533          	or	a0,a1,a0
    2700:	00000693          	li	a3,0
    2704:	fb9ff06f          	j	26bc <__adddf3+0x210>
    2708:	00a7e533          	or	a0,a5,a0
    270c:	00a03533          	snez	a0,a0
    2710:	ff1ff06f          	j	2700 <__adddf3+0x254>
    2714:	00148693          	addi	a3,s1,1
    2718:	7fe6f593          	andi	a1,a3,2046
    271c:	08059663          	bnez	a1,27a8 <__adddf3+0x2fc>
    2720:	00a7e6b3          	or	a3,a5,a0
    2724:	06049263          	bnez	s1,2788 <__adddf3+0x2dc>
    2728:	44068a63          	beqz	a3,2b7c <__adddf3+0x6d0>
    272c:	00c766b3          	or	a3,a4,a2
    2730:	02068863          	beqz	a3,2760 <__adddf3+0x2b4>
    2734:	00c50633          	add	a2,a0,a2
    2738:	00e787b3          	add	a5,a5,a4
    273c:	00a63533          	sltu	a0,a2,a0
    2740:	00a787b3          	add	a5,a5,a0
    2744:	00879713          	slli	a4,a5,0x8
    2748:	00060513          	mv	a0,a2
    274c:	00075a63          	bgez	a4,2760 <__adddf3+0x2b4>
    2750:	ff800737          	lui	a4,0xff800
    2754:	fff70713          	addi	a4,a4,-1 # ff7fffff <_impure_ptr+0xff7f96df>
    2758:	00e7f7b3          	and	a5,a5,a4
    275c:	00100493          	li	s1,1
    2760:	00757713          	andi	a4,a0,7
    2764:	42070863          	beqz	a4,2b94 <__adddf3+0x6e8>
    2768:	00f57713          	andi	a4,a0,15
    276c:	00400693          	li	a3,4
    2770:	42d70263          	beq	a4,a3,2b94 <__adddf3+0x6e8>
    2774:	00450693          	addi	a3,a0,4
    2778:	00a6b533          	sltu	a0,a3,a0
    277c:	00a787b3          	add	a5,a5,a0
    2780:	00068513          	mv	a0,a3
    2784:	4100006f          	j	2b94 <__adddf3+0x6e8>
    2788:	ee0680e3          	beqz	a3,2668 <__adddf3+0x1bc>
    278c:	00c76633          	or	a2,a4,a2
    2790:	dc0600e3          	beqz	a2,2550 <__adddf3+0xa4>
    2794:	00000913          	li	s2,0
    2798:	004007b7          	lui	a5,0x400
    279c:	00000513          	li	a0,0
    27a0:	7ff00493          	li	s1,2047
    27a4:	3f00006f          	j	2b94 <__adddf3+0x6e8>
    27a8:	7ff00593          	li	a1,2047
    27ac:	3cb68e63          	beq	a3,a1,2b88 <__adddf3+0x6dc>
    27b0:	00c50633          	add	a2,a0,a2
    27b4:	00e78733          	add	a4,a5,a4
    27b8:	00a637b3          	sltu	a5,a2,a0
    27bc:	00f70733          	add	a4,a4,a5
    27c0:	01f71513          	slli	a0,a4,0x1f
    27c4:	00165613          	srli	a2,a2,0x1
    27c8:	00c56533          	or	a0,a0,a2
    27cc:	00175793          	srli	a5,a4,0x1
    27d0:	00068493          	mv	s1,a3
    27d4:	f8dff06f          	j	2760 <__adddf3+0x2b4>
    27d8:	0f005c63          	blez	a6,28d0 <__adddf3+0x424>
    27dc:	08089e63          	bnez	a7,2878 <__adddf3+0x3cc>
    27e0:	00c766b3          	or	a3,a4,a2
    27e4:	42068e63          	beqz	a3,2c20 <__adddf3+0x774>
    27e8:	fff80593          	addi	a1,a6,-1
    27ec:	02059063          	bnez	a1,280c <__adddf3+0x360>
    27f0:	40c50633          	sub	a2,a0,a2
    27f4:	00c53533          	sltu	a0,a0,a2
    27f8:	40e787b3          	sub	a5,a5,a4
    27fc:	40a787b3          	sub	a5,a5,a0
    2800:	00060513          	mv	a0,a2
    2804:	00100493          	li	s1,1
    2808:	0540006f          	j	285c <__adddf3+0x3b0>
    280c:	7ff00693          	li	a3,2047
    2810:	d4d800e3          	beq	a6,a3,2550 <__adddf3+0xa4>
    2814:	03800693          	li	a3,56
    2818:	0ab6c663          	blt	a3,a1,28c4 <__adddf3+0x418>
    281c:	01f00693          	li	a3,31
    2820:	06b6c863          	blt	a3,a1,2890 <__adddf3+0x3e4>
    2824:	02000813          	li	a6,32
    2828:	40b80833          	sub	a6,a6,a1
    282c:	010716b3          	sll	a3,a4,a6
    2830:	00b658b3          	srl	a7,a2,a1
    2834:	01061633          	sll	a2,a2,a6
    2838:	0116e6b3          	or	a3,a3,a7
    283c:	00c03633          	snez	a2,a2
    2840:	00c6e633          	or	a2,a3,a2
    2844:	00b75733          	srl	a4,a4,a1
    2848:	40c50633          	sub	a2,a0,a2
    284c:	40e78733          	sub	a4,a5,a4
    2850:	00c537b3          	sltu	a5,a0,a2
    2854:	40f707b3          	sub	a5,a4,a5
    2858:	00060513          	mv	a0,a2
    285c:	00879713          	slli	a4,a5,0x8
    2860:	f00750e3          	bgez	a4,2760 <__adddf3+0x2b4>
    2864:	00800437          	lui	s0,0x800
    2868:	fff40413          	addi	s0,s0,-1 # 7fffff <_impure_ptr+0x7f96df>
    286c:	0087f433          	and	s0,a5,s0
    2870:	00050993          	mv	s3,a0
    2874:	20c0006f          	j	2a80 <__adddf3+0x5d4>
    2878:	7ff00693          	li	a3,2047
    287c:	eed482e3          	beq	s1,a3,2760 <__adddf3+0x2b4>
    2880:	008006b7          	lui	a3,0x800
    2884:	00d76733          	or	a4,a4,a3
    2888:	00080593          	mv	a1,a6
    288c:	f89ff06f          	j	2814 <__adddf3+0x368>
    2890:	fe058693          	addi	a3,a1,-32
    2894:	02000893          	li	a7,32
    2898:	00d756b3          	srl	a3,a4,a3
    289c:	00000813          	li	a6,0
    28a0:	01158863          	beq	a1,a7,28b0 <__adddf3+0x404>
    28a4:	04000813          	li	a6,64
    28a8:	40b805b3          	sub	a1,a6,a1
    28ac:	00b71833          	sll	a6,a4,a1
    28b0:	00c86633          	or	a2,a6,a2
    28b4:	00c03633          	snez	a2,a2
    28b8:	00c6e633          	or	a2,a3,a2
    28bc:	00000713          	li	a4,0
    28c0:	f89ff06f          	j	2848 <__adddf3+0x39c>
    28c4:	00c76633          	or	a2,a4,a2
    28c8:	00c03633          	snez	a2,a2
    28cc:	ff1ff06f          	j	28bc <__adddf3+0x410>
    28d0:	0e080863          	beqz	a6,29c0 <__adddf3+0x514>
    28d4:	40988833          	sub	a6,a7,s1
    28d8:	04049263          	bnez	s1,291c <__adddf3+0x470>
    28dc:	00a7e5b3          	or	a1,a5,a0
    28e0:	34058463          	beqz	a1,2c28 <__adddf3+0x77c>
    28e4:	fff80593          	addi	a1,a6,-1
    28e8:	00059e63          	bnez	a1,2904 <__adddf3+0x458>
    28ec:	40a60533          	sub	a0,a2,a0
    28f0:	40f707b3          	sub	a5,a4,a5
    28f4:	00a63633          	sltu	a2,a2,a0
    28f8:	40c787b3          	sub	a5,a5,a2
    28fc:	00068913          	mv	s2,a3
    2900:	f05ff06f          	j	2804 <__adddf3+0x358>
    2904:	7ff00313          	li	t1,2047
    2908:	02681463          	bne	a6,t1,2930 <__adddf3+0x484>
    290c:	00070793          	mv	a5,a4
    2910:	00060513          	mv	a0,a2
    2914:	7ff00493          	li	s1,2047
    2918:	0d00006f          	j	29e8 <__adddf3+0x53c>
    291c:	7ff00593          	li	a1,2047
    2920:	feb886e3          	beq	a7,a1,290c <__adddf3+0x460>
    2924:	008005b7          	lui	a1,0x800
    2928:	00b7e7b3          	or	a5,a5,a1
    292c:	00080593          	mv	a1,a6
    2930:	03800813          	li	a6,56
    2934:	08b84063          	blt	a6,a1,29b4 <__adddf3+0x508>
    2938:	01f00813          	li	a6,31
    293c:	04b84263          	blt	a6,a1,2980 <__adddf3+0x4d4>
    2940:	02000313          	li	t1,32
    2944:	40b30333          	sub	t1,t1,a1
    2948:	00b55e33          	srl	t3,a0,a1
    294c:	00679833          	sll	a6,a5,t1
    2950:	00651533          	sll	a0,a0,t1
    2954:	01c86833          	or	a6,a6,t3
    2958:	00a03533          	snez	a0,a0
    295c:	00a86533          	or	a0,a6,a0
    2960:	00b7d5b3          	srl	a1,a5,a1
    2964:	40a60533          	sub	a0,a2,a0
    2968:	40b707b3          	sub	a5,a4,a1
    296c:	00a63633          	sltu	a2,a2,a0
    2970:	40c787b3          	sub	a5,a5,a2
    2974:	00088493          	mv	s1,a7
    2978:	00068913          	mv	s2,a3
    297c:	ee1ff06f          	j	285c <__adddf3+0x3b0>
    2980:	fe058813          	addi	a6,a1,-32 # 7fffe0 <_impure_ptr+0x7f96c0>
    2984:	02000e13          	li	t3,32
    2988:	0107d833          	srl	a6,a5,a6
    298c:	00000313          	li	t1,0
    2990:	01c58863          	beq	a1,t3,29a0 <__adddf3+0x4f4>
    2994:	04000313          	li	t1,64
    2998:	40b305b3          	sub	a1,t1,a1
    299c:	00b79333          	sll	t1,a5,a1
    29a0:	00a36533          	or	a0,t1,a0
    29a4:	00a03533          	snez	a0,a0
    29a8:	00a86533          	or	a0,a6,a0
    29ac:	00000593          	li	a1,0
    29b0:	fb5ff06f          	j	2964 <__adddf3+0x4b8>
    29b4:	00a7e533          	or	a0,a5,a0
    29b8:	00a03533          	snez	a0,a0
    29bc:	ff1ff06f          	j	29ac <__adddf3+0x500>
    29c0:	00148593          	addi	a1,s1,1
    29c4:	7fe5f593          	andi	a1,a1,2046
    29c8:	08059663          	bnez	a1,2a54 <__adddf3+0x5a8>
    29cc:	00a7e833          	or	a6,a5,a0
    29d0:	00c765b3          	or	a1,a4,a2
    29d4:	06049063          	bnez	s1,2a34 <__adddf3+0x588>
    29d8:	00081c63          	bnez	a6,29f0 <__adddf3+0x544>
    29dc:	24058e63          	beqz	a1,2c38 <__adddf3+0x78c>
    29e0:	00070793          	mv	a5,a4
    29e4:	00060513          	mv	a0,a2
    29e8:	00068913          	mv	s2,a3
    29ec:	d75ff06f          	j	2760 <__adddf3+0x2b4>
    29f0:	d60588e3          	beqz	a1,2760 <__adddf3+0x2b4>
    29f4:	40c50833          	sub	a6,a0,a2
    29f8:	010538b3          	sltu	a7,a0,a6
    29fc:	40e785b3          	sub	a1,a5,a4
    2a00:	411585b3          	sub	a1,a1,a7
    2a04:	00859893          	slli	a7,a1,0x8
    2a08:	0008dc63          	bgez	a7,2a20 <__adddf3+0x574>
    2a0c:	40a60533          	sub	a0,a2,a0
    2a10:	40f707b3          	sub	a5,a4,a5
    2a14:	00a63633          	sltu	a2,a2,a0
    2a18:	40c787b3          	sub	a5,a5,a2
    2a1c:	fcdff06f          	j	29e8 <__adddf3+0x53c>
    2a20:	00b86533          	or	a0,a6,a1
    2a24:	22050263          	beqz	a0,2c48 <__adddf3+0x79c>
    2a28:	00058793          	mv	a5,a1
    2a2c:	00080513          	mv	a0,a6
    2a30:	d31ff06f          	j	2760 <__adddf3+0x2b4>
    2a34:	00081c63          	bnez	a6,2a4c <__adddf3+0x5a0>
    2a38:	20058c63          	beqz	a1,2c50 <__adddf3+0x7a4>
    2a3c:	00070793          	mv	a5,a4
    2a40:	00060513          	mv	a0,a2
    2a44:	00068913          	mv	s2,a3
    2a48:	b09ff06f          	j	2550 <__adddf3+0xa4>
    2a4c:	b00582e3          	beqz	a1,2550 <__adddf3+0xa4>
    2a50:	d45ff06f          	j	2794 <__adddf3+0x2e8>
    2a54:	40c509b3          	sub	s3,a0,a2
    2a58:	013535b3          	sltu	a1,a0,s3
    2a5c:	40e78433          	sub	s0,a5,a4
    2a60:	40b40433          	sub	s0,s0,a1
    2a64:	00841593          	slli	a1,s0,0x8
    2a68:	0805d463          	bgez	a1,2af0 <__adddf3+0x644>
    2a6c:	40a609b3          	sub	s3,a2,a0
    2a70:	40f707b3          	sub	a5,a4,a5
    2a74:	01363633          	sltu	a2,a2,s3
    2a78:	40c78433          	sub	s0,a5,a2
    2a7c:	00068913          	mv	s2,a3
    2a80:	08040263          	beqz	s0,2b04 <__adddf3+0x658>
    2a84:	00040513          	mv	a0,s0
    2a88:	315010ef          	jal	ra,459c <__clzsi2>
    2a8c:	ff850713          	addi	a4,a0,-8
    2a90:	01f00793          	li	a5,31
    2a94:	08e7c063          	blt	a5,a4,2b14 <__adddf3+0x668>
    2a98:	02000793          	li	a5,32
    2a9c:	40e787b3          	sub	a5,a5,a4
    2aa0:	00e41433          	sll	s0,s0,a4
    2aa4:	00f9d7b3          	srl	a5,s3,a5
    2aa8:	0087e433          	or	s0,a5,s0
    2aac:	00e99533          	sll	a0,s3,a4
    2ab0:	0a974463          	blt	a4,s1,2b58 <__adddf3+0x6ac>
    2ab4:	40970733          	sub	a4,a4,s1
    2ab8:	00170793          	addi	a5,a4,1
    2abc:	01f00693          	li	a3,31
    2ac0:	06f6c263          	blt	a3,a5,2b24 <__adddf3+0x678>
    2ac4:	02000713          	li	a4,32
    2ac8:	40f70733          	sub	a4,a4,a5
    2acc:	00f55633          	srl	a2,a0,a5
    2ad0:	00e416b3          	sll	a3,s0,a4
    2ad4:	00e51533          	sll	a0,a0,a4
    2ad8:	00c6e6b3          	or	a3,a3,a2
    2adc:	00a03533          	snez	a0,a0
    2ae0:	00a6e533          	or	a0,a3,a0
    2ae4:	00f457b3          	srl	a5,s0,a5
    2ae8:	00000493          	li	s1,0
    2aec:	c75ff06f          	j	2760 <__adddf3+0x2b4>
    2af0:	0089e533          	or	a0,s3,s0
    2af4:	f80516e3          	bnez	a0,2a80 <__adddf3+0x5d4>
    2af8:	00000793          	li	a5,0
    2afc:	00000493          	li	s1,0
    2b00:	1400006f          	j	2c40 <__adddf3+0x794>
    2b04:	00098513          	mv	a0,s3
    2b08:	295010ef          	jal	ra,459c <__clzsi2>
    2b0c:	02050513          	addi	a0,a0,32
    2b10:	f7dff06f          	j	2a8c <__adddf3+0x5e0>
    2b14:	fd850413          	addi	s0,a0,-40
    2b18:	00899433          	sll	s0,s3,s0
    2b1c:	00000513          	li	a0,0
    2b20:	f91ff06f          	j	2ab0 <__adddf3+0x604>
    2b24:	fe170713          	addi	a4,a4,-31
    2b28:	02000613          	li	a2,32
    2b2c:	00e45733          	srl	a4,s0,a4
    2b30:	00000693          	li	a3,0
    2b34:	00c78863          	beq	a5,a2,2b44 <__adddf3+0x698>
    2b38:	04000693          	li	a3,64
    2b3c:	40f686b3          	sub	a3,a3,a5
    2b40:	00d416b3          	sll	a3,s0,a3
    2b44:	00d56533          	or	a0,a0,a3
    2b48:	00a03533          	snez	a0,a0
    2b4c:	00a76533          	or	a0,a4,a0
    2b50:	00000793          	li	a5,0
    2b54:	f95ff06f          	j	2ae8 <__adddf3+0x63c>
    2b58:	ff8007b7          	lui	a5,0xff800
    2b5c:	fff78793          	addi	a5,a5,-1 # ff7fffff <_impure_ptr+0xff7f96df>
    2b60:	40e484b3          	sub	s1,s1,a4
    2b64:	00f477b3          	and	a5,s0,a5
    2b68:	bf9ff06f          	j	2760 <__adddf3+0x2b4>
    2b6c:	00070793          	mv	a5,a4
    2b70:	00060513          	mv	a0,a2
    2b74:	00058493          	mv	s1,a1
    2b78:	be9ff06f          	j	2760 <__adddf3+0x2b4>
    2b7c:	00070793          	mv	a5,a4
    2b80:	00060513          	mv	a0,a2
    2b84:	bddff06f          	j	2760 <__adddf3+0x2b4>
    2b88:	7ff00493          	li	s1,2047
    2b8c:	00000793          	li	a5,0
    2b90:	00000513          	li	a0,0
    2b94:	00879713          	slli	a4,a5,0x8
    2b98:	00075e63          	bgez	a4,2bb4 <__adddf3+0x708>
    2b9c:	00148493          	addi	s1,s1,1
    2ba0:	7ff00713          	li	a4,2047
    2ba4:	0ae48e63          	beq	s1,a4,2c60 <__adddf3+0x7b4>
    2ba8:	ff800737          	lui	a4,0xff800
    2bac:	fff70713          	addi	a4,a4,-1 # ff7fffff <_impure_ptr+0xff7f96df>
    2bb0:	00e7f7b3          	and	a5,a5,a4
    2bb4:	01d79713          	slli	a4,a5,0x1d
    2bb8:	00355513          	srli	a0,a0,0x3
    2bbc:	00a76533          	or	a0,a4,a0
    2bc0:	7ff00713          	li	a4,2047
    2bc4:	0037d793          	srli	a5,a5,0x3
    2bc8:	00e49e63          	bne	s1,a4,2be4 <__adddf3+0x738>
    2bcc:	00f56533          	or	a0,a0,a5
    2bd0:	00000793          	li	a5,0
    2bd4:	00050863          	beqz	a0,2be4 <__adddf3+0x738>
    2bd8:	000807b7          	lui	a5,0x80
    2bdc:	00000513          	li	a0,0
    2be0:	00000913          	li	s2,0
    2be4:	7ff4f713          	andi	a4,s1,2047
    2be8:	00c79793          	slli	a5,a5,0xc
    2bec:	01471713          	slli	a4,a4,0x14
    2bf0:	01c12083          	lw	ra,28(sp)
    2bf4:	01812403          	lw	s0,24(sp)
    2bf8:	00c7d793          	srli	a5,a5,0xc
    2bfc:	01f91593          	slli	a1,s2,0x1f
    2c00:	00e7e7b3          	or	a5,a5,a4
    2c04:	00b7e733          	or	a4,a5,a1
    2c08:	01412483          	lw	s1,20(sp)
    2c0c:	01012903          	lw	s2,16(sp)
    2c10:	00c12983          	lw	s3,12(sp)
    2c14:	00070593          	mv	a1,a4
    2c18:	02010113          	addi	sp,sp,32
    2c1c:	00008067          	ret
    2c20:	00080493          	mv	s1,a6
    2c24:	b3dff06f          	j	2760 <__adddf3+0x2b4>
    2c28:	00070793          	mv	a5,a4
    2c2c:	00060513          	mv	a0,a2
    2c30:	00080493          	mv	s1,a6
    2c34:	db5ff06f          	j	29e8 <__adddf3+0x53c>
    2c38:	00000793          	li	a5,0
    2c3c:	00000513          	li	a0,0
    2c40:	00000913          	li	s2,0
    2c44:	f51ff06f          	j	2b94 <__adddf3+0x6e8>
    2c48:	00000793          	li	a5,0
    2c4c:	ff5ff06f          	j	2c40 <__adddf3+0x794>
    2c50:	00000513          	li	a0,0
    2c54:	00000913          	li	s2,0
    2c58:	004007b7          	lui	a5,0x400
    2c5c:	b45ff06f          	j	27a0 <__adddf3+0x2f4>
    2c60:	00000793          	li	a5,0
    2c64:	00000513          	li	a0,0
    2c68:	f4dff06f          	j	2bb4 <__adddf3+0x708>

00002c6c <__divdf3>:
    2c6c:	fb010113          	addi	sp,sp,-80
    2c70:	03312e23          	sw	s3,60(sp)
    2c74:	0145d993          	srli	s3,a1,0x14
    2c78:	04912223          	sw	s1,68(sp)
    2c7c:	05212023          	sw	s2,64(sp)
    2c80:	03512a23          	sw	s5,52(sp)
    2c84:	03612823          	sw	s6,48(sp)
    2c88:	03712623          	sw	s7,44(sp)
    2c8c:	00c59493          	slli	s1,a1,0xc
    2c90:	04112623          	sw	ra,76(sp)
    2c94:	04812423          	sw	s0,72(sp)
    2c98:	03412c23          	sw	s4,56(sp)
    2c9c:	03812423          	sw	s8,40(sp)
    2ca0:	03912223          	sw	s9,36(sp)
    2ca4:	03a12023          	sw	s10,32(sp)
    2ca8:	01b12e23          	sw	s11,28(sp)
    2cac:	7ff9f993          	andi	s3,s3,2047
    2cb0:	00050913          	mv	s2,a0
    2cb4:	00060b93          	mv	s7,a2
    2cb8:	00068b13          	mv	s6,a3
    2cbc:	00c4d493          	srli	s1,s1,0xc
    2cc0:	01f5da93          	srli	s5,a1,0x1f
    2cc4:	0a098063          	beqz	s3,2d64 <__divdf3+0xf8>
    2cc8:	7ff00793          	li	a5,2047
    2ccc:	0ef98e63          	beq	s3,a5,2dc8 <__divdf3+0x15c>
    2cd0:	01d55c93          	srli	s9,a0,0x1d
    2cd4:	00349493          	slli	s1,s1,0x3
    2cd8:	009ce4b3          	or	s1,s9,s1
    2cdc:	00800cb7          	lui	s9,0x800
    2ce0:	0194ecb3          	or	s9,s1,s9
    2ce4:	00351413          	slli	s0,a0,0x3
    2ce8:	c0198a13          	addi	s4,s3,-1023
    2cec:	00000c13          	li	s8,0
    2cf0:	014b5513          	srli	a0,s6,0x14
    2cf4:	00cb1913          	slli	s2,s6,0xc
    2cf8:	7ff57993          	andi	s3,a0,2047
    2cfc:	00c95913          	srli	s2,s2,0xc
    2d00:	01fb5b13          	srli	s6,s6,0x1f
    2d04:	10098063          	beqz	s3,2e04 <__divdf3+0x198>
    2d08:	7ff00793          	li	a5,2047
    2d0c:	16f98063          	beq	s3,a5,2e6c <__divdf3+0x200>
    2d10:	00391513          	slli	a0,s2,0x3
    2d14:	01dbd793          	srli	a5,s7,0x1d
    2d18:	00a7e533          	or	a0,a5,a0
    2d1c:	00800937          	lui	s2,0x800
    2d20:	01256933          	or	s2,a0,s2
    2d24:	003b9813          	slli	a6,s7,0x3
    2d28:	c0198513          	addi	a0,s3,-1023
    2d2c:	00000793          	li	a5,0
    2d30:	002c1713          	slli	a4,s8,0x2
    2d34:	00f76733          	or	a4,a4,a5
    2d38:	fff70713          	addi	a4,a4,-1
    2d3c:	00e00693          	li	a3,14
    2d40:	016ac4b3          	xor	s1,s5,s6
    2d44:	40aa09b3          	sub	s3,s4,a0
    2d48:	14e6ee63          	bltu	a3,a4,2ea4 <__divdf3+0x238>
    2d4c:	000056b7          	lui	a3,0x5
    2d50:	00271713          	slli	a4,a4,0x2
    2d54:	6a868693          	addi	a3,a3,1704 # 56a8 <main+0xd14>
    2d58:	00d70733          	add	a4,a4,a3
    2d5c:	00072703          	lw	a4,0(a4)
    2d60:	00070067          	jr	a4
    2d64:	00a4ecb3          	or	s9,s1,a0
    2d68:	060c8e63          	beqz	s9,2de4 <__divdf3+0x178>
    2d6c:	04048063          	beqz	s1,2dac <__divdf3+0x140>
    2d70:	00048513          	mv	a0,s1
    2d74:	029010ef          	jal	ra,459c <__clzsi2>
    2d78:	ff550793          	addi	a5,a0,-11
    2d7c:	01c00713          	li	a4,28
    2d80:	02f74c63          	blt	a4,a5,2db8 <__divdf3+0x14c>
    2d84:	01d00c93          	li	s9,29
    2d88:	ff850413          	addi	s0,a0,-8
    2d8c:	40fc8cb3          	sub	s9,s9,a5
    2d90:	008494b3          	sll	s1,s1,s0
    2d94:	01995cb3          	srl	s9,s2,s9
    2d98:	009cecb3          	or	s9,s9,s1
    2d9c:	00891433          	sll	s0,s2,s0
    2da0:	c0d00993          	li	s3,-1011
    2da4:	40a98a33          	sub	s4,s3,a0
    2da8:	f45ff06f          	j	2cec <__divdf3+0x80>
    2dac:	7f0010ef          	jal	ra,459c <__clzsi2>
    2db0:	02050513          	addi	a0,a0,32
    2db4:	fc5ff06f          	j	2d78 <__divdf3+0x10c>
    2db8:	fd850493          	addi	s1,a0,-40
    2dbc:	00991cb3          	sll	s9,s2,s1
    2dc0:	00000413          	li	s0,0
    2dc4:	fddff06f          	j	2da0 <__divdf3+0x134>
    2dc8:	00a4ecb3          	or	s9,s1,a0
    2dcc:	020c8463          	beqz	s9,2df4 <__divdf3+0x188>
    2dd0:	00050413          	mv	s0,a0
    2dd4:	00048c93          	mv	s9,s1
    2dd8:	7ff00a13          	li	s4,2047
    2ddc:	00300c13          	li	s8,3
    2de0:	f11ff06f          	j	2cf0 <__divdf3+0x84>
    2de4:	00000413          	li	s0,0
    2de8:	00000a13          	li	s4,0
    2dec:	00100c13          	li	s8,1
    2df0:	f01ff06f          	j	2cf0 <__divdf3+0x84>
    2df4:	00000413          	li	s0,0
    2df8:	7ff00a13          	li	s4,2047
    2dfc:	00200c13          	li	s8,2
    2e00:	ef1ff06f          	j	2cf0 <__divdf3+0x84>
    2e04:	01796833          	or	a6,s2,s7
    2e08:	06080e63          	beqz	a6,2e84 <__divdf3+0x218>
    2e0c:	04090063          	beqz	s2,2e4c <__divdf3+0x1e0>
    2e10:	00090513          	mv	a0,s2
    2e14:	788010ef          	jal	ra,459c <__clzsi2>
    2e18:	ff550793          	addi	a5,a0,-11
    2e1c:	01c00713          	li	a4,28
    2e20:	02f74e63          	blt	a4,a5,2e5c <__divdf3+0x1f0>
    2e24:	01d00713          	li	a4,29
    2e28:	ff850813          	addi	a6,a0,-8
    2e2c:	40f70733          	sub	a4,a4,a5
    2e30:	01091933          	sll	s2,s2,a6
    2e34:	00ebd733          	srl	a4,s7,a4
    2e38:	01276933          	or	s2,a4,s2
    2e3c:	010b9833          	sll	a6,s7,a6
    2e40:	c0d00713          	li	a4,-1011
    2e44:	40a70533          	sub	a0,a4,a0
    2e48:	ee5ff06f          	j	2d2c <__divdf3+0xc0>
    2e4c:	000b8513          	mv	a0,s7
    2e50:	74c010ef          	jal	ra,459c <__clzsi2>
    2e54:	02050513          	addi	a0,a0,32
    2e58:	fc1ff06f          	j	2e18 <__divdf3+0x1ac>
    2e5c:	fd850913          	addi	s2,a0,-40
    2e60:	012b9933          	sll	s2,s7,s2
    2e64:	00000813          	li	a6,0
    2e68:	fd9ff06f          	j	2e40 <__divdf3+0x1d4>
    2e6c:	01796833          	or	a6,s2,s7
    2e70:	02080263          	beqz	a6,2e94 <__divdf3+0x228>
    2e74:	000b8813          	mv	a6,s7
    2e78:	7ff00513          	li	a0,2047
    2e7c:	00300793          	li	a5,3
    2e80:	eb1ff06f          	j	2d30 <__divdf3+0xc4>
    2e84:	00000913          	li	s2,0
    2e88:	00000513          	li	a0,0
    2e8c:	00100793          	li	a5,1
    2e90:	ea1ff06f          	j	2d30 <__divdf3+0xc4>
    2e94:	00000913          	li	s2,0
    2e98:	7ff00513          	li	a0,2047
    2e9c:	00200793          	li	a5,2
    2ea0:	e91ff06f          	j	2d30 <__divdf3+0xc4>
    2ea4:	01996663          	bltu	s2,s9,2eb0 <__divdf3+0x244>
    2ea8:	452c9263          	bne	s9,s2,32ec <__divdf3+0x680>
    2eac:	45046063          	bltu	s0,a6,32ec <__divdf3+0x680>
    2eb0:	01fc9713          	slli	a4,s9,0x1f
    2eb4:	00145793          	srli	a5,s0,0x1
    2eb8:	01f41d93          	slli	s11,s0,0x1f
    2ebc:	001cdc93          	srli	s9,s9,0x1
    2ec0:	00f76433          	or	s0,a4,a5
    2ec4:	01885b93          	srli	s7,a6,0x18
    2ec8:	00891513          	slli	a0,s2,0x8
    2ecc:	00abebb3          	or	s7,s7,a0
    2ed0:	010bda93          	srli	s5,s7,0x10
    2ed4:	000a8593          	mv	a1,s5
    2ed8:	010b9b13          	slli	s6,s7,0x10
    2edc:	000c8513          	mv	a0,s9
    2ee0:	00881c13          	slli	s8,a6,0x8
    2ee4:	010b5b13          	srli	s6,s6,0x10
    2ee8:	608010ef          	jal	ra,44f0 <__udivsi3>
    2eec:	00050593          	mv	a1,a0
    2ef0:	00050d13          	mv	s10,a0
    2ef4:	000b0513          	mv	a0,s6
    2ef8:	5cc010ef          	jal	ra,44c4 <__mulsi3>
    2efc:	00050913          	mv	s2,a0
    2f00:	000a8593          	mv	a1,s5
    2f04:	000c8513          	mv	a0,s9
    2f08:	630010ef          	jal	ra,4538 <__umodsi3>
    2f0c:	01051513          	slli	a0,a0,0x10
    2f10:	01045793          	srli	a5,s0,0x10
    2f14:	00a7e533          	or	a0,a5,a0
    2f18:	000d0a13          	mv	s4,s10
    2f1c:	01257e63          	bgeu	a0,s2,2f38 <__divdf3+0x2cc>
    2f20:	01750533          	add	a0,a0,s7
    2f24:	fffd0a13          	addi	s4,s10,-1
    2f28:	01756863          	bltu	a0,s7,2f38 <__divdf3+0x2cc>
    2f2c:	01257663          	bgeu	a0,s2,2f38 <__divdf3+0x2cc>
    2f30:	ffed0a13          	addi	s4,s10,-2
    2f34:	01750533          	add	a0,a0,s7
    2f38:	41250933          	sub	s2,a0,s2
    2f3c:	000a8593          	mv	a1,s5
    2f40:	00090513          	mv	a0,s2
    2f44:	5ac010ef          	jal	ra,44f0 <__udivsi3>
    2f48:	00050593          	mv	a1,a0
    2f4c:	00050d13          	mv	s10,a0
    2f50:	000b0513          	mv	a0,s6
    2f54:	570010ef          	jal	ra,44c4 <__mulsi3>
    2f58:	00050c93          	mv	s9,a0
    2f5c:	000a8593          	mv	a1,s5
    2f60:	00090513          	mv	a0,s2
    2f64:	5d4010ef          	jal	ra,4538 <__umodsi3>
    2f68:	01041413          	slli	s0,s0,0x10
    2f6c:	01051513          	slli	a0,a0,0x10
    2f70:	01045413          	srli	s0,s0,0x10
    2f74:	00a46433          	or	s0,s0,a0
    2f78:	000d0713          	mv	a4,s10
    2f7c:	01947e63          	bgeu	s0,s9,2f98 <__divdf3+0x32c>
    2f80:	01740433          	add	s0,s0,s7
    2f84:	fffd0713          	addi	a4,s10,-1
    2f88:	01746863          	bltu	s0,s7,2f98 <__divdf3+0x32c>
    2f8c:	01947663          	bgeu	s0,s9,2f98 <__divdf3+0x32c>
    2f90:	ffed0713          	addi	a4,s10,-2
    2f94:	01740433          	add	s0,s0,s7
    2f98:	010a1793          	slli	a5,s4,0x10
    2f9c:	00010e37          	lui	t3,0x10
    2fa0:	00e7e7b3          	or	a5,a5,a4
    2fa4:	41940833          	sub	a6,s0,s9
    2fa8:	fffe0c93          	addi	s9,t3,-1 # ffff <_impure_ptr+0x96df>
    2fac:	0197f333          	and	t1,a5,s9
    2fb0:	019c7cb3          	and	s9,s8,s9
    2fb4:	0107d713          	srli	a4,a5,0x10
    2fb8:	010c5d13          	srli	s10,s8,0x10
    2fbc:	00030513          	mv	a0,t1
    2fc0:	000c8593          	mv	a1,s9
    2fc4:	500010ef          	jal	ra,44c4 <__mulsi3>
    2fc8:	00050893          	mv	a7,a0
    2fcc:	000d0593          	mv	a1,s10
    2fd0:	00030513          	mv	a0,t1
    2fd4:	4f0010ef          	jal	ra,44c4 <__mulsi3>
    2fd8:	00050313          	mv	t1,a0
    2fdc:	000c8593          	mv	a1,s9
    2fe0:	00070513          	mv	a0,a4
    2fe4:	4e0010ef          	jal	ra,44c4 <__mulsi3>
    2fe8:	00050e93          	mv	t4,a0
    2fec:	000d0593          	mv	a1,s10
    2ff0:	00070513          	mv	a0,a4
    2ff4:	4d0010ef          	jal	ra,44c4 <__mulsi3>
    2ff8:	0108d713          	srli	a4,a7,0x10
    2ffc:	01d30333          	add	t1,t1,t4
    3000:	00670733          	add	a4,a4,t1
    3004:	01d77463          	bgeu	a4,t4,300c <__divdf3+0x3a0>
    3008:	01c50533          	add	a0,a0,t3
    300c:	01075413          	srli	s0,a4,0x10
    3010:	00a40433          	add	s0,s0,a0
    3014:	00010537          	lui	a0,0x10
    3018:	fff50513          	addi	a0,a0,-1 # ffff <_impure_ptr+0x96df>
    301c:	00a77a33          	and	s4,a4,a0
    3020:	010a1a13          	slli	s4,s4,0x10
    3024:	00a8f8b3          	and	a7,a7,a0
    3028:	011a0a33          	add	s4,s4,a7
    302c:	00886863          	bltu	a6,s0,303c <__divdf3+0x3d0>
    3030:	00078913          	mv	s2,a5
    3034:	04881463          	bne	a6,s0,307c <__divdf3+0x410>
    3038:	054df263          	bgeu	s11,s4,307c <__divdf3+0x410>
    303c:	018d8db3          	add	s11,s11,s8
    3040:	018db733          	sltu	a4,s11,s8
    3044:	01770733          	add	a4,a4,s7
    3048:	00e80833          	add	a6,a6,a4
    304c:	fff78913          	addi	s2,a5,-1 # 3fffff <_impure_ptr+0x3f96df>
    3050:	010be663          	bltu	s7,a6,305c <__divdf3+0x3f0>
    3054:	030b9463          	bne	s7,a6,307c <__divdf3+0x410>
    3058:	038de263          	bltu	s11,s8,307c <__divdf3+0x410>
    305c:	00886663          	bltu	a6,s0,3068 <__divdf3+0x3fc>
    3060:	01041e63          	bne	s0,a6,307c <__divdf3+0x410>
    3064:	014dfc63          	bgeu	s11,s4,307c <__divdf3+0x410>
    3068:	018d8db3          	add	s11,s11,s8
    306c:	ffe78913          	addi	s2,a5,-2
    3070:	018db7b3          	sltu	a5,s11,s8
    3074:	017787b3          	add	a5,a5,s7
    3078:	00f80833          	add	a6,a6,a5
    307c:	414d8a33          	sub	s4,s11,s4
    3080:	40880433          	sub	s0,a6,s0
    3084:	014db7b3          	sltu	a5,s11,s4
    3088:	40f40433          	sub	s0,s0,a5
    308c:	fff00813          	li	a6,-1
    3090:	1a8b8063          	beq	s7,s0,3230 <__divdf3+0x5c4>
    3094:	000a8593          	mv	a1,s5
    3098:	00040513          	mv	a0,s0
    309c:	454010ef          	jal	ra,44f0 <__udivsi3>
    30a0:	00050593          	mv	a1,a0
    30a4:	00a12623          	sw	a0,12(sp)
    30a8:	000b0513          	mv	a0,s6
    30ac:	418010ef          	jal	ra,44c4 <__mulsi3>
    30b0:	00a12423          	sw	a0,8(sp)
    30b4:	000a8593          	mv	a1,s5
    30b8:	00040513          	mv	a0,s0
    30bc:	47c010ef          	jal	ra,4538 <__umodsi3>
    30c0:	00c12683          	lw	a3,12(sp)
    30c4:	00812703          	lw	a4,8(sp)
    30c8:	01051513          	slli	a0,a0,0x10
    30cc:	010a5793          	srli	a5,s4,0x10
    30d0:	00a7e533          	or	a0,a5,a0
    30d4:	00068d93          	mv	s11,a3
    30d8:	00e57e63          	bgeu	a0,a4,30f4 <__divdf3+0x488>
    30dc:	01750533          	add	a0,a0,s7
    30e0:	fff68d93          	addi	s11,a3,-1
    30e4:	01756863          	bltu	a0,s7,30f4 <__divdf3+0x488>
    30e8:	00e57663          	bgeu	a0,a4,30f4 <__divdf3+0x488>
    30ec:	ffe68d93          	addi	s11,a3,-2
    30f0:	01750533          	add	a0,a0,s7
    30f4:	40e50433          	sub	s0,a0,a4
    30f8:	000a8593          	mv	a1,s5
    30fc:	00040513          	mv	a0,s0
    3100:	3f0010ef          	jal	ra,44f0 <__udivsi3>
    3104:	00050593          	mv	a1,a0
    3108:	00a12423          	sw	a0,8(sp)
    310c:	000b0513          	mv	a0,s6
    3110:	3b4010ef          	jal	ra,44c4 <__mulsi3>
    3114:	00050b13          	mv	s6,a0
    3118:	000a8593          	mv	a1,s5
    311c:	00040513          	mv	a0,s0
    3120:	418010ef          	jal	ra,4538 <__umodsi3>
    3124:	010a1a13          	slli	s4,s4,0x10
    3128:	00812703          	lw	a4,8(sp)
    312c:	01051513          	slli	a0,a0,0x10
    3130:	010a5a13          	srli	s4,s4,0x10
    3134:	00aa6533          	or	a0,s4,a0
    3138:	00070793          	mv	a5,a4
    313c:	01657e63          	bgeu	a0,s6,3158 <__divdf3+0x4ec>
    3140:	01750533          	add	a0,a0,s7
    3144:	fff70793          	addi	a5,a4,-1
    3148:	01756863          	bltu	a0,s7,3158 <__divdf3+0x4ec>
    314c:	01657663          	bgeu	a0,s6,3158 <__divdf3+0x4ec>
    3150:	ffe70793          	addi	a5,a4,-2
    3154:	01750533          	add	a0,a0,s7
    3158:	010d9893          	slli	a7,s11,0x10
    315c:	00f8e8b3          	or	a7,a7,a5
    3160:	01089713          	slli	a4,a7,0x10
    3164:	01075713          	srli	a4,a4,0x10
    3168:	41650333          	sub	t1,a0,s6
    316c:	0108d793          	srli	a5,a7,0x10
    3170:	00070513          	mv	a0,a4
    3174:	000c8593          	mv	a1,s9
    3178:	34c010ef          	jal	ra,44c4 <__mulsi3>
    317c:	00050813          	mv	a6,a0
    3180:	000d0593          	mv	a1,s10
    3184:	00070513          	mv	a0,a4
    3188:	33c010ef          	jal	ra,44c4 <__mulsi3>
    318c:	00050713          	mv	a4,a0
    3190:	000c8593          	mv	a1,s9
    3194:	00078513          	mv	a0,a5
    3198:	32c010ef          	jal	ra,44c4 <__mulsi3>
    319c:	00050e13          	mv	t3,a0
    31a0:	000d0593          	mv	a1,s10
    31a4:	00078513          	mv	a0,a5
    31a8:	31c010ef          	jal	ra,44c4 <__mulsi3>
    31ac:	01085793          	srli	a5,a6,0x10
    31b0:	01c70733          	add	a4,a4,t3
    31b4:	00e787b3          	add	a5,a5,a4
    31b8:	01c7f663          	bgeu	a5,t3,31c4 <__divdf3+0x558>
    31bc:	00010737          	lui	a4,0x10
    31c0:	00e50533          	add	a0,a0,a4
    31c4:	00010637          	lui	a2,0x10
    31c8:	fff60613          	addi	a2,a2,-1 # ffff <_impure_ptr+0x96df>
    31cc:	0107d693          	srli	a3,a5,0x10
    31d0:	00c7f733          	and	a4,a5,a2
    31d4:	01071713          	slli	a4,a4,0x10
    31d8:	00c87833          	and	a6,a6,a2
    31dc:	00a686b3          	add	a3,a3,a0
    31e0:	01070733          	add	a4,a4,a6
    31e4:	00d36863          	bltu	t1,a3,31f4 <__divdf3+0x588>
    31e8:	24d31463          	bne	t1,a3,3430 <__divdf3+0x7c4>
    31ec:	00088813          	mv	a6,a7
    31f0:	04070063          	beqz	a4,3230 <__divdf3+0x5c4>
    31f4:	006b8533          	add	a0,s7,t1
    31f8:	fff88813          	addi	a6,a7,-1
    31fc:	03756463          	bltu	a0,s7,3224 <__divdf3+0x5b8>
    3200:	00d56663          	bltu	a0,a3,320c <__divdf3+0x5a0>
    3204:	22d51463          	bne	a0,a3,342c <__divdf3+0x7c0>
    3208:	02ec7063          	bgeu	s8,a4,3228 <__divdf3+0x5bc>
    320c:	001c1793          	slli	a5,s8,0x1
    3210:	0187bc33          	sltu	s8,a5,s8
    3214:	017c0bb3          	add	s7,s8,s7
    3218:	ffe88813          	addi	a6,a7,-2
    321c:	01750533          	add	a0,a0,s7
    3220:	00078c13          	mv	s8,a5
    3224:	00d51463          	bne	a0,a3,322c <__divdf3+0x5c0>
    3228:	00ec0463          	beq	s8,a4,3230 <__divdf3+0x5c4>
    322c:	00186813          	ori	a6,a6,1
    3230:	3ff98713          	addi	a4,s3,1023
    3234:	10e05a63          	blez	a4,3348 <__divdf3+0x6dc>
    3238:	00787793          	andi	a5,a6,7
    323c:	02078063          	beqz	a5,325c <__divdf3+0x5f0>
    3240:	00f87793          	andi	a5,a6,15
    3244:	00400693          	li	a3,4
    3248:	00d78a63          	beq	a5,a3,325c <__divdf3+0x5f0>
    324c:	00480693          	addi	a3,a6,4
    3250:	0106b833          	sltu	a6,a3,a6
    3254:	01090933          	add	s2,s2,a6
    3258:	00068813          	mv	a6,a3
    325c:	00791793          	slli	a5,s2,0x7
    3260:	0007da63          	bgez	a5,3274 <__divdf3+0x608>
    3264:	ff0007b7          	lui	a5,0xff000
    3268:	fff78793          	addi	a5,a5,-1 # feffffff <_impure_ptr+0xfeff96df>
    326c:	00f97933          	and	s2,s2,a5
    3270:	40098713          	addi	a4,s3,1024
    3274:	7fe00793          	li	a5,2046
    3278:	18e7ca63          	blt	a5,a4,340c <__divdf3+0x7a0>
    327c:	00385813          	srli	a6,a6,0x3
    3280:	01d91793          	slli	a5,s2,0x1d
    3284:	0107e7b3          	or	a5,a5,a6
    3288:	00395513          	srli	a0,s2,0x3
    328c:	00c51513          	slli	a0,a0,0xc
    3290:	7ff77713          	andi	a4,a4,2047
    3294:	01471713          	slli	a4,a4,0x14
    3298:	04c12083          	lw	ra,76(sp)
    329c:	04812403          	lw	s0,72(sp)
    32a0:	00c55513          	srli	a0,a0,0xc
    32a4:	01f49493          	slli	s1,s1,0x1f
    32a8:	00e56533          	or	a0,a0,a4
    32ac:	00956733          	or	a4,a0,s1
    32b0:	04012903          	lw	s2,64(sp)
    32b4:	04412483          	lw	s1,68(sp)
    32b8:	03c12983          	lw	s3,60(sp)
    32bc:	03812a03          	lw	s4,56(sp)
    32c0:	03412a83          	lw	s5,52(sp)
    32c4:	03012b03          	lw	s6,48(sp)
    32c8:	02c12b83          	lw	s7,44(sp)
    32cc:	02812c03          	lw	s8,40(sp)
    32d0:	02412c83          	lw	s9,36(sp)
    32d4:	02012d03          	lw	s10,32(sp)
    32d8:	01c12d83          	lw	s11,28(sp)
    32dc:	00078513          	mv	a0,a5
    32e0:	00070593          	mv	a1,a4
    32e4:	05010113          	addi	sp,sp,80
    32e8:	00008067          	ret
    32ec:	fff98993          	addi	s3,s3,-1
    32f0:	00000d93          	li	s11,0
    32f4:	bd1ff06f          	j	2ec4 <__divdf3+0x258>
    32f8:	000a8493          	mv	s1,s5
    32fc:	000c8913          	mv	s2,s9
    3300:	00040813          	mv	a6,s0
    3304:	000c0793          	mv	a5,s8
    3308:	00200713          	li	a4,2
    330c:	10e78063          	beq	a5,a4,340c <__divdf3+0x7a0>
    3310:	00300713          	li	a4,3
    3314:	0ee78263          	beq	a5,a4,33f8 <__divdf3+0x78c>
    3318:	00100713          	li	a4,1
    331c:	f0e79ae3          	bne	a5,a4,3230 <__divdf3+0x5c4>
    3320:	00000513          	li	a0,0
    3324:	00000793          	li	a5,0
    3328:	0940006f          	j	33bc <__divdf3+0x750>
    332c:	000b0493          	mv	s1,s6
    3330:	fd9ff06f          	j	3308 <__divdf3+0x69c>
    3334:	00080937          	lui	s2,0x80
    3338:	00000813          	li	a6,0
    333c:	00000493          	li	s1,0
    3340:	00300793          	li	a5,3
    3344:	fc5ff06f          	j	3308 <__divdf3+0x69c>
    3348:	00100513          	li	a0,1
    334c:	40e50533          	sub	a0,a0,a4
    3350:	03800793          	li	a5,56
    3354:	fca7c6e3          	blt	a5,a0,3320 <__divdf3+0x6b4>
    3358:	01f00793          	li	a5,31
    335c:	06a7c463          	blt	a5,a0,33c4 <__divdf3+0x758>
    3360:	41e98993          	addi	s3,s3,1054
    3364:	013917b3          	sll	a5,s2,s3
    3368:	00a85733          	srl	a4,a6,a0
    336c:	013819b3          	sll	s3,a6,s3
    3370:	00e7e7b3          	or	a5,a5,a4
    3374:	013039b3          	snez	s3,s3
    3378:	0137e7b3          	or	a5,a5,s3
    337c:	00a95533          	srl	a0,s2,a0
    3380:	0077f713          	andi	a4,a5,7
    3384:	02070063          	beqz	a4,33a4 <__divdf3+0x738>
    3388:	00f7f713          	andi	a4,a5,15
    338c:	00400693          	li	a3,4
    3390:	00d70a63          	beq	a4,a3,33a4 <__divdf3+0x738>
    3394:	00478713          	addi	a4,a5,4
    3398:	00f737b3          	sltu	a5,a4,a5
    339c:	00f50533          	add	a0,a0,a5
    33a0:	00070793          	mv	a5,a4
    33a4:	00851713          	slli	a4,a0,0x8
    33a8:	06074a63          	bltz	a4,341c <__divdf3+0x7b0>
    33ac:	01d51713          	slli	a4,a0,0x1d
    33b0:	0037d793          	srli	a5,a5,0x3
    33b4:	00f767b3          	or	a5,a4,a5
    33b8:	00355513          	srli	a0,a0,0x3
    33bc:	00000713          	li	a4,0
    33c0:	ecdff06f          	j	328c <__divdf3+0x620>
    33c4:	fe100793          	li	a5,-31
    33c8:	40e787b3          	sub	a5,a5,a4
    33cc:	02000693          	li	a3,32
    33d0:	00f957b3          	srl	a5,s2,a5
    33d4:	00000713          	li	a4,0
    33d8:	00d50663          	beq	a0,a3,33e4 <__divdf3+0x778>
    33dc:	43e98993          	addi	s3,s3,1086
    33e0:	01391733          	sll	a4,s2,s3
    33e4:	01076833          	or	a6,a4,a6
    33e8:	01003833          	snez	a6,a6
    33ec:	0107e7b3          	or	a5,a5,a6
    33f0:	00000513          	li	a0,0
    33f4:	f8dff06f          	j	3380 <__divdf3+0x714>
    33f8:	00080537          	lui	a0,0x80
    33fc:	00000793          	li	a5,0
    3400:	7ff00713          	li	a4,2047
    3404:	00000493          	li	s1,0
    3408:	e85ff06f          	j	328c <__divdf3+0x620>
    340c:	00000513          	li	a0,0
    3410:	00000793          	li	a5,0
    3414:	7ff00713          	li	a4,2047
    3418:	e75ff06f          	j	328c <__divdf3+0x620>
    341c:	00000513          	li	a0,0
    3420:	00000793          	li	a5,0
    3424:	00100713          	li	a4,1
    3428:	e65ff06f          	j	328c <__divdf3+0x620>
    342c:	00080893          	mv	a7,a6
    3430:	00088813          	mv	a6,a7
    3434:	df9ff06f          	j	322c <__divdf3+0x5c0>

00003438 <__ledf2>:
    3438:	0145d813          	srli	a6,a1,0x14
    343c:	001007b7          	lui	a5,0x100
    3440:	fff78793          	addi	a5,a5,-1 # fffff <_impure_ptr+0xf96df>
    3444:	0146d713          	srli	a4,a3,0x14
    3448:	7ff87813          	andi	a6,a6,2047
    344c:	7ff00e93          	li	t4,2047
    3450:	00b7f8b3          	and	a7,a5,a1
    3454:	00050313          	mv	t1,a0
    3458:	00d7f7b3          	and	a5,a5,a3
    345c:	01f5d593          	srli	a1,a1,0x1f
    3460:	00060e13          	mv	t3,a2
    3464:	7ff77713          	andi	a4,a4,2047
    3468:	01f6d693          	srli	a3,a3,0x1f
    346c:	01d81a63          	bne	a6,t4,3480 <__ledf2+0x48>
    3470:	00a8eeb3          	or	t4,a7,a0
    3474:	080e8c63          	beqz	t4,350c <__ledf2+0xd4>
    3478:	00200593          	li	a1,2
    347c:	0480006f          	j	34c4 <__ledf2+0x8c>
    3480:	01d71663          	bne	a4,t4,348c <__ledf2+0x54>
    3484:	00c7eeb3          	or	t4,a5,a2
    3488:	fe0e98e3          	bnez	t4,3478 <__ledf2+0x40>
    348c:	08081263          	bnez	a6,3510 <__ledf2+0xd8>
    3490:	00a8e533          	or	a0,a7,a0
    3494:	00153513          	seqz	a0,a0
    3498:	00071663          	bnez	a4,34a4 <__ledf2+0x6c>
    349c:	00c7e633          	or	a2,a5,a2
    34a0:	04060e63          	beqz	a2,34fc <__ledf2+0xc4>
    34a4:	00051a63          	bnez	a0,34b8 <__ledf2+0x80>
    34a8:	02d58263          	beq	a1,a3,34cc <__ledf2+0x94>
    34ac:	04058463          	beqz	a1,34f4 <__ledf2+0xbc>
    34b0:	fff00593          	li	a1,-1
    34b4:	0100006f          	j	34c4 <__ledf2+0x8c>
    34b8:	fff00593          	li	a1,-1
    34bc:	00068463          	beqz	a3,34c4 <__ledf2+0x8c>
    34c0:	00068593          	mv	a1,a3
    34c4:	00058513          	mv	a0,a1
    34c8:	00008067          	ret
    34cc:	ff0740e3          	blt	a4,a6,34ac <__ledf2+0x74>
    34d0:	00e85663          	bge	a6,a4,34dc <__ledf2+0xa4>
    34d4:	fe0598e3          	bnez	a1,34c4 <__ledf2+0x8c>
    34d8:	fd9ff06f          	j	34b0 <__ledf2+0x78>
    34dc:	fd17e8e3          	bltu	a5,a7,34ac <__ledf2+0x74>
    34e0:	02f89263          	bne	a7,a5,3504 <__ledf2+0xcc>
    34e4:	fc6e64e3          	bltu	t3,t1,34ac <__ledf2+0x74>
    34e8:	ffc366e3          	bltu	t1,t3,34d4 <__ledf2+0x9c>
    34ec:	00000593          	li	a1,0
    34f0:	fd5ff06f          	j	34c4 <__ledf2+0x8c>
    34f4:	00100593          	li	a1,1
    34f8:	fcdff06f          	j	34c4 <__ledf2+0x8c>
    34fc:	fe0518e3          	bnez	a0,34ec <__ledf2+0xb4>
    3500:	fadff06f          	j	34ac <__ledf2+0x74>
    3504:	fcf8e8e3          	bltu	a7,a5,34d4 <__ledf2+0x9c>
    3508:	fe5ff06f          	j	34ec <__ledf2+0xb4>
    350c:	f7070ce3          	beq	a4,a6,3484 <__ledf2+0x4c>
    3510:	f8071ce3          	bnez	a4,34a8 <__ledf2+0x70>
    3514:	00000513          	li	a0,0
    3518:	f85ff06f          	j	349c <__ledf2+0x64>

0000351c <__muldf3>:
    351c:	fd010113          	addi	sp,sp,-48
    3520:	01312e23          	sw	s3,28(sp)
    3524:	0145d993          	srli	s3,a1,0x14
    3528:	02812423          	sw	s0,40(sp)
    352c:	02912223          	sw	s1,36(sp)
    3530:	01412c23          	sw	s4,24(sp)
    3534:	01512a23          	sw	s5,20(sp)
    3538:	01612823          	sw	s6,16(sp)
    353c:	00c59493          	slli	s1,a1,0xc
    3540:	02112623          	sw	ra,44(sp)
    3544:	03212023          	sw	s2,32(sp)
    3548:	01712623          	sw	s7,12(sp)
    354c:	7ff9f993          	andi	s3,s3,2047
    3550:	00050413          	mv	s0,a0
    3554:	00060b13          	mv	s6,a2
    3558:	00068a93          	mv	s5,a3
    355c:	00c4d493          	srli	s1,s1,0xc
    3560:	01f5da13          	srli	s4,a1,0x1f
    3564:	0a098263          	beqz	s3,3608 <__muldf3+0xec>
    3568:	7ff00793          	li	a5,2047
    356c:	10f98063          	beq	s3,a5,366c <__muldf3+0x150>
    3570:	01d55793          	srli	a5,a0,0x1d
    3574:	00349493          	slli	s1,s1,0x3
    3578:	0097e4b3          	or	s1,a5,s1
    357c:	008007b7          	lui	a5,0x800
    3580:	00f4e4b3          	or	s1,s1,a5
    3584:	00351913          	slli	s2,a0,0x3
    3588:	c0198993          	addi	s3,s3,-1023
    358c:	00000b93          	li	s7,0
    3590:	014ad513          	srli	a0,s5,0x14
    3594:	00ca9413          	slli	s0,s5,0xc
    3598:	7ff57513          	andi	a0,a0,2047
    359c:	00c45413          	srli	s0,s0,0xc
    35a0:	01fada93          	srli	s5,s5,0x1f
    35a4:	10050063          	beqz	a0,36a4 <__muldf3+0x188>
    35a8:	7ff00793          	li	a5,2047
    35ac:	16f50063          	beq	a0,a5,370c <__muldf3+0x1f0>
    35b0:	01db5793          	srli	a5,s6,0x1d
    35b4:	00341413          	slli	s0,s0,0x3
    35b8:	0087e433          	or	s0,a5,s0
    35bc:	008007b7          	lui	a5,0x800
    35c0:	00f46433          	or	s0,s0,a5
    35c4:	c0150513          	addi	a0,a0,-1023 # 7fc01 <_impure_ptr+0x792e1>
    35c8:	003b1793          	slli	a5,s6,0x3
    35cc:	00000713          	li	a4,0
    35d0:	002b9693          	slli	a3,s7,0x2
    35d4:	00e6e6b3          	or	a3,a3,a4
    35d8:	00a989b3          	add	s3,s3,a0
    35dc:	fff68693          	addi	a3,a3,-1
    35e0:	00e00613          	li	a2,14
    35e4:	015a4833          	xor	a6,s4,s5
    35e8:	00198893          	addi	a7,s3,1
    35ec:	14d66c63          	bltu	a2,a3,3744 <__muldf3+0x228>
    35f0:	00005637          	lui	a2,0x5
    35f4:	00269693          	slli	a3,a3,0x2
    35f8:	6e460613          	addi	a2,a2,1764 # 56e4 <main+0xd50>
    35fc:	00c686b3          	add	a3,a3,a2
    3600:	0006a683          	lw	a3,0(a3)
    3604:	00068067          	jr	a3
    3608:	00a4e933          	or	s2,s1,a0
    360c:	06090c63          	beqz	s2,3684 <__muldf3+0x168>
    3610:	04048063          	beqz	s1,3650 <__muldf3+0x134>
    3614:	00048513          	mv	a0,s1
    3618:	785000ef          	jal	ra,459c <__clzsi2>
    361c:	ff550713          	addi	a4,a0,-11
    3620:	01c00793          	li	a5,28
    3624:	02e7cc63          	blt	a5,a4,365c <__muldf3+0x140>
    3628:	01d00793          	li	a5,29
    362c:	ff850913          	addi	s2,a0,-8
    3630:	40e787b3          	sub	a5,a5,a4
    3634:	012494b3          	sll	s1,s1,s2
    3638:	00f457b3          	srl	a5,s0,a5
    363c:	0097e4b3          	or	s1,a5,s1
    3640:	01241933          	sll	s2,s0,s2
    3644:	c0d00993          	li	s3,-1011
    3648:	40a989b3          	sub	s3,s3,a0
    364c:	f41ff06f          	j	358c <__muldf3+0x70>
    3650:	74d000ef          	jal	ra,459c <__clzsi2>
    3654:	02050513          	addi	a0,a0,32
    3658:	fc5ff06f          	j	361c <__muldf3+0x100>
    365c:	fd850493          	addi	s1,a0,-40
    3660:	009414b3          	sll	s1,s0,s1
    3664:	00000913          	li	s2,0
    3668:	fddff06f          	j	3644 <__muldf3+0x128>
    366c:	00a4e933          	or	s2,s1,a0
    3670:	02090263          	beqz	s2,3694 <__muldf3+0x178>
    3674:	00050913          	mv	s2,a0
    3678:	7ff00993          	li	s3,2047
    367c:	00300b93          	li	s7,3
    3680:	f11ff06f          	j	3590 <__muldf3+0x74>
    3684:	00000493          	li	s1,0
    3688:	00000993          	li	s3,0
    368c:	00100b93          	li	s7,1
    3690:	f01ff06f          	j	3590 <__muldf3+0x74>
    3694:	00000493          	li	s1,0
    3698:	7ff00993          	li	s3,2047
    369c:	00200b93          	li	s7,2
    36a0:	ef1ff06f          	j	3590 <__muldf3+0x74>
    36a4:	016467b3          	or	a5,s0,s6
    36a8:	06078e63          	beqz	a5,3724 <__muldf3+0x208>
    36ac:	04040063          	beqz	s0,36ec <__muldf3+0x1d0>
    36b0:	00040513          	mv	a0,s0
    36b4:	6e9000ef          	jal	ra,459c <__clzsi2>
    36b8:	ff550693          	addi	a3,a0,-11
    36bc:	01c00793          	li	a5,28
    36c0:	02d7ce63          	blt	a5,a3,36fc <__muldf3+0x1e0>
    36c4:	01d00713          	li	a4,29
    36c8:	ff850793          	addi	a5,a0,-8
    36cc:	40d70733          	sub	a4,a4,a3
    36d0:	00f41433          	sll	s0,s0,a5
    36d4:	00eb5733          	srl	a4,s6,a4
    36d8:	00876433          	or	s0,a4,s0
    36dc:	00fb17b3          	sll	a5,s6,a5
    36e0:	c0d00713          	li	a4,-1011
    36e4:	40a70533          	sub	a0,a4,a0
    36e8:	ee5ff06f          	j	35cc <__muldf3+0xb0>
    36ec:	000b0513          	mv	a0,s6
    36f0:	6ad000ef          	jal	ra,459c <__clzsi2>
    36f4:	02050513          	addi	a0,a0,32
    36f8:	fc1ff06f          	j	36b8 <__muldf3+0x19c>
    36fc:	fd850413          	addi	s0,a0,-40
    3700:	008b1433          	sll	s0,s6,s0
    3704:	00000793          	li	a5,0
    3708:	fd9ff06f          	j	36e0 <__muldf3+0x1c4>
    370c:	016467b3          	or	a5,s0,s6
    3710:	02078263          	beqz	a5,3734 <__muldf3+0x218>
    3714:	000b0793          	mv	a5,s6
    3718:	7ff00513          	li	a0,2047
    371c:	00300713          	li	a4,3
    3720:	eb1ff06f          	j	35d0 <__muldf3+0xb4>
    3724:	00000413          	li	s0,0
    3728:	00000513          	li	a0,0
    372c:	00100713          	li	a4,1
    3730:	ea1ff06f          	j	35d0 <__muldf3+0xb4>
    3734:	00000413          	li	s0,0
    3738:	7ff00513          	li	a0,2047
    373c:	00200713          	li	a4,2
    3740:	e91ff06f          	j	35d0 <__muldf3+0xb4>
    3744:	000102b7          	lui	t0,0x10
    3748:	fff28313          	addi	t1,t0,-1 # ffff <_impure_ptr+0x96df>
    374c:	01095f13          	srli	t5,s2,0x10
    3750:	0107df93          	srli	t6,a5,0x10
    3754:	00697933          	and	s2,s2,t1
    3758:	0067f7b3          	and	a5,a5,t1
    375c:	00090513          	mv	a0,s2
    3760:	00078593          	mv	a1,a5
    3764:	561000ef          	jal	ra,44c4 <__mulsi3>
    3768:	00050e93          	mv	t4,a0
    376c:	000f8593          	mv	a1,t6
    3770:	00090513          	mv	a0,s2
    3774:	551000ef          	jal	ra,44c4 <__mulsi3>
    3778:	00050e13          	mv	t3,a0
    377c:	00078593          	mv	a1,a5
    3780:	000f0513          	mv	a0,t5
    3784:	541000ef          	jal	ra,44c4 <__mulsi3>
    3788:	00050a13          	mv	s4,a0
    378c:	000f8593          	mv	a1,t6
    3790:	000f0513          	mv	a0,t5
    3794:	531000ef          	jal	ra,44c4 <__mulsi3>
    3798:	010ed713          	srli	a4,t4,0x10
    379c:	014e0e33          	add	t3,t3,s4
    37a0:	01c70733          	add	a4,a4,t3
    37a4:	00050393          	mv	t2,a0
    37a8:	01477463          	bgeu	a4,s4,37b0 <__muldf3+0x294>
    37ac:	005503b3          	add	t2,a0,t0
    37b0:	00677e33          	and	t3,a4,t1
    37b4:	006efeb3          	and	t4,t4,t1
    37b8:	01045a13          	srli	s4,s0,0x10
    37bc:	010e1e13          	slli	t3,t3,0x10
    37c0:	00647433          	and	s0,s0,t1
    37c4:	01075293          	srli	t0,a4,0x10
    37c8:	01de0e33          	add	t3,t3,t4
    37cc:	00090513          	mv	a0,s2
    37d0:	00040593          	mv	a1,s0
    37d4:	4f1000ef          	jal	ra,44c4 <__mulsi3>
    37d8:	00050e93          	mv	t4,a0
    37dc:	000a0593          	mv	a1,s4
    37e0:	00090513          	mv	a0,s2
    37e4:	4e1000ef          	jal	ra,44c4 <__mulsi3>
    37e8:	00050713          	mv	a4,a0
    37ec:	00040593          	mv	a1,s0
    37f0:	000f0513          	mv	a0,t5
    37f4:	4d1000ef          	jal	ra,44c4 <__mulsi3>
    37f8:	00050313          	mv	t1,a0
    37fc:	000a0593          	mv	a1,s4
    3800:	000f0513          	mv	a0,t5
    3804:	4c1000ef          	jal	ra,44c4 <__mulsi3>
    3808:	010ed693          	srli	a3,t4,0x10
    380c:	00670733          	add	a4,a4,t1
    3810:	00e686b3          	add	a3,a3,a4
    3814:	0066f663          	bgeu	a3,t1,3820 <__muldf3+0x304>
    3818:	00010737          	lui	a4,0x10
    381c:	00e50533          	add	a0,a0,a4
    3820:	00010ab7          	lui	s5,0x10
    3824:	fffa8613          	addi	a2,s5,-1 # ffff <_impure_ptr+0x96df>
    3828:	0106d713          	srli	a4,a3,0x10
    382c:	00c6f6b3          	and	a3,a3,a2
    3830:	01069693          	slli	a3,a3,0x10
    3834:	00cefeb3          	and	t4,t4,a2
    3838:	00a70f33          	add	t5,a4,a0
    383c:	01d68eb3          	add	t4,a3,t4
    3840:	0104d713          	srli	a4,s1,0x10
    3844:	00c4f4b3          	and	s1,s1,a2
    3848:	01d282b3          	add	t0,t0,t4
    384c:	00048513          	mv	a0,s1
    3850:	00078593          	mv	a1,a5
    3854:	471000ef          	jal	ra,44c4 <__mulsi3>
    3858:	00050913          	mv	s2,a0
    385c:	000f8593          	mv	a1,t6
    3860:	00048513          	mv	a0,s1
    3864:	461000ef          	jal	ra,44c4 <__mulsi3>
    3868:	00050313          	mv	t1,a0
    386c:	00078593          	mv	a1,a5
    3870:	00070513          	mv	a0,a4
    3874:	451000ef          	jal	ra,44c4 <__mulsi3>
    3878:	00050b13          	mv	s6,a0
    387c:	000f8593          	mv	a1,t6
    3880:	00070513          	mv	a0,a4
    3884:	441000ef          	jal	ra,44c4 <__mulsi3>
    3888:	01095793          	srli	a5,s2,0x10
    388c:	01630333          	add	t1,t1,s6
    3890:	006787b3          	add	a5,a5,t1
    3894:	0167f463          	bgeu	a5,s6,389c <__muldf3+0x380>
    3898:	01550533          	add	a0,a0,s5
    389c:	00010ab7          	lui	s5,0x10
    38a0:	fffa8693          	addi	a3,s5,-1 # ffff <_impure_ptr+0x96df>
    38a4:	00d7f333          	and	t1,a5,a3
    38a8:	0107d613          	srli	a2,a5,0x10
    38ac:	00d97933          	and	s2,s2,a3
    38b0:	01031313          	slli	t1,t1,0x10
    38b4:	00a60fb3          	add	t6,a2,a0
    38b8:	01230333          	add	t1,t1,s2
    38bc:	00048513          	mv	a0,s1
    38c0:	00040593          	mv	a1,s0
    38c4:	401000ef          	jal	ra,44c4 <__mulsi3>
    38c8:	00050793          	mv	a5,a0
    38cc:	000a0593          	mv	a1,s4
    38d0:	00048513          	mv	a0,s1
    38d4:	3f1000ef          	jal	ra,44c4 <__mulsi3>
    38d8:	00050493          	mv	s1,a0
    38dc:	00040593          	mv	a1,s0
    38e0:	00070513          	mv	a0,a4
    38e4:	3e1000ef          	jal	ra,44c4 <__mulsi3>
    38e8:	00050913          	mv	s2,a0
    38ec:	000a0593          	mv	a1,s4
    38f0:	00070513          	mv	a0,a4
    38f4:	3d1000ef          	jal	ra,44c4 <__mulsi3>
    38f8:	0107d693          	srli	a3,a5,0x10
    38fc:	012484b3          	add	s1,s1,s2
    3900:	009686b3          	add	a3,a3,s1
    3904:	0126f463          	bgeu	a3,s2,390c <__muldf3+0x3f0>
    3908:	01550533          	add	a0,a0,s5
    390c:	00010637          	lui	a2,0x10
    3910:	fff60613          	addi	a2,a2,-1 # ffff <_impure_ptr+0x96df>
    3914:	00c6f733          	and	a4,a3,a2
    3918:	00c7f7b3          	and	a5,a5,a2
    391c:	01071713          	slli	a4,a4,0x10
    3920:	007282b3          	add	t0,t0,t2
    3924:	00f70733          	add	a4,a4,a5
    3928:	01d2beb3          	sltu	t4,t0,t4
    392c:	01e70733          	add	a4,a4,t5
    3930:	01d70433          	add	s0,a4,t4
    3934:	006282b3          	add	t0,t0,t1
    3938:	01f40633          	add	a2,s0,t6
    393c:	0062b333          	sltu	t1,t0,t1
    3940:	006605b3          	add	a1,a2,t1
    3944:	01e73733          	sltu	a4,a4,t5
    3948:	01d43433          	sltu	s0,s0,t4
    394c:	00876433          	or	s0,a4,s0
    3950:	0106d693          	srli	a3,a3,0x10
    3954:	01f63633          	sltu	a2,a2,t6
    3958:	0065b333          	sltu	t1,a1,t1
    395c:	00d40433          	add	s0,s0,a3
    3960:	00666333          	or	t1,a2,t1
    3964:	00640433          	add	s0,s0,t1
    3968:	00929793          	slli	a5,t0,0x9
    396c:	00a40433          	add	s0,s0,a0
    3970:	01c7e7b3          	or	a5,a5,t3
    3974:	00941413          	slli	s0,s0,0x9
    3978:	0175d513          	srli	a0,a1,0x17
    397c:	00f037b3          	snez	a5,a5
    3980:	0172de13          	srli	t3,t0,0x17
    3984:	00959713          	slli	a4,a1,0x9
    3988:	00a46433          	or	s0,s0,a0
    398c:	01c7e7b3          	or	a5,a5,t3
    3990:	00e7e7b3          	or	a5,a5,a4
    3994:	00741713          	slli	a4,s0,0x7
    3998:	10075263          	bgez	a4,3a9c <__muldf3+0x580>
    399c:	0017d713          	srli	a4,a5,0x1
    39a0:	0017f793          	andi	a5,a5,1
    39a4:	00f767b3          	or	a5,a4,a5
    39a8:	01f41713          	slli	a4,s0,0x1f
    39ac:	00e7e7b3          	or	a5,a5,a4
    39b0:	00145413          	srli	s0,s0,0x1
    39b4:	3ff88693          	addi	a3,a7,1023
    39b8:	0ed05663          	blez	a3,3aa4 <__muldf3+0x588>
    39bc:	0077f713          	andi	a4,a5,7
    39c0:	02070063          	beqz	a4,39e0 <__muldf3+0x4c4>
    39c4:	00f7f713          	andi	a4,a5,15
    39c8:	00400613          	li	a2,4
    39cc:	00c70a63          	beq	a4,a2,39e0 <__muldf3+0x4c4>
    39d0:	00478713          	addi	a4,a5,4 # 800004 <_impure_ptr+0x7f96e4>
    39d4:	00f737b3          	sltu	a5,a4,a5
    39d8:	00f40433          	add	s0,s0,a5
    39dc:	00070793          	mv	a5,a4
    39e0:	00741713          	slli	a4,s0,0x7
    39e4:	00075a63          	bgez	a4,39f8 <__muldf3+0x4dc>
    39e8:	ff000737          	lui	a4,0xff000
    39ec:	fff70713          	addi	a4,a4,-1 # feffffff <_impure_ptr+0xfeff96df>
    39f0:	00e47433          	and	s0,s0,a4
    39f4:	40088693          	addi	a3,a7,1024
    39f8:	7fe00713          	li	a4,2046
    39fc:	16d74663          	blt	a4,a3,3b68 <__muldf3+0x64c>
    3a00:	0037d713          	srli	a4,a5,0x3
    3a04:	01d41793          	slli	a5,s0,0x1d
    3a08:	00e7e7b3          	or	a5,a5,a4
    3a0c:	00345413          	srli	s0,s0,0x3
    3a10:	00c41413          	slli	s0,s0,0xc
    3a14:	7ff6f713          	andi	a4,a3,2047
    3a18:	01471713          	slli	a4,a4,0x14
    3a1c:	00c45413          	srli	s0,s0,0xc
    3a20:	00e46433          	or	s0,s0,a4
    3a24:	01f81813          	slli	a6,a6,0x1f
    3a28:	01046733          	or	a4,s0,a6
    3a2c:	02c12083          	lw	ra,44(sp)
    3a30:	02812403          	lw	s0,40(sp)
    3a34:	02412483          	lw	s1,36(sp)
    3a38:	02012903          	lw	s2,32(sp)
    3a3c:	01c12983          	lw	s3,28(sp)
    3a40:	01812a03          	lw	s4,24(sp)
    3a44:	01412a83          	lw	s5,20(sp)
    3a48:	01012b03          	lw	s6,16(sp)
    3a4c:	00c12b83          	lw	s7,12(sp)
    3a50:	00078513          	mv	a0,a5
    3a54:	00070593          	mv	a1,a4
    3a58:	03010113          	addi	sp,sp,48
    3a5c:	00008067          	ret
    3a60:	000a0813          	mv	a6,s4
    3a64:	00048413          	mv	s0,s1
    3a68:	00090793          	mv	a5,s2
    3a6c:	000b8713          	mv	a4,s7
    3a70:	00200693          	li	a3,2
    3a74:	0ed70a63          	beq	a4,a3,3b68 <__muldf3+0x64c>
    3a78:	00300693          	li	a3,3
    3a7c:	0cd70c63          	beq	a4,a3,3b54 <__muldf3+0x638>
    3a80:	00100693          	li	a3,1
    3a84:	f2d718e3          	bne	a4,a3,39b4 <__muldf3+0x498>
    3a88:	00000413          	li	s0,0
    3a8c:	00000793          	li	a5,0
    3a90:	0880006f          	j	3b18 <__muldf3+0x5fc>
    3a94:	000a8813          	mv	a6,s5
    3a98:	fd9ff06f          	j	3a70 <__muldf3+0x554>
    3a9c:	00098893          	mv	a7,s3
    3aa0:	f15ff06f          	j	39b4 <__muldf3+0x498>
    3aa4:	00100613          	li	a2,1
    3aa8:	40d60633          	sub	a2,a2,a3
    3aac:	03800713          	li	a4,56
    3ab0:	fcc74ce3          	blt	a4,a2,3a88 <__muldf3+0x56c>
    3ab4:	01f00713          	li	a4,31
    3ab8:	06c74463          	blt	a4,a2,3b20 <__muldf3+0x604>
    3abc:	41e88893          	addi	a7,a7,1054
    3ac0:	01141733          	sll	a4,s0,a7
    3ac4:	00c7d6b3          	srl	a3,a5,a2
    3ac8:	011797b3          	sll	a5,a5,a7
    3acc:	00d76733          	or	a4,a4,a3
    3ad0:	00f037b3          	snez	a5,a5
    3ad4:	00f767b3          	or	a5,a4,a5
    3ad8:	00c45433          	srl	s0,s0,a2
    3adc:	0077f713          	andi	a4,a5,7
    3ae0:	02070063          	beqz	a4,3b00 <__muldf3+0x5e4>
    3ae4:	00f7f713          	andi	a4,a5,15
    3ae8:	00400693          	li	a3,4
    3aec:	00d70a63          	beq	a4,a3,3b00 <__muldf3+0x5e4>
    3af0:	00478713          	addi	a4,a5,4
    3af4:	00f737b3          	sltu	a5,a4,a5
    3af8:	00f40433          	add	s0,s0,a5
    3afc:	00070793          	mv	a5,a4
    3b00:	00841713          	slli	a4,s0,0x8
    3b04:	06074a63          	bltz	a4,3b78 <__muldf3+0x65c>
    3b08:	01d41713          	slli	a4,s0,0x1d
    3b0c:	0037d793          	srli	a5,a5,0x3
    3b10:	00f767b3          	or	a5,a4,a5
    3b14:	00345413          	srli	s0,s0,0x3
    3b18:	00000693          	li	a3,0
    3b1c:	ef5ff06f          	j	3a10 <__muldf3+0x4f4>
    3b20:	fe100713          	li	a4,-31
    3b24:	40d70733          	sub	a4,a4,a3
    3b28:	02000593          	li	a1,32
    3b2c:	00e45733          	srl	a4,s0,a4
    3b30:	00000693          	li	a3,0
    3b34:	00b60663          	beq	a2,a1,3b40 <__muldf3+0x624>
    3b38:	43e88893          	addi	a7,a7,1086
    3b3c:	011416b3          	sll	a3,s0,a7
    3b40:	00f6e7b3          	or	a5,a3,a5
    3b44:	00f037b3          	snez	a5,a5
    3b48:	00f767b3          	or	a5,a4,a5
    3b4c:	00000413          	li	s0,0
    3b50:	f8dff06f          	j	3adc <__muldf3+0x5c0>
    3b54:	00080437          	lui	s0,0x80
    3b58:	00000793          	li	a5,0
    3b5c:	7ff00693          	li	a3,2047
    3b60:	00000813          	li	a6,0
    3b64:	eadff06f          	j	3a10 <__muldf3+0x4f4>
    3b68:	00000413          	li	s0,0
    3b6c:	00000793          	li	a5,0
    3b70:	7ff00693          	li	a3,2047
    3b74:	e9dff06f          	j	3a10 <__muldf3+0x4f4>
    3b78:	00000413          	li	s0,0
    3b7c:	00000793          	li	a5,0
    3b80:	00100693          	li	a3,1
    3b84:	e8dff06f          	j	3a10 <__muldf3+0x4f4>

00003b88 <__subdf3>:
    3b88:	00100837          	lui	a6,0x100
    3b8c:	fff80813          	addi	a6,a6,-1 # fffff <_impure_ptr+0xf96df>
    3b90:	00b878b3          	and	a7,a6,a1
    3b94:	00389893          	slli	a7,a7,0x3
    3b98:	01d55793          	srli	a5,a0,0x1d
    3b9c:	fe010113          	addi	sp,sp,-32
    3ba0:	0145d713          	srli	a4,a1,0x14
    3ba4:	00d87833          	and	a6,a6,a3
    3ba8:	0117e7b3          	or	a5,a5,a7
    3bac:	0146d893          	srli	a7,a3,0x14
    3bb0:	00912a23          	sw	s1,20(sp)
    3bb4:	01212823          	sw	s2,16(sp)
    3bb8:	7ff77493          	andi	s1,a4,2047
    3bbc:	01f5d913          	srli	s2,a1,0x1f
    3bc0:	01d65713          	srli	a4,a2,0x1d
    3bc4:	00381813          	slli	a6,a6,0x3
    3bc8:	00112e23          	sw	ra,28(sp)
    3bcc:	00812c23          	sw	s0,24(sp)
    3bd0:	01312623          	sw	s3,12(sp)
    3bd4:	7ff8f893          	andi	a7,a7,2047
    3bd8:	7ff00593          	li	a1,2047
    3bdc:	00351513          	slli	a0,a0,0x3
    3be0:	01f6d693          	srli	a3,a3,0x1f
    3be4:	01076733          	or	a4,a4,a6
    3be8:	00361613          	slli	a2,a2,0x3
    3bec:	00b89663          	bne	a7,a1,3bf8 <__subdf3+0x70>
    3bf0:	00c765b3          	or	a1,a4,a2
    3bf4:	00059463          	bnez	a1,3bfc <__subdf3+0x74>
    3bf8:	0016c693          	xori	a3,a3,1
    3bfc:	41148833          	sub	a6,s1,a7
    3c00:	2d269063          	bne	a3,s2,3ec0 <__subdf3+0x338>
    3c04:	13005c63          	blez	a6,3d3c <__subdf3+0x1b4>
    3c08:	06089063          	bnez	a7,3c68 <__subdf3+0xe0>
    3c0c:	00c766b3          	or	a3,a4,a2
    3c10:	02068863          	beqz	a3,3c40 <__subdf3+0xb8>
    3c14:	fff48813          	addi	a6,s1,-1
    3c18:	02081063          	bnez	a6,3c38 <__subdf3+0xb0>
    3c1c:	00c50633          	add	a2,a0,a2
    3c20:	00a63533          	sltu	a0,a2,a0
    3c24:	00e787b3          	add	a5,a5,a4
    3c28:	00a787b3          	add	a5,a5,a0
    3c2c:	00060513          	mv	a0,a2
    3c30:	00100493          	li	s1,1
    3c34:	08c0006f          	j	3cc0 <__subdf3+0x138>
    3c38:	7ff00693          	li	a3,2047
    3c3c:	02d49e63          	bne	s1,a3,3c78 <__subdf3+0xf0>
    3c40:	00757713          	andi	a4,a0,7
    3c44:	62070c63          	beqz	a4,427c <__subdf3+0x6f4>
    3c48:	00f57713          	andi	a4,a0,15
    3c4c:	00400693          	li	a3,4
    3c50:	62d70663          	beq	a4,a3,427c <__subdf3+0x6f4>
    3c54:	00450693          	addi	a3,a0,4
    3c58:	00a6b533          	sltu	a0,a3,a0
    3c5c:	00a787b3          	add	a5,a5,a0
    3c60:	00068513          	mv	a0,a3
    3c64:	6180006f          	j	427c <__subdf3+0x6f4>
    3c68:	7ff00693          	li	a3,2047
    3c6c:	fcd48ae3          	beq	s1,a3,3c40 <__subdf3+0xb8>
    3c70:	008006b7          	lui	a3,0x800
    3c74:	00d76733          	or	a4,a4,a3
    3c78:	03800693          	li	a3,56
    3c7c:	0b06ca63          	blt	a3,a6,3d30 <__subdf3+0x1a8>
    3c80:	01f00693          	li	a3,31
    3c84:	0706cc63          	blt	a3,a6,3cfc <__subdf3+0x174>
    3c88:	02000593          	li	a1,32
    3c8c:	410585b3          	sub	a1,a1,a6
    3c90:	00b716b3          	sll	a3,a4,a1
    3c94:	010658b3          	srl	a7,a2,a6
    3c98:	00b61633          	sll	a2,a2,a1
    3c9c:	0116e6b3          	or	a3,a3,a7
    3ca0:	00c03633          	snez	a2,a2
    3ca4:	00c6e633          	or	a2,a3,a2
    3ca8:	01075733          	srl	a4,a4,a6
    3cac:	00a60633          	add	a2,a2,a0
    3cb0:	00f70733          	add	a4,a4,a5
    3cb4:	00a637b3          	sltu	a5,a2,a0
    3cb8:	00f707b3          	add	a5,a4,a5
    3cbc:	00060513          	mv	a0,a2
    3cc0:	00879713          	slli	a4,a5,0x8
    3cc4:	f6075ee3          	bgez	a4,3c40 <__subdf3+0xb8>
    3cc8:	00148493          	addi	s1,s1,1
    3ccc:	7ff00713          	li	a4,2047
    3cd0:	5ae48263          	beq	s1,a4,4274 <__subdf3+0x6ec>
    3cd4:	ff8006b7          	lui	a3,0xff800
    3cd8:	fff68693          	addi	a3,a3,-1 # ff7fffff <_impure_ptr+0xff7f96df>
    3cdc:	00d7f6b3          	and	a3,a5,a3
    3ce0:	00155593          	srli	a1,a0,0x1
    3ce4:	00157513          	andi	a0,a0,1
    3ce8:	01f69793          	slli	a5,a3,0x1f
    3cec:	00a5e533          	or	a0,a1,a0
    3cf0:	00a7e533          	or	a0,a5,a0
    3cf4:	0016d793          	srli	a5,a3,0x1
    3cf8:	f49ff06f          	j	3c40 <__subdf3+0xb8>
    3cfc:	fe080693          	addi	a3,a6,-32
    3d00:	02000893          	li	a7,32
    3d04:	00d756b3          	srl	a3,a4,a3
    3d08:	00000593          	li	a1,0
    3d0c:	01180863          	beq	a6,a7,3d1c <__subdf3+0x194>
    3d10:	04000593          	li	a1,64
    3d14:	41058833          	sub	a6,a1,a6
    3d18:	010715b3          	sll	a1,a4,a6
    3d1c:	00c5e633          	or	a2,a1,a2
    3d20:	00c03633          	snez	a2,a2
    3d24:	00c6e633          	or	a2,a3,a2
    3d28:	00000713          	li	a4,0
    3d2c:	f81ff06f          	j	3cac <__subdf3+0x124>
    3d30:	00c76633          	or	a2,a4,a2
    3d34:	00c03633          	snez	a2,a2
    3d38:	ff1ff06f          	j	3d28 <__subdf3+0x1a0>
    3d3c:	0e080263          	beqz	a6,3e20 <__subdf3+0x298>
    3d40:	409885b3          	sub	a1,a7,s1
    3d44:	02049e63          	bnez	s1,3d80 <__subdf3+0x1f8>
    3d48:	00a7e6b3          	or	a3,a5,a0
    3d4c:	50068463          	beqz	a3,4254 <__subdf3+0x6cc>
    3d50:	fff58693          	addi	a3,a1,-1
    3d54:	00069c63          	bnez	a3,3d6c <__subdf3+0x1e4>
    3d58:	00c50533          	add	a0,a0,a2
    3d5c:	00e787b3          	add	a5,a5,a4
    3d60:	00c53633          	sltu	a2,a0,a2
    3d64:	00c787b3          	add	a5,a5,a2
    3d68:	ec9ff06f          	j	3c30 <__subdf3+0xa8>
    3d6c:	7ff00813          	li	a6,2047
    3d70:	03059263          	bne	a1,a6,3d94 <__subdf3+0x20c>
    3d74:	00070793          	mv	a5,a4
    3d78:	00060513          	mv	a0,a2
    3d7c:	3b00006f          	j	412c <__subdf3+0x5a4>
    3d80:	7ff00693          	li	a3,2047
    3d84:	fed888e3          	beq	a7,a3,3d74 <__subdf3+0x1ec>
    3d88:	008006b7          	lui	a3,0x800
    3d8c:	00d7e7b3          	or	a5,a5,a3
    3d90:	00058693          	mv	a3,a1
    3d94:	03800593          	li	a1,56
    3d98:	06d5ce63          	blt	a1,a3,3e14 <__subdf3+0x28c>
    3d9c:	01f00593          	li	a1,31
    3da0:	04d5c063          	blt	a1,a3,3de0 <__subdf3+0x258>
    3da4:	02000813          	li	a6,32
    3da8:	40d80833          	sub	a6,a6,a3
    3dac:	00d55333          	srl	t1,a0,a3
    3db0:	010795b3          	sll	a1,a5,a6
    3db4:	01051533          	sll	a0,a0,a6
    3db8:	0065e5b3          	or	a1,a1,t1
    3dbc:	00a03533          	snez	a0,a0
    3dc0:	00a5e533          	or	a0,a1,a0
    3dc4:	00d7d6b3          	srl	a3,a5,a3
    3dc8:	00c50533          	add	a0,a0,a2
    3dcc:	00e687b3          	add	a5,a3,a4
    3dd0:	00c53633          	sltu	a2,a0,a2
    3dd4:	00c787b3          	add	a5,a5,a2
    3dd8:	00088493          	mv	s1,a7
    3ddc:	ee5ff06f          	j	3cc0 <__subdf3+0x138>
    3de0:	fe068593          	addi	a1,a3,-32 # 7fffe0 <_impure_ptr+0x7f96c0>
    3de4:	02000313          	li	t1,32
    3de8:	00b7d5b3          	srl	a1,a5,a1
    3dec:	00000813          	li	a6,0
    3df0:	00668863          	beq	a3,t1,3e00 <__subdf3+0x278>
    3df4:	04000813          	li	a6,64
    3df8:	40d806b3          	sub	a3,a6,a3
    3dfc:	00d79833          	sll	a6,a5,a3
    3e00:	00a86533          	or	a0,a6,a0
    3e04:	00a03533          	snez	a0,a0
    3e08:	00a5e533          	or	a0,a1,a0
    3e0c:	00000693          	li	a3,0
    3e10:	fb9ff06f          	j	3dc8 <__subdf3+0x240>
    3e14:	00a7e533          	or	a0,a5,a0
    3e18:	00a03533          	snez	a0,a0
    3e1c:	ff1ff06f          	j	3e0c <__subdf3+0x284>
    3e20:	00148693          	addi	a3,s1,1
    3e24:	7fe6f593          	andi	a1,a3,2046
    3e28:	06059463          	bnez	a1,3e90 <__subdf3+0x308>
    3e2c:	00a7e6b3          	or	a3,a5,a0
    3e30:	04049063          	bnez	s1,3e70 <__subdf3+0x2e8>
    3e34:	42068863          	beqz	a3,4264 <__subdf3+0x6dc>
    3e38:	00c766b3          	or	a3,a4,a2
    3e3c:	e00682e3          	beqz	a3,3c40 <__subdf3+0xb8>
    3e40:	00c50633          	add	a2,a0,a2
    3e44:	00e787b3          	add	a5,a5,a4
    3e48:	00a63533          	sltu	a0,a2,a0
    3e4c:	00a787b3          	add	a5,a5,a0
    3e50:	00879713          	slli	a4,a5,0x8
    3e54:	00060513          	mv	a0,a2
    3e58:	de0754e3          	bgez	a4,3c40 <__subdf3+0xb8>
    3e5c:	ff800737          	lui	a4,0xff800
    3e60:	fff70713          	addi	a4,a4,-1 # ff7fffff <_impure_ptr+0xff7f96df>
    3e64:	00e7f7b3          	and	a5,a5,a4
    3e68:	00100493          	li	s1,1
    3e6c:	dd5ff06f          	j	3c40 <__subdf3+0xb8>
    3e70:	f00682e3          	beqz	a3,3d74 <__subdf3+0x1ec>
    3e74:	00c76633          	or	a2,a4,a2
    3e78:	2a060a63          	beqz	a2,412c <__subdf3+0x5a4>
    3e7c:	00000913          	li	s2,0
    3e80:	004007b7          	lui	a5,0x400
    3e84:	00000513          	li	a0,0
    3e88:	7ff00493          	li	s1,2047
    3e8c:	3f00006f          	j	427c <__subdf3+0x6f4>
    3e90:	7ff00593          	li	a1,2047
    3e94:	3cb68e63          	beq	a3,a1,4270 <__subdf3+0x6e8>
    3e98:	00c50633          	add	a2,a0,a2
    3e9c:	00e78733          	add	a4,a5,a4
    3ea0:	00a637b3          	sltu	a5,a2,a0
    3ea4:	00f70733          	add	a4,a4,a5
    3ea8:	01f71513          	slli	a0,a4,0x1f
    3eac:	00165613          	srli	a2,a2,0x1
    3eb0:	00c56533          	or	a0,a0,a2
    3eb4:	00175793          	srli	a5,a4,0x1
    3eb8:	00068493          	mv	s1,a3
    3ebc:	d85ff06f          	j	3c40 <__subdf3+0xb8>
    3ec0:	0f005a63          	blez	a6,3fb4 <__subdf3+0x42c>
    3ec4:	08089e63          	bnez	a7,3f60 <__subdf3+0x3d8>
    3ec8:	00c766b3          	or	a3,a4,a2
    3ecc:	d6068ae3          	beqz	a3,3c40 <__subdf3+0xb8>
    3ed0:	fff48813          	addi	a6,s1,-1
    3ed4:	02081063          	bnez	a6,3ef4 <__subdf3+0x36c>
    3ed8:	40c50633          	sub	a2,a0,a2
    3edc:	00c53533          	sltu	a0,a0,a2
    3ee0:	40e787b3          	sub	a5,a5,a4
    3ee4:	40a787b3          	sub	a5,a5,a0
    3ee8:	00060513          	mv	a0,a2
    3eec:	00100493          	li	s1,1
    3ef0:	0540006f          	j	3f44 <__subdf3+0x3bc>
    3ef4:	7ff00693          	li	a3,2047
    3ef8:	d4d484e3          	beq	s1,a3,3c40 <__subdf3+0xb8>
    3efc:	03800693          	li	a3,56
    3f00:	0b06c463          	blt	a3,a6,3fa8 <__subdf3+0x420>
    3f04:	01f00693          	li	a3,31
    3f08:	0706c663          	blt	a3,a6,3f74 <__subdf3+0x3ec>
    3f0c:	02000593          	li	a1,32
    3f10:	410585b3          	sub	a1,a1,a6
    3f14:	00b716b3          	sll	a3,a4,a1
    3f18:	010658b3          	srl	a7,a2,a6
    3f1c:	00b61633          	sll	a2,a2,a1
    3f20:	0116e6b3          	or	a3,a3,a7
    3f24:	00c03633          	snez	a2,a2
    3f28:	00c6e633          	or	a2,a3,a2
    3f2c:	01075733          	srl	a4,a4,a6
    3f30:	40c50633          	sub	a2,a0,a2
    3f34:	40e78733          	sub	a4,a5,a4
    3f38:	00c537b3          	sltu	a5,a0,a2
    3f3c:	40f707b3          	sub	a5,a4,a5
    3f40:	00060513          	mv	a0,a2
    3f44:	00879713          	slli	a4,a5,0x8
    3f48:	ce075ce3          	bgez	a4,3c40 <__subdf3+0xb8>
    3f4c:	00800437          	lui	s0,0x800
    3f50:	fff40413          	addi	s0,s0,-1 # 7fffff <_impure_ptr+0x7f96df>
    3f54:	0087f433          	and	s0,a5,s0
    3f58:	00050993          	mv	s3,a0
    3f5c:	20c0006f          	j	4168 <__subdf3+0x5e0>
    3f60:	7ff00693          	li	a3,2047
    3f64:	ccd48ee3          	beq	s1,a3,3c40 <__subdf3+0xb8>
    3f68:	008006b7          	lui	a3,0x800
    3f6c:	00d76733          	or	a4,a4,a3
    3f70:	f8dff06f          	j	3efc <__subdf3+0x374>
    3f74:	fe080693          	addi	a3,a6,-32
    3f78:	02000893          	li	a7,32
    3f7c:	00d756b3          	srl	a3,a4,a3
    3f80:	00000593          	li	a1,0
    3f84:	01180863          	beq	a6,a7,3f94 <__subdf3+0x40c>
    3f88:	04000593          	li	a1,64
    3f8c:	41058833          	sub	a6,a1,a6
    3f90:	010715b3          	sll	a1,a4,a6
    3f94:	00c5e633          	or	a2,a1,a2
    3f98:	00c03633          	snez	a2,a2
    3f9c:	00c6e633          	or	a2,a3,a2
    3fa0:	00000713          	li	a4,0
    3fa4:	f8dff06f          	j	3f30 <__subdf3+0x3a8>
    3fa8:	00c76633          	or	a2,a4,a2
    3fac:	00c03633          	snez	a2,a2
    3fb0:	ff1ff06f          	j	3fa0 <__subdf3+0x418>
    3fb4:	0e080863          	beqz	a6,40a4 <__subdf3+0x51c>
    3fb8:	40988833          	sub	a6,a7,s1
    3fbc:	04049263          	bnez	s1,4000 <__subdf3+0x478>
    3fc0:	00a7e5b3          	or	a1,a5,a0
    3fc4:	34058263          	beqz	a1,4308 <__subdf3+0x780>
    3fc8:	fff80593          	addi	a1,a6,-1
    3fcc:	00059e63          	bnez	a1,3fe8 <__subdf3+0x460>
    3fd0:	40a60533          	sub	a0,a2,a0
    3fd4:	40f707b3          	sub	a5,a4,a5
    3fd8:	00a63633          	sltu	a2,a2,a0
    3fdc:	40c787b3          	sub	a5,a5,a2
    3fe0:	00068913          	mv	s2,a3
    3fe4:	f09ff06f          	j	3eec <__subdf3+0x364>
    3fe8:	7ff00313          	li	t1,2047
    3fec:	02681463          	bne	a6,t1,4014 <__subdf3+0x48c>
    3ff0:	00070793          	mv	a5,a4
    3ff4:	00060513          	mv	a0,a2
    3ff8:	7ff00493          	li	s1,2047
    3ffc:	0d00006f          	j	40cc <__subdf3+0x544>
    4000:	7ff00593          	li	a1,2047
    4004:	feb886e3          	beq	a7,a1,3ff0 <__subdf3+0x468>
    4008:	008005b7          	lui	a1,0x800
    400c:	00b7e7b3          	or	a5,a5,a1
    4010:	00080593          	mv	a1,a6
    4014:	03800813          	li	a6,56
    4018:	08b84063          	blt	a6,a1,4098 <__subdf3+0x510>
    401c:	01f00813          	li	a6,31
    4020:	04b84263          	blt	a6,a1,4064 <__subdf3+0x4dc>
    4024:	02000313          	li	t1,32
    4028:	40b30333          	sub	t1,t1,a1
    402c:	00b55e33          	srl	t3,a0,a1
    4030:	00679833          	sll	a6,a5,t1
    4034:	00651533          	sll	a0,a0,t1
    4038:	01c86833          	or	a6,a6,t3
    403c:	00a03533          	snez	a0,a0
    4040:	00a86533          	or	a0,a6,a0
    4044:	00b7d5b3          	srl	a1,a5,a1
    4048:	40a60533          	sub	a0,a2,a0
    404c:	40b707b3          	sub	a5,a4,a1
    4050:	00a63633          	sltu	a2,a2,a0
    4054:	40c787b3          	sub	a5,a5,a2
    4058:	00088493          	mv	s1,a7
    405c:	00068913          	mv	s2,a3
    4060:	ee5ff06f          	j	3f44 <__subdf3+0x3bc>
    4064:	fe058813          	addi	a6,a1,-32 # 7fffe0 <_impure_ptr+0x7f96c0>
    4068:	02000e13          	li	t3,32
    406c:	0107d833          	srl	a6,a5,a6
    4070:	00000313          	li	t1,0
    4074:	01c58863          	beq	a1,t3,4084 <__subdf3+0x4fc>
    4078:	04000313          	li	t1,64
    407c:	40b305b3          	sub	a1,t1,a1
    4080:	00b79333          	sll	t1,a5,a1
    4084:	00a36533          	or	a0,t1,a0
    4088:	00a03533          	snez	a0,a0
    408c:	00a86533          	or	a0,a6,a0
    4090:	00000593          	li	a1,0
    4094:	fb5ff06f          	j	4048 <__subdf3+0x4c0>
    4098:	00a7e533          	or	a0,a5,a0
    409c:	00a03533          	snez	a0,a0
    40a0:	ff1ff06f          	j	4090 <__subdf3+0x508>
    40a4:	00148593          	addi	a1,s1,1
    40a8:	7fe5f593          	andi	a1,a1,2046
    40ac:	08059863          	bnez	a1,413c <__subdf3+0x5b4>
    40b0:	00a7e833          	or	a6,a5,a0
    40b4:	00c765b3          	or	a1,a4,a2
    40b8:	06049063          	bnez	s1,4118 <__subdf3+0x590>
    40bc:	00081c63          	bnez	a6,40d4 <__subdf3+0x54c>
    40c0:	24058c63          	beqz	a1,4318 <__subdf3+0x790>
    40c4:	00070793          	mv	a5,a4
    40c8:	00060513          	mv	a0,a2
    40cc:	00068913          	mv	s2,a3
    40d0:	b71ff06f          	j	3c40 <__subdf3+0xb8>
    40d4:	b60586e3          	beqz	a1,3c40 <__subdf3+0xb8>
    40d8:	40c50833          	sub	a6,a0,a2
    40dc:	010538b3          	sltu	a7,a0,a6
    40e0:	40e785b3          	sub	a1,a5,a4
    40e4:	411585b3          	sub	a1,a1,a7
    40e8:	00859893          	slli	a7,a1,0x8
    40ec:	0008dc63          	bgez	a7,4104 <__subdf3+0x57c>
    40f0:	40a60533          	sub	a0,a2,a0
    40f4:	40f707b3          	sub	a5,a4,a5
    40f8:	00a63633          	sltu	a2,a2,a0
    40fc:	40c787b3          	sub	a5,a5,a2
    4100:	fcdff06f          	j	40cc <__subdf3+0x544>
    4104:	00b86533          	or	a0,a6,a1
    4108:	22050063          	beqz	a0,4328 <__subdf3+0x7a0>
    410c:	00058793          	mv	a5,a1
    4110:	00080513          	mv	a0,a6
    4114:	b2dff06f          	j	3c40 <__subdf3+0xb8>
    4118:	00081e63          	bnez	a6,4134 <__subdf3+0x5ac>
    411c:	20058a63          	beqz	a1,4330 <__subdf3+0x7a8>
    4120:	00070793          	mv	a5,a4
    4124:	00060513          	mv	a0,a2
    4128:	00068913          	mv	s2,a3
    412c:	7ff00493          	li	s1,2047
    4130:	b11ff06f          	j	3c40 <__subdf3+0xb8>
    4134:	fe058ce3          	beqz	a1,412c <__subdf3+0x5a4>
    4138:	d45ff06f          	j	3e7c <__subdf3+0x2f4>
    413c:	40c509b3          	sub	s3,a0,a2
    4140:	013535b3          	sltu	a1,a0,s3
    4144:	40e78433          	sub	s0,a5,a4
    4148:	40b40433          	sub	s0,s0,a1
    414c:	00841593          	slli	a1,s0,0x8
    4150:	0805d463          	bgez	a1,41d8 <__subdf3+0x650>
    4154:	40a609b3          	sub	s3,a2,a0
    4158:	40f707b3          	sub	a5,a4,a5
    415c:	01363633          	sltu	a2,a2,s3
    4160:	40c78433          	sub	s0,a5,a2
    4164:	00068913          	mv	s2,a3
    4168:	08040263          	beqz	s0,41ec <__subdf3+0x664>
    416c:	00040513          	mv	a0,s0
    4170:	42c000ef          	jal	ra,459c <__clzsi2>
    4174:	ff850713          	addi	a4,a0,-8
    4178:	01f00793          	li	a5,31
    417c:	08e7c063          	blt	a5,a4,41fc <__subdf3+0x674>
    4180:	02000793          	li	a5,32
    4184:	40e787b3          	sub	a5,a5,a4
    4188:	00e41433          	sll	s0,s0,a4
    418c:	00f9d7b3          	srl	a5,s3,a5
    4190:	0087e433          	or	s0,a5,s0
    4194:	00e99533          	sll	a0,s3,a4
    4198:	0a974463          	blt	a4,s1,4240 <__subdf3+0x6b8>
    419c:	40970733          	sub	a4,a4,s1
    41a0:	00170793          	addi	a5,a4,1
    41a4:	01f00693          	li	a3,31
    41a8:	06f6c263          	blt	a3,a5,420c <__subdf3+0x684>
    41ac:	02000713          	li	a4,32
    41b0:	40f70733          	sub	a4,a4,a5
    41b4:	00f55633          	srl	a2,a0,a5
    41b8:	00e416b3          	sll	a3,s0,a4
    41bc:	00e51533          	sll	a0,a0,a4
    41c0:	00c6e6b3          	or	a3,a3,a2
    41c4:	00a03533          	snez	a0,a0
    41c8:	00a6e533          	or	a0,a3,a0
    41cc:	00f457b3          	srl	a5,s0,a5
    41d0:	00000493          	li	s1,0
    41d4:	a6dff06f          	j	3c40 <__subdf3+0xb8>
    41d8:	0089e533          	or	a0,s3,s0
    41dc:	f80516e3          	bnez	a0,4168 <__subdf3+0x5e0>
    41e0:	00000793          	li	a5,0
    41e4:	00000493          	li	s1,0
    41e8:	1380006f          	j	4320 <__subdf3+0x798>
    41ec:	00098513          	mv	a0,s3
    41f0:	3ac000ef          	jal	ra,459c <__clzsi2>
    41f4:	02050513          	addi	a0,a0,32
    41f8:	f7dff06f          	j	4174 <__subdf3+0x5ec>
    41fc:	fd850413          	addi	s0,a0,-40
    4200:	00899433          	sll	s0,s3,s0
    4204:	00000513          	li	a0,0
    4208:	f91ff06f          	j	4198 <__subdf3+0x610>
    420c:	fe170713          	addi	a4,a4,-31
    4210:	02000613          	li	a2,32
    4214:	00e45733          	srl	a4,s0,a4
    4218:	00000693          	li	a3,0
    421c:	00c78863          	beq	a5,a2,422c <__subdf3+0x6a4>
    4220:	04000693          	li	a3,64
    4224:	40f686b3          	sub	a3,a3,a5
    4228:	00d416b3          	sll	a3,s0,a3
    422c:	00d56533          	or	a0,a0,a3
    4230:	00a03533          	snez	a0,a0
    4234:	00a76533          	or	a0,a4,a0
    4238:	00000793          	li	a5,0
    423c:	f95ff06f          	j	41d0 <__subdf3+0x648>
    4240:	ff8007b7          	lui	a5,0xff800
    4244:	fff78793          	addi	a5,a5,-1 # ff7fffff <_impure_ptr+0xff7f96df>
    4248:	40e484b3          	sub	s1,s1,a4
    424c:	00f477b3          	and	a5,s0,a5
    4250:	9f1ff06f          	j	3c40 <__subdf3+0xb8>
    4254:	00070793          	mv	a5,a4
    4258:	00060513          	mv	a0,a2
    425c:	00058493          	mv	s1,a1
    4260:	9e1ff06f          	j	3c40 <__subdf3+0xb8>
    4264:	00070793          	mv	a5,a4
    4268:	00060513          	mv	a0,a2
    426c:	9d5ff06f          	j	3c40 <__subdf3+0xb8>
    4270:	7ff00493          	li	s1,2047
    4274:	00000793          	li	a5,0
    4278:	00000513          	li	a0,0
    427c:	00879713          	slli	a4,a5,0x8
    4280:	00075e63          	bgez	a4,429c <__subdf3+0x714>
    4284:	00148493          	addi	s1,s1,1
    4288:	7ff00713          	li	a4,2047
    428c:	0ae48a63          	beq	s1,a4,4340 <__subdf3+0x7b8>
    4290:	ff800737          	lui	a4,0xff800
    4294:	fff70713          	addi	a4,a4,-1 # ff7fffff <_impure_ptr+0xff7f96df>
    4298:	00e7f7b3          	and	a5,a5,a4
    429c:	01d79713          	slli	a4,a5,0x1d
    42a0:	00355513          	srli	a0,a0,0x3
    42a4:	00a76533          	or	a0,a4,a0
    42a8:	7ff00713          	li	a4,2047
    42ac:	0037d793          	srli	a5,a5,0x3
    42b0:	00e49e63          	bne	s1,a4,42cc <__subdf3+0x744>
    42b4:	00f56533          	or	a0,a0,a5
    42b8:	00000793          	li	a5,0
    42bc:	00050863          	beqz	a0,42cc <__subdf3+0x744>
    42c0:	000807b7          	lui	a5,0x80
    42c4:	00000513          	li	a0,0
    42c8:	00000913          	li	s2,0
    42cc:	7ff4f713          	andi	a4,s1,2047
    42d0:	00c79793          	slli	a5,a5,0xc
    42d4:	01471713          	slli	a4,a4,0x14
    42d8:	01c12083          	lw	ra,28(sp)
    42dc:	01812403          	lw	s0,24(sp)
    42e0:	00c7d793          	srli	a5,a5,0xc
    42e4:	01f91593          	slli	a1,s2,0x1f
    42e8:	00e7e7b3          	or	a5,a5,a4
    42ec:	00b7e733          	or	a4,a5,a1
    42f0:	01412483          	lw	s1,20(sp)
    42f4:	01012903          	lw	s2,16(sp)
    42f8:	00c12983          	lw	s3,12(sp)
    42fc:	00070593          	mv	a1,a4
    4300:	02010113          	addi	sp,sp,32
    4304:	00008067          	ret
    4308:	00070793          	mv	a5,a4
    430c:	00060513          	mv	a0,a2
    4310:	00080493          	mv	s1,a6
    4314:	db9ff06f          	j	40cc <__subdf3+0x544>
    4318:	00000793          	li	a5,0
    431c:	00000513          	li	a0,0
    4320:	00000913          	li	s2,0
    4324:	f59ff06f          	j	427c <__subdf3+0x6f4>
    4328:	00000793          	li	a5,0
    432c:	ff5ff06f          	j	4320 <__subdf3+0x798>
    4330:	00000513          	li	a0,0
    4334:	00000913          	li	s2,0
    4338:	004007b7          	lui	a5,0x400
    433c:	b4dff06f          	j	3e88 <__subdf3+0x300>
    4340:	00000793          	li	a5,0
    4344:	00000513          	li	a0,0
    4348:	f55ff06f          	j	429c <__subdf3+0x714>

0000434c <__unorddf2>:
    434c:	001007b7          	lui	a5,0x100
    4350:	fff78793          	addi	a5,a5,-1 # fffff <_impure_ptr+0xf96df>
    4354:	00b7f733          	and	a4,a5,a1
    4358:	0145d593          	srli	a1,a1,0x14
    435c:	fff5c593          	not	a1,a1
    4360:	00d7f7b3          	and	a5,a5,a3
    4364:	01559813          	slli	a6,a1,0x15
    4368:	0146d693          	srli	a3,a3,0x14
    436c:	7ff6f693          	andi	a3,a3,2047
    4370:	00081863          	bnez	a6,4380 <__unorddf2+0x34>
    4374:	00a76733          	or	a4,a4,a0
    4378:	00100513          	li	a0,1
    437c:	00071c63          	bnez	a4,4394 <__unorddf2+0x48>
    4380:	7ff00713          	li	a4,2047
    4384:	00000513          	li	a0,0
    4388:	00e69663          	bne	a3,a4,4394 <__unorddf2+0x48>
    438c:	00c7e7b3          	or	a5,a5,a2
    4390:	00f03533          	snez	a0,a5
    4394:	00008067          	ret

00004398 <__fixdfsi>:
    4398:	0145d713          	srli	a4,a1,0x14
    439c:	001006b7          	lui	a3,0x100
    43a0:	fff68793          	addi	a5,a3,-1 # fffff <_impure_ptr+0xf96df>
    43a4:	7ff77713          	andi	a4,a4,2047
    43a8:	3fe00613          	li	a2,1022
    43ac:	00b7f7b3          	and	a5,a5,a1
    43b0:	01f5d593          	srli	a1,a1,0x1f
    43b4:	04e65e63          	bge	a2,a4,4410 <__fixdfsi+0x78>
    43b8:	41d00613          	li	a2,1053
    43bc:	00e65a63          	bge	a2,a4,43d0 <__fixdfsi+0x38>
    43c0:	80000537          	lui	a0,0x80000
    43c4:	fff54513          	not	a0,a0
    43c8:	00a58533          	add	a0,a1,a0
    43cc:	00008067          	ret
    43d0:	00d7e7b3          	or	a5,a5,a3
    43d4:	43300693          	li	a3,1075
    43d8:	40e686b3          	sub	a3,a3,a4
    43dc:	01f00613          	li	a2,31
    43e0:	02d64063          	blt	a2,a3,4400 <__fixdfsi+0x68>
    43e4:	bed70713          	addi	a4,a4,-1043
    43e8:	00e797b3          	sll	a5,a5,a4
    43ec:	00d55533          	srl	a0,a0,a3
    43f0:	00a7e533          	or	a0,a5,a0
    43f4:	02058063          	beqz	a1,4414 <__fixdfsi+0x7c>
    43f8:	40a00533          	neg	a0,a0
    43fc:	00008067          	ret
    4400:	41300513          	li	a0,1043
    4404:	40e50533          	sub	a0,a0,a4
    4408:	00a7d533          	srl	a0,a5,a0
    440c:	fe9ff06f          	j	43f4 <__fixdfsi+0x5c>
    4410:	00000513          	li	a0,0
    4414:	00008067          	ret

00004418 <__floatsidf>:
    4418:	ff010113          	addi	sp,sp,-16
    441c:	00112623          	sw	ra,12(sp)
    4420:	00812423          	sw	s0,8(sp)
    4424:	00912223          	sw	s1,4(sp)
    4428:	08050863          	beqz	a0,44b8 <__floatsidf+0xa0>
    442c:	41f55793          	srai	a5,a0,0x1f
    4430:	00a7c433          	xor	s0,a5,a0
    4434:	40f40433          	sub	s0,s0,a5
    4438:	01f55493          	srli	s1,a0,0x1f
    443c:	00040513          	mv	a0,s0
    4440:	15c000ef          	jal	ra,459c <__clzsi2>
    4444:	41e00713          	li	a4,1054
    4448:	00a00793          	li	a5,10
    444c:	40a70733          	sub	a4,a4,a0
    4450:	04a7ca63          	blt	a5,a0,44a4 <__floatsidf+0x8c>
    4454:	00b00793          	li	a5,11
    4458:	40a787b3          	sub	a5,a5,a0
    445c:	01550513          	addi	a0,a0,21 # 80000015 <_impure_ptr+0x7fff96f5>
    4460:	00f457b3          	srl	a5,s0,a5
    4464:	00a41433          	sll	s0,s0,a0
    4468:	00048513          	mv	a0,s1
    446c:	00c79793          	slli	a5,a5,0xc
    4470:	7ff77713          	andi	a4,a4,2047
    4474:	01471713          	slli	a4,a4,0x14
    4478:	00c7d793          	srli	a5,a5,0xc
    447c:	01f51513          	slli	a0,a0,0x1f
    4480:	00e7e7b3          	or	a5,a5,a4
    4484:	00a7e733          	or	a4,a5,a0
    4488:	00c12083          	lw	ra,12(sp)
    448c:	00040513          	mv	a0,s0
    4490:	00812403          	lw	s0,8(sp)
    4494:	00412483          	lw	s1,4(sp)
    4498:	00070593          	mv	a1,a4
    449c:	01010113          	addi	sp,sp,16
    44a0:	00008067          	ret
    44a4:	ff550513          	addi	a0,a0,-11
    44a8:	00a417b3          	sll	a5,s0,a0
    44ac:	00048513          	mv	a0,s1
    44b0:	00000413          	li	s0,0
    44b4:	fb9ff06f          	j	446c <__floatsidf+0x54>
    44b8:	00000713          	li	a4,0
    44bc:	00000793          	li	a5,0
    44c0:	ff1ff06f          	j	44b0 <__floatsidf+0x98>

000044c4 <__mulsi3>:
    44c4:	00050613          	mv	a2,a0
    44c8:	00000513          	li	a0,0
    44cc:	0015f693          	andi	a3,a1,1
    44d0:	00068463          	beqz	a3,44d8 <__mulsi3+0x14>
    44d4:	00c50533          	add	a0,a0,a2
    44d8:	0015d593          	srli	a1,a1,0x1
    44dc:	00161613          	slli	a2,a2,0x1
    44e0:	fe0596e3          	bnez	a1,44cc <__mulsi3+0x8>
    44e4:	00008067          	ret

000044e8 <__divsi3>:
    44e8:	06054063          	bltz	a0,4548 <__umodsi3+0x10>
    44ec:	0605c663          	bltz	a1,4558 <__umodsi3+0x20>

000044f0 <__udivsi3>:
    44f0:	00058613          	mv	a2,a1
    44f4:	00050593          	mv	a1,a0
    44f8:	fff00513          	li	a0,-1
    44fc:	02060c63          	beqz	a2,4534 <__udivsi3+0x44>
    4500:	00100693          	li	a3,1
    4504:	00b67a63          	bgeu	a2,a1,4518 <__udivsi3+0x28>
    4508:	00c05863          	blez	a2,4518 <__udivsi3+0x28>
    450c:	00161613          	slli	a2,a2,0x1
    4510:	00169693          	slli	a3,a3,0x1
    4514:	feb66ae3          	bltu	a2,a1,4508 <__udivsi3+0x18>
    4518:	00000513          	li	a0,0
    451c:	00c5e663          	bltu	a1,a2,4528 <__udivsi3+0x38>
    4520:	40c585b3          	sub	a1,a1,a2
    4524:	00d56533          	or	a0,a0,a3
    4528:	0016d693          	srli	a3,a3,0x1
    452c:	00165613          	srli	a2,a2,0x1
    4530:	fe0696e3          	bnez	a3,451c <__udivsi3+0x2c>
    4534:	00008067          	ret

00004538 <__umodsi3>:
    4538:	00008293          	mv	t0,ra
    453c:	fb5ff0ef          	jal	ra,44f0 <__udivsi3>
    4540:	00058513          	mv	a0,a1
    4544:	00028067          	jr	t0
    4548:	40a00533          	neg	a0,a0
    454c:	0005d863          	bgez	a1,455c <__umodsi3+0x24>
    4550:	40b005b3          	neg	a1,a1
    4554:	f9dff06f          	j	44f0 <__udivsi3>
    4558:	40b005b3          	neg	a1,a1
    455c:	00008293          	mv	t0,ra
    4560:	f91ff0ef          	jal	ra,44f0 <__udivsi3>
    4564:	40a00533          	neg	a0,a0
    4568:	00028067          	jr	t0

0000456c <__modsi3>:
    456c:	00008293          	mv	t0,ra
    4570:	0005ca63          	bltz	a1,4584 <__modsi3+0x18>
    4574:	00054c63          	bltz	a0,458c <__modsi3+0x20>
    4578:	f79ff0ef          	jal	ra,44f0 <__udivsi3>
    457c:	00058513          	mv	a0,a1
    4580:	00028067          	jr	t0
    4584:	40b005b3          	neg	a1,a1
    4588:	fe0558e3          	bgez	a0,4578 <__modsi3+0xc>
    458c:	40a00533          	neg	a0,a0
    4590:	f61ff0ef          	jal	ra,44f0 <__udivsi3>
    4594:	40b00533          	neg	a0,a1
    4598:	00028067          	jr	t0

0000459c <__clzsi2>:
    459c:	000107b7          	lui	a5,0x10
    45a0:	02f57a63          	bgeu	a0,a5,45d4 <__clzsi2+0x38>
    45a4:	0ff00793          	li	a5,255
    45a8:	00a7b7b3          	sltu	a5,a5,a0
    45ac:	00379793          	slli	a5,a5,0x3
    45b0:	02000713          	li	a4,32
    45b4:	40f70733          	sub	a4,a4,a5
    45b8:	00f557b3          	srl	a5,a0,a5
    45bc:	00005537          	lui	a0,0x5
    45c0:	72050513          	addi	a0,a0,1824 # 5720 <__clz_tab>
    45c4:	00a787b3          	add	a5,a5,a0
    45c8:	0007c503          	lbu	a0,0(a5) # 10000 <_impure_ptr+0x96e0>
    45cc:	40a70533          	sub	a0,a4,a0
    45d0:	00008067          	ret
    45d4:	01000737          	lui	a4,0x1000
    45d8:	01000793          	li	a5,16
    45dc:	fce56ae3          	bltu	a0,a4,45b0 <__clzsi2+0x14>
    45e0:	01800793          	li	a5,24
    45e4:	fcdff06f          	j	45b0 <__clzsi2+0x14>

000045e8 <__errno>:
    45e8:	000077b7          	lui	a5,0x7
    45ec:	9207a503          	lw	a0,-1760(a5) # 6920 <_impure_ptr>
    45f0:	00008067          	ret

000045f4 <memcmp>:
    45f4:	00300793          	li	a5,3
    45f8:	02c7f863          	bgeu	a5,a2,4628 <memcmp+0x34>
    45fc:	00b567b3          	or	a5,a0,a1
    4600:	0037f793          	andi	a5,a5,3
    4604:	00300693          	li	a3,3
    4608:	06079263          	bnez	a5,466c <memcmp+0x78>
    460c:	00052703          	lw	a4,0(a0)
    4610:	0005a783          	lw	a5,0(a1)
    4614:	04f71c63          	bne	a4,a5,466c <memcmp+0x78>
    4618:	ffc60613          	addi	a2,a2,-4
    461c:	00450513          	addi	a0,a0,4
    4620:	00458593          	addi	a1,a1,4
    4624:	fec6e4e3          	bltu	a3,a2,460c <memcmp+0x18>
    4628:	fff60793          	addi	a5,a2,-1
    462c:	02060c63          	beqz	a2,4664 <memcmp+0x70>
    4630:	00054703          	lbu	a4,0(a0)
    4634:	0005c683          	lbu	a3,0(a1)
    4638:	02d71e63          	bne	a4,a3,4674 <memcmp+0x80>
    463c:	00178713          	addi	a4,a5,1
    4640:	00150793          	addi	a5,a0,1
    4644:	00e50533          	add	a0,a0,a4
    4648:	0140006f          	j	465c <memcmp+0x68>
    464c:	0007c703          	lbu	a4,0(a5)
    4650:	0005c683          	lbu	a3,0(a1)
    4654:	00178793          	addi	a5,a5,1
    4658:	00d71e63          	bne	a4,a3,4674 <memcmp+0x80>
    465c:	00158593          	addi	a1,a1,1
    4660:	fea796e3          	bne	a5,a0,464c <memcmp+0x58>
    4664:	00000513          	li	a0,0
    4668:	00008067          	ret
    466c:	fff60793          	addi	a5,a2,-1
    4670:	fc1ff06f          	j	4630 <memcmp+0x3c>
    4674:	40d70533          	sub	a0,a4,a3
    4678:	00008067          	ret

0000467c <memcpy>:
    467c:	00a5c7b3          	xor	a5,a1,a0
    4680:	0037f793          	andi	a5,a5,3
    4684:	00c508b3          	add	a7,a0,a2
    4688:	06079263          	bnez	a5,46ec <memcpy+0x70>
    468c:	00300793          	li	a5,3
    4690:	04c7fe63          	bgeu	a5,a2,46ec <memcpy+0x70>
    4694:	00357793          	andi	a5,a0,3
    4698:	00050713          	mv	a4,a0
    469c:	06079863          	bnez	a5,470c <memcpy+0x90>
    46a0:	ffc8f613          	andi	a2,a7,-4
    46a4:	fe060793          	addi	a5,a2,-32
    46a8:	08f76c63          	bltu	a4,a5,4740 <memcpy+0xc4>
    46ac:	02c77c63          	bgeu	a4,a2,46e4 <memcpy+0x68>
    46b0:	00058693          	mv	a3,a1
    46b4:	00070793          	mv	a5,a4
    46b8:	0006a803          	lw	a6,0(a3)
    46bc:	00478793          	addi	a5,a5,4
    46c0:	00468693          	addi	a3,a3,4
    46c4:	ff07ae23          	sw	a6,-4(a5)
    46c8:	fec7e8e3          	bltu	a5,a2,46b8 <memcpy+0x3c>
    46cc:	fff60793          	addi	a5,a2,-1
    46d0:	40e787b3          	sub	a5,a5,a4
    46d4:	ffc7f793          	andi	a5,a5,-4
    46d8:	00478793          	addi	a5,a5,4
    46dc:	00f70733          	add	a4,a4,a5
    46e0:	00f585b3          	add	a1,a1,a5
    46e4:	01176863          	bltu	a4,a7,46f4 <memcpy+0x78>
    46e8:	00008067          	ret
    46ec:	00050713          	mv	a4,a0
    46f0:	ff157ce3          	bgeu	a0,a7,46e8 <memcpy+0x6c>
    46f4:	0005c783          	lbu	a5,0(a1)
    46f8:	00170713          	addi	a4,a4,1 # 1000001 <_impure_ptr+0xff96e1>
    46fc:	00158593          	addi	a1,a1,1
    4700:	fef70fa3          	sb	a5,-1(a4)
    4704:	ff1768e3          	bltu	a4,a7,46f4 <memcpy+0x78>
    4708:	00008067          	ret
    470c:	0005c683          	lbu	a3,0(a1)
    4710:	00170713          	addi	a4,a4,1
    4714:	00377793          	andi	a5,a4,3
    4718:	fed70fa3          	sb	a3,-1(a4)
    471c:	00158593          	addi	a1,a1,1
    4720:	f80780e3          	beqz	a5,46a0 <memcpy+0x24>
    4724:	0005c683          	lbu	a3,0(a1)
    4728:	00170713          	addi	a4,a4,1
    472c:	00377793          	andi	a5,a4,3
    4730:	fed70fa3          	sb	a3,-1(a4)
    4734:	00158593          	addi	a1,a1,1
    4738:	fc079ae3          	bnez	a5,470c <memcpy+0x90>
    473c:	f65ff06f          	j	46a0 <memcpy+0x24>
    4740:	0005a683          	lw	a3,0(a1)
    4744:	0045a283          	lw	t0,4(a1)
    4748:	0085af83          	lw	t6,8(a1)
    474c:	00c5af03          	lw	t5,12(a1)
    4750:	0105ae83          	lw	t4,16(a1)
    4754:	0145ae03          	lw	t3,20(a1)
    4758:	0185a303          	lw	t1,24(a1)
    475c:	01c5a803          	lw	a6,28(a1)
    4760:	02458593          	addi	a1,a1,36
    4764:	00d72023          	sw	a3,0(a4)
    4768:	ffc5a683          	lw	a3,-4(a1)
    476c:	00572223          	sw	t0,4(a4)
    4770:	01f72423          	sw	t6,8(a4)
    4774:	01e72623          	sw	t5,12(a4)
    4778:	01d72823          	sw	t4,16(a4)
    477c:	01c72a23          	sw	t3,20(a4)
    4780:	00672c23          	sw	t1,24(a4)
    4784:	01072e23          	sw	a6,28(a4)
    4788:	02470713          	addi	a4,a4,36
    478c:	fed72e23          	sw	a3,-4(a4)
    4790:	faf768e3          	bltu	a4,a5,4740 <memcpy+0xc4>
    4794:	f19ff06f          	j	46ac <memcpy+0x30>

00004798 <memmove>:
    4798:	02a5f663          	bgeu	a1,a0,47c4 <memmove+0x2c>
    479c:	00c587b3          	add	a5,a1,a2
    47a0:	02f57263          	bgeu	a0,a5,47c4 <memmove+0x2c>
    47a4:	00c50733          	add	a4,a0,a2
    47a8:	0e060a63          	beqz	a2,489c <memmove+0x104>
    47ac:	fff78793          	addi	a5,a5,-1
    47b0:	0007c683          	lbu	a3,0(a5)
    47b4:	fff70713          	addi	a4,a4,-1
    47b8:	00d70023          	sb	a3,0(a4)
    47bc:	fef598e3          	bne	a1,a5,47ac <memmove+0x14>
    47c0:	00008067          	ret
    47c4:	00f00793          	li	a5,15
    47c8:	02c7e863          	bltu	a5,a2,47f8 <memmove+0x60>
    47cc:	00050793          	mv	a5,a0
    47d0:	fff60693          	addi	a3,a2,-1
    47d4:	0c060c63          	beqz	a2,48ac <memmove+0x114>
    47d8:	00168693          	addi	a3,a3,1
    47dc:	00d786b3          	add	a3,a5,a3
    47e0:	00158593          	addi	a1,a1,1
    47e4:	fff5c703          	lbu	a4,-1(a1)
    47e8:	00178793          	addi	a5,a5,1
    47ec:	fee78fa3          	sb	a4,-1(a5)
    47f0:	fed798e3          	bne	a5,a3,47e0 <memmove+0x48>
    47f4:	00008067          	ret
    47f8:	00a5e7b3          	or	a5,a1,a0
    47fc:	0037f793          	andi	a5,a5,3
    4800:	0a079063          	bnez	a5,48a0 <memmove+0x108>
    4804:	ff060893          	addi	a7,a2,-16
    4808:	ff08f893          	andi	a7,a7,-16
    480c:	01088893          	addi	a7,a7,16
    4810:	01150833          	add	a6,a0,a7
    4814:	00058713          	mv	a4,a1
    4818:	00050793          	mv	a5,a0
    481c:	00072683          	lw	a3,0(a4)
    4820:	01078793          	addi	a5,a5,16
    4824:	01070713          	addi	a4,a4,16
    4828:	fed7a823          	sw	a3,-16(a5)
    482c:	ff472683          	lw	a3,-12(a4)
    4830:	fed7aa23          	sw	a3,-12(a5)
    4834:	ff872683          	lw	a3,-8(a4)
    4838:	fed7ac23          	sw	a3,-8(a5)
    483c:	ffc72683          	lw	a3,-4(a4)
    4840:	fed7ae23          	sw	a3,-4(a5)
    4844:	fcf81ce3          	bne	a6,a5,481c <memmove+0x84>
    4848:	00c67713          	andi	a4,a2,12
    484c:	011585b3          	add	a1,a1,a7
    4850:	00f67813          	andi	a6,a2,15
    4854:	04070e63          	beqz	a4,48b0 <memmove+0x118>
    4858:	00058713          	mv	a4,a1
    485c:	00078893          	mv	a7,a5
    4860:	00300e13          	li	t3,3
    4864:	00470713          	addi	a4,a4,4
    4868:	ffc72303          	lw	t1,-4(a4)
    486c:	00488893          	addi	a7,a7,4
    4870:	40e806b3          	sub	a3,a6,a4
    4874:	fe68ae23          	sw	t1,-4(a7)
    4878:	00d586b3          	add	a3,a1,a3
    487c:	fede64e3          	bltu	t3,a3,4864 <memmove+0xcc>
    4880:	ffc80713          	addi	a4,a6,-4
    4884:	ffc77713          	andi	a4,a4,-4
    4888:	00470713          	addi	a4,a4,4
    488c:	00367613          	andi	a2,a2,3
    4890:	00e787b3          	add	a5,a5,a4
    4894:	00e585b3          	add	a1,a1,a4
    4898:	f39ff06f          	j	47d0 <memmove+0x38>
    489c:	00008067          	ret
    48a0:	fff60693          	addi	a3,a2,-1
    48a4:	00050793          	mv	a5,a0
    48a8:	f31ff06f          	j	47d8 <memmove+0x40>
    48ac:	00008067          	ret
    48b0:	00080613          	mv	a2,a6
    48b4:	f1dff06f          	j	47d0 <memmove+0x38>

000048b8 <memset>:
    48b8:	00f00313          	li	t1,15
    48bc:	00050713          	mv	a4,a0
    48c0:	02c37e63          	bgeu	t1,a2,48fc <memset+0x44>
    48c4:	00f77793          	andi	a5,a4,15
    48c8:	0a079063          	bnez	a5,4968 <memset+0xb0>
    48cc:	08059263          	bnez	a1,4950 <memset+0x98>
    48d0:	ff067693          	andi	a3,a2,-16
    48d4:	00f67613          	andi	a2,a2,15
    48d8:	00e686b3          	add	a3,a3,a4
    48dc:	00b72023          	sw	a1,0(a4)
    48e0:	00b72223          	sw	a1,4(a4)
    48e4:	00b72423          	sw	a1,8(a4)
    48e8:	00b72623          	sw	a1,12(a4)
    48ec:	01070713          	addi	a4,a4,16
    48f0:	fed766e3          	bltu	a4,a3,48dc <memset+0x24>
    48f4:	00061463          	bnez	a2,48fc <memset+0x44>
    48f8:	00008067          	ret
    48fc:	40c306b3          	sub	a3,t1,a2
    4900:	00269693          	slli	a3,a3,0x2
    4904:	00000297          	auipc	t0,0x0
    4908:	005686b3          	add	a3,a3,t0
    490c:	00c68067          	jr	12(a3)
    4910:	00b70723          	sb	a1,14(a4)
    4914:	00b706a3          	sb	a1,13(a4)
    4918:	00b70623          	sb	a1,12(a4)
    491c:	00b705a3          	sb	a1,11(a4)
    4920:	00b70523          	sb	a1,10(a4)
    4924:	00b704a3          	sb	a1,9(a4)
    4928:	00b70423          	sb	a1,8(a4)
    492c:	00b703a3          	sb	a1,7(a4)
    4930:	00b70323          	sb	a1,6(a4)
    4934:	00b702a3          	sb	a1,5(a4)
    4938:	00b70223          	sb	a1,4(a4)
    493c:	00b701a3          	sb	a1,3(a4)
    4940:	00b70123          	sb	a1,2(a4)
    4944:	00b700a3          	sb	a1,1(a4)
    4948:	00b70023          	sb	a1,0(a4)
    494c:	00008067          	ret
    4950:	0ff5f593          	andi	a1,a1,255
    4954:	00859693          	slli	a3,a1,0x8
    4958:	00d5e5b3          	or	a1,a1,a3
    495c:	01059693          	slli	a3,a1,0x10
    4960:	00d5e5b3          	or	a1,a1,a3
    4964:	f6dff06f          	j	48d0 <memset+0x18>
    4968:	00279693          	slli	a3,a5,0x2
    496c:	00000297          	auipc	t0,0x0
    4970:	005686b3          	add	a3,a3,t0
    4974:	00008293          	mv	t0,ra
    4978:	fa0680e7          	jalr	-96(a3)
    497c:	00028093          	mv	ra,t0
    4980:	ff078793          	addi	a5,a5,-16
    4984:	40f70733          	sub	a4,a4,a5
    4988:	00f60633          	add	a2,a2,a5
    498c:	f6c378e3          	bgeu	t1,a2,48fc <memset+0x44>
    4990:	f3dff06f          	j	48cc <memset+0x14>

Disassembly of section .text.startup:

00004994 <main>:
    4994:	fe010113          	addi	sp,sp,-32
    4998:	00112e23          	sw	ra,28(sp)
    499c:	00812c23          	sw	s0,24(sp)
    49a0:	c28fd0ef          	jal	ra,1dc8 <initialise_board>
    49a4:	c14fd0ef          	jal	ra,1db8 <initialise_benchmark>
    49a8:	00100513          	li	a0,1
    49ac:	c10fd0ef          	jal	ra,1dbc <warm_caches>
    49b0:	c20fd0ef          	jal	ra,1dd0 <start_trigger>
    49b4:	c0cfd0ef          	jal	ra,1dc0 <benchmark>
    49b8:	00a12623          	sw	a0,12(sp)
    49bc:	c1cfd0ef          	jal	ra,1dd8 <stop_trigger>
    49c0:	00c12503          	lw	a0,12(sp)
    49c4:	b4cfd0ef          	jal	ra,1d10 <verify_benchmark>
    49c8:	00050413          	mv	s0,a0
    49cc:	02050463          	beqz	a0,49f4 <main+0x60>
    49d0:	00006537          	lui	a0,0x6
    49d4:	84850513          	addi	a0,a0,-1976 # 5848 <_global_impure_ptr+0x24>
    49d8:	e04fd0ef          	jal	ra,1fdc <simrv_puts>
    49dc:	dd4fd0ef          	jal	ra,1fb0 <simrv_exit>
    49e0:	00143513          	seqz	a0,s0
    49e4:	01c12083          	lw	ra,28(sp)
    49e8:	01812403          	lw	s0,24(sp)
    49ec:	02010113          	addi	sp,sp,32
    49f0:	00008067          	ret
    49f4:	00006537          	lui	a0,0x6
    49f8:	85450513          	addi	a0,a0,-1964 # 5854 <_global_impure_ptr+0x30>
    49fc:	de0fd0ef          	jal	ra,1fdc <simrv_puts>
    4a00:	fddff06f          	j	49dc <main+0x48>

Disassembly of section .srodata:

00005820 <max_size>:
    5820:	0190                	addi	a2,sp,192
	...

00005824 <_global_impure_ptr>:
    5824:	64f0                	flw	fa2,76(s1)
	...

Disassembly of section .srodata.cst8:

00005828 <.srodata.cst8>:
    5828:	0000                	unimp
    582a:	ffc0                	fsw	fs0,60(a5)
    582c:	ffff                	0xffff
    582e:	41df 0000 0000      	0x41df
    5834:	0000                	unimp
    5836:	4014                	lw	a3,0(s0)
    5838:	0000                	unimp
    583a:	0000                	unimp
    583c:	0000                	unimp
    583e:	4004                	lw	s1,0(s0)
    5840:	cccd                	beqz	s1,58fa <array1+0x9a>
    5842:	cccc                	sw	a1,28(s1)
    5844:	cccc                	sw	a1,28(s1)
    5846:	3fec                	fld	fa1,248(a5)
