
dhrystone.riscv:     file format elf32-littleriscv


Disassembly of section .text.init:

00000000 <_start>:
   0:	00000093          	li	ra,0
   4:	00000113          	li	sp,0
   8:	00000193          	li	gp,0
   c:	00000213          	li	tp,0
  10:	00000293          	li	t0,0
  14:	00000313          	li	t1,0
  18:	00000393          	li	t2,0
  1c:	00000413          	li	s0,0
  20:	00000493          	li	s1,0
  24:	00000513          	li	a0,0
  28:	00000593          	li	a1,0
  2c:	00000613          	li	a2,0
  30:	00000693          	li	a3,0
  34:	00000713          	li	a4,0
  38:	00000793          	li	a5,0
  3c:	00000813          	li	a6,0
  40:	00000893          	li	a7,0
  44:	00000913          	li	s2,0
  48:	00000993          	li	s3,0
  4c:	00000a13          	li	s4,0
  50:	00000a93          	li	s5,0
  54:	00000b13          	li	s6,0
  58:	00000b93          	li	s7,0
  5c:	00000c13          	li	s8,0
  60:	00000c93          	li	s9,0
  64:	00000d13          	li	s10,0
  68:	00000d93          	li	s11,0
  6c:	00000e13          	li	t3,0
  70:	00000e93          	li	t4,0
  74:	00000f13          	li	t5,0
  78:	00000f93          	li	t6,0
  7c:	00f51613          	slli	a2,a0,0xf
  80:	00c20233          	add	tp,tp,a2
  84:	00150113          	addi	sp,a0,1
  88:	00f11113          	slli	sp,sp,0xf
  8c:	00410133          	add	sp,sp,tp
  90:	73d0106f          	j	1fcc <_init>

Disassembly of section .tohost:

00001000 <tohost>:
	...

00001040 <fromhost>:
	...

Disassembly of section .text:

00001048 <Proc_7>:
    1048:	00250513          	addi	a0,a0,2
    104c:	00b505b3          	add	a1,a0,a1
    1050:	00b62023          	sw	a1,0(a2)
    1054:	00008067          	ret

00001058 <Proc_8>:
    1058:	00560713          	addi	a4,a2,5
    105c:	00171793          	slli	a5,a4,0x1
    1060:	00e787b3          	add	a5,a5,a4
    1064:	00379793          	slli	a5,a5,0x3
    1068:	00e787b3          	add	a5,a5,a4
    106c:	00261613          	slli	a2,a2,0x2
    1070:	00271813          	slli	a6,a4,0x2
    1074:	00379793          	slli	a5,a5,0x3
    1078:	01050533          	add	a0,a0,a6
    107c:	00f60833          	add	a6,a2,a5
    1080:	00d52023          	sw	a3,0(a0)
    1084:	00d52223          	sw	a3,4(a0)
    1088:	06e52c23          	sw	a4,120(a0)
    108c:	010586b3          	add	a3,a1,a6
    1090:	0106a803          	lw	a6,16(a3)
    1094:	00e6aa23          	sw	a4,20(a3)
    1098:	00e6ac23          	sw	a4,24(a3)
    109c:	00180713          	addi	a4,a6,1
    10a0:	00e6a823          	sw	a4,16(a3)
    10a4:	00052703          	lw	a4,0(a0)
    10a8:	00c585b3          	add	a1,a1,a2
    10ac:	00f587b3          	add	a5,a1,a5
    10b0:	000015b7          	lui	a1,0x1
    10b4:	00f587b3          	add	a5,a1,a5
    10b8:	fae7aa23          	sw	a4,-76(a5)
    10bc:	00500793          	li	a5,5
    10c0:	00004717          	auipc	a4,0x4
    10c4:	88f72e23          	sw	a5,-1892(a4) # 495c <Int_Glob>
    10c8:	00008067          	ret

000010cc <Func_1>:
    10cc:	0ff57513          	andi	a0,a0,255
    10d0:	0ff5f593          	andi	a1,a1,255
    10d4:	00b50663          	beq	a0,a1,10e0 <Func_1+0x14>
    10d8:	00000513          	li	a0,0
    10dc:	00008067          	ret
    10e0:	00004797          	auipc	a5,0x4
    10e4:	86a78aa3          	sb	a0,-1931(a5) # 4955 <Ch_1_Glob>
    10e8:	00100513          	li	a0,1
    10ec:	00008067          	ret

000010f0 <Func_2>:
    10f0:	ff010113          	addi	sp,sp,-16
    10f4:	00812423          	sw	s0,8(sp)
    10f8:	00912223          	sw	s1,4(sp)
    10fc:	00112623          	sw	ra,12(sp)
    1100:	00050413          	mv	s0,a0
    1104:	00058493          	mv	s1,a1
    1108:	0034c583          	lbu	a1,3(s1)
    110c:	00244503          	lbu	a0,2(s0)
    1110:	fbdff0ef          	jal	ra,10cc <Func_1>
    1114:	fe051ae3          	bnez	a0,1108 <Func_2+0x18>
    1118:	00048593          	mv	a1,s1
    111c:	00040513          	mv	a0,s0
    1120:	6e5000ef          	jal	ra,2004 <strcmp>
    1124:	00000793          	li	a5,0
    1128:	00a05a63          	blez	a0,113c <Func_2+0x4c>
    112c:	00a00793          	li	a5,10
    1130:	00004717          	auipc	a4,0x4
    1134:	82f72623          	sw	a5,-2004(a4) # 495c <Int_Glob>
    1138:	00100793          	li	a5,1
    113c:	00c12083          	lw	ra,12(sp)
    1140:	00812403          	lw	s0,8(sp)
    1144:	00412483          	lw	s1,4(sp)
    1148:	00078513          	mv	a0,a5
    114c:	01010113          	addi	sp,sp,16
    1150:	00008067          	ret

00001154 <Func_3>:
    1154:	ffe50513          	addi	a0,a0,-2
    1158:	00153513          	seqz	a0,a0
    115c:	00008067          	ret

00001160 <Proc_6>:
    1160:	ff010113          	addi	sp,sp,-16
    1164:	00812423          	sw	s0,8(sp)
    1168:	00912223          	sw	s1,4(sp)
    116c:	00112623          	sw	ra,12(sp)
    1170:	00050413          	mv	s0,a0
    1174:	00058493          	mv	s1,a1
    1178:	fddff0ef          	jal	ra,1154 <Func_3>
    117c:	02050e63          	beqz	a0,11b8 <Proc_6+0x58>
    1180:	0084a023          	sw	s0,0(s1)
    1184:	00100713          	li	a4,1
    1188:	04e40063          	beq	s0,a4,11c8 <Proc_6+0x68>
    118c:	04040863          	beqz	s0,11dc <Proc_6+0x7c>
    1190:	00200793          	li	a5,2
    1194:	06f40063          	beq	s0,a5,11f4 <Proc_6+0x94>
    1198:	00400713          	li	a4,4
    119c:	00e41463          	bne	s0,a4,11a4 <Proc_6+0x44>
    11a0:	00f4a023          	sw	a5,0(s1)
    11a4:	00c12083          	lw	ra,12(sp)
    11a8:	00812403          	lw	s0,8(sp)
    11ac:	00412483          	lw	s1,4(sp)
    11b0:	01010113          	addi	sp,sp,16
    11b4:	00008067          	ret
    11b8:	00300793          	li	a5,3
    11bc:	00f4a023          	sw	a5,0(s1)
    11c0:	00100713          	li	a4,1
    11c4:	fce414e3          	bne	s0,a4,118c <Proc_6+0x2c>
    11c8:	00003797          	auipc	a5,0x3
    11cc:	79478793          	addi	a5,a5,1940 # 495c <Int_Glob>
    11d0:	0007a703          	lw	a4,0(a5)
    11d4:	06400793          	li	a5,100
    11d8:	02e7da63          	bge	a5,a4,120c <Proc_6+0xac>
    11dc:	00c12083          	lw	ra,12(sp)
    11e0:	00812403          	lw	s0,8(sp)
    11e4:	0004a023          	sw	zero,0(s1)
    11e8:	00412483          	lw	s1,4(sp)
    11ec:	01010113          	addi	sp,sp,16
    11f0:	00008067          	ret
    11f4:	00c12083          	lw	ra,12(sp)
    11f8:	00812403          	lw	s0,8(sp)
    11fc:	00e4a023          	sw	a4,0(s1)
    1200:	00412483          	lw	s1,4(sp)
    1204:	01010113          	addi	sp,sp,16
    1208:	00008067          	ret
    120c:	00300793          	li	a5,3
    1210:	00f4a023          	sw	a5,0(s1)
    1214:	f91ff06f          	j	11a4 <Proc_6+0x44>

00001218 <debug_printf>:
    1218:	fe010113          	addi	sp,sp,-32
    121c:	00b12223          	sw	a1,4(sp)
    1220:	00c12423          	sw	a2,8(sp)
    1224:	00d12623          	sw	a3,12(sp)
    1228:	00e12823          	sw	a4,16(sp)
    122c:	00f12a23          	sw	a5,20(sp)
    1230:	01012c23          	sw	a6,24(sp)
    1234:	01112e23          	sw	a7,28(sp)
    1238:	02010113          	addi	sp,sp,32
    123c:	00008067          	ret

00001240 <simrv_exit>:
    1240:	00003797          	auipc	a5,0x3
    1244:	6f478793          	addi	a5,a5,1780 # 4934 <TOHOST_ADDR>
    1248:	0007a783          	lw	a5,0(a5)
    124c:	00020737          	lui	a4,0x20
    1250:	00e7a023          	sw	a4,0(a5)
    1254:	00008067          	ret

00001258 <simrv_putc>:
    1258:	00003797          	auipc	a5,0x3
    125c:	6dc78793          	addi	a5,a5,1756 # 4934 <TOHOST_ADDR>
    1260:	0007a703          	lw	a4,0(a5)
    1264:	000107b7          	lui	a5,0x10
    1268:	00f56533          	or	a0,a0,a5
    126c:	00a72023          	sw	a0,0(a4) # 20000 <_end+0x18ec0>
    1270:	00008067          	ret

00001274 <simrv_puts>:
    1274:	ff010113          	addi	sp,sp,-16
    1278:	00812423          	sw	s0,8(sp)
    127c:	00112623          	sw	ra,12(sp)
    1280:	00050413          	mv	s0,a0
    1284:	00054503          	lbu	a0,0(a0)
    1288:	00050a63          	beqz	a0,129c <simrv_puts+0x28>
    128c:	00140413          	addi	s0,s0,1
    1290:	fc9ff0ef          	jal	ra,1258 <simrv_putc>
    1294:	00044503          	lbu	a0,0(s0)
    1298:	fe051ae3          	bnez	a0,128c <simrv_puts+0x18>
    129c:	00c12083          	lw	ra,12(sp)
    12a0:	00812403          	lw	s0,8(sp)
    12a4:	01010113          	addi	sp,sp,16
    12a8:	00008067          	ret

000012ac <simrv_puth>:
    12ac:	fe010113          	addi	sp,sp,-32
    12b0:	00f57713          	andi	a4,a0,15
    12b4:	00112e23          	sw	ra,28(sp)
    12b8:	00812c23          	sw	s0,24(sp)
    12bc:	00912a23          	sw	s1,20(sp)
    12c0:	00900693          	li	a3,9
    12c4:	0ff77793          	andi	a5,a4,255
    12c8:	12e6e663          	bltu	a3,a4,13f4 <simrv_puth+0x148>
    12cc:	03078793          	addi	a5,a5,48 # 10030 <_end+0x8ef0>
    12d0:	00f10423          	sb	a5,8(sp)
    12d4:	00455413          	srli	s0,a0,0x4
    12d8:	0c040e63          	beqz	s0,13b4 <simrv_puth+0x108>
    12dc:	00f47413          	andi	s0,s0,15
    12e0:	00900713          	li	a4,9
    12e4:	0ff47793          	andi	a5,s0,255
    12e8:	10877063          	bgeu	a4,s0,13e8 <simrv_puth+0x13c>
    12ec:	03778793          	addi	a5,a5,55
    12f0:	00f104a3          	sb	a5,9(sp)
    12f4:	00855793          	srli	a5,a0,0x8
    12f8:	14078a63          	beqz	a5,144c <simrv_puth+0x1a0>
    12fc:	00f7f793          	andi	a5,a5,15
    1300:	00900693          	li	a3,9
    1304:	0ff7f713          	andi	a4,a5,255
    1308:	0ef6ec63          	bltu	a3,a5,1400 <simrv_puth+0x154>
    130c:	03070713          	addi	a4,a4,48
    1310:	00e10523          	sb	a4,10(sp)
    1314:	00c55793          	srli	a5,a0,0xc
    1318:	12078e63          	beqz	a5,1454 <simrv_puth+0x1a8>
    131c:	00f7f793          	andi	a5,a5,15
    1320:	00900693          	li	a3,9
    1324:	0ff7f713          	andi	a4,a5,255
    1328:	0ef6e263          	bltu	a3,a5,140c <simrv_puth+0x160>
    132c:	03070713          	addi	a4,a4,48
    1330:	00e105a3          	sb	a4,11(sp)
    1334:	01055793          	srli	a5,a0,0x10
    1338:	12078263          	beqz	a5,145c <simrv_puth+0x1b0>
    133c:	00f7f793          	andi	a5,a5,15
    1340:	00900693          	li	a3,9
    1344:	0ff7f713          	andi	a4,a5,255
    1348:	0cf6e863          	bltu	a3,a5,1418 <simrv_puth+0x16c>
    134c:	03070713          	addi	a4,a4,48
    1350:	00e10623          	sb	a4,12(sp)
    1354:	01455793          	srli	a5,a0,0x14
    1358:	10078663          	beqz	a5,1464 <simrv_puth+0x1b8>
    135c:	00f7f793          	andi	a5,a5,15
    1360:	00900693          	li	a3,9
    1364:	0ff7f713          	andi	a4,a5,255
    1368:	0af6ee63          	bltu	a3,a5,1424 <simrv_puth+0x178>
    136c:	03070713          	addi	a4,a4,48
    1370:	00e106a3          	sb	a4,13(sp)
    1374:	01855793          	srli	a5,a0,0x18
    1378:	0e078a63          	beqz	a5,146c <simrv_puth+0x1c0>
    137c:	00f7f793          	andi	a5,a5,15
    1380:	00900693          	li	a3,9
    1384:	0ff7f713          	andi	a4,a5,255
    1388:	0af6e463          	bltu	a3,a5,1430 <simrv_puth+0x184>
    138c:	03070713          	addi	a4,a4,48
    1390:	00e10723          	sb	a4,14(sp)
    1394:	01c55513          	srli	a0,a0,0x1c
    1398:	0c050e63          	beqz	a0,1474 <simrv_puth+0x1c8>
    139c:	00900713          	li	a4,9
    13a0:	0ff57793          	andi	a5,a0,255
    13a4:	08a76c63          	bltu	a4,a0,143c <simrv_puth+0x190>
    13a8:	03078793          	addi	a5,a5,48
    13ac:	00f107a3          	sb	a5,15(sp)
    13b0:	00700413          	li	s0,7
    13b4:	00810493          	addi	s1,sp,8
    13b8:	00848433          	add	s0,s1,s0
    13bc:	0080006f          	j	13c4 <simrv_puth+0x118>
    13c0:	00078413          	mv	s0,a5
    13c4:	00044503          	lbu	a0,0(s0)
    13c8:	e91ff0ef          	jal	ra,1258 <simrv_putc>
    13cc:	fff40793          	addi	a5,s0,-1
    13d0:	fe8498e3          	bne	s1,s0,13c0 <simrv_puth+0x114>
    13d4:	01c12083          	lw	ra,28(sp)
    13d8:	01812403          	lw	s0,24(sp)
    13dc:	01412483          	lw	s1,20(sp)
    13e0:	02010113          	addi	sp,sp,32
    13e4:	00008067          	ret
    13e8:	03078793          	addi	a5,a5,48
    13ec:	00f104a3          	sb	a5,9(sp)
    13f0:	f05ff06f          	j	12f4 <simrv_puth+0x48>
    13f4:	03778793          	addi	a5,a5,55
    13f8:	00f10423          	sb	a5,8(sp)
    13fc:	ed9ff06f          	j	12d4 <simrv_puth+0x28>
    1400:	03770713          	addi	a4,a4,55
    1404:	00e10523          	sb	a4,10(sp)
    1408:	f0dff06f          	j	1314 <simrv_puth+0x68>
    140c:	03770713          	addi	a4,a4,55
    1410:	00e105a3          	sb	a4,11(sp)
    1414:	f21ff06f          	j	1334 <simrv_puth+0x88>
    1418:	03770713          	addi	a4,a4,55
    141c:	00e10623          	sb	a4,12(sp)
    1420:	f35ff06f          	j	1354 <simrv_puth+0xa8>
    1424:	03770713          	addi	a4,a4,55
    1428:	00e106a3          	sb	a4,13(sp)
    142c:	f49ff06f          	j	1374 <simrv_puth+0xc8>
    1430:	03770713          	addi	a4,a4,55
    1434:	00e10723          	sb	a4,14(sp)
    1438:	f5dff06f          	j	1394 <simrv_puth+0xe8>
    143c:	03778793          	addi	a5,a5,55
    1440:	00f107a3          	sb	a5,15(sp)
    1444:	00700413          	li	s0,7
    1448:	f6dff06f          	j	13b4 <simrv_puth+0x108>
    144c:	00100413          	li	s0,1
    1450:	f65ff06f          	j	13b4 <simrv_puth+0x108>
    1454:	00200413          	li	s0,2
    1458:	f5dff06f          	j	13b4 <simrv_puth+0x108>
    145c:	00300413          	li	s0,3
    1460:	f55ff06f          	j	13b4 <simrv_puth+0x108>
    1464:	00400413          	li	s0,4
    1468:	f4dff06f          	j	13b4 <simrv_puth+0x108>
    146c:	00500413          	li	s0,5
    1470:	f45ff06f          	j	13b4 <simrv_puth+0x108>
    1474:	00600413          	li	s0,6
    1478:	f3dff06f          	j	13b4 <simrv_puth+0x108>

0000147c <Proc_2>:
    147c:	00003717          	auipc	a4,0x3
    1480:	4d974703          	lbu	a4,1241(a4) # 4955 <Ch_1_Glob>
    1484:	04100793          	li	a5,65
    1488:	00f70463          	beq	a4,a5,1490 <Proc_2+0x14>
    148c:	00008067          	ret
    1490:	00052783          	lw	a5,0(a0)
    1494:	00003717          	auipc	a4,0x3
    1498:	4c870713          	addi	a4,a4,1224 # 495c <Int_Glob>
    149c:	00072703          	lw	a4,0(a4)
    14a0:	00978793          	addi	a5,a5,9
    14a4:	40e787b3          	sub	a5,a5,a4
    14a8:	00f52023          	sw	a5,0(a0)
    14ac:	00008067          	ret

000014b0 <Proc_3>:
    14b0:	00003797          	auipc	a5,0x3
    14b4:	4b478793          	addi	a5,a5,1204 # 4964 <Ptr_Glob>
    14b8:	0007a603          	lw	a2,0(a5)
    14bc:	00060863          	beqz	a2,14cc <Proc_3+0x1c>
    14c0:	00062703          	lw	a4,0(a2)
    14c4:	00e52023          	sw	a4,0(a0)
    14c8:	0007a603          	lw	a2,0(a5)
    14cc:	00003797          	auipc	a5,0x3
    14d0:	49078793          	addi	a5,a5,1168 # 495c <Int_Glob>
    14d4:	0007a583          	lw	a1,0(a5)
    14d8:	00c60613          	addi	a2,a2,12
    14dc:	00a00513          	li	a0,10
    14e0:	b69ff06f          	j	1048 <Proc_7>

000014e4 <Proc_1>:
    14e4:	ff010113          	addi	sp,sp,-16
    14e8:	01212023          	sw	s2,0(sp)
    14ec:	00003917          	auipc	s2,0x3
    14f0:	47890913          	addi	s2,s2,1144 # 4964 <Ptr_Glob>
    14f4:	00092783          	lw	a5,0(s2)
    14f8:	00812423          	sw	s0,8(sp)
    14fc:	00052403          	lw	s0,0(a0)
    1500:	0007a703          	lw	a4,0(a5)
    1504:	00912223          	sw	s1,4(sp)
    1508:	0047ae83          	lw	t4,4(a5)
    150c:	0087ae03          	lw	t3,8(a5)
    1510:	0107a303          	lw	t1,16(a5)
    1514:	0147a883          	lw	a7,20(a5)
    1518:	0187a803          	lw	a6,24(a5)
    151c:	0207a583          	lw	a1,32(a5)
    1520:	0247a603          	lw	a2,36(a5)
    1524:	0287a683          	lw	a3,40(a5)
    1528:	00112623          	sw	ra,12(sp)
    152c:	00050493          	mv	s1,a0
    1530:	01c7a503          	lw	a0,28(a5)
    1534:	02c7a783          	lw	a5,44(a5)
    1538:	00e42023          	sw	a4,0(s0)
    153c:	0004a703          	lw	a4,0(s1)
    1540:	00a42e23          	sw	a0,28(s0)
    1544:	02f42623          	sw	a5,44(s0)
    1548:	01d42223          	sw	t4,4(s0)
    154c:	00500793          	li	a5,5
    1550:	01c42423          	sw	t3,8(s0)
    1554:	00642823          	sw	t1,16(s0)
    1558:	01142a23          	sw	a7,20(s0)
    155c:	01042c23          	sw	a6,24(s0)
    1560:	02b42023          	sw	a1,32(s0)
    1564:	02c42223          	sw	a2,36(s0)
    1568:	02d42423          	sw	a3,40(s0)
    156c:	00f4a623          	sw	a5,12(s1)
    1570:	00f42623          	sw	a5,12(s0)
    1574:	00e42023          	sw	a4,0(s0)
    1578:	00040513          	mv	a0,s0
    157c:	f35ff0ef          	jal	ra,14b0 <Proc_3>
    1580:	00442783          	lw	a5,4(s0)
    1584:	08078063          	beqz	a5,1604 <Proc_1+0x120>
    1588:	0004a783          	lw	a5,0(s1)
    158c:	00c12083          	lw	ra,12(sp)
    1590:	00812403          	lw	s0,8(sp)
    1594:	0007af83          	lw	t6,0(a5)
    1598:	0047af03          	lw	t5,4(a5)
    159c:	0087ae83          	lw	t4,8(a5)
    15a0:	00c7ae03          	lw	t3,12(a5)
    15a4:	0107a303          	lw	t1,16(a5)
    15a8:	0147a883          	lw	a7,20(a5)
    15ac:	0187a803          	lw	a6,24(a5)
    15b0:	01c7a583          	lw	a1,28(a5)
    15b4:	0207a603          	lw	a2,32(a5)
    15b8:	0247a683          	lw	a3,36(a5)
    15bc:	0287a703          	lw	a4,40(a5)
    15c0:	02c7a783          	lw	a5,44(a5)
    15c4:	01f4a023          	sw	t6,0(s1)
    15c8:	01e4a223          	sw	t5,4(s1)
    15cc:	01d4a423          	sw	t4,8(s1)
    15d0:	01c4a623          	sw	t3,12(s1)
    15d4:	0064a823          	sw	t1,16(s1)
    15d8:	0114aa23          	sw	a7,20(s1)
    15dc:	0104ac23          	sw	a6,24(s1)
    15e0:	00b4ae23          	sw	a1,28(s1)
    15e4:	02c4a023          	sw	a2,32(s1)
    15e8:	02d4a223          	sw	a3,36(s1)
    15ec:	02e4a423          	sw	a4,40(s1)
    15f0:	02f4a623          	sw	a5,44(s1)
    15f4:	00012903          	lw	s2,0(sp)
    15f8:	00412483          	lw	s1,4(sp)
    15fc:	01010113          	addi	sp,sp,16
    1600:	00008067          	ret
    1604:	0084a503          	lw	a0,8(s1)
    1608:	00600793          	li	a5,6
    160c:	00840593          	addi	a1,s0,8
    1610:	00f42623          	sw	a5,12(s0)
    1614:	b4dff0ef          	jal	ra,1160 <Proc_6>
    1618:	00092783          	lw	a5,0(s2)
    161c:	00c42503          	lw	a0,12(s0)
    1620:	00c40613          	addi	a2,s0,12
    1624:	0007a783          	lw	a5,0(a5)
    1628:	00c12083          	lw	ra,12(sp)
    162c:	00412483          	lw	s1,4(sp)
    1630:	00f42023          	sw	a5,0(s0)
    1634:	00812403          	lw	s0,8(sp)
    1638:	00012903          	lw	s2,0(sp)
    163c:	00a00593          	li	a1,10
    1640:	01010113          	addi	sp,sp,16
    1644:	a05ff06f          	j	1048 <Proc_7>

00001648 <Proc_4>:
    1648:	00003717          	auipc	a4,0x3
    164c:	31070713          	addi	a4,a4,784 # 4958 <Bool_Glob>
    1650:	00072683          	lw	a3,0(a4)
    1654:	00003797          	auipc	a5,0x3
    1658:	3017c783          	lbu	a5,769(a5) # 4955 <Ch_1_Glob>
    165c:	fbf78793          	addi	a5,a5,-65
    1660:	0017b793          	seqz	a5,a5
    1664:	00d7e7b3          	or	a5,a5,a3
    1668:	00f72023          	sw	a5,0(a4)
    166c:	04200793          	li	a5,66
    1670:	00003717          	auipc	a4,0x3
    1674:	2ef70223          	sb	a5,740(a4) # 4954 <Ch_2_Glob>
    1678:	00008067          	ret

0000167c <Proc_5>:
    167c:	04100793          	li	a5,65
    1680:	00003717          	auipc	a4,0x3
    1684:	2cf70aa3          	sb	a5,725(a4) # 4955 <Ch_1_Glob>
    1688:	00003797          	auipc	a5,0x3
    168c:	2c07a823          	sw	zero,720(a5) # 4958 <Bool_Glob>
    1690:	00008067          	ret

00001694 <putchar>:
    1694:	00a00793          	li	a5,10
    1698:	02f50063          	beq	a0,a5,16b8 <putchar+0x24>
    169c:	00022703          	lw	a4,0(tp) # 0 <_start>
    16a0:	04000613          	li	a2,64
    16a4:	00170713          	addi	a4,a4,1
    16a8:	00c70863          	beq	a4,a2,16b8 <putchar+0x24>
    16ac:	00e22023          	sw	a4,0(tp) # 0 <_start>
    16b0:	00000513          	li	a0,0
    16b4:	00008067          	ret
    16b8:	00022023          	sw	zero,0(tp) # 0 <_start>
    16bc:	00000513          	li	a0,0
    16c0:	00008067          	ret

000016c4 <printnum>:
    16c4:	ed010113          	addi	sp,sp,-304
    16c8:	12812423          	sw	s0,296(sp)
    16cc:	13212023          	sw	s2,288(sp)
    16d0:	00068413          	mv	s0,a3
    16d4:	00060913          	mv	s2,a2
    16d8:	11412c23          	sw	s4,280(sp)
    16dc:	11512a23          	sw	s5,276(sp)
    16e0:	00058a13          	mv	s4,a1
    16e4:	00050a93          	mv	s5,a0
    16e8:	00070613          	mv	a2,a4
    16ec:	00000693          	li	a3,0
    16f0:	00090513          	mv	a0,s2
    16f4:	00040593          	mv	a1,s0
    16f8:	11312e23          	sw	s3,284(sp)
    16fc:	11712623          	sw	s7,268(sp)
    1700:	11812423          	sw	s8,264(sp)
    1704:	11912223          	sw	s9,260(sp)
    1708:	12112623          	sw	ra,300(sp)
    170c:	12912223          	sw	s1,292(sp)
    1710:	11612823          	sw	s6,272(sp)
    1714:	11a12023          	sw	s10,256(sp)
    1718:	00070b93          	mv	s7,a4
    171c:	00078993          	mv	s3,a5
    1720:	00080c13          	mv	s8,a6
    1724:	2e9010ef          	jal	ra,320c <__umoddi3>
    1728:	00a12023          	sw	a0,0(sp)
    172c:	00000c93          	li	s9,0
    1730:	0c040c63          	beqz	s0,1808 <printnum+0x144>
    1734:	00410b13          	addi	s6,sp,4
    1738:	00100493          	li	s1,1
    173c:	000b8613          	mv	a2,s7
    1740:	00000693          	li	a3,0
    1744:	00090513          	mv	a0,s2
    1748:	00040593          	mv	a1,s0
    174c:	4ec010ef          	jal	ra,2c38 <__udivdi3>
    1750:	000b8613          	mv	a2,s7
    1754:	00000693          	li	a3,0
    1758:	00050913          	mv	s2,a0
    175c:	00058413          	mv	s0,a1
    1760:	2ad010ef          	jal	ra,320c <__umoddi3>
    1764:	00ab2023          	sw	a0,0(s6)
    1768:	00148d13          	addi	s10,s1,1
    176c:	004b0b13          	addi	s6,s6,4
    1770:	008c8663          	beq	s9,s0,177c <printnum+0xb8>
    1774:	000d0493          	mv	s1,s10
    1778:	fc5ff06f          	j	173c <printnum+0x78>
    177c:	ff797ce3          	bgeu	s2,s7,1774 <printnum+0xb0>
    1780:	013d5c63          	bge	s10,s3,1798 <printnum+0xd4>
    1784:	fff98993          	addi	s3,s3,-1
    1788:	000a0593          	mv	a1,s4
    178c:	000c0513          	mv	a0,s8
    1790:	000a80e7          	jalr	s5
    1794:	ff3d48e3          	blt	s10,s3,1784 <printnum+0xc0>
    1798:	00249413          	slli	s0,s1,0x2
    179c:	00010913          	mv	s2,sp
    17a0:	00890433          	add	s0,s2,s0
    17a4:	00900493          	li	s1,9
    17a8:	0080006f          	j	17b0 <printnum+0xec>
    17ac:	00078413          	mv	s0,a5
    17b0:	00042783          	lw	a5,0(s0)
    17b4:	000a0593          	mv	a1,s4
    17b8:	03078513          	addi	a0,a5,48
    17bc:	00f4f463          	bgeu	s1,a5,17c4 <printnum+0x100>
    17c0:	05778513          	addi	a0,a5,87
    17c4:	000a80e7          	jalr	s5
    17c8:	ffc40793          	addi	a5,s0,-4
    17cc:	fe8910e3          	bne	s2,s0,17ac <printnum+0xe8>
    17d0:	12c12083          	lw	ra,300(sp)
    17d4:	12812403          	lw	s0,296(sp)
    17d8:	12412483          	lw	s1,292(sp)
    17dc:	12012903          	lw	s2,288(sp)
    17e0:	11c12983          	lw	s3,284(sp)
    17e4:	11812a03          	lw	s4,280(sp)
    17e8:	11412a83          	lw	s5,276(sp)
    17ec:	11012b03          	lw	s6,272(sp)
    17f0:	10c12b83          	lw	s7,268(sp)
    17f4:	10812c03          	lw	s8,264(sp)
    17f8:	10412c83          	lw	s9,260(sp)
    17fc:	10012d03          	lw	s10,256(sp)
    1800:	13010113          	addi	sp,sp,304
    1804:	00008067          	ret
    1808:	f37976e3          	bgeu	s2,s7,1734 <printnum+0x70>
    180c:	00100793          	li	a5,1
    1810:	00000493          	li	s1,0
    1814:	00100d13          	li	s10,1
    1818:	f737c6e3          	blt	a5,s3,1784 <printnum+0xc0>
    181c:	f7dff06f          	j	1798 <printnum+0xd4>

00001820 <getuint>:
    1820:	00100693          	li	a3,1
    1824:	00050713          	mv	a4,a0
    1828:	00052783          	lw	a5,0(a0)
    182c:	00b6cc63          	blt	a3,a1,1844 <getuint+0x24>
    1830:	00478693          	addi	a3,a5,4
    1834:	0007a503          	lw	a0,0(a5)
    1838:	00000593          	li	a1,0
    183c:	00d72023          	sw	a3,0(a4)
    1840:	00008067          	ret
    1844:	00778793          	addi	a5,a5,7
    1848:	ff87f793          	andi	a5,a5,-8
    184c:	00878693          	addi	a3,a5,8
    1850:	00d52023          	sw	a3,0(a0)
    1854:	0047a583          	lw	a1,4(a5)
    1858:	0007a503          	lw	a0,0(a5)
    185c:	00008067          	ret

00001860 <getint>:
    1860:	00100693          	li	a3,1
    1864:	00050713          	mv	a4,a0
    1868:	00052783          	lw	a5,0(a0)
    186c:	00b6cc63          	blt	a3,a1,1884 <getint+0x24>
    1870:	0007a503          	lw	a0,0(a5)
    1874:	00478793          	addi	a5,a5,4
    1878:	00f72023          	sw	a5,0(a4)
    187c:	41f55593          	srai	a1,a0,0x1f
    1880:	00008067          	ret
    1884:	00778793          	addi	a5,a5,7
    1888:	ff87f793          	andi	a5,a5,-8
    188c:	00878693          	addi	a3,a5,8
    1890:	00d52023          	sw	a3,0(a0)
    1894:	0047a583          	lw	a1,4(a5)
    1898:	0007a503          	lw	a0,0(a5)
    189c:	00008067          	ret

000018a0 <sprintf_putch.3091>:
    18a0:	0005a783          	lw	a5,0(a1) # 1000 <tohost>
    18a4:	00a78023          	sb	a0,0(a5)
    18a8:	0005a783          	lw	a5,0(a1)
    18ac:	00178793          	addi	a5,a5,1
    18b0:	00f5a023          	sw	a5,0(a1)
    18b4:	00008067          	ret

000018b8 <setStats>:
    18b8:	00008067          	ret

000018bc <tohost_exit>:
    18bc:	00151513          	slli	a0,a0,0x1
    18c0:	fffff697          	auipc	a3,0xfffff
    18c4:	74068693          	addi	a3,a3,1856 # 1000 <tohost>
    18c8:	00156713          	ori	a4,a0,1
    18cc:	00000793          	li	a5,0
    18d0:	00e6a023          	sw	a4,0(a3)
    18d4:	00f6a223          	sw	a5,4(a3)
    18d8:	0000006f          	j	18d8 <tohost_exit+0x1c>

000018dc <handle_trap>:
    18dc:	ff010113          	addi	sp,sp,-16
    18e0:	53900513          	li	a0,1337
    18e4:	00112623          	sw	ra,12(sp)
    18e8:	fd5ff0ef          	jal	ra,18bc <tohost_exit>

000018ec <exit>:
    18ec:	ff010113          	addi	sp,sp,-16
    18f0:	00112623          	sw	ra,12(sp)
    18f4:	fc9ff0ef          	jal	ra,18bc <tohost_exit>

000018f8 <abort>:
    18f8:	ff010113          	addi	sp,sp,-16
    18fc:	08600513          	li	a0,134
    1900:	00112623          	sw	ra,12(sp)
    1904:	fe9ff0ef          	jal	ra,18ec <exit>

00001908 <printstr>:
    1908:	00008067          	ret

0000190c <thread_entry>:
    190c:	00050463          	beqz	a0,1914 <thread_entry+0x8>
    1910:	0000006f          	j	1910 <thread_entry+0x4>
    1914:	00008067          	ret

00001918 <printhex>:
    1918:	00008067          	ret

0000191c <memcpy>:
    191c:	00c5e833          	or	a6,a1,a2
    1920:	00a86833          	or	a6,a6,a0
    1924:	00387813          	andi	a6,a6,3
    1928:	00050713          	mv	a4,a0
    192c:	00058793          	mv	a5,a1
    1930:	00c506b3          	add	a3,a0,a2
    1934:	08080e63          	beqz	a6,19d0 <memcpy+0xb4>
    1938:	0cd57c63          	bgeu	a0,a3,1a10 <memcpy+0xf4>
    193c:	00450893          	addi	a7,a0,4
    1940:	00458313          	addi	t1,a1,4
    1944:	0115b8b3          	sltu	a7,a1,a7
    1948:	00653333          	sltu	t1,a0,t1
    194c:	00b56833          	or	a6,a0,a1
    1950:	0018c893          	xori	a7,a7,1
    1954:	00134313          	xori	t1,t1,1
    1958:	00387813          	andi	a6,a6,3
    195c:	0068e8b3          	or	a7,a7,t1
    1960:	00183813          	seqz	a6,a6
    1964:	01187833          	and	a6,a6,a7
    1968:	08080463          	beqz	a6,19f0 <memcpy+0xd4>
    196c:	fff60813          	addi	a6,a2,-1
    1970:	00983813          	sltiu	a6,a6,9
    1974:	06081e63          	bnez	a6,19f0 <memcpy+0xd4>
    1978:	ffc67893          	andi	a7,a2,-4
    197c:	00b888b3          	add	a7,a7,a1
    1980:	0007a803          	lw	a6,0(a5)
    1984:	00470713          	addi	a4,a4,4
    1988:	00478793          	addi	a5,a5,4
    198c:	ff072e23          	sw	a6,-4(a4)
    1990:	ff1798e3          	bne	a5,a7,1980 <memcpy+0x64>
    1994:	ffc67713          	andi	a4,a2,-4
    1998:	00e585b3          	add	a1,a1,a4
    199c:	00e507b3          	add	a5,a0,a4
    19a0:	06e60663          	beq	a2,a4,1a0c <memcpy+0xf0>
    19a4:	0005c603          	lbu	a2,0(a1)
    19a8:	00178713          	addi	a4,a5,1
    19ac:	00c78023          	sb	a2,0(a5)
    19b0:	04d77e63          	bgeu	a4,a3,1a0c <memcpy+0xf0>
    19b4:	0015c603          	lbu	a2,1(a1)
    19b8:	00278713          	addi	a4,a5,2
    19bc:	00c780a3          	sb	a2,1(a5)
    19c0:	04d77663          	bgeu	a4,a3,1a0c <memcpy+0xf0>
    19c4:	0025c703          	lbu	a4,2(a1)
    19c8:	00e78123          	sb	a4,2(a5)
    19cc:	00008067          	ret
    19d0:	02d57e63          	bgeu	a0,a3,1a0c <memcpy+0xf0>
    19d4:	00050793          	mv	a5,a0
    19d8:	00458593          	addi	a1,a1,4
    19dc:	ffc5a703          	lw	a4,-4(a1)
    19e0:	00478793          	addi	a5,a5,4
    19e4:	fee7ae23          	sw	a4,-4(a5)
    19e8:	fed7e8e3          	bltu	a5,a3,19d8 <memcpy+0xbc>
    19ec:	00008067          	ret
    19f0:	00c58633          	add	a2,a1,a2
    19f4:	00050793          	mv	a5,a0
    19f8:	00158593          	addi	a1,a1,1
    19fc:	fff5c703          	lbu	a4,-1(a1)
    1a00:	00178793          	addi	a5,a5,1
    1a04:	fee78fa3          	sb	a4,-1(a5)
    1a08:	fec598e3          	bne	a1,a2,19f8 <memcpy+0xdc>
    1a0c:	00008067          	ret
    1a10:	00008067          	ret

00001a14 <memset>:
    1a14:	ff010113          	addi	sp,sp,-16
    1a18:	00c567b3          	or	a5,a0,a2
    1a1c:	00812423          	sw	s0,8(sp)
    1a20:	00112623          	sw	ra,12(sp)
    1a24:	0037f793          	andi	a5,a5,3
    1a28:	00050413          	mv	s0,a0
    1a2c:	00c50733          	add	a4,a0,a2
    1a30:	02078263          	beqz	a5,1a54 <memset+0x40>
    1a34:	00e57663          	bgeu	a0,a4,1a40 <memset+0x2c>
    1a38:	0ff5f593          	andi	a1,a1,255
    1a3c:	fd9ff0ef          	jal	ra,1a14 <memset>
    1a40:	00040513          	mv	a0,s0
    1a44:	00c12083          	lw	ra,12(sp)
    1a48:	00812403          	lw	s0,8(sp)
    1a4c:	01010113          	addi	sp,sp,16
    1a50:	00008067          	ret
    1a54:	0ff5f593          	andi	a1,a1,255
    1a58:	00859693          	slli	a3,a1,0x8
    1a5c:	00b6e5b3          	or	a1,a3,a1
    1a60:	01059693          	slli	a3,a1,0x10
    1a64:	00b6e6b3          	or	a3,a3,a1
    1a68:	fce57ce3          	bgeu	a0,a4,1a40 <memset+0x2c>
    1a6c:	00050793          	mv	a5,a0
    1a70:	00478793          	addi	a5,a5,4
    1a74:	fed7ae23          	sw	a3,-4(a5)
    1a78:	fee7ece3          	bltu	a5,a4,1a70 <memset+0x5c>
    1a7c:	00040513          	mv	a0,s0
    1a80:	00c12083          	lw	ra,12(sp)
    1a84:	00812403          	lw	s0,8(sp)
    1a88:	01010113          	addi	sp,sp,16
    1a8c:	00008067          	ret

00001a90 <init_tls>:
    1a90:	ff010113          	addi	sp,sp,-16
    1a94:	00812423          	sw	s0,8(sp)
    1a98:	00912223          	sw	s1,4(sp)
    1a9c:	00020493          	mv	s1,tp
    1aa0:	00020413          	mv	s0,tp
    1aa4:	40848433          	sub	s0,s1,s0
    1aa8:	00040613          	mv	a2,s0
    1aac:	00005597          	auipc	a1,0x5
    1ab0:	69458593          	addi	a1,a1,1684 # 7140 <_end>
    1ab4:	00020513          	mv	a0,tp
    1ab8:	01212023          	sw	s2,0(sp)
    1abc:	00112623          	sw	ra,12(sp)
    1ac0:	00020913          	mv	s2,tp
    1ac4:	e59ff0ef          	jal	ra,191c <memcpy>
    1ac8:	00890533          	add	a0,s2,s0
    1acc:	00420613          	addi	a2,tp,4 # 4 <_tbss_end>
    1ad0:	00812403          	lw	s0,8(sp)
    1ad4:	00c12083          	lw	ra,12(sp)
    1ad8:	00012903          	lw	s2,0(sp)
    1adc:	40960633          	sub	a2,a2,s1
    1ae0:	00412483          	lw	s1,4(sp)
    1ae4:	00000593          	li	a1,0
    1ae8:	01010113          	addi	sp,sp,16
    1aec:	f29ff06f          	j	1a14 <memset>

00001af0 <strlen>:
    1af0:	00054783          	lbu	a5,0(a0)
    1af4:	00078e63          	beqz	a5,1b10 <strlen+0x20>
    1af8:	00050793          	mv	a5,a0
    1afc:	00178793          	addi	a5,a5,1
    1b00:	0007c703          	lbu	a4,0(a5)
    1b04:	fe071ce3          	bnez	a4,1afc <strlen+0xc>
    1b08:	40a78533          	sub	a0,a5,a0
    1b0c:	00008067          	ret
    1b10:	00000513          	li	a0,0
    1b14:	00008067          	ret

00001b18 <strnlen>:
    1b18:	02058463          	beqz	a1,1b40 <strnlen+0x28>
    1b1c:	00054783          	lbu	a5,0(a0)
    1b20:	02078a63          	beqz	a5,1b54 <strnlen+0x3c>
    1b24:	00b506b3          	add	a3,a0,a1
    1b28:	00050793          	mv	a5,a0
    1b2c:	00c0006f          	j	1b38 <strnlen+0x20>
    1b30:	0007c703          	lbu	a4,0(a5)
    1b34:	00070a63          	beqz	a4,1b48 <strnlen+0x30>
    1b38:	00178793          	addi	a5,a5,1
    1b3c:	fed79ae3          	bne	a5,a3,1b30 <strnlen+0x18>
    1b40:	00058513          	mv	a0,a1
    1b44:	00008067          	ret
    1b48:	40a785b3          	sub	a1,a5,a0
    1b4c:	00058513          	mv	a0,a1
    1b50:	00008067          	ret
    1b54:	00000593          	li	a1,0
    1b58:	fe9ff06f          	j	1b40 <strnlen+0x28>

00001b5c <vprintfmt>:
    1b5c:	fc010113          	addi	sp,sp,-64
    1b60:	02812c23          	sw	s0,56(sp)
    1b64:	02912a23          	sw	s1,52(sp)
    1b68:	03212823          	sw	s2,48(sp)
    1b6c:	03312623          	sw	s3,44(sp)
    1b70:	03512223          	sw	s5,36(sp)
    1b74:	03612023          	sw	s6,32(sp)
    1b78:	02112e23          	sw	ra,60(sp)
    1b7c:	03412423          	sw	s4,40(sp)
    1b80:	01712e23          	sw	s7,28(sp)
    1b84:	01812c23          	sw	s8,24(sp)
    1b88:	01912a23          	sw	s9,20(sp)
    1b8c:	00050913          	mv	s2,a0
    1b90:	00058493          	mv	s1,a1
    1b94:	00060413          	mv	s0,a2
    1b98:	00d12623          	sw	a3,12(sp)
    1b9c:	02500993          	li	s3,37
    1ba0:	00003a97          	auipc	s5,0x3
    1ba4:	9e8a8a93          	addi	s5,s5,-1560 # 4588 <main+0xdb4>
    1ba8:	fff00b13          	li	s6,-1
    1bac:	0140006f          	j	1bc0 <vprintfmt+0x64>
    1bb0:	06050663          	beqz	a0,1c1c <vprintfmt+0xc0>
    1bb4:	00048593          	mv	a1,s1
    1bb8:	00140413          	addi	s0,s0,1
    1bbc:	000900e7          	jalr	s2
    1bc0:	00044503          	lbu	a0,0(s0)
    1bc4:	ff3516e3          	bne	a0,s3,1bb0 <vprintfmt+0x54>
    1bc8:	00c12883          	lw	a7,12(sp)
    1bcc:	00144e03          	lbu	t3,1(s0)
    1bd0:	00140c13          	addi	s8,s0,1
    1bd4:	00088313          	mv	t1,a7
    1bd8:	000c0693          	mv	a3,s8
    1bdc:	00000513          	li	a0,0
    1be0:	02000c93          	li	s9,32
    1be4:	fff00b93          	li	s7,-1
    1be8:	fff00a13          	li	s4,-1
    1bec:	00000593          	li	a1,0
    1bf0:	05500613          	li	a2,85
    1bf4:	00900813          	li	a6,9
    1bf8:	fdde0713          	addi	a4,t3,-35
    1bfc:	0ff77713          	andi	a4,a4,255
    1c00:	00168413          	addi	s0,a3,1
    1c04:	22e66063          	bltu	a2,a4,1e24 <vprintfmt+0x2c8>
    1c08:	00271713          	slli	a4,a4,0x2
    1c0c:	01570733          	add	a4,a4,s5
    1c10:	00072783          	lw	a5,0(a4)
    1c14:	015787b3          	add	a5,a5,s5
    1c18:	00078067          	jr	a5
    1c1c:	03c12083          	lw	ra,60(sp)
    1c20:	03812403          	lw	s0,56(sp)
    1c24:	03412483          	lw	s1,52(sp)
    1c28:	03012903          	lw	s2,48(sp)
    1c2c:	02c12983          	lw	s3,44(sp)
    1c30:	02812a03          	lw	s4,40(sp)
    1c34:	02412a83          	lw	s5,36(sp)
    1c38:	02012b03          	lw	s6,32(sp)
    1c3c:	01c12b83          	lw	s7,28(sp)
    1c40:	01812c03          	lw	s8,24(sp)
    1c44:	01412c83          	lw	s9,20(sp)
    1c48:	04010113          	addi	sp,sp,64
    1c4c:	00008067          	ret
    1c50:	000e0c93          	mv	s9,t3
    1c54:	0016ce03          	lbu	t3,1(a3)
    1c58:	00040693          	mv	a3,s0
    1c5c:	f9dff06f          	j	1bf8 <vprintfmt+0x9c>
    1c60:	00032b83          	lw	s7,0(t1)
    1c64:	0016ce03          	lbu	t3,1(a3)
    1c68:	00430313          	addi	t1,t1,4
    1c6c:	00040693          	mv	a3,s0
    1c70:	00100513          	li	a0,1
    1c74:	f80a52e3          	bgez	s4,1bf8 <vprintfmt+0x9c>
    1c78:	000b8a13          	mv	s4,s7
    1c7c:	fff00b93          	li	s7,-1
    1c80:	f79ff06f          	j	1bf8 <vprintfmt+0x9c>
    1c84:	fffa4793          	not	a5,s4
    1c88:	41f7d793          	srai	a5,a5,0x1f
    1c8c:	0016ce03          	lbu	t3,1(a3)
    1c90:	00fa7a33          	and	s4,s4,a5
    1c94:	00040693          	mv	a3,s0
    1c98:	f61ff06f          	j	1bf8 <vprintfmt+0x9c>
    1c9c:	1e051463          	bnez	a0,1e84 <vprintfmt+0x328>
    1ca0:	01000b93          	li	s7,16
    1ca4:	0e40006f          	j	1d88 <vprintfmt+0x22c>
    1ca8:	0016c703          	lbu	a4,1(a3)
    1cac:	fd0e0b93          	addi	s7,t3,-48
    1cb0:	00040693          	mv	a3,s0
    1cb4:	fd070793          	addi	a5,a4,-48
    1cb8:	00070e13          	mv	t3,a4
    1cbc:	faf86ce3          	bltu	a6,a5,1c74 <vprintfmt+0x118>
    1cc0:	002b9793          	slli	a5,s7,0x2
    1cc4:	01778bb3          	add	s7,a5,s7
    1cc8:	00168693          	addi	a3,a3,1
    1ccc:	001b9b93          	slli	s7,s7,0x1
    1cd0:	00eb8bb3          	add	s7,s7,a4
    1cd4:	0006c703          	lbu	a4,0(a3)
    1cd8:	fd0b8b93          	addi	s7,s7,-48
    1cdc:	fd070793          	addi	a5,a4,-48
    1ce0:	00070e13          	mv	t3,a4
    1ce4:	fcf87ee3          	bgeu	a6,a5,1cc0 <vprintfmt+0x164>
    1ce8:	f8dff06f          	j	1c74 <vprintfmt+0x118>
    1cec:	20051863          	bnez	a0,1efc <vprintfmt+0x3a0>
    1cf0:	0008a503          	lw	a0,0(a7)
    1cf4:	00048593          	mv	a1,s1
    1cf8:	00488893          	addi	a7,a7,4
    1cfc:	01112623          	sw	a7,12(sp)
    1d00:	000900e7          	jalr	s2
    1d04:	ebdff06f          	j	1bc0 <vprintfmt+0x64>
    1d08:	1e051663          	bnez	a0,1ef4 <vprintfmt+0x398>
    1d0c:	00c10513          	addi	a0,sp,12
    1d10:	b51ff0ef          	jal	ra,1860 <getint>
    1d14:	00050c13          	mv	s8,a0
    1d18:	00058b93          	mv	s7,a1
    1d1c:	1805c063          	bltz	a1,1e9c <vprintfmt+0x340>
    1d20:	00050613          	mv	a2,a0
    1d24:	00058693          	mv	a3,a1
    1d28:	00a00b93          	li	s7,10
    1d2c:	000c8813          	mv	a6,s9
    1d30:	000a0793          	mv	a5,s4
    1d34:	000b8713          	mv	a4,s7
    1d38:	00048593          	mv	a1,s1
    1d3c:	00090513          	mv	a0,s2
    1d40:	985ff0ef          	jal	ra,16c4 <printnum>
    1d44:	e7dff06f          	j	1bc0 <vprintfmt+0x64>
    1d48:	0016ce03          	lbu	t3,1(a3)
    1d4c:	00158593          	addi	a1,a1,1
    1d50:	00040693          	mv	a3,s0
    1d54:	ea5ff06f          	j	1bf8 <vprintfmt+0x9c>
    1d58:	12051c63          	bnez	a0,1e90 <vprintfmt+0x334>
    1d5c:	00800b93          	li	s7,8
    1d60:	0280006f          	j	1d88 <vprintfmt+0x22c>
    1d64:	16051c63          	bnez	a0,1edc <vprintfmt+0x380>
    1d68:	03000513          	li	a0,48
    1d6c:	00048593          	mv	a1,s1
    1d70:	000900e7          	jalr	s2
    1d74:	00048593          	mv	a1,s1
    1d78:	07800513          	li	a0,120
    1d7c:	000900e7          	jalr	s2
    1d80:	01000b93          	li	s7,16
    1d84:	00100593          	li	a1,1
    1d88:	00c10513          	addi	a0,sp,12
    1d8c:	a95ff0ef          	jal	ra,1820 <getuint>
    1d90:	00050613          	mv	a2,a0
    1d94:	00058693          	mv	a3,a1
    1d98:	f95ff06f          	j	1d2c <vprintfmt+0x1d0>
    1d9c:	0c051e63          	bnez	a0,1e78 <vprintfmt+0x31c>
    1da0:	00a00b93          	li	s7,10
    1da4:	fe5ff06f          	j	1d88 <vprintfmt+0x22c>
    1da8:	14051263          	bnez	a0,1eec <vprintfmt+0x390>
    1dac:	00048593          	mv	a1,s1
    1db0:	02500513          	li	a0,37
    1db4:	000900e7          	jalr	s2
    1db8:	e09ff06f          	j	1bc0 <vprintfmt+0x64>
    1dbc:	12051463          	bnez	a0,1ee4 <vprintfmt+0x388>
    1dc0:	00488793          	addi	a5,a7,4
    1dc4:	00f12623          	sw	a5,12(sp)
    1dc8:	0008ac03          	lw	s8,0(a7)
    1dcc:	0e0c0a63          	beqz	s8,1ec0 <vprintfmt+0x364>
    1dd0:	09405e63          	blez	s4,1e6c <vprintfmt+0x310>
    1dd4:	02d00793          	li	a5,45
    1dd8:	06fc9663          	bne	s9,a5,1e44 <vprintfmt+0x2e8>
    1ddc:	000c4503          	lbu	a0,0(s8)
    1de0:	02050663          	beqz	a0,1e0c <vprintfmt+0x2b0>
    1de4:	000bc663          	bltz	s7,1df0 <vprintfmt+0x294>
    1de8:	fffb8b93          	addi	s7,s7,-1
    1dec:	016b8e63          	beq	s7,s6,1e08 <vprintfmt+0x2ac>
    1df0:	00048593          	mv	a1,s1
    1df4:	001c0c13          	addi	s8,s8,1
    1df8:	000900e7          	jalr	s2
    1dfc:	000c4503          	lbu	a0,0(s8)
    1e00:	fffa0a13          	addi	s4,s4,-1
    1e04:	fe0510e3          	bnez	a0,1de4 <vprintfmt+0x288>
    1e08:	db405ce3          	blez	s4,1bc0 <vprintfmt+0x64>
    1e0c:	fffa0a13          	addi	s4,s4,-1
    1e10:	00048593          	mv	a1,s1
    1e14:	02000513          	li	a0,32
    1e18:	000900e7          	jalr	s2
    1e1c:	fe0a18e3          	bnez	s4,1e0c <vprintfmt+0x2b0>
    1e20:	da1ff06f          	j	1bc0 <vprintfmt+0x64>
    1e24:	0e051063          	bnez	a0,1f04 <vprintfmt+0x3a8>
    1e28:	00048593          	mv	a1,s1
    1e2c:	02500513          	li	a0,37
    1e30:	000900e7          	jalr	s2
    1e34:	000c0413          	mv	s0,s8
    1e38:	d89ff06f          	j	1bc0 <vprintfmt+0x64>
    1e3c:	00002c17          	auipc	s8,0x2
    1e40:	744c0c13          	addi	s8,s8,1860 # 4580 <main+0xdac>
    1e44:	000b8593          	mv	a1,s7
    1e48:	000c0513          	mv	a0,s8
    1e4c:	ccdff0ef          	jal	ra,1b18 <strnlen>
    1e50:	40aa0a33          	sub	s4,s4,a0
    1e54:	01405c63          	blez	s4,1e6c <vprintfmt+0x310>
    1e58:	fffa0a13          	addi	s4,s4,-1
    1e5c:	00048593          	mv	a1,s1
    1e60:	000c8513          	mv	a0,s9
    1e64:	000900e7          	jalr	s2
    1e68:	fe0a18e3          	bnez	s4,1e58 <vprintfmt+0x2fc>
    1e6c:	000c4503          	lbu	a0,0(s8)
    1e70:	f6051ae3          	bnez	a0,1de4 <vprintfmt+0x288>
    1e74:	d4dff06f          	j	1bc0 <vprintfmt+0x64>
    1e78:	00612623          	sw	t1,12(sp)
    1e7c:	00a00b93          	li	s7,10
    1e80:	f09ff06f          	j	1d88 <vprintfmt+0x22c>
    1e84:	00612623          	sw	t1,12(sp)
    1e88:	01000b93          	li	s7,16
    1e8c:	efdff06f          	j	1d88 <vprintfmt+0x22c>
    1e90:	00612623          	sw	t1,12(sp)
    1e94:	00800b93          	li	s7,8
    1e98:	ef1ff06f          	j	1d88 <vprintfmt+0x22c>
    1e9c:	00048593          	mv	a1,s1
    1ea0:	02d00513          	li	a0,45
    1ea4:	000900e7          	jalr	s2
    1ea8:	41800633          	neg	a2,s8
    1eac:	417006b3          	neg	a3,s7
    1eb0:	00c037b3          	snez	a5,a2
    1eb4:	40f686b3          	sub	a3,a3,a5
    1eb8:	00a00b93          	li	s7,10
    1ebc:	e71ff06f          	j	1d2c <vprintfmt+0x1d0>
    1ec0:	01405663          	blez	s4,1ecc <vprintfmt+0x370>
    1ec4:	02d00793          	li	a5,45
    1ec8:	f6fc9ae3          	bne	s9,a5,1e3c <vprintfmt+0x2e0>
    1ecc:	00002c17          	auipc	s8,0x2
    1ed0:	6b4c0c13          	addi	s8,s8,1716 # 4580 <main+0xdac>
    1ed4:	02800513          	li	a0,40
    1ed8:	f0dff06f          	j	1de4 <vprintfmt+0x288>
    1edc:	00612623          	sw	t1,12(sp)
    1ee0:	e89ff06f          	j	1d68 <vprintfmt+0x20c>
    1ee4:	00030893          	mv	a7,t1
    1ee8:	ed9ff06f          	j	1dc0 <vprintfmt+0x264>
    1eec:	00612623          	sw	t1,12(sp)
    1ef0:	ebdff06f          	j	1dac <vprintfmt+0x250>
    1ef4:	00612623          	sw	t1,12(sp)
    1ef8:	e15ff06f          	j	1d0c <vprintfmt+0x1b0>
    1efc:	00030893          	mv	a7,t1
    1f00:	df1ff06f          	j	1cf0 <vprintfmt+0x194>
    1f04:	00612623          	sw	t1,12(sp)
    1f08:	f21ff06f          	j	1e28 <vprintfmt+0x2cc>

00001f0c <printf>:
    1f0c:	fc010113          	addi	sp,sp,-64
    1f10:	02410313          	addi	t1,sp,36
    1f14:	02b12223          	sw	a1,36(sp)
    1f18:	02c12423          	sw	a2,40(sp)
    1f1c:	02d12623          	sw	a3,44(sp)
    1f20:	00050613          	mv	a2,a0
    1f24:	00030693          	mv	a3,t1
    1f28:	fffff517          	auipc	a0,0xfffff
    1f2c:	76c50513          	addi	a0,a0,1900 # 1694 <putchar>
    1f30:	00000593          	li	a1,0
    1f34:	00112e23          	sw	ra,28(sp)
    1f38:	02e12823          	sw	a4,48(sp)
    1f3c:	02f12a23          	sw	a5,52(sp)
    1f40:	03012c23          	sw	a6,56(sp)
    1f44:	03112e23          	sw	a7,60(sp)
    1f48:	00612623          	sw	t1,12(sp)
    1f4c:	c11ff0ef          	jal	ra,1b5c <vprintfmt>
    1f50:	01c12083          	lw	ra,28(sp)
    1f54:	00000513          	li	a0,0
    1f58:	04010113          	addi	sp,sp,64
    1f5c:	00008067          	ret

00001f60 <sprintf>:
    1f60:	fb010113          	addi	sp,sp,-80
    1f64:	03810313          	addi	t1,sp,56
    1f68:	02812423          	sw	s0,40(sp)
    1f6c:	00a12623          	sw	a0,12(sp)
    1f70:	02c12c23          	sw	a2,56(sp)
    1f74:	02d12e23          	sw	a3,60(sp)
    1f78:	00050413          	mv	s0,a0
    1f7c:	00058613          	mv	a2,a1
    1f80:	00000517          	auipc	a0,0x0
    1f84:	92050513          	addi	a0,a0,-1760 # 18a0 <sprintf_putch.3091>
    1f88:	00c10593          	addi	a1,sp,12
    1f8c:	00030693          	mv	a3,t1
    1f90:	02112623          	sw	ra,44(sp)
    1f94:	04f12223          	sw	a5,68(sp)
    1f98:	04e12023          	sw	a4,64(sp)
    1f9c:	05012423          	sw	a6,72(sp)
    1fa0:	05112623          	sw	a7,76(sp)
    1fa4:	00612e23          	sw	t1,28(sp)
    1fa8:	bb5ff0ef          	jal	ra,1b5c <vprintfmt>
    1fac:	00c12783          	lw	a5,12(sp)
    1fb0:	00078023          	sb	zero,0(a5)
    1fb4:	00c12503          	lw	a0,12(sp)
    1fb8:	02c12083          	lw	ra,44(sp)
    1fbc:	40850533          	sub	a0,a0,s0
    1fc0:	02812403          	lw	s0,40(sp)
    1fc4:	05010113          	addi	sp,sp,80
    1fc8:	00008067          	ret

00001fcc <_init>:
    1fcc:	ff010113          	addi	sp,sp,-16
    1fd0:	00112623          	sw	ra,12(sp)
    1fd4:	00812423          	sw	s0,8(sp)
    1fd8:	00912223          	sw	s1,4(sp)
    1fdc:	00050413          	mv	s0,a0
    1fe0:	00058493          	mv	s1,a1
    1fe4:	aadff0ef          	jal	ra,1a90 <init_tls>
    1fe8:	00048593          	mv	a1,s1
    1fec:	00040513          	mv	a0,s0
    1ff0:	91dff0ef          	jal	ra,190c <thread_entry>
    1ff4:	00000593          	li	a1,0
    1ff8:	00000513          	li	a0,0
    1ffc:	7d8010ef          	jal	ra,37d4 <main>
    2000:	8edff0ef          	jal	ra,18ec <exit>

00002004 <strcmp>:
    2004:	00150513          	addi	a0,a0,1
    2008:	fff54783          	lbu	a5,-1(a0)
    200c:	00158593          	addi	a1,a1,1
    2010:	fff5c703          	lbu	a4,-1(a1)
    2014:	00078863          	beqz	a5,2024 <strcmp+0x20>
    2018:	fee786e3          	beq	a5,a4,2004 <strcmp>
    201c:	40e78533          	sub	a0,a5,a4
    2020:	00008067          	ret
    2024:	00000793          	li	a5,0
    2028:	ff5ff06f          	j	201c <strcmp+0x18>

0000202c <strcpy>:
    202c:	00050793          	mv	a5,a0
    2030:	00158593          	addi	a1,a1,1
    2034:	fff5c703          	lbu	a4,-1(a1)
    2038:	00178793          	addi	a5,a5,1
    203c:	fee78fa3          	sb	a4,-1(a5)
    2040:	fe0718e3          	bnez	a4,2030 <strcpy+0x4>
    2044:	00008067          	ret

00002048 <atol>:
    2048:	00054683          	lbu	a3,0(a0)
    204c:	02000793          	li	a5,32
    2050:	00f69863          	bne	a3,a5,2060 <atol+0x18>
    2054:	00150513          	addi	a0,a0,1
    2058:	00054683          	lbu	a3,0(a0)
    205c:	fef68ce3          	beq	a3,a5,2054 <atol+0xc>
    2060:	fd568793          	addi	a5,a3,-43
    2064:	0fd7f793          	andi	a5,a5,253
    2068:	04078063          	beqz	a5,20a8 <atol+0x60>
    206c:	00050793          	mv	a5,a0
    2070:	00000593          	li	a1,0
    2074:	04068863          	beqz	a3,20c4 <atol+0x7c>
    2078:	00000513          	li	a0,0
    207c:	00178793          	addi	a5,a5,1
    2080:	fd068613          	addi	a2,a3,-48
    2084:	00251713          	slli	a4,a0,0x2
    2088:	0007c683          	lbu	a3,0(a5)
    208c:	00a70533          	add	a0,a4,a0
    2090:	00151513          	slli	a0,a0,0x1
    2094:	00a60533          	add	a0,a2,a0
    2098:	fe0692e3          	bnez	a3,207c <atol+0x34>
    209c:	00058463          	beqz	a1,20a4 <atol+0x5c>
    20a0:	40a00533          	neg	a0,a0
    20a4:	00008067          	ret
    20a8:	fd368593          	addi	a1,a3,-45
    20ac:	00154683          	lbu	a3,1(a0)
    20b0:	0015b593          	seqz	a1,a1
    20b4:	00150793          	addi	a5,a0,1
    20b8:	fc0690e3          	bnez	a3,2078 <atol+0x30>
    20bc:	00000513          	li	a0,0
    20c0:	fddff06f          	j	209c <atol+0x54>
    20c4:	00000513          	li	a0,0
    20c8:	00008067          	ret

000020cc <__divdi3>:
    20cc:	fd010113          	addi	sp,sp,-48
    20d0:	02812423          	sw	s0,40(sp)
    20d4:	03212023          	sw	s2,32(sp)
    20d8:	01612823          	sw	s6,16(sp)
    20dc:	02112623          	sw	ra,44(sp)
    20e0:	02912223          	sw	s1,36(sp)
    20e4:	01312e23          	sw	s3,28(sp)
    20e8:	01412c23          	sw	s4,24(sp)
    20ec:	01512a23          	sw	s5,20(sp)
    20f0:	01712623          	sw	s7,12(sp)
    20f4:	01812423          	sw	s8,8(sp)
    20f8:	01912223          	sw	s9,4(sp)
    20fc:	01a12023          	sw	s10,0(sp)
    2100:	00050b13          	mv	s6,a0
    2104:	00058413          	mv	s0,a1
    2108:	00000913          	li	s2,0
    210c:	0005dc63          	bgez	a1,2124 <__divdi3+0x58>
    2110:	40a00b33          	neg	s6,a0
    2114:	016037b3          	snez	a5,s6
    2118:	40b00433          	neg	s0,a1
    211c:	40f40433          	sub	s0,s0,a5
    2120:	fff00913          	li	s2,-1
    2124:	0006dc63          	bgez	a3,213c <__divdi3+0x70>
    2128:	40c00633          	neg	a2,a2
    212c:	00c037b3          	snez	a5,a2
    2130:	40d006b3          	neg	a3,a3
    2134:	fff94913          	not	s2,s2
    2138:	40f686b3          	sub	a3,a3,a5
    213c:	00060993          	mv	s3,a2
    2140:	00068a13          	mv	s4,a3
    2144:	000b0b93          	mv	s7,s6
    2148:	00040a93          	mv	s5,s0
    214c:	3a069063          	bnez	a3,24ec <__divdi3+0x420>
    2150:	000044b7          	lui	s1,0x4
    2154:	6e048493          	addi	s1,s1,1760 # 46e0 <__clz_tab>
    2158:	12c47663          	bgeu	s0,a2,2284 <__divdi3+0x1b8>
    215c:	000107b7          	lui	a5,0x10
    2160:	10f67863          	bgeu	a2,a5,2270 <__divdi3+0x1a4>
    2164:	0ff00713          	li	a4,255
    2168:	00c73733          	sltu	a4,a4,a2
    216c:	00371713          	slli	a4,a4,0x3
    2170:	00e657b3          	srl	a5,a2,a4
    2174:	00f484b3          	add	s1,s1,a5
    2178:	0004c783          	lbu	a5,0(s1)
    217c:	00e78733          	add	a4,a5,a4
    2180:	02000793          	li	a5,32
    2184:	40e787b3          	sub	a5,a5,a4
    2188:	00078c63          	beqz	a5,21a0 <__divdi3+0xd4>
    218c:	00f41433          	sll	s0,s0,a5
    2190:	00eb5733          	srl	a4,s6,a4
    2194:	00f619b3          	sll	s3,a2,a5
    2198:	00876ab3          	or	s5,a4,s0
    219c:	00fb1bb3          	sll	s7,s6,a5
    21a0:	0109db13          	srli	s6,s3,0x10
    21a4:	000b0593          	mv	a1,s6
    21a8:	000a8513          	mv	a0,s5
    21ac:	5c4010ef          	jal	ra,3770 <__umodsi3>
    21b0:	00050493          	mv	s1,a0
    21b4:	000b0593          	mv	a1,s6
    21b8:	01099c13          	slli	s8,s3,0x10
    21bc:	000a8513          	mv	a0,s5
    21c0:	568010ef          	jal	ra,3728 <__udivsi3>
    21c4:	010c5c13          	srli	s8,s8,0x10
    21c8:	00050413          	mv	s0,a0
    21cc:	00050593          	mv	a1,a0
    21d0:	000c0513          	mv	a0,s8
    21d4:	528010ef          	jal	ra,36fc <__mulsi3>
    21d8:	01049493          	slli	s1,s1,0x10
    21dc:	010bd713          	srli	a4,s7,0x10
    21e0:	00e4e733          	or	a4,s1,a4
    21e4:	00040a13          	mv	s4,s0
    21e8:	00a77e63          	bgeu	a4,a0,2204 <__divdi3+0x138>
    21ec:	01370733          	add	a4,a4,s3
    21f0:	fff40a13          	addi	s4,s0,-1
    21f4:	01376863          	bltu	a4,s3,2204 <__divdi3+0x138>
    21f8:	00a77663          	bgeu	a4,a0,2204 <__divdi3+0x138>
    21fc:	ffe40a13          	addi	s4,s0,-2
    2200:	01370733          	add	a4,a4,s3
    2204:	40a70433          	sub	s0,a4,a0
    2208:	000b0593          	mv	a1,s6
    220c:	00040513          	mv	a0,s0
    2210:	560010ef          	jal	ra,3770 <__umodsi3>
    2214:	00050493          	mv	s1,a0
    2218:	000b0593          	mv	a1,s6
    221c:	00040513          	mv	a0,s0
    2220:	508010ef          	jal	ra,3728 <__udivsi3>
    2224:	010b9b93          	slli	s7,s7,0x10
    2228:	00050413          	mv	s0,a0
    222c:	00050593          	mv	a1,a0
    2230:	01049493          	slli	s1,s1,0x10
    2234:	000c0513          	mv	a0,s8
    2238:	010bdb93          	srli	s7,s7,0x10
    223c:	4c0010ef          	jal	ra,36fc <__mulsi3>
    2240:	0174ebb3          	or	s7,s1,s7
    2244:	00040613          	mv	a2,s0
    2248:	00abfc63          	bgeu	s7,a0,2260 <__divdi3+0x194>
    224c:	01798bb3          	add	s7,s3,s7
    2250:	fff40613          	addi	a2,s0,-1
    2254:	013be663          	bltu	s7,s3,2260 <__divdi3+0x194>
    2258:	00abf463          	bgeu	s7,a0,2260 <__divdi3+0x194>
    225c:	ffe40613          	addi	a2,s0,-2
    2260:	010a1793          	slli	a5,s4,0x10
    2264:	00c7e7b3          	or	a5,a5,a2
    2268:	00000a13          	li	s4,0
    226c:	12c0006f          	j	2398 <__divdi3+0x2cc>
    2270:	010007b7          	lui	a5,0x1000
    2274:	01000713          	li	a4,16
    2278:	eef66ce3          	bltu	a2,a5,2170 <__divdi3+0xa4>
    227c:	01800713          	li	a4,24
    2280:	ef1ff06f          	j	2170 <__divdi3+0xa4>
    2284:	00061a63          	bnez	a2,2298 <__divdi3+0x1cc>
    2288:	00000593          	li	a1,0
    228c:	00100513          	li	a0,1
    2290:	498010ef          	jal	ra,3728 <__udivsi3>
    2294:	00050993          	mv	s3,a0
    2298:	000107b7          	lui	a5,0x10
    229c:	14f9f863          	bgeu	s3,a5,23ec <__divdi3+0x320>
    22a0:	0ff00793          	li	a5,255
    22a4:	0137f463          	bgeu	a5,s3,22ac <__divdi3+0x1e0>
    22a8:	00800a13          	li	s4,8
    22ac:	0149d7b3          	srl	a5,s3,s4
    22b0:	00f484b3          	add	s1,s1,a5
    22b4:	0004c783          	lbu	a5,0(s1)
    22b8:	02000713          	li	a4,32
    22bc:	014787b3          	add	a5,a5,s4
    22c0:	40f70733          	sub	a4,a4,a5
    22c4:	12071e63          	bnez	a4,2400 <__divdi3+0x334>
    22c8:	41340433          	sub	s0,s0,s3
    22cc:	00100a13          	li	s4,1
    22d0:	0109da93          	srli	s5,s3,0x10
    22d4:	000a8593          	mv	a1,s5
    22d8:	00040513          	mv	a0,s0
    22dc:	494010ef          	jal	ra,3770 <__umodsi3>
    22e0:	00050493          	mv	s1,a0
    22e4:	000a8593          	mv	a1,s5
    22e8:	00040513          	mv	a0,s0
    22ec:	01099b13          	slli	s6,s3,0x10
    22f0:	438010ef          	jal	ra,3728 <__udivsi3>
    22f4:	010b5b13          	srli	s6,s6,0x10
    22f8:	00050413          	mv	s0,a0
    22fc:	00050593          	mv	a1,a0
    2300:	000b0513          	mv	a0,s6
    2304:	3f8010ef          	jal	ra,36fc <__mulsi3>
    2308:	01049493          	slli	s1,s1,0x10
    230c:	010bd713          	srli	a4,s7,0x10
    2310:	00e4e733          	or	a4,s1,a4
    2314:	00040c13          	mv	s8,s0
    2318:	00a77e63          	bgeu	a4,a0,2334 <__divdi3+0x268>
    231c:	01370733          	add	a4,a4,s3
    2320:	fff40c13          	addi	s8,s0,-1
    2324:	01376863          	bltu	a4,s3,2334 <__divdi3+0x268>
    2328:	00a77663          	bgeu	a4,a0,2334 <__divdi3+0x268>
    232c:	ffe40c13          	addi	s8,s0,-2
    2330:	01370733          	add	a4,a4,s3
    2334:	40a70433          	sub	s0,a4,a0
    2338:	000a8593          	mv	a1,s5
    233c:	00040513          	mv	a0,s0
    2340:	430010ef          	jal	ra,3770 <__umodsi3>
    2344:	00050493          	mv	s1,a0
    2348:	000a8593          	mv	a1,s5
    234c:	00040513          	mv	a0,s0
    2350:	3d8010ef          	jal	ra,3728 <__udivsi3>
    2354:	010b9b93          	slli	s7,s7,0x10
    2358:	00050413          	mv	s0,a0
    235c:	00050593          	mv	a1,a0
    2360:	01049493          	slli	s1,s1,0x10
    2364:	000b0513          	mv	a0,s6
    2368:	010bdb93          	srli	s7,s7,0x10
    236c:	390010ef          	jal	ra,36fc <__mulsi3>
    2370:	0174ebb3          	or	s7,s1,s7
    2374:	00040613          	mv	a2,s0
    2378:	00abfc63          	bgeu	s7,a0,2390 <__divdi3+0x2c4>
    237c:	01798bb3          	add	s7,s3,s7
    2380:	fff40613          	addi	a2,s0,-1
    2384:	013be663          	bltu	s7,s3,2390 <__divdi3+0x2c4>
    2388:	00abf463          	bgeu	s7,a0,2390 <__divdi3+0x2c4>
    238c:	ffe40613          	addi	a2,s0,-2
    2390:	010c1793          	slli	a5,s8,0x10
    2394:	00c7e7b3          	or	a5,a5,a2
    2398:	000a0593          	mv	a1,s4
    239c:	00090a63          	beqz	s2,23b0 <__divdi3+0x2e4>
    23a0:	40f007b3          	neg	a5,a5
    23a4:	00f03733          	snez	a4,a5
    23a8:	414005b3          	neg	a1,s4
    23ac:	40e585b3          	sub	a1,a1,a4
    23b0:	00078513          	mv	a0,a5
    23b4:	02c12083          	lw	ra,44(sp)
    23b8:	02812403          	lw	s0,40(sp)
    23bc:	02412483          	lw	s1,36(sp)
    23c0:	02012903          	lw	s2,32(sp)
    23c4:	01c12983          	lw	s3,28(sp)
    23c8:	01812a03          	lw	s4,24(sp)
    23cc:	01412a83          	lw	s5,20(sp)
    23d0:	01012b03          	lw	s6,16(sp)
    23d4:	00c12b83          	lw	s7,12(sp)
    23d8:	00812c03          	lw	s8,8(sp)
    23dc:	00412c83          	lw	s9,4(sp)
    23e0:	00012d03          	lw	s10,0(sp)
    23e4:	03010113          	addi	sp,sp,48
    23e8:	00008067          	ret
    23ec:	010007b7          	lui	a5,0x1000
    23f0:	01000a13          	li	s4,16
    23f4:	eaf9ece3          	bltu	s3,a5,22ac <__divdi3+0x1e0>
    23f8:	01800a13          	li	s4,24
    23fc:	eb1ff06f          	j	22ac <__divdi3+0x1e0>
    2400:	00e999b3          	sll	s3,s3,a4
    2404:	00f45a33          	srl	s4,s0,a5
    2408:	00fb57b3          	srl	a5,s6,a5
    240c:	00e41433          	sll	s0,s0,a4
    2410:	0087ec33          	or	s8,a5,s0
    2414:	0109d413          	srli	s0,s3,0x10
    2418:	00040593          	mv	a1,s0
    241c:	000a0513          	mv	a0,s4
    2420:	00eb1bb3          	sll	s7,s6,a4
    2424:	34c010ef          	jal	ra,3770 <__umodsi3>
    2428:	00050493          	mv	s1,a0
    242c:	00040593          	mv	a1,s0
    2430:	000a0513          	mv	a0,s4
    2434:	01099b13          	slli	s6,s3,0x10
    2438:	2f0010ef          	jal	ra,3728 <__udivsi3>
    243c:	010b5b13          	srli	s6,s6,0x10
    2440:	00050a93          	mv	s5,a0
    2444:	00050593          	mv	a1,a0
    2448:	000b0513          	mv	a0,s6
    244c:	2b0010ef          	jal	ra,36fc <__mulsi3>
    2450:	01049493          	slli	s1,s1,0x10
    2454:	010c5793          	srli	a5,s8,0x10
    2458:	00f4e7b3          	or	a5,s1,a5
    245c:	000a8a13          	mv	s4,s5
    2460:	00a7fe63          	bgeu	a5,a0,247c <__divdi3+0x3b0>
    2464:	013787b3          	add	a5,a5,s3
    2468:	fffa8a13          	addi	s4,s5,-1
    246c:	0137e863          	bltu	a5,s3,247c <__divdi3+0x3b0>
    2470:	00a7f663          	bgeu	a5,a0,247c <__divdi3+0x3b0>
    2474:	ffea8a13          	addi	s4,s5,-2
    2478:	013787b3          	add	a5,a5,s3
    247c:	40a78ab3          	sub	s5,a5,a0
    2480:	00040593          	mv	a1,s0
    2484:	000a8513          	mv	a0,s5
    2488:	2e8010ef          	jal	ra,3770 <__umodsi3>
    248c:	00040593          	mv	a1,s0
    2490:	00050493          	mv	s1,a0
    2494:	000a8513          	mv	a0,s5
    2498:	290010ef          	jal	ra,3728 <__udivsi3>
    249c:	00050593          	mv	a1,a0
    24a0:	00050a93          	mv	s5,a0
    24a4:	000b0513          	mv	a0,s6
    24a8:	254010ef          	jal	ra,36fc <__mulsi3>
    24ac:	010c1793          	slli	a5,s8,0x10
    24b0:	01049493          	slli	s1,s1,0x10
    24b4:	0107d793          	srli	a5,a5,0x10
    24b8:	00f4e433          	or	s0,s1,a5
    24bc:	000a8593          	mv	a1,s5
    24c0:	00a47e63          	bgeu	s0,a0,24dc <__divdi3+0x410>
    24c4:	01340433          	add	s0,s0,s3
    24c8:	fffa8593          	addi	a1,s5,-1
    24cc:	01346863          	bltu	s0,s3,24dc <__divdi3+0x410>
    24d0:	00a47663          	bgeu	s0,a0,24dc <__divdi3+0x410>
    24d4:	ffea8593          	addi	a1,s5,-2
    24d8:	01340433          	add	s0,s0,s3
    24dc:	010a1a13          	slli	s4,s4,0x10
    24e0:	40a40433          	sub	s0,s0,a0
    24e4:	00ba6a33          	or	s4,s4,a1
    24e8:	de9ff06f          	j	22d0 <__divdi3+0x204>
    24ec:	1ed46c63          	bltu	s0,a3,26e4 <__divdi3+0x618>
    24f0:	000107b7          	lui	a5,0x10
    24f4:	04f6f463          	bgeu	a3,a5,253c <__divdi3+0x470>
    24f8:	0ff00713          	li	a4,255
    24fc:	00d735b3          	sltu	a1,a4,a3
    2500:	00359593          	slli	a1,a1,0x3
    2504:	00004737          	lui	a4,0x4
    2508:	00b6d7b3          	srl	a5,a3,a1
    250c:	6e070713          	addi	a4,a4,1760 # 46e0 <__clz_tab>
    2510:	00e787b3          	add	a5,a5,a4
    2514:	0007c703          	lbu	a4,0(a5) # 10000 <_end+0x8ec0>
    2518:	00b70733          	add	a4,a4,a1
    251c:	02000593          	li	a1,32
    2520:	40e58a33          	sub	s4,a1,a4
    2524:	020a1663          	bnez	s4,2550 <__divdi3+0x484>
    2528:	00100793          	li	a5,1
    252c:	e686e6e3          	bltu	a3,s0,2398 <__divdi3+0x2cc>
    2530:	00cb37b3          	sltu	a5,s6,a2
    2534:	0017c793          	xori	a5,a5,1
    2538:	e61ff06f          	j	2398 <__divdi3+0x2cc>
    253c:	010007b7          	lui	a5,0x1000
    2540:	01000593          	li	a1,16
    2544:	fcf6e0e3          	bltu	a3,a5,2504 <__divdi3+0x438>
    2548:	01800593          	li	a1,24
    254c:	fb9ff06f          	j	2504 <__divdi3+0x438>
    2550:	00e65cb3          	srl	s9,a2,a4
    2554:	014696b3          	sll	a3,a3,s4
    2558:	00dcecb3          	or	s9,s9,a3
    255c:	00e454b3          	srl	s1,s0,a4
    2560:	010cdb93          	srli	s7,s9,0x10
    2564:	00eb5733          	srl	a4,s6,a4
    2568:	000b8593          	mv	a1,s7
    256c:	00048513          	mv	a0,s1
    2570:	01441433          	sll	s0,s0,s4
    2574:	00876433          	or	s0,a4,s0
    2578:	01461ab3          	sll	s5,a2,s4
    257c:	1f4010ef          	jal	ra,3770 <__umodsi3>
    2580:	00050993          	mv	s3,a0
    2584:	000b8593          	mv	a1,s7
    2588:	00048513          	mv	a0,s1
    258c:	010c9c13          	slli	s8,s9,0x10
    2590:	198010ef          	jal	ra,3728 <__udivsi3>
    2594:	010c5c13          	srli	s8,s8,0x10
    2598:	00050493          	mv	s1,a0
    259c:	00050593          	mv	a1,a0
    25a0:	000c0513          	mv	a0,s8
    25a4:	158010ef          	jal	ra,36fc <__mulsi3>
    25a8:	01099993          	slli	s3,s3,0x10
    25ac:	01045713          	srli	a4,s0,0x10
    25b0:	00e9e733          	or	a4,s3,a4
    25b4:	00048d13          	mv	s10,s1
    25b8:	00a77e63          	bgeu	a4,a0,25d4 <__divdi3+0x508>
    25bc:	01970733          	add	a4,a4,s9
    25c0:	fff48d13          	addi	s10,s1,-1
    25c4:	01976863          	bltu	a4,s9,25d4 <__divdi3+0x508>
    25c8:	00a77663          	bgeu	a4,a0,25d4 <__divdi3+0x508>
    25cc:	ffe48d13          	addi	s10,s1,-2
    25d0:	01970733          	add	a4,a4,s9
    25d4:	40a704b3          	sub	s1,a4,a0
    25d8:	000b8593          	mv	a1,s7
    25dc:	00048513          	mv	a0,s1
    25e0:	190010ef          	jal	ra,3770 <__umodsi3>
    25e4:	00050993          	mv	s3,a0
    25e8:	000b8593          	mv	a1,s7
    25ec:	00048513          	mv	a0,s1
    25f0:	138010ef          	jal	ra,3728 <__udivsi3>
    25f4:	01041413          	slli	s0,s0,0x10
    25f8:	00050493          	mv	s1,a0
    25fc:	00050593          	mv	a1,a0
    2600:	01099993          	slli	s3,s3,0x10
    2604:	000c0513          	mv	a0,s8
    2608:	01045413          	srli	s0,s0,0x10
    260c:	0f0010ef          	jal	ra,36fc <__mulsi3>
    2610:	0089e433          	or	s0,s3,s0
    2614:	00048613          	mv	a2,s1
    2618:	00a47e63          	bgeu	s0,a0,2634 <__divdi3+0x568>
    261c:	01940433          	add	s0,s0,s9
    2620:	fff48613          	addi	a2,s1,-1
    2624:	01946863          	bltu	s0,s9,2634 <__divdi3+0x568>
    2628:	00a47663          	bgeu	s0,a0,2634 <__divdi3+0x568>
    262c:	ffe48613          	addi	a2,s1,-2
    2630:	01940433          	add	s0,s0,s9
    2634:	010d1793          	slli	a5,s10,0x10
    2638:	00010337          	lui	t1,0x10
    263c:	00c7e7b3          	or	a5,a5,a2
    2640:	fff30813          	addi	a6,t1,-1 # ffff <_end+0x8ebf>
    2644:	0107f733          	and	a4,a5,a6
    2648:	010af833          	and	a6,s5,a6
    264c:	40a40433          	sub	s0,s0,a0
    2650:	0107de13          	srli	t3,a5,0x10
    2654:	010ada93          	srli	s5,s5,0x10
    2658:	00070513          	mv	a0,a4
    265c:	00080593          	mv	a1,a6
    2660:	09c010ef          	jal	ra,36fc <__mulsi3>
    2664:	00050893          	mv	a7,a0
    2668:	000a8593          	mv	a1,s5
    266c:	00070513          	mv	a0,a4
    2670:	08c010ef          	jal	ra,36fc <__mulsi3>
    2674:	00050713          	mv	a4,a0
    2678:	00080593          	mv	a1,a6
    267c:	000e0513          	mv	a0,t3
    2680:	07c010ef          	jal	ra,36fc <__mulsi3>
    2684:	00050813          	mv	a6,a0
    2688:	000a8593          	mv	a1,s5
    268c:	000e0513          	mv	a0,t3
    2690:	06c010ef          	jal	ra,36fc <__mulsi3>
    2694:	01070733          	add	a4,a4,a6
    2698:	0108d693          	srli	a3,a7,0x10
    269c:	00d70733          	add	a4,a4,a3
    26a0:	01077463          	bgeu	a4,a6,26a8 <__divdi3+0x5dc>
    26a4:	00650533          	add	a0,a0,t1
    26a8:	01075693          	srli	a3,a4,0x10
    26ac:	00a68533          	add	a0,a3,a0
    26b0:	02a46663          	bltu	s0,a0,26dc <__divdi3+0x610>
    26b4:	baa41ae3          	bne	s0,a0,2268 <__divdi3+0x19c>
    26b8:	000106b7          	lui	a3,0x10
    26bc:	fff68693          	addi	a3,a3,-1 # ffff <_end+0x8ebf>
    26c0:	00d77733          	and	a4,a4,a3
    26c4:	01071713          	slli	a4,a4,0x10
    26c8:	00d8f8b3          	and	a7,a7,a3
    26cc:	014b1b33          	sll	s6,s6,s4
    26d0:	01170733          	add	a4,a4,a7
    26d4:	00000a13          	li	s4,0
    26d8:	cceb70e3          	bgeu	s6,a4,2398 <__divdi3+0x2cc>
    26dc:	fff78793          	addi	a5,a5,-1 # ffffff <_end+0xff8ebf>
    26e0:	b89ff06f          	j	2268 <__divdi3+0x19c>
    26e4:	00000a13          	li	s4,0
    26e8:	00000793          	li	a5,0
    26ec:	cadff06f          	j	2398 <__divdi3+0x2cc>

000026f0 <__moddi3>:
    26f0:	fc010113          	addi	sp,sp,-64
    26f4:	02912a23          	sw	s1,52(sp)
    26f8:	03612023          	sw	s6,32(sp)
    26fc:	01812c23          	sw	s8,24(sp)
    2700:	02112e23          	sw	ra,60(sp)
    2704:	02812c23          	sw	s0,56(sp)
    2708:	03212823          	sw	s2,48(sp)
    270c:	03312623          	sw	s3,44(sp)
    2710:	03412423          	sw	s4,40(sp)
    2714:	03512223          	sw	s5,36(sp)
    2718:	01712e23          	sw	s7,28(sp)
    271c:	01912a23          	sw	s9,20(sp)
    2720:	01a12823          	sw	s10,16(sp)
    2724:	01b12623          	sw	s11,12(sp)
    2728:	00050c13          	mv	s8,a0
    272c:	00058b13          	mv	s6,a1
    2730:	00000493          	li	s1,0
    2734:	0005de63          	bgez	a1,2750 <__moddi3+0x60>
    2738:	40a00533          	neg	a0,a0
    273c:	00a037b3          	snez	a5,a0
    2740:	40b00933          	neg	s2,a1
    2744:	00050c13          	mv	s8,a0
    2748:	40f90b33          	sub	s6,s2,a5
    274c:	fff00493          	li	s1,-1
    2750:	0006da63          	bgez	a3,2764 <__moddi3+0x74>
    2754:	40c00633          	neg	a2,a2
    2758:	00c037b3          	snez	a5,a2
    275c:	40d006b3          	neg	a3,a3
    2760:	40f686b3          	sub	a3,a3,a5
    2764:	00060a93          	mv	s5,a2
    2768:	00068993          	mv	s3,a3
    276c:	000c0413          	mv	s0,s8
    2770:	000b0913          	mv	s2,s6
    2774:	28069663          	bnez	a3,2a00 <__moddi3+0x310>
    2778:	00004a37          	lui	s4,0x4
    277c:	6e0a0a13          	addi	s4,s4,1760 # 46e0 <__clz_tab>
    2780:	16cb7063          	bgeu	s6,a2,28e0 <__moddi3+0x1f0>
    2784:	000107b7          	lui	a5,0x10
    2788:	14f67263          	bgeu	a2,a5,28cc <__moddi3+0x1dc>
    278c:	0ff00793          	li	a5,255
    2790:	00c7f463          	bgeu	a5,a2,2798 <__moddi3+0xa8>
    2794:	00800993          	li	s3,8
    2798:	013657b3          	srl	a5,a2,s3
    279c:	00fa0a33          	add	s4,s4,a5
    27a0:	000a4783          	lbu	a5,0(s4)
    27a4:	02000513          	li	a0,32
    27a8:	013787b3          	add	a5,a5,s3
    27ac:	40f509b3          	sub	s3,a0,a5
    27b0:	00098c63          	beqz	s3,27c8 <__moddi3+0xd8>
    27b4:	013b16b3          	sll	a3,s6,s3
    27b8:	00fc57b3          	srl	a5,s8,a5
    27bc:	01361ab3          	sll	s5,a2,s3
    27c0:	00d7e933          	or	s2,a5,a3
    27c4:	013c1433          	sll	s0,s8,s3
    27c8:	010adb13          	srli	s6,s5,0x10
    27cc:	000b0593          	mv	a1,s6
    27d0:	00090513          	mv	a0,s2
    27d4:	79d000ef          	jal	ra,3770 <__umodsi3>
    27d8:	00050a13          	mv	s4,a0
    27dc:	000b0593          	mv	a1,s6
    27e0:	010a9b93          	slli	s7,s5,0x10
    27e4:	00090513          	mv	a0,s2
    27e8:	741000ef          	jal	ra,3728 <__udivsi3>
    27ec:	010bdb93          	srli	s7,s7,0x10
    27f0:	00050593          	mv	a1,a0
    27f4:	000b8513          	mv	a0,s7
    27f8:	705000ef          	jal	ra,36fc <__mulsi3>
    27fc:	010a1a13          	slli	s4,s4,0x10
    2800:	01045793          	srli	a5,s0,0x10
    2804:	00fa67b3          	or	a5,s4,a5
    2808:	00a7fa63          	bgeu	a5,a0,281c <__moddi3+0x12c>
    280c:	015787b3          	add	a5,a5,s5
    2810:	0157e663          	bltu	a5,s5,281c <__moddi3+0x12c>
    2814:	00a7f463          	bgeu	a5,a0,281c <__moddi3+0x12c>
    2818:	015787b3          	add	a5,a5,s5
    281c:	40a78933          	sub	s2,a5,a0
    2820:	000b0593          	mv	a1,s6
    2824:	00090513          	mv	a0,s2
    2828:	749000ef          	jal	ra,3770 <__umodsi3>
    282c:	00050a13          	mv	s4,a0
    2830:	000b0593          	mv	a1,s6
    2834:	00090513          	mv	a0,s2
    2838:	6f1000ef          	jal	ra,3728 <__udivsi3>
    283c:	01041413          	slli	s0,s0,0x10
    2840:	00050593          	mv	a1,a0
    2844:	010a1a13          	slli	s4,s4,0x10
    2848:	000b8513          	mv	a0,s7
    284c:	01045413          	srli	s0,s0,0x10
    2850:	6ad000ef          	jal	ra,36fc <__mulsi3>
    2854:	008a6433          	or	s0,s4,s0
    2858:	00a47a63          	bgeu	s0,a0,286c <__moddi3+0x17c>
    285c:	01540433          	add	s0,s0,s5
    2860:	01546663          	bltu	s0,s5,286c <__moddi3+0x17c>
    2864:	00a47463          	bgeu	s0,a0,286c <__moddi3+0x17c>
    2868:	01540433          	add	s0,s0,s5
    286c:	40a40433          	sub	s0,s0,a0
    2870:	01345433          	srl	s0,s0,s3
    2874:	00000593          	li	a1,0
    2878:	00048a63          	beqz	s1,288c <__moddi3+0x19c>
    287c:	40800433          	neg	s0,s0
    2880:	008037b3          	snez	a5,s0
    2884:	40b005b3          	neg	a1,a1
    2888:	40f585b3          	sub	a1,a1,a5
    288c:	00040513          	mv	a0,s0
    2890:	03c12083          	lw	ra,60(sp)
    2894:	03812403          	lw	s0,56(sp)
    2898:	03412483          	lw	s1,52(sp)
    289c:	03012903          	lw	s2,48(sp)
    28a0:	02c12983          	lw	s3,44(sp)
    28a4:	02812a03          	lw	s4,40(sp)
    28a8:	02412a83          	lw	s5,36(sp)
    28ac:	02012b03          	lw	s6,32(sp)
    28b0:	01c12b83          	lw	s7,28(sp)
    28b4:	01812c03          	lw	s8,24(sp)
    28b8:	01412c83          	lw	s9,20(sp)
    28bc:	01012d03          	lw	s10,16(sp)
    28c0:	00c12d83          	lw	s11,12(sp)
    28c4:	04010113          	addi	sp,sp,64
    28c8:	00008067          	ret
    28cc:	010007b7          	lui	a5,0x1000
    28d0:	01000993          	li	s3,16
    28d4:	ecf662e3          	bltu	a2,a5,2798 <__moddi3+0xa8>
    28d8:	01800993          	li	s3,24
    28dc:	ebdff06f          	j	2798 <__moddi3+0xa8>
    28e0:	00061a63          	bnez	a2,28f4 <__moddi3+0x204>
    28e4:	00000593          	li	a1,0
    28e8:	00100513          	li	a0,1
    28ec:	63d000ef          	jal	ra,3728 <__udivsi3>
    28f0:	00050a93          	mv	s5,a0
    28f4:	000107b7          	lui	a5,0x10
    28f8:	0efafa63          	bgeu	s5,a5,29ec <__moddi3+0x2fc>
    28fc:	0ff00793          	li	a5,255
    2900:	0157f463          	bgeu	a5,s5,2908 <__moddi3+0x218>
    2904:	00800993          	li	s3,8
    2908:	013ad7b3          	srl	a5,s5,s3
    290c:	00fa0a33          	add	s4,s4,a5
    2910:	000a4783          	lbu	a5,0(s4)
    2914:	02000513          	li	a0,32
    2918:	415b0933          	sub	s2,s6,s5
    291c:	013787b3          	add	a5,a5,s3
    2920:	40f509b3          	sub	s3,a0,a5
    2924:	ea0982e3          	beqz	s3,27c8 <__moddi3+0xd8>
    2928:	013a9ab3          	sll	s5,s5,s3
    292c:	00fb5cb3          	srl	s9,s6,a5
    2930:	010adb93          	srli	s7,s5,0x10
    2934:	00fc57b3          	srl	a5,s8,a5
    2938:	013b16b3          	sll	a3,s6,s3
    293c:	000b8593          	mv	a1,s7
    2940:	000c8513          	mv	a0,s9
    2944:	00d7e933          	or	s2,a5,a3
    2948:	629000ef          	jal	ra,3770 <__umodsi3>
    294c:	00050a13          	mv	s4,a0
    2950:	000b8593          	mv	a1,s7
    2954:	013c1433          	sll	s0,s8,s3
    2958:	000c8513          	mv	a0,s9
    295c:	010a9c13          	slli	s8,s5,0x10
    2960:	5c9000ef          	jal	ra,3728 <__udivsi3>
    2964:	010c5c13          	srli	s8,s8,0x10
    2968:	00050593          	mv	a1,a0
    296c:	000c0513          	mv	a0,s8
    2970:	58d000ef          	jal	ra,36fc <__mulsi3>
    2974:	010a1a13          	slli	s4,s4,0x10
    2978:	01095793          	srli	a5,s2,0x10
    297c:	00fa67b3          	or	a5,s4,a5
    2980:	00a7fa63          	bgeu	a5,a0,2994 <__moddi3+0x2a4>
    2984:	015787b3          	add	a5,a5,s5
    2988:	0157e663          	bltu	a5,s5,2994 <__moddi3+0x2a4>
    298c:	00a7f463          	bgeu	a5,a0,2994 <__moddi3+0x2a4>
    2990:	015787b3          	add	a5,a5,s5
    2994:	40a78b33          	sub	s6,a5,a0
    2998:	000b8593          	mv	a1,s7
    299c:	000b0513          	mv	a0,s6
    29a0:	5d1000ef          	jal	ra,3770 <__umodsi3>
    29a4:	00050a13          	mv	s4,a0
    29a8:	000b8593          	mv	a1,s7
    29ac:	000b0513          	mv	a0,s6
    29b0:	579000ef          	jal	ra,3728 <__udivsi3>
    29b4:	00050593          	mv	a1,a0
    29b8:	000c0513          	mv	a0,s8
    29bc:	541000ef          	jal	ra,36fc <__mulsi3>
    29c0:	01091693          	slli	a3,s2,0x10
    29c4:	010a1a13          	slli	s4,s4,0x10
    29c8:	0106d693          	srli	a3,a3,0x10
    29cc:	00da66b3          	or	a3,s4,a3
    29d0:	00a6fa63          	bgeu	a3,a0,29e4 <__moddi3+0x2f4>
    29d4:	015686b3          	add	a3,a3,s5
    29d8:	0156e663          	bltu	a3,s5,29e4 <__moddi3+0x2f4>
    29dc:	00a6f463          	bgeu	a3,a0,29e4 <__moddi3+0x2f4>
    29e0:	015686b3          	add	a3,a3,s5
    29e4:	40a68933          	sub	s2,a3,a0
    29e8:	de1ff06f          	j	27c8 <__moddi3+0xd8>
    29ec:	010007b7          	lui	a5,0x1000
    29f0:	01000993          	li	s3,16
    29f4:	f0faeae3          	bltu	s5,a5,2908 <__moddi3+0x218>
    29f8:	01800993          	li	s3,24
    29fc:	f0dff06f          	j	2908 <__moddi3+0x218>
    2a00:	00db7663          	bgeu	s6,a3,2a0c <__moddi3+0x31c>
    2a04:	000b0593          	mv	a1,s6
    2a08:	e71ff06f          	j	2878 <__moddi3+0x188>
    2a0c:	000107b7          	lui	a5,0x10
    2a10:	04f6fa63          	bgeu	a3,a5,2a64 <__moddi3+0x374>
    2a14:	0ff00a93          	li	s5,255
    2a18:	00dab533          	sltu	a0,s5,a3
    2a1c:	00351513          	slli	a0,a0,0x3
    2a20:	00004737          	lui	a4,0x4
    2a24:	00a6d7b3          	srl	a5,a3,a0
    2a28:	6e070713          	addi	a4,a4,1760 # 46e0 <__clz_tab>
    2a2c:	00e787b3          	add	a5,a5,a4
    2a30:	0007ca83          	lbu	s5,0(a5) # 10000 <_end+0x8ec0>
    2a34:	02000593          	li	a1,32
    2a38:	00aa8ab3          	add	s5,s5,a0
    2a3c:	41558a33          	sub	s4,a1,s5
    2a40:	020a1c63          	bnez	s4,2a78 <__moddi3+0x388>
    2a44:	0166e463          	bltu	a3,s6,2a4c <__moddi3+0x35c>
    2a48:	00cc6a63          	bltu	s8,a2,2a5c <__moddi3+0x36c>
    2a4c:	40cc0433          	sub	s0,s8,a2
    2a50:	40db06b3          	sub	a3,s6,a3
    2a54:	008c3933          	sltu	s2,s8,s0
    2a58:	41268933          	sub	s2,a3,s2
    2a5c:	00090593          	mv	a1,s2
    2a60:	e19ff06f          	j	2878 <__moddi3+0x188>
    2a64:	010007b7          	lui	a5,0x1000
    2a68:	01000513          	li	a0,16
    2a6c:	faf6eae3          	bltu	a3,a5,2a20 <__moddi3+0x330>
    2a70:	01800513          	li	a0,24
    2a74:	fadff06f          	j	2a20 <__moddi3+0x330>
    2a78:	015657b3          	srl	a5,a2,s5
    2a7c:	014696b3          	sll	a3,a3,s4
    2a80:	00d7ed33          	or	s10,a5,a3
    2a84:	015b5433          	srl	s0,s6,s5
    2a88:	015c5bb3          	srl	s7,s8,s5
    2a8c:	014c1933          	sll	s2,s8,s4
    2a90:	010d5c13          	srli	s8,s10,0x10
    2a94:	014b16b3          	sll	a3,s6,s4
    2a98:	000c0593          	mv	a1,s8
    2a9c:	00040513          	mv	a0,s0
    2aa0:	00dbebb3          	or	s7,s7,a3
    2aa4:	014619b3          	sll	s3,a2,s4
    2aa8:	4c9000ef          	jal	ra,3770 <__umodsi3>
    2aac:	00050b13          	mv	s6,a0
    2ab0:	000c0593          	mv	a1,s8
    2ab4:	00040513          	mv	a0,s0
    2ab8:	010d1c93          	slli	s9,s10,0x10
    2abc:	46d000ef          	jal	ra,3728 <__udivsi3>
    2ac0:	010cdc93          	srli	s9,s9,0x10
    2ac4:	00050413          	mv	s0,a0
    2ac8:	00050593          	mv	a1,a0
    2acc:	000c8513          	mv	a0,s9
    2ad0:	42d000ef          	jal	ra,36fc <__mulsi3>
    2ad4:	010b1b13          	slli	s6,s6,0x10
    2ad8:	010bd713          	srli	a4,s7,0x10
    2adc:	00eb6733          	or	a4,s6,a4
    2ae0:	00040b13          	mv	s6,s0
    2ae4:	00a77e63          	bgeu	a4,a0,2b00 <__moddi3+0x410>
    2ae8:	01a70733          	add	a4,a4,s10
    2aec:	fff40b13          	addi	s6,s0,-1
    2af0:	01a76863          	bltu	a4,s10,2b00 <__moddi3+0x410>
    2af4:	00a77663          	bgeu	a4,a0,2b00 <__moddi3+0x410>
    2af8:	ffe40b13          	addi	s6,s0,-2
    2afc:	01a70733          	add	a4,a4,s10
    2b00:	40a70433          	sub	s0,a4,a0
    2b04:	000c0593          	mv	a1,s8
    2b08:	00040513          	mv	a0,s0
    2b0c:	465000ef          	jal	ra,3770 <__umodsi3>
    2b10:	00050d93          	mv	s11,a0
    2b14:	000c0593          	mv	a1,s8
    2b18:	00040513          	mv	a0,s0
    2b1c:	40d000ef          	jal	ra,3728 <__udivsi3>
    2b20:	00050593          	mv	a1,a0
    2b24:	00050413          	mv	s0,a0
    2b28:	000c8513          	mv	a0,s9
    2b2c:	3d1000ef          	jal	ra,36fc <__mulsi3>
    2b30:	010b9693          	slli	a3,s7,0x10
    2b34:	010d9d93          	slli	s11,s11,0x10
    2b38:	0106d693          	srli	a3,a3,0x10
    2b3c:	00dde5b3          	or	a1,s11,a3
    2b40:	00040793          	mv	a5,s0
    2b44:	00a5fe63          	bgeu	a1,a0,2b60 <__moddi3+0x470>
    2b48:	01a585b3          	add	a1,a1,s10
    2b4c:	fff40793          	addi	a5,s0,-1
    2b50:	01a5e863          	bltu	a1,s10,2b60 <__moddi3+0x470>
    2b54:	00a5f663          	bgeu	a1,a0,2b60 <__moddi3+0x470>
    2b58:	ffe40793          	addi	a5,s0,-2
    2b5c:	01a585b3          	add	a1,a1,s10
    2b60:	00010337          	lui	t1,0x10
    2b64:	010b1b13          	slli	s6,s6,0x10
    2b68:	00fb6b33          	or	s6,s6,a5
    2b6c:	fff30813          	addi	a6,t1,-1 # ffff <_end+0x8ebf>
    2b70:	010b7733          	and	a4,s6,a6
    2b74:	0109f833          	and	a6,s3,a6
    2b78:	40a58bb3          	sub	s7,a1,a0
    2b7c:	010b5b13          	srli	s6,s6,0x10
    2b80:	0109d893          	srli	a7,s3,0x10
    2b84:	00070513          	mv	a0,a4
    2b88:	00080593          	mv	a1,a6
    2b8c:	371000ef          	jal	ra,36fc <__mulsi3>
    2b90:	00050793          	mv	a5,a0
    2b94:	00088593          	mv	a1,a7
    2b98:	00070513          	mv	a0,a4
    2b9c:	361000ef          	jal	ra,36fc <__mulsi3>
    2ba0:	00050713          	mv	a4,a0
    2ba4:	00080593          	mv	a1,a6
    2ba8:	000b0513          	mv	a0,s6
    2bac:	351000ef          	jal	ra,36fc <__mulsi3>
    2bb0:	00050813          	mv	a6,a0
    2bb4:	00088593          	mv	a1,a7
    2bb8:	000b0513          	mv	a0,s6
    2bbc:	341000ef          	jal	ra,36fc <__mulsi3>
    2bc0:	01070733          	add	a4,a4,a6
    2bc4:	0107d693          	srli	a3,a5,0x10
    2bc8:	00d70733          	add	a4,a4,a3
    2bcc:	01077463          	bgeu	a4,a6,2bd4 <__moddi3+0x4e4>
    2bd0:	00650533          	add	a0,a0,t1
    2bd4:	01075593          	srli	a1,a4,0x10
    2bd8:	00a585b3          	add	a1,a1,a0
    2bdc:	00010537          	lui	a0,0x10
    2be0:	fff50513          	addi	a0,a0,-1 # ffff <_end+0x8ebf>
    2be4:	00a77733          	and	a4,a4,a0
    2be8:	01071713          	slli	a4,a4,0x10
    2bec:	00a7f7b3          	and	a5,a5,a0
    2bf0:	00f707b3          	add	a5,a4,a5
    2bf4:	00bbe663          	bltu	s7,a1,2c00 <__moddi3+0x510>
    2bf8:	00bb9e63          	bne	s7,a1,2c14 <__moddi3+0x524>
    2bfc:	00f97c63          	bgeu	s2,a5,2c14 <__moddi3+0x524>
    2c00:	41378633          	sub	a2,a5,s3
    2c04:	00c7b7b3          	sltu	a5,a5,a2
    2c08:	01a787b3          	add	a5,a5,s10
    2c0c:	40f585b3          	sub	a1,a1,a5
    2c10:	00060793          	mv	a5,a2
    2c14:	40f907b3          	sub	a5,s2,a5
    2c18:	00f93933          	sltu	s2,s2,a5
    2c1c:	40bb85b3          	sub	a1,s7,a1
    2c20:	412585b3          	sub	a1,a1,s2
    2c24:	01559433          	sll	s0,a1,s5
    2c28:	0147d7b3          	srl	a5,a5,s4
    2c2c:	00f46433          	or	s0,s0,a5
    2c30:	0145d5b3          	srl	a1,a1,s4
    2c34:	c45ff06f          	j	2878 <__moddi3+0x188>

00002c38 <__udivdi3>:
    2c38:	fd010113          	addi	sp,sp,-48
    2c3c:	02912223          	sw	s1,36(sp)
    2c40:	01612823          	sw	s6,16(sp)
    2c44:	02112623          	sw	ra,44(sp)
    2c48:	02812423          	sw	s0,40(sp)
    2c4c:	03212023          	sw	s2,32(sp)
    2c50:	01312e23          	sw	s3,28(sp)
    2c54:	01412c23          	sw	s4,24(sp)
    2c58:	01512a23          	sw	s5,20(sp)
    2c5c:	01712623          	sw	s7,12(sp)
    2c60:	01812423          	sw	s8,8(sp)
    2c64:	01912223          	sw	s9,4(sp)
    2c68:	00050b13          	mv	s6,a0
    2c6c:	00058493          	mv	s1,a1
    2c70:	38069c63          	bnez	a3,3008 <__udivdi3+0x3d0>
    2c74:	00004937          	lui	s2,0x4
    2c78:	00060413          	mv	s0,a2
    2c7c:	00050993          	mv	s3,a0
    2c80:	6e090913          	addi	s2,s2,1760 # 46e0 <__clz_tab>
    2c84:	12c5f863          	bgeu	a1,a2,2db4 <__udivdi3+0x17c>
    2c88:	000107b7          	lui	a5,0x10
    2c8c:	00058a93          	mv	s5,a1
    2c90:	10f67863          	bgeu	a2,a5,2da0 <__udivdi3+0x168>
    2c94:	0ff00693          	li	a3,255
    2c98:	00c6b6b3          	sltu	a3,a3,a2
    2c9c:	00369693          	slli	a3,a3,0x3
    2ca0:	00d657b3          	srl	a5,a2,a3
    2ca4:	00f90933          	add	s2,s2,a5
    2ca8:	00094703          	lbu	a4,0(s2)
    2cac:	00d706b3          	add	a3,a4,a3
    2cb0:	02000713          	li	a4,32
    2cb4:	40d70733          	sub	a4,a4,a3
    2cb8:	00070c63          	beqz	a4,2cd0 <__udivdi3+0x98>
    2cbc:	00e494b3          	sll	s1,s1,a4
    2cc0:	00db56b3          	srl	a3,s6,a3
    2cc4:	00e61433          	sll	s0,a2,a4
    2cc8:	0096eab3          	or	s5,a3,s1
    2ccc:	00eb19b3          	sll	s3,s6,a4
    2cd0:	01045b13          	srli	s6,s0,0x10
    2cd4:	000b0593          	mv	a1,s6
    2cd8:	000a8513          	mv	a0,s5
    2cdc:	295000ef          	jal	ra,3770 <__umodsi3>
    2ce0:	00050913          	mv	s2,a0
    2ce4:	000b0593          	mv	a1,s6
    2ce8:	01041b93          	slli	s7,s0,0x10
    2cec:	000a8513          	mv	a0,s5
    2cf0:	239000ef          	jal	ra,3728 <__udivsi3>
    2cf4:	010bdb93          	srli	s7,s7,0x10
    2cf8:	00050493          	mv	s1,a0
    2cfc:	00050593          	mv	a1,a0
    2d00:	000b8513          	mv	a0,s7
    2d04:	1f9000ef          	jal	ra,36fc <__mulsi3>
    2d08:	01091913          	slli	s2,s2,0x10
    2d0c:	0109d713          	srli	a4,s3,0x10
    2d10:	00e96733          	or	a4,s2,a4
    2d14:	00048a13          	mv	s4,s1
    2d18:	00a77e63          	bgeu	a4,a0,2d34 <__udivdi3+0xfc>
    2d1c:	00870733          	add	a4,a4,s0
    2d20:	fff48a13          	addi	s4,s1,-1
    2d24:	00876863          	bltu	a4,s0,2d34 <__udivdi3+0xfc>
    2d28:	00a77663          	bgeu	a4,a0,2d34 <__udivdi3+0xfc>
    2d2c:	ffe48a13          	addi	s4,s1,-2
    2d30:	00870733          	add	a4,a4,s0
    2d34:	40a704b3          	sub	s1,a4,a0
    2d38:	000b0593          	mv	a1,s6
    2d3c:	00048513          	mv	a0,s1
    2d40:	231000ef          	jal	ra,3770 <__umodsi3>
    2d44:	00050913          	mv	s2,a0
    2d48:	000b0593          	mv	a1,s6
    2d4c:	00048513          	mv	a0,s1
    2d50:	1d9000ef          	jal	ra,3728 <__udivsi3>
    2d54:	01099993          	slli	s3,s3,0x10
    2d58:	00050493          	mv	s1,a0
    2d5c:	00050593          	mv	a1,a0
    2d60:	01091913          	slli	s2,s2,0x10
    2d64:	000b8513          	mv	a0,s7
    2d68:	0109d993          	srli	s3,s3,0x10
    2d6c:	191000ef          	jal	ra,36fc <__mulsi3>
    2d70:	013969b3          	or	s3,s2,s3
    2d74:	00048613          	mv	a2,s1
    2d78:	00a9fc63          	bgeu	s3,a0,2d90 <__udivdi3+0x158>
    2d7c:	013409b3          	add	s3,s0,s3
    2d80:	fff48613          	addi	a2,s1,-1
    2d84:	0089e663          	bltu	s3,s0,2d90 <__udivdi3+0x158>
    2d88:	00a9f463          	bgeu	s3,a0,2d90 <__udivdi3+0x158>
    2d8c:	ffe48613          	addi	a2,s1,-2
    2d90:	010a1793          	slli	a5,s4,0x10
    2d94:	00c7e7b3          	or	a5,a5,a2
    2d98:	00000a13          	li	s4,0
    2d9c:	1300006f          	j	2ecc <__udivdi3+0x294>
    2da0:	010007b7          	lui	a5,0x1000
    2da4:	01000693          	li	a3,16
    2da8:	eef66ce3          	bltu	a2,a5,2ca0 <__udivdi3+0x68>
    2dac:	01800693          	li	a3,24
    2db0:	ef1ff06f          	j	2ca0 <__udivdi3+0x68>
    2db4:	00068a13          	mv	s4,a3
    2db8:	00061a63          	bnez	a2,2dcc <__udivdi3+0x194>
    2dbc:	00000593          	li	a1,0
    2dc0:	00100513          	li	a0,1
    2dc4:	165000ef          	jal	ra,3728 <__udivsi3>
    2dc8:	00050413          	mv	s0,a0
    2dcc:	000107b7          	lui	a5,0x10
    2dd0:	12f47c63          	bgeu	s0,a5,2f08 <__udivdi3+0x2d0>
    2dd4:	0ff00793          	li	a5,255
    2dd8:	0087f463          	bgeu	a5,s0,2de0 <__udivdi3+0x1a8>
    2ddc:	00800a13          	li	s4,8
    2de0:	014457b3          	srl	a5,s0,s4
    2de4:	00f90933          	add	s2,s2,a5
    2de8:	00094683          	lbu	a3,0(s2)
    2dec:	02000613          	li	a2,32
    2df0:	014686b3          	add	a3,a3,s4
    2df4:	40d60633          	sub	a2,a2,a3
    2df8:	12061263          	bnez	a2,2f1c <__udivdi3+0x2e4>
    2dfc:	408484b3          	sub	s1,s1,s0
    2e00:	00100a13          	li	s4,1
    2e04:	01045b13          	srli	s6,s0,0x10
    2e08:	000b0593          	mv	a1,s6
    2e0c:	00048513          	mv	a0,s1
    2e10:	161000ef          	jal	ra,3770 <__umodsi3>
    2e14:	00050913          	mv	s2,a0
    2e18:	000b0593          	mv	a1,s6
    2e1c:	00048513          	mv	a0,s1
    2e20:	01041b93          	slli	s7,s0,0x10
    2e24:	105000ef          	jal	ra,3728 <__udivsi3>
    2e28:	010bdb93          	srli	s7,s7,0x10
    2e2c:	00050493          	mv	s1,a0
    2e30:	00050593          	mv	a1,a0
    2e34:	000b8513          	mv	a0,s7
    2e38:	0c5000ef          	jal	ra,36fc <__mulsi3>
    2e3c:	01091913          	slli	s2,s2,0x10
    2e40:	0109d713          	srli	a4,s3,0x10
    2e44:	00e96733          	or	a4,s2,a4
    2e48:	00048a93          	mv	s5,s1
    2e4c:	00a77e63          	bgeu	a4,a0,2e68 <__udivdi3+0x230>
    2e50:	00870733          	add	a4,a4,s0
    2e54:	fff48a93          	addi	s5,s1,-1
    2e58:	00876863          	bltu	a4,s0,2e68 <__udivdi3+0x230>
    2e5c:	00a77663          	bgeu	a4,a0,2e68 <__udivdi3+0x230>
    2e60:	ffe48a93          	addi	s5,s1,-2
    2e64:	00870733          	add	a4,a4,s0
    2e68:	40a704b3          	sub	s1,a4,a0
    2e6c:	000b0593          	mv	a1,s6
    2e70:	00048513          	mv	a0,s1
    2e74:	0fd000ef          	jal	ra,3770 <__umodsi3>
    2e78:	00050913          	mv	s2,a0
    2e7c:	000b0593          	mv	a1,s6
    2e80:	00048513          	mv	a0,s1
    2e84:	0a5000ef          	jal	ra,3728 <__udivsi3>
    2e88:	01099993          	slli	s3,s3,0x10
    2e8c:	00050493          	mv	s1,a0
    2e90:	00050593          	mv	a1,a0
    2e94:	01091913          	slli	s2,s2,0x10
    2e98:	000b8513          	mv	a0,s7
    2e9c:	0109d993          	srli	s3,s3,0x10
    2ea0:	05d000ef          	jal	ra,36fc <__mulsi3>
    2ea4:	013969b3          	or	s3,s2,s3
    2ea8:	00048613          	mv	a2,s1
    2eac:	00a9fc63          	bgeu	s3,a0,2ec4 <__udivdi3+0x28c>
    2eb0:	013409b3          	add	s3,s0,s3
    2eb4:	fff48613          	addi	a2,s1,-1
    2eb8:	0089e663          	bltu	s3,s0,2ec4 <__udivdi3+0x28c>
    2ebc:	00a9f463          	bgeu	s3,a0,2ec4 <__udivdi3+0x28c>
    2ec0:	ffe48613          	addi	a2,s1,-2
    2ec4:	010a9793          	slli	a5,s5,0x10
    2ec8:	00c7e7b3          	or	a5,a5,a2
    2ecc:	00078513          	mv	a0,a5
    2ed0:	000a0593          	mv	a1,s4
    2ed4:	02c12083          	lw	ra,44(sp)
    2ed8:	02812403          	lw	s0,40(sp)
    2edc:	02412483          	lw	s1,36(sp)
    2ee0:	02012903          	lw	s2,32(sp)
    2ee4:	01c12983          	lw	s3,28(sp)
    2ee8:	01812a03          	lw	s4,24(sp)
    2eec:	01412a83          	lw	s5,20(sp)
    2ef0:	01012b03          	lw	s6,16(sp)
    2ef4:	00c12b83          	lw	s7,12(sp)
    2ef8:	00812c03          	lw	s8,8(sp)
    2efc:	00412c83          	lw	s9,4(sp)
    2f00:	03010113          	addi	sp,sp,48
    2f04:	00008067          	ret
    2f08:	010007b7          	lui	a5,0x1000
    2f0c:	01000a13          	li	s4,16
    2f10:	ecf468e3          	bltu	s0,a5,2de0 <__udivdi3+0x1a8>
    2f14:	01800a13          	li	s4,24
    2f18:	ec9ff06f          	j	2de0 <__udivdi3+0x1a8>
    2f1c:	00c41433          	sll	s0,s0,a2
    2f20:	00d4da33          	srl	s4,s1,a3
    2f24:	00cb19b3          	sll	s3,s6,a2
    2f28:	00db56b3          	srl	a3,s6,a3
    2f2c:	01045b13          	srli	s6,s0,0x10
    2f30:	00c494b3          	sll	s1,s1,a2
    2f34:	000b0593          	mv	a1,s6
    2f38:	000a0513          	mv	a0,s4
    2f3c:	0096eab3          	or	s5,a3,s1
    2f40:	031000ef          	jal	ra,3770 <__umodsi3>
    2f44:	00050913          	mv	s2,a0
    2f48:	000b0593          	mv	a1,s6
    2f4c:	000a0513          	mv	a0,s4
    2f50:	01041b93          	slli	s7,s0,0x10
    2f54:	7d4000ef          	jal	ra,3728 <__udivsi3>
    2f58:	010bdb93          	srli	s7,s7,0x10
    2f5c:	00050493          	mv	s1,a0
    2f60:	00050593          	mv	a1,a0
    2f64:	000b8513          	mv	a0,s7
    2f68:	794000ef          	jal	ra,36fc <__mulsi3>
    2f6c:	01091913          	slli	s2,s2,0x10
    2f70:	010ad713          	srli	a4,s5,0x10
    2f74:	00e96733          	or	a4,s2,a4
    2f78:	00048a13          	mv	s4,s1
    2f7c:	00a77e63          	bgeu	a4,a0,2f98 <__udivdi3+0x360>
    2f80:	00870733          	add	a4,a4,s0
    2f84:	fff48a13          	addi	s4,s1,-1
    2f88:	00876863          	bltu	a4,s0,2f98 <__udivdi3+0x360>
    2f8c:	00a77663          	bgeu	a4,a0,2f98 <__udivdi3+0x360>
    2f90:	ffe48a13          	addi	s4,s1,-2
    2f94:	00870733          	add	a4,a4,s0
    2f98:	40a704b3          	sub	s1,a4,a0
    2f9c:	000b0593          	mv	a1,s6
    2fa0:	00048513          	mv	a0,s1
    2fa4:	7cc000ef          	jal	ra,3770 <__umodsi3>
    2fa8:	00050913          	mv	s2,a0
    2fac:	000b0593          	mv	a1,s6
    2fb0:	00048513          	mv	a0,s1
    2fb4:	774000ef          	jal	ra,3728 <__udivsi3>
    2fb8:	00050493          	mv	s1,a0
    2fbc:	00050593          	mv	a1,a0
    2fc0:	000b8513          	mv	a0,s7
    2fc4:	738000ef          	jal	ra,36fc <__mulsi3>
    2fc8:	010a9693          	slli	a3,s5,0x10
    2fcc:	01091913          	slli	s2,s2,0x10
    2fd0:	0106d693          	srli	a3,a3,0x10
    2fd4:	00d967b3          	or	a5,s2,a3
    2fd8:	00048713          	mv	a4,s1
    2fdc:	00a7fe63          	bgeu	a5,a0,2ff8 <__udivdi3+0x3c0>
    2fe0:	008787b3          	add	a5,a5,s0
    2fe4:	fff48713          	addi	a4,s1,-1
    2fe8:	0087e863          	bltu	a5,s0,2ff8 <__udivdi3+0x3c0>
    2fec:	00a7f663          	bgeu	a5,a0,2ff8 <__udivdi3+0x3c0>
    2ff0:	ffe48713          	addi	a4,s1,-2
    2ff4:	008787b3          	add	a5,a5,s0
    2ff8:	010a1a13          	slli	s4,s4,0x10
    2ffc:	40a784b3          	sub	s1,a5,a0
    3000:	00ea6a33          	or	s4,s4,a4
    3004:	e01ff06f          	j	2e04 <__udivdi3+0x1cc>
    3008:	1ed5ec63          	bltu	a1,a3,3200 <__udivdi3+0x5c8>
    300c:	000107b7          	lui	a5,0x10
    3010:	04f6f463          	bgeu	a3,a5,3058 <__udivdi3+0x420>
    3014:	0ff00593          	li	a1,255
    3018:	00d5b533          	sltu	a0,a1,a3
    301c:	00351513          	slli	a0,a0,0x3
    3020:	00004737          	lui	a4,0x4
    3024:	00a6d7b3          	srl	a5,a3,a0
    3028:	6e070713          	addi	a4,a4,1760 # 46e0 <__clz_tab>
    302c:	00e787b3          	add	a5,a5,a4
    3030:	0007c583          	lbu	a1,0(a5) # 10000 <_end+0x8ec0>
    3034:	02000a13          	li	s4,32
    3038:	00a585b3          	add	a1,a1,a0
    303c:	40ba0a33          	sub	s4,s4,a1
    3040:	020a1663          	bnez	s4,306c <__udivdi3+0x434>
    3044:	00100793          	li	a5,1
    3048:	e896e2e3          	bltu	a3,s1,2ecc <__udivdi3+0x294>
    304c:	00cb3633          	sltu	a2,s6,a2
    3050:	00164793          	xori	a5,a2,1
    3054:	e79ff06f          	j	2ecc <__udivdi3+0x294>
    3058:	010007b7          	lui	a5,0x1000
    305c:	01000513          	li	a0,16
    3060:	fcf6e0e3          	bltu	a3,a5,3020 <__udivdi3+0x3e8>
    3064:	01800513          	li	a0,24
    3068:	fb9ff06f          	j	3020 <__udivdi3+0x3e8>
    306c:	00b65ab3          	srl	s5,a2,a1
    3070:	014696b3          	sll	a3,a3,s4
    3074:	00daeab3          	or	s5,s5,a3
    3078:	00b4d933          	srl	s2,s1,a1
    307c:	014497b3          	sll	a5,s1,s4
    3080:	00bb55b3          	srl	a1,s6,a1
    3084:	010adb93          	srli	s7,s5,0x10
    3088:	00f5e4b3          	or	s1,a1,a5
    308c:	00090513          	mv	a0,s2
    3090:	000b8593          	mv	a1,s7
    3094:	014619b3          	sll	s3,a2,s4
    3098:	6d8000ef          	jal	ra,3770 <__umodsi3>
    309c:	00050413          	mv	s0,a0
    30a0:	000b8593          	mv	a1,s7
    30a4:	00090513          	mv	a0,s2
    30a8:	010a9c13          	slli	s8,s5,0x10
    30ac:	67c000ef          	jal	ra,3728 <__udivsi3>
    30b0:	010c5c13          	srli	s8,s8,0x10
    30b4:	00050913          	mv	s2,a0
    30b8:	00050593          	mv	a1,a0
    30bc:	000c0513          	mv	a0,s8
    30c0:	63c000ef          	jal	ra,36fc <__mulsi3>
    30c4:	01041413          	slli	s0,s0,0x10
    30c8:	0104d713          	srli	a4,s1,0x10
    30cc:	00e46733          	or	a4,s0,a4
    30d0:	00090c93          	mv	s9,s2
    30d4:	00a77e63          	bgeu	a4,a0,30f0 <__udivdi3+0x4b8>
    30d8:	01570733          	add	a4,a4,s5
    30dc:	fff90c93          	addi	s9,s2,-1
    30e0:	01576863          	bltu	a4,s5,30f0 <__udivdi3+0x4b8>
    30e4:	00a77663          	bgeu	a4,a0,30f0 <__udivdi3+0x4b8>
    30e8:	ffe90c93          	addi	s9,s2,-2
    30ec:	01570733          	add	a4,a4,s5
    30f0:	40a70933          	sub	s2,a4,a0
    30f4:	000b8593          	mv	a1,s7
    30f8:	00090513          	mv	a0,s2
    30fc:	674000ef          	jal	ra,3770 <__umodsi3>
    3100:	00050413          	mv	s0,a0
    3104:	000b8593          	mv	a1,s7
    3108:	00090513          	mv	a0,s2
    310c:	61c000ef          	jal	ra,3728 <__udivsi3>
    3110:	00050913          	mv	s2,a0
    3114:	00050593          	mv	a1,a0
    3118:	000c0513          	mv	a0,s8
    311c:	5e0000ef          	jal	ra,36fc <__mulsi3>
    3120:	01049793          	slli	a5,s1,0x10
    3124:	01041413          	slli	s0,s0,0x10
    3128:	0107d793          	srli	a5,a5,0x10
    312c:	00f46733          	or	a4,s0,a5
    3130:	00090613          	mv	a2,s2
    3134:	00a77e63          	bgeu	a4,a0,3150 <__udivdi3+0x518>
    3138:	01570733          	add	a4,a4,s5
    313c:	fff90613          	addi	a2,s2,-1
    3140:	01576863          	bltu	a4,s5,3150 <__udivdi3+0x518>
    3144:	00a77663          	bgeu	a4,a0,3150 <__udivdi3+0x518>
    3148:	ffe90613          	addi	a2,s2,-2
    314c:	01570733          	add	a4,a4,s5
    3150:	010c9793          	slli	a5,s9,0x10
    3154:	00010e37          	lui	t3,0x10
    3158:	00c7e7b3          	or	a5,a5,a2
    315c:	fffe0813          	addi	a6,t3,-1 # ffff <_end+0x8ebf>
    3160:	0107f333          	and	t1,a5,a6
    3164:	0109f833          	and	a6,s3,a6
    3168:	40a70733          	sub	a4,a4,a0
    316c:	0107de93          	srli	t4,a5,0x10
    3170:	0109d993          	srli	s3,s3,0x10
    3174:	00030513          	mv	a0,t1
    3178:	00080593          	mv	a1,a6
    317c:	580000ef          	jal	ra,36fc <__mulsi3>
    3180:	00050893          	mv	a7,a0
    3184:	00098593          	mv	a1,s3
    3188:	00030513          	mv	a0,t1
    318c:	570000ef          	jal	ra,36fc <__mulsi3>
    3190:	00050313          	mv	t1,a0
    3194:	00080593          	mv	a1,a6
    3198:	000e8513          	mv	a0,t4
    319c:	560000ef          	jal	ra,36fc <__mulsi3>
    31a0:	00050813          	mv	a6,a0
    31a4:	00098593          	mv	a1,s3
    31a8:	000e8513          	mv	a0,t4
    31ac:	550000ef          	jal	ra,36fc <__mulsi3>
    31b0:	0108d693          	srli	a3,a7,0x10
    31b4:	01030333          	add	t1,t1,a6
    31b8:	006686b3          	add	a3,a3,t1
    31bc:	0106f463          	bgeu	a3,a6,31c4 <__udivdi3+0x58c>
    31c0:	01c50533          	add	a0,a0,t3
    31c4:	0106d613          	srli	a2,a3,0x10
    31c8:	00a60533          	add	a0,a2,a0
    31cc:	02a76663          	bltu	a4,a0,31f8 <__udivdi3+0x5c0>
    31d0:	bca714e3          	bne	a4,a0,2d98 <__udivdi3+0x160>
    31d4:	00010737          	lui	a4,0x10
    31d8:	fff70713          	addi	a4,a4,-1 # ffff <_end+0x8ebf>
    31dc:	00e6f6b3          	and	a3,a3,a4
    31e0:	01069693          	slli	a3,a3,0x10
    31e4:	00e8f8b3          	and	a7,a7,a4
    31e8:	014b1633          	sll	a2,s6,s4
    31ec:	011686b3          	add	a3,a3,a7
    31f0:	00000a13          	li	s4,0
    31f4:	ccd67ce3          	bgeu	a2,a3,2ecc <__udivdi3+0x294>
    31f8:	fff78793          	addi	a5,a5,-1 # ffffff <_end+0xff8ebf>
    31fc:	b9dff06f          	j	2d98 <__udivdi3+0x160>
    3200:	00000a13          	li	s4,0
    3204:	00000793          	li	a5,0
    3208:	cc5ff06f          	j	2ecc <__udivdi3+0x294>

0000320c <__umoddi3>:
    320c:	fd010113          	addi	sp,sp,-48
    3210:	02812423          	sw	s0,40(sp)
    3214:	02912223          	sw	s1,36(sp)
    3218:	01312e23          	sw	s3,28(sp)
    321c:	01612823          	sw	s6,16(sp)
    3220:	02112623          	sw	ra,44(sp)
    3224:	03212023          	sw	s2,32(sp)
    3228:	01412c23          	sw	s4,24(sp)
    322c:	01512a23          	sw	s5,20(sp)
    3230:	01712623          	sw	s7,12(sp)
    3234:	01812423          	sw	s8,8(sp)
    3238:	01912223          	sw	s9,4(sp)
    323c:	01a12023          	sw	s10,0(sp)
    3240:	00050b13          	mv	s6,a0
    3244:	00058993          	mv	s3,a1
    3248:	00050413          	mv	s0,a0
    324c:	00058493          	mv	s1,a1
    3250:	26069c63          	bnez	a3,34c8 <__umoddi3+0x2bc>
    3254:	00004ab7          	lui	s5,0x4
    3258:	00060913          	mv	s2,a2
    325c:	00068a13          	mv	s4,a3
    3260:	6e0a8a93          	addi	s5,s5,1760 # 46e0 <__clz_tab>
    3264:	14c5f263          	bgeu	a1,a2,33a8 <__umoddi3+0x19c>
    3268:	000107b7          	lui	a5,0x10
    326c:	12f67463          	bgeu	a2,a5,3394 <__umoddi3+0x188>
    3270:	0ff00793          	li	a5,255
    3274:	00c7f463          	bgeu	a5,a2,327c <__umoddi3+0x70>
    3278:	00800a13          	li	s4,8
    327c:	014657b3          	srl	a5,a2,s4
    3280:	00fa8ab3          	add	s5,s5,a5
    3284:	000ac703          	lbu	a4,0(s5)
    3288:	02000513          	li	a0,32
    328c:	01470733          	add	a4,a4,s4
    3290:	40e50a33          	sub	s4,a0,a4
    3294:	000a0c63          	beqz	s4,32ac <__umoddi3+0xa0>
    3298:	014995b3          	sll	a1,s3,s4
    329c:	00eb5733          	srl	a4,s6,a4
    32a0:	01461933          	sll	s2,a2,s4
    32a4:	00b764b3          	or	s1,a4,a1
    32a8:	014b1433          	sll	s0,s6,s4
    32ac:	01095a93          	srli	s5,s2,0x10
    32b0:	000a8593          	mv	a1,s5
    32b4:	00048513          	mv	a0,s1
    32b8:	4b8000ef          	jal	ra,3770 <__umodsi3>
    32bc:	00050993          	mv	s3,a0
    32c0:	000a8593          	mv	a1,s5
    32c4:	01091b13          	slli	s6,s2,0x10
    32c8:	00048513          	mv	a0,s1
    32cc:	45c000ef          	jal	ra,3728 <__udivsi3>
    32d0:	010b5b13          	srli	s6,s6,0x10
    32d4:	00050593          	mv	a1,a0
    32d8:	000b0513          	mv	a0,s6
    32dc:	420000ef          	jal	ra,36fc <__mulsi3>
    32e0:	01099993          	slli	s3,s3,0x10
    32e4:	01045793          	srli	a5,s0,0x10
    32e8:	00f9e7b3          	or	a5,s3,a5
    32ec:	00a7fa63          	bgeu	a5,a0,3300 <__umoddi3+0xf4>
    32f0:	012787b3          	add	a5,a5,s2
    32f4:	0127e663          	bltu	a5,s2,3300 <__umoddi3+0xf4>
    32f8:	00a7f463          	bgeu	a5,a0,3300 <__umoddi3+0xf4>
    32fc:	012787b3          	add	a5,a5,s2
    3300:	40a784b3          	sub	s1,a5,a0
    3304:	000a8593          	mv	a1,s5
    3308:	00048513          	mv	a0,s1
    330c:	464000ef          	jal	ra,3770 <__umodsi3>
    3310:	00050993          	mv	s3,a0
    3314:	000a8593          	mv	a1,s5
    3318:	00048513          	mv	a0,s1
    331c:	40c000ef          	jal	ra,3728 <__udivsi3>
    3320:	01041413          	slli	s0,s0,0x10
    3324:	00050593          	mv	a1,a0
    3328:	01099993          	slli	s3,s3,0x10
    332c:	000b0513          	mv	a0,s6
    3330:	01045413          	srli	s0,s0,0x10
    3334:	3c8000ef          	jal	ra,36fc <__mulsi3>
    3338:	0089e433          	or	s0,s3,s0
    333c:	00a47a63          	bgeu	s0,a0,3350 <__umoddi3+0x144>
    3340:	01240433          	add	s0,s0,s2
    3344:	01246663          	bltu	s0,s2,3350 <__umoddi3+0x144>
    3348:	00a47463          	bgeu	s0,a0,3350 <__umoddi3+0x144>
    334c:	01240433          	add	s0,s0,s2
    3350:	40a40433          	sub	s0,s0,a0
    3354:	01445533          	srl	a0,s0,s4
    3358:	00000593          	li	a1,0
    335c:	02c12083          	lw	ra,44(sp)
    3360:	02812403          	lw	s0,40(sp)
    3364:	02412483          	lw	s1,36(sp)
    3368:	02012903          	lw	s2,32(sp)
    336c:	01c12983          	lw	s3,28(sp)
    3370:	01812a03          	lw	s4,24(sp)
    3374:	01412a83          	lw	s5,20(sp)
    3378:	01012b03          	lw	s6,16(sp)
    337c:	00c12b83          	lw	s7,12(sp)
    3380:	00812c03          	lw	s8,8(sp)
    3384:	00412c83          	lw	s9,4(sp)
    3388:	00012d03          	lw	s10,0(sp)
    338c:	03010113          	addi	sp,sp,48
    3390:	00008067          	ret
    3394:	010007b7          	lui	a5,0x1000
    3398:	01000a13          	li	s4,16
    339c:	eef660e3          	bltu	a2,a5,327c <__umoddi3+0x70>
    33a0:	01800a13          	li	s4,24
    33a4:	ed9ff06f          	j	327c <__umoddi3+0x70>
    33a8:	00061a63          	bnez	a2,33bc <__umoddi3+0x1b0>
    33ac:	00000593          	li	a1,0
    33b0:	00100513          	li	a0,1
    33b4:	374000ef          	jal	ra,3728 <__udivsi3>
    33b8:	00050913          	mv	s2,a0
    33bc:	000107b7          	lui	a5,0x10
    33c0:	0ef97a63          	bgeu	s2,a5,34b4 <__umoddi3+0x2a8>
    33c4:	0ff00793          	li	a5,255
    33c8:	0127f463          	bgeu	a5,s2,33d0 <__umoddi3+0x1c4>
    33cc:	00800a13          	li	s4,8
    33d0:	014957b3          	srl	a5,s2,s4
    33d4:	00fa8ab3          	add	s5,s5,a5
    33d8:	000ac703          	lbu	a4,0(s5)
    33dc:	02000513          	li	a0,32
    33e0:	412984b3          	sub	s1,s3,s2
    33e4:	01470733          	add	a4,a4,s4
    33e8:	40e50a33          	sub	s4,a0,a4
    33ec:	ec0a00e3          	beqz	s4,32ac <__umoddi3+0xa0>
    33f0:	01491933          	sll	s2,s2,s4
    33f4:	00e9dab3          	srl	s5,s3,a4
    33f8:	014995b3          	sll	a1,s3,s4
    33fc:	00eb5733          	srl	a4,s6,a4
    3400:	01095493          	srli	s1,s2,0x10
    3404:	00b76bb3          	or	s7,a4,a1
    3408:	000a8513          	mv	a0,s5
    340c:	00048593          	mv	a1,s1
    3410:	360000ef          	jal	ra,3770 <__umodsi3>
    3414:	00050993          	mv	s3,a0
    3418:	00048593          	mv	a1,s1
    341c:	014b1433          	sll	s0,s6,s4
    3420:	000a8513          	mv	a0,s5
    3424:	01091b13          	slli	s6,s2,0x10
    3428:	300000ef          	jal	ra,3728 <__udivsi3>
    342c:	010b5b13          	srli	s6,s6,0x10
    3430:	00050593          	mv	a1,a0
    3434:	000b0513          	mv	a0,s6
    3438:	2c4000ef          	jal	ra,36fc <__mulsi3>
    343c:	01099993          	slli	s3,s3,0x10
    3440:	010bd793          	srli	a5,s7,0x10
    3444:	00f9e7b3          	or	a5,s3,a5
    3448:	00a7fa63          	bgeu	a5,a0,345c <__umoddi3+0x250>
    344c:	012787b3          	add	a5,a5,s2
    3450:	0127e663          	bltu	a5,s2,345c <__umoddi3+0x250>
    3454:	00a7f463          	bgeu	a5,a0,345c <__umoddi3+0x250>
    3458:	012787b3          	add	a5,a5,s2
    345c:	40a78ab3          	sub	s5,a5,a0
    3460:	00048593          	mv	a1,s1
    3464:	000a8513          	mv	a0,s5
    3468:	308000ef          	jal	ra,3770 <__umodsi3>
    346c:	00050993          	mv	s3,a0
    3470:	00048593          	mv	a1,s1
    3474:	000a8513          	mv	a0,s5
    3478:	2b0000ef          	jal	ra,3728 <__udivsi3>
    347c:	00050593          	mv	a1,a0
    3480:	000b0513          	mv	a0,s6
    3484:	278000ef          	jal	ra,36fc <__mulsi3>
    3488:	010b9593          	slli	a1,s7,0x10
    348c:	01099993          	slli	s3,s3,0x10
    3490:	0105d593          	srli	a1,a1,0x10
    3494:	00b9e5b3          	or	a1,s3,a1
    3498:	00a5fa63          	bgeu	a1,a0,34ac <__umoddi3+0x2a0>
    349c:	012585b3          	add	a1,a1,s2
    34a0:	0125e663          	bltu	a1,s2,34ac <__umoddi3+0x2a0>
    34a4:	00a5f463          	bgeu	a1,a0,34ac <__umoddi3+0x2a0>
    34a8:	012585b3          	add	a1,a1,s2
    34ac:	40a584b3          	sub	s1,a1,a0
    34b0:	dfdff06f          	j	32ac <__umoddi3+0xa0>
    34b4:	010007b7          	lui	a5,0x1000
    34b8:	01000a13          	li	s4,16
    34bc:	f0f96ae3          	bltu	s2,a5,33d0 <__umoddi3+0x1c4>
    34c0:	01800a13          	li	s4,24
    34c4:	f0dff06f          	j	33d0 <__umoddi3+0x1c4>
    34c8:	e8d5eae3          	bltu	a1,a3,335c <__umoddi3+0x150>
    34cc:	000107b7          	lui	a5,0x10
    34d0:	04f6fc63          	bgeu	a3,a5,3528 <__umoddi3+0x31c>
    34d4:	0ff00a93          	li	s5,255
    34d8:	00dab533          	sltu	a0,s5,a3
    34dc:	00351513          	slli	a0,a0,0x3
    34e0:	00004737          	lui	a4,0x4
    34e4:	00a6d7b3          	srl	a5,a3,a0
    34e8:	6e070713          	addi	a4,a4,1760 # 46e0 <__clz_tab>
    34ec:	00e787b3          	add	a5,a5,a4
    34f0:	0007ca83          	lbu	s5,0(a5) # 10000 <_end+0x8ec0>
    34f4:	02000593          	li	a1,32
    34f8:	00aa8ab3          	add	s5,s5,a0
    34fc:	41558a33          	sub	s4,a1,s5
    3500:	020a1e63          	bnez	s4,353c <__umoddi3+0x330>
    3504:	0136e463          	bltu	a3,s3,350c <__umoddi3+0x300>
    3508:	00cb6a63          	bltu	s6,a2,351c <__umoddi3+0x310>
    350c:	40cb0433          	sub	s0,s6,a2
    3510:	40d986b3          	sub	a3,s3,a3
    3514:	008b3b33          	sltu	s6,s6,s0
    3518:	416684b3          	sub	s1,a3,s6
    351c:	00040513          	mv	a0,s0
    3520:	00048593          	mv	a1,s1
    3524:	e39ff06f          	j	335c <__umoddi3+0x150>
    3528:	010007b7          	lui	a5,0x1000
    352c:	01000513          	li	a0,16
    3530:	faf6e8e3          	bltu	a3,a5,34e0 <__umoddi3+0x2d4>
    3534:	01800513          	li	a0,24
    3538:	fa9ff06f          	j	34e0 <__umoddi3+0x2d4>
    353c:	014696b3          	sll	a3,a3,s4
    3540:	015657b3          	srl	a5,a2,s5
    3544:	00d7ebb3          	or	s7,a5,a3
    3548:	0159d433          	srl	s0,s3,s5
    354c:	014995b3          	sll	a1,s3,s4
    3550:	015b54b3          	srl	s1,s6,s5
    3554:	010bdc13          	srli	s8,s7,0x10
    3558:	00b4e4b3          	or	s1,s1,a1
    355c:	00040513          	mv	a0,s0
    3560:	000c0593          	mv	a1,s8
    3564:	01461d33          	sll	s10,a2,s4
    3568:	208000ef          	jal	ra,3770 <__umodsi3>
    356c:	00050993          	mv	s3,a0
    3570:	000c0593          	mv	a1,s8
    3574:	00040513          	mv	a0,s0
    3578:	010b9c93          	slli	s9,s7,0x10
    357c:	1ac000ef          	jal	ra,3728 <__udivsi3>
    3580:	010cdc93          	srli	s9,s9,0x10
    3584:	00050413          	mv	s0,a0
    3588:	00050593          	mv	a1,a0
    358c:	000c8513          	mv	a0,s9
    3590:	16c000ef          	jal	ra,36fc <__mulsi3>
    3594:	01099993          	slli	s3,s3,0x10
    3598:	0104d713          	srli	a4,s1,0x10
    359c:	00e9e733          	or	a4,s3,a4
    35a0:	014b1b33          	sll	s6,s6,s4
    35a4:	00040993          	mv	s3,s0
    35a8:	00a77e63          	bgeu	a4,a0,35c4 <__umoddi3+0x3b8>
    35ac:	01770733          	add	a4,a4,s7
    35b0:	fff40993          	addi	s3,s0,-1
    35b4:	01776863          	bltu	a4,s7,35c4 <__umoddi3+0x3b8>
    35b8:	00a77663          	bgeu	a4,a0,35c4 <__umoddi3+0x3b8>
    35bc:	ffe40993          	addi	s3,s0,-2
    35c0:	01770733          	add	a4,a4,s7
    35c4:	40a70933          	sub	s2,a4,a0
    35c8:	000c0593          	mv	a1,s8
    35cc:	00090513          	mv	a0,s2
    35d0:	1a0000ef          	jal	ra,3770 <__umodsi3>
    35d4:	00050413          	mv	s0,a0
    35d8:	000c0593          	mv	a1,s8
    35dc:	00090513          	mv	a0,s2
    35e0:	148000ef          	jal	ra,3728 <__udivsi3>
    35e4:	00050593          	mv	a1,a0
    35e8:	00050913          	mv	s2,a0
    35ec:	000c8513          	mv	a0,s9
    35f0:	10c000ef          	jal	ra,36fc <__mulsi3>
    35f4:	01049593          	slli	a1,s1,0x10
    35f8:	01041413          	slli	s0,s0,0x10
    35fc:	0105d593          	srli	a1,a1,0x10
    3600:	00b465b3          	or	a1,s0,a1
    3604:	00090793          	mv	a5,s2
    3608:	00a5fe63          	bgeu	a1,a0,3624 <__umoddi3+0x418>
    360c:	017585b3          	add	a1,a1,s7
    3610:	fff90793          	addi	a5,s2,-1
    3614:	0175e863          	bltu	a1,s7,3624 <__umoddi3+0x418>
    3618:	00a5f663          	bgeu	a1,a0,3624 <__umoddi3+0x418>
    361c:	ffe90793          	addi	a5,s2,-2
    3620:	017585b3          	add	a1,a1,s7
    3624:	00010e37          	lui	t3,0x10
    3628:	01099993          	slli	s3,s3,0x10
    362c:	00f9e9b3          	or	s3,s3,a5
    3630:	fffe0813          	addi	a6,t3,-1 # ffff <_end+0x8ebf>
    3634:	0109f733          	and	a4,s3,a6
    3638:	010d7833          	and	a6,s10,a6
    363c:	40a584b3          	sub	s1,a1,a0
    3640:	0109d993          	srli	s3,s3,0x10
    3644:	010d5893          	srli	a7,s10,0x10
    3648:	00070513          	mv	a0,a4
    364c:	00080593          	mv	a1,a6
    3650:	0ac000ef          	jal	ra,36fc <__mulsi3>
    3654:	00050793          	mv	a5,a0
    3658:	00088593          	mv	a1,a7
    365c:	00070513          	mv	a0,a4
    3660:	09c000ef          	jal	ra,36fc <__mulsi3>
    3664:	00050313          	mv	t1,a0
    3668:	00080593          	mv	a1,a6
    366c:	00098513          	mv	a0,s3
    3670:	08c000ef          	jal	ra,36fc <__mulsi3>
    3674:	00050813          	mv	a6,a0
    3678:	00088593          	mv	a1,a7
    367c:	00098513          	mv	a0,s3
    3680:	07c000ef          	jal	ra,36fc <__mulsi3>
    3684:	0107d713          	srli	a4,a5,0x10
    3688:	01030333          	add	t1,t1,a6
    368c:	00670733          	add	a4,a4,t1
    3690:	01077463          	bgeu	a4,a6,3698 <__umoddi3+0x48c>
    3694:	01c50533          	add	a0,a0,t3
    3698:	000106b7          	lui	a3,0x10
    369c:	fff68693          	addi	a3,a3,-1 # ffff <_end+0x8ebf>
    36a0:	01075593          	srli	a1,a4,0x10
    36a4:	00d77733          	and	a4,a4,a3
    36a8:	01071713          	slli	a4,a4,0x10
    36ac:	00d7f7b3          	and	a5,a5,a3
    36b0:	00a585b3          	add	a1,a1,a0
    36b4:	00f707b3          	add	a5,a4,a5
    36b8:	00b4e663          	bltu	s1,a1,36c4 <__umoddi3+0x4b8>
    36bc:	00b49e63          	bne	s1,a1,36d8 <__umoddi3+0x4cc>
    36c0:	00fb7c63          	bgeu	s6,a5,36d8 <__umoddi3+0x4cc>
    36c4:	41a78633          	sub	a2,a5,s10
    36c8:	00c7b7b3          	sltu	a5,a5,a2
    36cc:	017787b3          	add	a5,a5,s7
    36d0:	40f585b3          	sub	a1,a1,a5
    36d4:	00060793          	mv	a5,a2
    36d8:	40fb07b3          	sub	a5,s6,a5
    36dc:	00fb3b33          	sltu	s6,s6,a5
    36e0:	40b485b3          	sub	a1,s1,a1
    36e4:	416585b3          	sub	a1,a1,s6
    36e8:	01559433          	sll	s0,a1,s5
    36ec:	0147d7b3          	srl	a5,a5,s4
    36f0:	00f46533          	or	a0,s0,a5
    36f4:	0145d5b3          	srl	a1,a1,s4
    36f8:	c65ff06f          	j	335c <__umoddi3+0x150>

000036fc <__mulsi3>:
    36fc:	00050613          	mv	a2,a0
    3700:	00000513          	li	a0,0
    3704:	0015f693          	andi	a3,a1,1
    3708:	00068463          	beqz	a3,3710 <__mulsi3+0x14>
    370c:	00c50533          	add	a0,a0,a2
    3710:	0015d593          	srli	a1,a1,0x1
    3714:	00161613          	slli	a2,a2,0x1
    3718:	fe0596e3          	bnez	a1,3704 <__mulsi3+0x8>
    371c:	00008067          	ret

00003720 <__divsi3>:
    3720:	06054063          	bltz	a0,3780 <__umodsi3+0x10>
    3724:	0605c663          	bltz	a1,3790 <__umodsi3+0x20>

00003728 <__udivsi3>:
    3728:	00058613          	mv	a2,a1
    372c:	00050593          	mv	a1,a0
    3730:	fff00513          	li	a0,-1
    3734:	02060c63          	beqz	a2,376c <__udivsi3+0x44>
    3738:	00100693          	li	a3,1
    373c:	00b67a63          	bgeu	a2,a1,3750 <__udivsi3+0x28>
    3740:	00c05863          	blez	a2,3750 <__udivsi3+0x28>
    3744:	00161613          	slli	a2,a2,0x1
    3748:	00169693          	slli	a3,a3,0x1
    374c:	feb66ae3          	bltu	a2,a1,3740 <__udivsi3+0x18>
    3750:	00000513          	li	a0,0
    3754:	00c5e663          	bltu	a1,a2,3760 <__udivsi3+0x38>
    3758:	40c585b3          	sub	a1,a1,a2
    375c:	00d56533          	or	a0,a0,a3
    3760:	0016d693          	srli	a3,a3,0x1
    3764:	00165613          	srli	a2,a2,0x1
    3768:	fe0696e3          	bnez	a3,3754 <__udivsi3+0x2c>
    376c:	00008067          	ret

00003770 <__umodsi3>:
    3770:	00008293          	mv	t0,ra
    3774:	fb5ff0ef          	jal	ra,3728 <__udivsi3>
    3778:	00058513          	mv	a0,a1
    377c:	00028067          	jr	t0
    3780:	40a00533          	neg	a0,a0
    3784:	0005d863          	bgez	a1,3794 <__umodsi3+0x24>
    3788:	40b005b3          	neg	a1,a1
    378c:	f9dff06f          	j	3728 <__udivsi3>
    3790:	40b005b3          	neg	a1,a1
    3794:	00008293          	mv	t0,ra
    3798:	f91ff0ef          	jal	ra,3728 <__udivsi3>
    379c:	40a00533          	neg	a0,a0
    37a0:	00028067          	jr	t0

000037a4 <__modsi3>:
    37a4:	00008293          	mv	t0,ra
    37a8:	0005ca63          	bltz	a1,37bc <__modsi3+0x18>
    37ac:	00054c63          	bltz	a0,37c4 <__modsi3+0x20>
    37b0:	f79ff0ef          	jal	ra,3728 <__udivsi3>
    37b4:	00058513          	mv	a0,a1
    37b8:	00028067          	jr	t0
    37bc:	40b005b3          	neg	a1,a1
    37c0:	fe0558e3          	bgez	a0,37b0 <__modsi3+0xc>
    37c4:	40a00533          	neg	a0,a0
    37c8:	f61ff0ef          	jal	ra,3728 <__udivsi3>
    37cc:	40b00533          	neg	a0,a1
    37d0:	00028067          	jr	t0

Disassembly of section .text.startup:

000037d4 <main>:
    37d4:	f8010113          	addi	sp,sp,-128
    37d8:	06112e23          	sw	ra,124(sp)
    37dc:	06812c23          	sw	s0,120(sp)
    37e0:	06912a23          	sw	s1,116(sp)
    37e4:	08010413          	addi	s0,sp,128
    37e8:	07212823          	sw	s2,112(sp)
    37ec:	07312623          	sw	s3,108(sp)
    37f0:	07412423          	sw	s4,104(sp)
    37f4:	07512223          	sw	s5,100(sp)
    37f8:	07612023          	sw	s6,96(sp)
    37fc:	05712e23          	sw	s7,92(sp)
    3800:	05812c23          	sw	s8,88(sp)
    3804:	05912a23          	sw	s9,84(sp)
    3808:	05a12823          	sw	s10,80(sp)
    380c:	fc010113          	addi	sp,sp,-64
    3810:	00000717          	auipc	a4,0x0
    3814:	7c870713          	addi	a4,a4,1992 # 3fd8 <main+0x804>
    3818:	00f10613          	addi	a2,sp,15
    381c:	fc010113          	addi	sp,sp,-64
    3820:	00001797          	auipc	a5,0x1
    3824:	d0078793          	addi	a5,a5,-768 # 4520 <main+0xd4c>
    3828:	00472283          	lw	t0,4(a4)
    382c:	00c72f03          	lw	t5,12(a4)
    3830:	01072e83          	lw	t4,16(a4)
    3834:	01472e03          	lw	t3,20(a4)
    3838:	01872303          	lw	t1,24(a4)
    383c:	00072683          	lw	a3,0(a4)
    3840:	00872f83          	lw	t6,8(a4)
    3844:	01c75883          	lhu	a7,28(a4)
    3848:	01e74803          	lbu	a6,30(a4)
    384c:	00f10713          	addi	a4,sp,15
    3850:	ff077713          	andi	a4,a4,-16
    3854:	0007a583          	lw	a1,0(a5)
    3858:	00200393          	li	t2,2
    385c:	ff067613          	andi	a2,a2,-16
    3860:	00772423          	sw	t2,8(a4)
    3864:	02800393          	li	t2,40
    3868:	00772623          	sw	t2,12(a4)
    386c:	00c72023          	sw	a2,0(a4)
    3870:	00572a23          	sw	t0,20(a4)
    3874:	00d72823          	sw	a3,16(a4)
    3878:	00001397          	auipc	t2,0x1
    387c:	0ec3a423          	sw	a2,232(t2) # 4960 <Next_Ptr_Glob>
    3880:	00072223          	sw	zero,4(a4)
    3884:	00001617          	auipc	a2,0x1
    3888:	0ee62023          	sw	a4,224(a2) # 4964 <Ptr_Glob>
    388c:	0047a503          	lw	a0,4(a5)
    3890:	01f72c23          	sw	t6,24(a4)
    3894:	0147a603          	lw	a2,20(a5)
    3898:	0187a683          	lw	a3,24(a5)
    389c:	01e72e23          	sw	t5,28(a4)
    38a0:	03d72023          	sw	t4,32(a4)
    38a4:	03c72223          	sw	t3,36(a4)
    38a8:	02672423          	sw	t1,40(a4)
    38ac:	03171623          	sh	a7,44(a4)
    38b0:	03070723          	sb	a6,46(a4)
    38b4:	0087a883          	lw	a7,8(a5)
    38b8:	01c7d703          	lhu	a4,28(a5)
    38bc:	00c7a803          	lw	a6,12(a5)
    38c0:	f8b42823          	sw	a1,-112(s0)
    38c4:	0107a583          	lw	a1,16(a5)
    38c8:	01e7c783          	lbu	a5,30(a5)
    38cc:	f8a42a23          	sw	a0,-108(s0)
    38d0:	00001517          	auipc	a0,0x1
    38d4:	97450513          	addi	a0,a0,-1676 # 4244 <main+0xa70>
    38d8:	faf40723          	sb	a5,-82(s0)
    38dc:	00a00793          	li	a5,10
    38e0:	fae41623          	sh	a4,-84(s0)
    38e4:	f9142c23          	sw	a7,-104(s0)
    38e8:	00001717          	auipc	a4,0x1
    38ec:	7af72223          	sw	a5,1956(a4) # 508c <Arr_2_Glob+0x65c>
    38f0:	f9042e23          	sw	a6,-100(s0)
    38f4:	fab42023          	sw	a1,-96(s0)
    38f8:	fac42223          	sw	a2,-92(s0)
    38fc:	fad42423          	sw	a3,-88(s0)
    3900:	919fd0ef          	jal	ra,1218 <debug_printf>
    3904:	00000597          	auipc	a1,0x0
    3908:	6f458593          	addi	a1,a1,1780 # 3ff8 <main+0x824>
    390c:	00000517          	auipc	a0,0x0
    3910:	6fc50513          	addi	a0,a0,1788 # 4008 <main+0x834>
    3914:	905fd0ef          	jal	ra,1218 <debug_printf>
    3918:	00001797          	auipc	a5,0x1
    391c:	03878793          	addi	a5,a5,56 # 4950 <Reg>
    3920:	0007a783          	lw	a5,0(a5)
    3924:	68078e63          	beqz	a5,3fc0 <main+0x7ec>
    3928:	00000517          	auipc	a0,0x0
    392c:	70450513          	addi	a0,a0,1796 # 402c <main+0x858>
    3930:	8e9fd0ef          	jal	ra,1218 <debug_printf>
    3934:	02faf637          	lui	a2,0x2faf
    3938:	08060613          	addi	a2,a2,128 # 2faf080 <_end+0x2fa7f40>
    393c:	00000693          	li	a3,0
    3940:	00000597          	auipc	a1,0x0
    3944:	74858593          	addi	a1,a1,1864 # 4088 <main+0x8b4>
    3948:	00000517          	auipc	a0,0x0
    394c:	74c50513          	addi	a0,a0,1868 # 4094 <main+0x8c0>
    3950:	8c9fd0ef          	jal	ra,1218 <debug_printf>
    3954:	00001517          	auipc	a0,0x1
    3958:	8f050513          	addi	a0,a0,-1808 # 4244 <main+0xa70>
    395c:	8bdfd0ef          	jal	ra,1218 <debug_printf>
    3960:	7d000593          	li	a1,2000
    3964:	00000517          	auipc	a0,0x0
    3968:	74450513          	addi	a0,a0,1860 # 40a8 <main+0x8d4>
    396c:	00001797          	auipc	a5,0x1
    3970:	fe07a023          	sw	zero,-32(a5) # 494c <Done>
    3974:	00100a13          	li	s4,1
    3978:	8a1fd0ef          	jal	ra,1218 <debug_printf>
    397c:	00001997          	auipc	s3,0x1
    3980:	bc498993          	addi	s3,s3,-1084 # 4540 <main+0xd6c>
    3984:	00001a97          	auipc	s5,0x1
    3988:	fe0a8a93          	addi	s5,s5,-32 # 4964 <Ptr_Glob>
    398c:	00200913          	li	s2,2
    3990:	00100b93          	li	s7,1
    3994:	00001b17          	auipc	s6,0x1
    3998:	09cb0b13          	addi	s6,s6,156 # 4a30 <Arr_2_Glob>
    399c:	00001497          	auipc	s1,0x1
    39a0:	bc448493          	addi	s1,s1,-1084 # 4560 <main+0xd8c>
    39a4:	cd9fd0ef          	jal	ra,167c <Proc_5>
    39a8:	ca1fd0ef          	jal	ra,1648 <Proc_4>
    39ac:	0149a603          	lw	a2,20(s3)
    39b0:	01e9c783          	lbu	a5,30(s3)
    39b4:	0009ae83          	lw	t4,0(s3)
    39b8:	0049ae03          	lw	t3,4(s3)
    39bc:	0089a303          	lw	t1,8(s3)
    39c0:	00c9a883          	lw	a7,12(s3)
    39c4:	0109a803          	lw	a6,16(s3)
    39c8:	0189a683          	lw	a3,24(s3)
    39cc:	01c9d703          	lhu	a4,28(s3)
    39d0:	fb040593          	addi	a1,s0,-80
    39d4:	f9040513          	addi	a0,s0,-112
    39d8:	fcc42223          	sw	a2,-60(s0)
    39dc:	fcf40723          	sb	a5,-50(s0)
    39e0:	f9242223          	sw	s2,-124(s0)
    39e4:	fbd42823          	sw	t4,-80(s0)
    39e8:	fbc42a23          	sw	t3,-76(s0)
    39ec:	fa642c23          	sw	t1,-72(s0)
    39f0:	fb142e23          	sw	a7,-68(s0)
    39f4:	fd042023          	sw	a6,-64(s0)
    39f8:	fcd42423          	sw	a3,-56(s0)
    39fc:	fce41623          	sh	a4,-52(s0)
    3a00:	f9742623          	sw	s7,-116(s0)
    3a04:	eecfd0ef          	jal	ra,10f0 <Func_2>
    3a08:	f8442603          	lw	a2,-124(s0)
    3a0c:	00153513          	seqz	a0,a0
    3a10:	00001797          	auipc	a5,0x1
    3a14:	f4a7a423          	sw	a0,-184(a5) # 4958 <Bool_Glob>
    3a18:	02c94a63          	blt	s2,a2,3a4c <main+0x278>
    3a1c:	00261793          	slli	a5,a2,0x2
    3a20:	00c787b3          	add	a5,a5,a2
    3a24:	ffd78793          	addi	a5,a5,-3
    3a28:	00060513          	mv	a0,a2
    3a2c:	00300593          	li	a1,3
    3a30:	f8840613          	addi	a2,s0,-120
    3a34:	f8f42423          	sw	a5,-120(s0)
    3a38:	e10fd0ef          	jal	ra,1048 <Proc_7>
    3a3c:	f8442603          	lw	a2,-124(s0)
    3a40:	00160613          	addi	a2,a2,1
    3a44:	f8c42223          	sw	a2,-124(s0)
    3a48:	fcc95ae3          	bge	s2,a2,3a1c <main+0x248>
    3a4c:	f8842683          	lw	a3,-120(s0)
    3a50:	000b0593          	mv	a1,s6
    3a54:	00001517          	auipc	a0,0x1
    3a58:	f1450513          	addi	a0,a0,-236 # 4968 <Arr_1_Glob>
    3a5c:	dfcfd0ef          	jal	ra,1058 <Proc_8>
    3a60:	000aa503          	lw	a0,0(s5)
    3a64:	04100c13          	li	s8,65
    3a68:	00300c93          	li	s9,3
    3a6c:	a79fd0ef          	jal	ra,14e4 <Proc_1>
    3a70:	00001717          	auipc	a4,0x1
    3a74:	ee474703          	lbu	a4,-284(a4) # 4954 <Ch_2_Glob>
    3a78:	04000793          	li	a5,64
    3a7c:	02e7f663          	bgeu	a5,a4,3aa8 <main+0x2d4>
    3a80:	000c0513          	mv	a0,s8
    3a84:	04300593          	li	a1,67
    3a88:	e44fd0ef          	jal	ra,10cc <Func_1>
    3a8c:	f8c42783          	lw	a5,-116(s0)
    3a90:	001c0713          	addi	a4,s8,1
    3a94:	48f50463          	beq	a0,a5,3f1c <main+0x748>
    3a98:	0ff77c13          	andi	s8,a4,255
    3a9c:	00001797          	auipc	a5,0x1
    3aa0:	eb87c783          	lbu	a5,-328(a5) # 4954 <Ch_2_Glob>
    3aa4:	fd87fee3          	bgeu	a5,s8,3a80 <main+0x2ac>
    3aa8:	f8442583          	lw	a1,-124(s0)
    3aac:	000c8513          	mv	a0,s9
    3ab0:	001a0a13          	addi	s4,s4,1
    3ab4:	c49ff0ef          	jal	ra,36fc <__mulsi3>
    3ab8:	f8842c83          	lw	s9,-120(s0)
    3abc:	00050d13          	mv	s10,a0
    3ac0:	000c8593          	mv	a1,s9
    3ac4:	c5dff0ef          	jal	ra,3720 <__divsi3>
    3ac8:	00050c13          	mv	s8,a0
    3acc:	f8440513          	addi	a0,s0,-124
    3ad0:	f9842223          	sw	s8,-124(s0)
    3ad4:	9a9fd0ef          	jal	ra,147c <Proc_2>
    3ad8:	7d100793          	li	a5,2001
    3adc:	ecfa14e3          	bne	s4,a5,39a4 <main+0x1d0>
    3ae0:	00001797          	auipc	a5,0x1
    3ae4:	e6478793          	addi	a5,a5,-412 # 4944 <End_Time>
    3ae8:	00001717          	auipc	a4,0x1
    3aec:	e6070713          	addi	a4,a4,-416 # 4948 <Begin_Time>
    3af0:	00072703          	lw	a4,0(a4)
    3af4:	0007a783          	lw	a5,0(a5)
    3af8:	4876f937          	lui	s2,0x4876f
    3afc:	80090913          	addi	s2,s2,-2048 # 4876e800 <_end+0x487676c0>
    3b00:	40e787b3          	sub	a5,a5,a4
    3b04:	00001717          	auipc	a4,0x1
    3b08:	e2f72e23          	sw	a5,-452(a4) # 4940 <User_Time>
    3b0c:	01700993          	li	s3,23
    3b10:	7d000b13          	li	s6,2000
    3b14:	48f05063          	blez	a5,3f94 <main+0x7c0>
    3b18:	00100793          	li	a5,1
    3b1c:	00000517          	auipc	a0,0x0
    3b20:	5e850513          	addi	a0,a0,1512 # 4104 <main+0x930>
    3b24:	00001717          	auipc	a4,0x1
    3b28:	e2f72423          	sw	a5,-472(a4) # 494c <Done>
    3b2c:	eecfd0ef          	jal	ra,1218 <debug_printf>
    3b30:	00000517          	auipc	a0,0x0
    3b34:	71450513          	addi	a0,a0,1812 # 4244 <main+0xa70>
    3b38:	ee0fd0ef          	jal	ra,1218 <debug_printf>
    3b3c:	00001797          	auipc	a5,0x1
    3b40:	e2078793          	addi	a5,a5,-480 # 495c <Int_Glob>
    3b44:	0007a583          	lw	a1,0(a5)
    3b48:	00000517          	auipc	a0,0x0
    3b4c:	5f450513          	addi	a0,a0,1524 # 413c <main+0x968>
    3b50:	00001497          	auipc	s1,0x1
    3b54:	e1048493          	addi	s1,s1,-496 # 4960 <Next_Ptr_Glob>
    3b58:	ec0fd0ef          	jal	ra,1218 <debug_printf>
    3b5c:	00500593          	li	a1,5
    3b60:	00000517          	auipc	a0,0x0
    3b64:	5f850513          	addi	a0,a0,1528 # 4158 <main+0x984>
    3b68:	eb0fd0ef          	jal	ra,1218 <debug_printf>
    3b6c:	00001797          	auipc	a5,0x1
    3b70:	dec78793          	addi	a5,a5,-532 # 4958 <Bool_Glob>
    3b74:	0007a583          	lw	a1,0(a5)
    3b78:	00000517          	auipc	a0,0x0
    3b7c:	5fc50513          	addi	a0,a0,1532 # 4174 <main+0x9a0>
    3b80:	419d0cb3          	sub	s9,s10,s9
    3b84:	e94fd0ef          	jal	ra,1218 <debug_printf>
    3b88:	00100593          	li	a1,1
    3b8c:	00000517          	auipc	a0,0x0
    3b90:	5cc50513          	addi	a0,a0,1484 # 4158 <main+0x984>
    3b94:	e84fd0ef          	jal	ra,1218 <debug_printf>
    3b98:	00001597          	auipc	a1,0x1
    3b9c:	dbd5c583          	lbu	a1,-579(a1) # 4955 <Ch_1_Glob>
    3ba0:	00000517          	auipc	a0,0x0
    3ba4:	5f050513          	addi	a0,a0,1520 # 4190 <main+0x9bc>
    3ba8:	e70fd0ef          	jal	ra,1218 <debug_printf>
    3bac:	04100593          	li	a1,65
    3bb0:	00000517          	auipc	a0,0x0
    3bb4:	5fc50513          	addi	a0,a0,1532 # 41ac <main+0x9d8>
    3bb8:	e60fd0ef          	jal	ra,1218 <debug_printf>
    3bbc:	00001597          	auipc	a1,0x1
    3bc0:	d985c583          	lbu	a1,-616(a1) # 4954 <Ch_2_Glob>
    3bc4:	00000517          	auipc	a0,0x0
    3bc8:	60450513          	addi	a0,a0,1540 # 41c8 <main+0x9f4>
    3bcc:	e4cfd0ef          	jal	ra,1218 <debug_printf>
    3bd0:	04200593          	li	a1,66
    3bd4:	00000517          	auipc	a0,0x0
    3bd8:	5d850513          	addi	a0,a0,1496 # 41ac <main+0x9d8>
    3bdc:	e3cfd0ef          	jal	ra,1218 <debug_printf>
    3be0:	00001797          	auipc	a5,0x1
    3be4:	d8878793          	addi	a5,a5,-632 # 4968 <Arr_1_Glob>
    3be8:	0207a583          	lw	a1,32(a5)
    3bec:	00000517          	auipc	a0,0x0
    3bf0:	5f850513          	addi	a0,a0,1528 # 41e4 <main+0xa10>
    3bf4:	e24fd0ef          	jal	ra,1218 <debug_printf>
    3bf8:	00700593          	li	a1,7
    3bfc:	00000517          	auipc	a0,0x0
    3c00:	55c50513          	addi	a0,a0,1372 # 4158 <main+0x984>
    3c04:	e14fd0ef          	jal	ra,1218 <debug_printf>
    3c08:	00001797          	auipc	a5,0x1
    3c0c:	e2878793          	addi	a5,a5,-472 # 4a30 <Arr_2_Glob>
    3c10:	65c7a583          	lw	a1,1628(a5)
    3c14:	00000517          	auipc	a0,0x0
    3c18:	5ec50513          	addi	a0,a0,1516 # 4200 <main+0xa2c>
    3c1c:	dfcfd0ef          	jal	ra,1218 <debug_printf>
    3c20:	00000517          	auipc	a0,0x0
    3c24:	5fc50513          	addi	a0,a0,1532 # 421c <main+0xa48>
    3c28:	df0fd0ef          	jal	ra,1218 <debug_printf>
    3c2c:	00000517          	auipc	a0,0x0
    3c30:	61c50513          	addi	a0,a0,1564 # 4248 <main+0xa74>
    3c34:	de4fd0ef          	jal	ra,1218 <debug_printf>
    3c38:	000aa783          	lw	a5,0(s5)
    3c3c:	00000517          	auipc	a0,0x0
    3c40:	61850513          	addi	a0,a0,1560 # 4254 <main+0xa80>
    3c44:	0007a583          	lw	a1,0(a5)
    3c48:	dd0fd0ef          	jal	ra,1218 <debug_printf>
    3c4c:	00000517          	auipc	a0,0x0
    3c50:	62450513          	addi	a0,a0,1572 # 4270 <main+0xa9c>
    3c54:	dc4fd0ef          	jal	ra,1218 <debug_printf>
    3c58:	000aa783          	lw	a5,0(s5)
    3c5c:	00000517          	auipc	a0,0x0
    3c60:	64850513          	addi	a0,a0,1608 # 42a4 <main+0xad0>
    3c64:	0047a583          	lw	a1,4(a5)
    3c68:	db0fd0ef          	jal	ra,1218 <debug_printf>
    3c6c:	00000593          	li	a1,0
    3c70:	00000517          	auipc	a0,0x0
    3c74:	4e850513          	addi	a0,a0,1256 # 4158 <main+0x984>
    3c78:	da0fd0ef          	jal	ra,1218 <debug_printf>
    3c7c:	000aa783          	lw	a5,0(s5)
    3c80:	00000517          	auipc	a0,0x0
    3c84:	64050513          	addi	a0,a0,1600 # 42c0 <main+0xaec>
    3c88:	0087a583          	lw	a1,8(a5)
    3c8c:	d8cfd0ef          	jal	ra,1218 <debug_printf>
    3c90:	00200593          	li	a1,2
    3c94:	00000517          	auipc	a0,0x0
    3c98:	4c450513          	addi	a0,a0,1220 # 4158 <main+0x984>
    3c9c:	d7cfd0ef          	jal	ra,1218 <debug_printf>
    3ca0:	000aa783          	lw	a5,0(s5)
    3ca4:	00000517          	auipc	a0,0x0
    3ca8:	63850513          	addi	a0,a0,1592 # 42dc <main+0xb08>
    3cac:	00c7a583          	lw	a1,12(a5)
    3cb0:	d68fd0ef          	jal	ra,1218 <debug_printf>
    3cb4:	01100593          	li	a1,17
    3cb8:	00000517          	auipc	a0,0x0
    3cbc:	4a050513          	addi	a0,a0,1184 # 4158 <main+0x984>
    3cc0:	d58fd0ef          	jal	ra,1218 <debug_printf>
    3cc4:	000aa583          	lw	a1,0(s5)
    3cc8:	00000517          	auipc	a0,0x0
    3ccc:	63050513          	addi	a0,a0,1584 # 42f8 <main+0xb24>
    3cd0:	01058593          	addi	a1,a1,16
    3cd4:	d44fd0ef          	jal	ra,1218 <debug_printf>
    3cd8:	00000517          	auipc	a0,0x0
    3cdc:	63c50513          	addi	a0,a0,1596 # 4314 <main+0xb40>
    3ce0:	d38fd0ef          	jal	ra,1218 <debug_printf>
    3ce4:	00000517          	auipc	a0,0x0
    3ce8:	66850513          	addi	a0,a0,1640 # 434c <main+0xb78>
    3cec:	d2cfd0ef          	jal	ra,1218 <debug_printf>
    3cf0:	0004a783          	lw	a5,0(s1)
    3cf4:	00000517          	auipc	a0,0x0
    3cf8:	56050513          	addi	a0,a0,1376 # 4254 <main+0xa80>
    3cfc:	0007a583          	lw	a1,0(a5)
    3d00:	d18fd0ef          	jal	ra,1218 <debug_printf>
    3d04:	00000517          	auipc	a0,0x0
    3d08:	65c50513          	addi	a0,a0,1628 # 4360 <main+0xb8c>
    3d0c:	d0cfd0ef          	jal	ra,1218 <debug_printf>
    3d10:	0004a783          	lw	a5,0(s1)
    3d14:	00000517          	auipc	a0,0x0
    3d18:	59050513          	addi	a0,a0,1424 # 42a4 <main+0xad0>
    3d1c:	0047a583          	lw	a1,4(a5)
    3d20:	cf8fd0ef          	jal	ra,1218 <debug_printf>
    3d24:	00000593          	li	a1,0
    3d28:	00000517          	auipc	a0,0x0
    3d2c:	43050513          	addi	a0,a0,1072 # 4158 <main+0x984>
    3d30:	ce8fd0ef          	jal	ra,1218 <debug_printf>
    3d34:	0004a783          	lw	a5,0(s1)
    3d38:	00000517          	auipc	a0,0x0
    3d3c:	58850513          	addi	a0,a0,1416 # 42c0 <main+0xaec>
    3d40:	0087a583          	lw	a1,8(a5)
    3d44:	cd4fd0ef          	jal	ra,1218 <debug_printf>
    3d48:	00100593          	li	a1,1
    3d4c:	00000517          	auipc	a0,0x0
    3d50:	40c50513          	addi	a0,a0,1036 # 4158 <main+0x984>
    3d54:	cc4fd0ef          	jal	ra,1218 <debug_printf>
    3d58:	0004a783          	lw	a5,0(s1)
    3d5c:	00000517          	auipc	a0,0x0
    3d60:	58050513          	addi	a0,a0,1408 # 42dc <main+0xb08>
    3d64:	00c7a583          	lw	a1,12(a5)
    3d68:	cb0fd0ef          	jal	ra,1218 <debug_printf>
    3d6c:	01200593          	li	a1,18
    3d70:	00000517          	auipc	a0,0x0
    3d74:	3e850513          	addi	a0,a0,1000 # 4158 <main+0x984>
    3d78:	ca0fd0ef          	jal	ra,1218 <debug_printf>
    3d7c:	0004a583          	lw	a1,0(s1)
    3d80:	00000517          	auipc	a0,0x0
    3d84:	57850513          	addi	a0,a0,1400 # 42f8 <main+0xb24>
    3d88:	01058593          	addi	a1,a1,16
    3d8c:	c8cfd0ef          	jal	ra,1218 <debug_printf>
    3d90:	00000517          	auipc	a0,0x0
    3d94:	58450513          	addi	a0,a0,1412 # 4314 <main+0xb40>
    3d98:	c80fd0ef          	jal	ra,1218 <debug_printf>
    3d9c:	f8442583          	lw	a1,-124(s0)
    3da0:	00000517          	auipc	a0,0x0
    3da4:	60050513          	addi	a0,a0,1536 # 43a0 <main+0xbcc>
    3da8:	c70fd0ef          	jal	ra,1218 <debug_printf>
    3dac:	00500593          	li	a1,5
    3db0:	00000517          	auipc	a0,0x0
    3db4:	3a850513          	addi	a0,a0,936 # 4158 <main+0x984>
    3db8:	c60fd0ef          	jal	ra,1218 <debug_printf>
    3dbc:	003c9793          	slli	a5,s9,0x3
    3dc0:	41978cb3          	sub	s9,a5,s9
    3dc4:	418c85b3          	sub	a1,s9,s8
    3dc8:	00000517          	auipc	a0,0x0
    3dcc:	5f450513          	addi	a0,a0,1524 # 43bc <main+0xbe8>
    3dd0:	c48fd0ef          	jal	ra,1218 <debug_printf>
    3dd4:	00d00593          	li	a1,13
    3dd8:	00000517          	auipc	a0,0x0
    3ddc:	38050513          	addi	a0,a0,896 # 4158 <main+0x984>
    3de0:	c38fd0ef          	jal	ra,1218 <debug_printf>
    3de4:	f8842583          	lw	a1,-120(s0)
    3de8:	00000517          	auipc	a0,0x0
    3dec:	5f050513          	addi	a0,a0,1520 # 43d8 <main+0xc04>
    3df0:	c28fd0ef          	jal	ra,1218 <debug_printf>
    3df4:	00700593          	li	a1,7
    3df8:	00000517          	auipc	a0,0x0
    3dfc:	36050513          	addi	a0,a0,864 # 4158 <main+0x984>
    3e00:	c18fd0ef          	jal	ra,1218 <debug_printf>
    3e04:	f8c42583          	lw	a1,-116(s0)
    3e08:	00000517          	auipc	a0,0x0
    3e0c:	5ec50513          	addi	a0,a0,1516 # 43f4 <main+0xc20>
    3e10:	c08fd0ef          	jal	ra,1218 <debug_printf>
    3e14:	00000517          	auipc	a0,0x0
    3e18:	34450513          	addi	a0,a0,836 # 4158 <main+0x984>
    3e1c:	00100593          	li	a1,1
    3e20:	bf8fd0ef          	jal	ra,1218 <debug_printf>
    3e24:	f9040593          	addi	a1,s0,-112
    3e28:	00000517          	auipc	a0,0x0
    3e2c:	5e850513          	addi	a0,a0,1512 # 4410 <main+0xc3c>
    3e30:	be8fd0ef          	jal	ra,1218 <debug_printf>
    3e34:	00000517          	auipc	a0,0x0
    3e38:	5f850513          	addi	a0,a0,1528 # 442c <main+0xc58>
    3e3c:	bdcfd0ef          	jal	ra,1218 <debug_printf>
    3e40:	fb040593          	addi	a1,s0,-80
    3e44:	00000517          	auipc	a0,0x0
    3e48:	62050513          	addi	a0,a0,1568 # 4464 <main+0xc90>
    3e4c:	bccfd0ef          	jal	ra,1218 <debug_printf>
    3e50:	00000517          	auipc	a0,0x0
    3e54:	63050513          	addi	a0,a0,1584 # 4480 <main+0xcac>
    3e58:	bc0fd0ef          	jal	ra,1218 <debug_printf>
    3e5c:	00000517          	auipc	a0,0x0
    3e60:	3e850513          	addi	a0,a0,1000 # 4244 <main+0xa70>
    3e64:	bb4fd0ef          	jal	ra,1218 <debug_printf>
    3e68:	00001797          	auipc	a5,0x1
    3e6c:	ad878793          	addi	a5,a5,-1320 # 4940 <User_Time>
    3e70:	0007aa03          	lw	s4,0(a5)
    3e74:	000b0593          	mv	a1,s6
    3e78:	000a0513          	mv	a0,s4
    3e7c:	8a5ff0ef          	jal	ra,3720 <__divsi3>
    3e80:	03200593          	li	a1,50
    3e84:	89dff0ef          	jal	ra,3720 <__divsi3>
    3e88:	000a0613          	mv	a2,s4
    3e8c:	41fa5693          	srai	a3,s4,0x1f
    3e90:	00050493          	mv	s1,a0
    3e94:	00001797          	auipc	a5,0x1
    3e98:	aaa7a423          	sw	a0,-1368(a5) # 493c <Microseconds>
    3e9c:	00098593          	mv	a1,s3
    3ea0:	00090513          	mv	a0,s2
    3ea4:	a28fe0ef          	jal	ra,20cc <__divdi3>
    3ea8:	00001797          	auipc	a5,0x1
    3eac:	a8a7a823          	sw	a0,-1392(a5) # 4938 <Dhrystones_Per_Second>
    3eb0:	00048593          	mv	a1,s1
    3eb4:	00000517          	auipc	a0,0x0
    3eb8:	60450513          	addi	a0,a0,1540 # 44b8 <main+0xce4>
    3ebc:	850fe0ef          	jal	ra,1f0c <printf>
    3ec0:	00001797          	auipc	a5,0x1
    3ec4:	a7878793          	addi	a5,a5,-1416 # 4938 <Dhrystones_Per_Second>
    3ec8:	0007a583          	lw	a1,0(a5)
    3ecc:	00000517          	auipc	a0,0x0
    3ed0:	62050513          	addi	a0,a0,1568 # 44ec <main+0xd18>
    3ed4:	838fe0ef          	jal	ra,1f0c <printf>
    3ed8:	b68fd0ef          	jal	ra,1240 <simrv_exit>
    3edc:	f8040113          	addi	sp,s0,-128
    3ee0:	07c12083          	lw	ra,124(sp)
    3ee4:	00000513          	li	a0,0
    3ee8:	07812403          	lw	s0,120(sp)
    3eec:	07412483          	lw	s1,116(sp)
    3ef0:	07012903          	lw	s2,112(sp)
    3ef4:	06c12983          	lw	s3,108(sp)
    3ef8:	06812a03          	lw	s4,104(sp)
    3efc:	06412a83          	lw	s5,100(sp)
    3f00:	06012b03          	lw	s6,96(sp)
    3f04:	05c12b83          	lw	s7,92(sp)
    3f08:	05812c03          	lw	s8,88(sp)
    3f0c:	05412c83          	lw	s9,84(sp)
    3f10:	05012d03          	lw	s10,80(sp)
    3f14:	08010113          	addi	sp,sp,128
    3f18:	00008067          	ret
    3f1c:	f8c40593          	addi	a1,s0,-116
    3f20:	00000513          	li	a0,0
    3f24:	a3cfd0ef          	jal	ra,1160 <Proc_6>
    3f28:	01e4c783          	lbu	a5,30(s1)
    3f2c:	0004a303          	lw	t1,0(s1)
    3f30:	0044a883          	lw	a7,4(s1)
    3f34:	0084a803          	lw	a6,8(s1)
    3f38:	00c4a503          	lw	a0,12(s1)
    3f3c:	0104a583          	lw	a1,16(s1)
    3f40:	0144a603          	lw	a2,20(s1)
    3f44:	0184a683          	lw	a3,24(s1)
    3f48:	01c4d703          	lhu	a4,28(s1)
    3f4c:	fcf40723          	sb	a5,-50(s0)
    3f50:	001c0c13          	addi	s8,s8,1
    3f54:	00001797          	auipc	a5,0x1
    3f58:	a147a423          	sw	s4,-1528(a5) # 495c <Int_Glob>
    3f5c:	fa642823          	sw	t1,-80(s0)
    3f60:	fb142a23          	sw	a7,-76(s0)
    3f64:	fb042c23          	sw	a6,-72(s0)
    3f68:	faa42e23          	sw	a0,-68(s0)
    3f6c:	fcb42023          	sw	a1,-64(s0)
    3f70:	fcc42223          	sw	a2,-60(s0)
    3f74:	fcd42423          	sw	a3,-56(s0)
    3f78:	fce41623          	sh	a4,-52(s0)
    3f7c:	0ffc7c13          	andi	s8,s8,255
    3f80:	00001797          	auipc	a5,0x1
    3f84:	9d47c783          	lbu	a5,-1580(a5) # 4954 <Ch_2_Glob>
    3f88:	000a0c93          	mv	s9,s4
    3f8c:	af87fae3          	bgeu	a5,s8,3a80 <main+0x2ac>
    3f90:	b19ff06f          	j	3aa8 <main+0x2d4>
    3f94:	00000517          	auipc	a0,0x0
    3f98:	13850513          	addi	a0,a0,312 # 40cc <main+0x8f8>
    3f9c:	f71fd0ef          	jal	ra,1f0c <printf>
    3fa0:	00000517          	auipc	a0,0x0
    3fa4:	2a450513          	addi	a0,a0,676 # 4244 <main+0xa70>
    3fa8:	00005b37          	lui	s6,0x5
    3fac:	f61fd0ef          	jal	ra,1f0c <printf>
    3fb0:	d4a51937          	lui	s2,0xd4a51
    3fb4:	0e800993          	li	s3,232
    3fb8:	e20b0b13          	addi	s6,s6,-480 # 4e20 <Arr_2_Glob+0x3f0>
    3fbc:	b5dff06f          	j	3b18 <main+0x344>
    3fc0:	00000517          	auipc	a0,0x0
    3fc4:	09850513          	addi	a0,a0,152 # 4058 <main+0x884>
    3fc8:	a50fd0ef          	jal	ra,1218 <debug_printf>
    3fcc:	969ff06f          	j	3934 <main+0x160>
    3fd0:	fff00513          	li	a0,-1
    3fd4:	00008067          	ret
